(lp0
S'https://www.pagina12.com.ar/diario/elpais/index-2014-07-02.html'
p1
aS'https://www.pagina12.com.ar/diario/economia/index-2014-07-02.html'
p2
aS'https://www.pagina12.com.ar/diario/sociedad/index-2014-07-02.html'
p3
aS'https://www.pagina12.com.ar/diario/elpais/index-2014-07-03.html'
p4
aS'https://www.pagina12.com.ar/diario/economia/index-2014-07-03.html'
p5
aS'https://www.pagina12.com.ar/diario/sociedad/index-2014-07-03.html'
p6
aS'https://www.pagina12.com.ar/diario/elpais/index-2014-07-04.html'
p7
aS'https://www.pagina12.com.ar/diario/economia/index-2014-07-04.html'
p8
aS'https://www.pagina12.com.ar/diario/sociedad/index-2014-07-04.html'
p9
aS'https://www.pagina12.com.ar/diario/elpais/index-2014-07-05.html'
p10
aS'https://www.pagina12.com.ar/diario/economia/index-2014-07-05.html'
p11
aS'https://www.pagina12.com.ar/diario/sociedad/index-2014-07-05.html'
p12
aS'https://www.pagina12.com.ar/diario/elpais/index-2014-07-06.html'
p13
aS'https://www.pagina12.com.ar/diario/economia/index-2014-07-06.html'
p14
aS'https://www.pagina12.com.ar/diario/sociedad/index-2014-07-06.html'
p15
aS'https://www.pagina12.com.ar/diario/elpais/index-2014-07-07.html'
p16
aS'https://www.pagina12.com.ar/diario/economia/index-2014-07-07.html'
p17
aS'https://www.pagina12.com.ar/diario/sociedad/index-2014-07-07.html'
p18
aS'https://www.pagina12.com.ar/diario/elpais/index-2014-07-08.html'
p19
aS'https://www.pagina12.com.ar/diario/economia/index-2014-07-08.html'
p20
aS'https://www.pagina12.com.ar/diario/sociedad/index-2014-07-08.html'
p21
aS'https://www.pagina12.com.ar/diario/elpais/index-2014-07-09.html'
p22
aS'https://www.pagina12.com.ar/diario/economia/index-2014-07-09.html'
p23
aS'https://www.pagina12.com.ar/diario/sociedad/index-2014-07-09.html'
p24
aS'https://www.pagina12.com.ar/diario/elpais/index-2014-07-10.html'
p25
aS'https://www.pagina12.com.ar/diario/economia/index-2014-07-10.html'
p26
aS'https://www.pagina12.com.ar/diario/sociedad/index-2014-07-10.html'
p27
aS'https://www.pagina12.com.ar/diario/elpais/index-2014-07-11.html'
p28
aS'https://www.pagina12.com.ar/diario/economia/index-2014-07-11.html'
p29
aS'https://www.pagina12.com.ar/diario/sociedad/index-2014-07-11.html'
p30
aS'https://www.pagina12.com.ar/diario/elpais/index-2014-07-12.html'
p31
aS'https://www.pagina12.com.ar/diario/economia/index-2014-07-12.html'
p32
aS'https://www.pagina12.com.ar/diario/sociedad/index-2014-07-12.html'
p33
aS'https://www.pagina12.com.ar/diario/elpais/index-2014-07-13.html'
p34
aS'https://www.pagina12.com.ar/diario/economia/index-2014-07-13.html'
p35
aS'https://www.pagina12.com.ar/diario/sociedad/index-2014-07-13.html'
p36
aS'https://www.pagina12.com.ar/diario/elpais/index-2014-07-14.html'
p37
aS'https://www.pagina12.com.ar/diario/economia/index-2014-07-14.html'
p38
aS'https://www.pagina12.com.ar/diario/sociedad/index-2014-07-14.html'
p39
aS'https://www.pagina12.com.ar/diario/elpais/index-2014-07-15.html'
p40
aS'https://www.pagina12.com.ar/diario/economia/index-2014-07-15.html'
p41
aS'https://www.pagina12.com.ar/diario/sociedad/index-2014-07-15.html'
p42
aS'https://www.pagina12.com.ar/diario/elpais/index-2014-07-16.html'
p43
aS'https://www.pagina12.com.ar/diario/economia/index-2014-07-16.html'
p44
aS'https://www.pagina12.com.ar/diario/sociedad/index-2014-07-16.html'
p45
aS'https://www.pagina12.com.ar/diario/elpais/index-2014-07-17.html'
p46
aS'https://www.pagina12.com.ar/diario/economia/index-2014-07-17.html'
p47
aS'https://www.pagina12.com.ar/diario/sociedad/index-2014-07-17.html'
p48
aS'https://www.pagina12.com.ar/diario/elpais/index-2014-07-18.html'
p49
aS'https://www.pagina12.com.ar/diario/economia/index-2014-07-18.html'
p50
aS'https://www.pagina12.com.ar/diario/sociedad/index-2014-07-18.html'
p51
aS'https://www.pagina12.com.ar/diario/elpais/index-2014-07-19.html'
p52
aS'https://www.pagina12.com.ar/diario/economia/index-2014-07-19.html'
p53
aS'https://www.pagina12.com.ar/diario/sociedad/index-2014-07-19.html'
p54
aS'https://www.pagina12.com.ar/diario/elpais/index-2014-07-20.html'
p55
aS'https://www.pagina12.com.ar/diario/economia/index-2014-07-20.html'
p56
aS'https://www.pagina12.com.ar/diario/sociedad/index-2014-07-20.html'
p57
aS'https://www.pagina12.com.ar/diario/elpais/index-2014-07-21.html'
p58
aS'https://www.pagina12.com.ar/diario/economia/index-2014-07-21.html'
p59
aS'https://www.pagina12.com.ar/diario/sociedad/index-2014-07-21.html'
p60
aS'https://www.pagina12.com.ar/diario/elpais/index-2014-07-22.html'
p61
aS'https://www.pagina12.com.ar/diario/economia/index-2014-07-22.html'
p62
aS'https://www.pagina12.com.ar/diario/sociedad/index-2014-07-22.html'
p63
aS'https://www.pagina12.com.ar/diario/elpais/index-2014-07-23.html'
p64
aS'https://www.pagina12.com.ar/diario/economia/index-2014-07-23.html'
p65
aS'https://www.pagina12.com.ar/diario/sociedad/index-2014-07-23.html'
p66
aS'https://www.pagina12.com.ar/diario/elpais/index-2014-07-24.html'
p67
aS'https://www.pagina12.com.ar/diario/economia/index-2014-07-24.html'
p68
aS'https://www.pagina12.com.ar/diario/sociedad/index-2014-07-24.html'
p69
aS'https://www.pagina12.com.ar/diario/elpais/index-2014-07-25.html'
p70
aS'https://www.pagina12.com.ar/diario/economia/index-2014-07-25.html'
p71
aS'https://www.pagina12.com.ar/diario/sociedad/index-2014-07-25.html'
p72
aS'https://www.pagina12.com.ar/diario/elpais/index-2014-07-26.html'
p73
aS'https://www.pagina12.com.ar/diario/economia/index-2014-07-26.html'
p74
aS'https://www.pagina12.com.ar/diario/sociedad/index-2014-07-26.html'
p75
aS'https://www.pagina12.com.ar/diario/elpais/index-2014-07-27.html'
p76
aS'https://www.pagina12.com.ar/diario/economia/index-2014-07-27.html'
p77
aS'https://www.pagina12.com.ar/diario/sociedad/index-2014-07-27.html'
p78
aS'https://www.pagina12.com.ar/diario/elpais/index-2014-07-28.html'
p79
aS'https://www.pagina12.com.ar/diario/economia/index-2014-07-28.html'
p80
aS'https://www.pagina12.com.ar/diario/sociedad/index-2014-07-28.html'
p81
aS'https://www.pagina12.com.ar/diario/elpais/index-2014-07-29.html'
p82
aS'https://www.pagina12.com.ar/diario/economia/index-2014-07-29.html'
p83
aS'https://www.pagina12.com.ar/diario/sociedad/index-2014-07-29.html'
p84
aS'https://www.pagina12.com.ar/diario/elpais/index-2014-07-30.html'
p85
aS'https://www.pagina12.com.ar/diario/economia/index-2014-07-30.html'
p86
aS'https://www.pagina12.com.ar/diario/sociedad/index-2014-07-30.html'
p87
aS'https://www.pagina12.com.ar/diario/elpais/index-2014-07-31.html'
p88
aS'https://www.pagina12.com.ar/diario/economia/index-2014-07-31.html'
p89
aS'https://www.pagina12.com.ar/diario/sociedad/index-2014-07-31.html'
p90
aS'https://www.pagina12.com.ar/diario/elpais/index-2014-08-01.html'
p91
aS'https://www.pagina12.com.ar/diario/economia/index-2014-08-01.html'
p92
aS'https://www.pagina12.com.ar/diario/sociedad/index-2014-08-01.html'
p93
aS'https://www.pagina12.com.ar/diario/elpais/index-2014-08-02.html'
p94
aS'https://www.pagina12.com.ar/diario/economia/index-2014-08-02.html'
p95
aS'https://www.pagina12.com.ar/diario/sociedad/index-2014-08-02.html'
p96
aS'https://www.pagina12.com.ar/diario/elpais/index-2014-08-03.html'
p97
aS'https://www.pagina12.com.ar/diario/economia/index-2014-08-03.html'
p98
aS'https://www.pagina12.com.ar/diario/sociedad/index-2014-08-03.html'
p99
aS'https://www.pagina12.com.ar/diario/elpais/index-2014-08-04.html'
p100
aS'https://www.pagina12.com.ar/diario/economia/index-2014-08-04.html'
p101
aS'https://www.pagina12.com.ar/diario/sociedad/index-2014-08-04.html'
p102
aS'https://www.pagina12.com.ar/diario/elpais/index-2014-08-05.html'
p103
aS'https://www.pagina12.com.ar/diario/economia/index-2014-08-05.html'
p104
aS'https://www.pagina12.com.ar/diario/sociedad/index-2014-08-05.html'
p105
aS'https://www.pagina12.com.ar/diario/elpais/index-2014-08-06.html'
p106
aS'https://www.pagina12.com.ar/diario/economia/index-2014-08-06.html'
p107
aS'https://www.pagina12.com.ar/diario/sociedad/index-2014-08-06.html'
p108
aS'https://www.pagina12.com.ar/diario/elpais/index-2014-08-07.html'
p109
aS'https://www.pagina12.com.ar/diario/economia/index-2014-08-07.html'
p110
aS'https://www.pagina12.com.ar/diario/sociedad/index-2014-08-07.html'
p111
aS'https://www.pagina12.com.ar/diario/elpais/index-2014-08-08.html'
p112
aS'https://www.pagina12.com.ar/diario/economia/index-2014-08-08.html'
p113
aS'https://www.pagina12.com.ar/diario/sociedad/index-2014-08-08.html'
p114
aS'https://www.pagina12.com.ar/diario/elpais/index-2014-08-09.html'
p115
aS'https://www.pagina12.com.ar/diario/economia/index-2014-08-09.html'
p116
aS'https://www.pagina12.com.ar/diario/sociedad/index-2014-08-09.html'
p117
aS'https://www.pagina12.com.ar/diario/elpais/index-2014-08-10.html'
p118
aS'https://www.pagina12.com.ar/diario/economia/index-2014-08-10.html'
p119
aS'https://www.pagina12.com.ar/diario/sociedad/index-2014-08-10.html'
p120
aS'https://www.pagina12.com.ar/diario/elpais/index-2014-08-11.html'
p121
aS'https://www.pagina12.com.ar/diario/economia/index-2014-08-11.html'
p122
aS'https://www.pagina12.com.ar/diario/sociedad/index-2014-08-11.html'
p123
aS'https://www.pagina12.com.ar/diario/elpais/index-2014-08-12.html'
p124
aS'https://www.pagina12.com.ar/diario/economia/index-2014-08-12.html'
p125
aS'https://www.pagina12.com.ar/diario/sociedad/index-2014-08-12.html'
p126
aS'https://www.pagina12.com.ar/diario/elpais/index-2014-08-13.html'
p127
aS'https://www.pagina12.com.ar/diario/economia/index-2014-08-13.html'
p128
aS'https://www.pagina12.com.ar/diario/sociedad/index-2014-08-13.html'
p129
aS'https://www.pagina12.com.ar/diario/elpais/index-2014-08-14.html'
p130
aS'https://www.pagina12.com.ar/diario/economia/index-2014-08-14.html'
p131
aS'https://www.pagina12.com.ar/diario/sociedad/index-2014-08-14.html'
p132
aS'https://www.pagina12.com.ar/diario/elpais/index-2014-08-15.html'
p133
aS'https://www.pagina12.com.ar/diario/economia/index-2014-08-15.html'
p134
aS'https://www.pagina12.com.ar/diario/sociedad/index-2014-08-15.html'
p135
aS'https://www.pagina12.com.ar/diario/elpais/index-2014-08-16.html'
p136
aS'https://www.pagina12.com.ar/diario/economia/index-2014-08-16.html'
p137
aS'https://www.pagina12.com.ar/diario/sociedad/index-2014-08-16.html'
p138
aS'https://www.pagina12.com.ar/diario/elpais/index-2014-08-17.html'
p139
aS'https://www.pagina12.com.ar/diario/economia/index-2014-08-17.html'
p140
aS'https://www.pagina12.com.ar/diario/sociedad/index-2014-08-17.html'
p141
aS'https://www.pagina12.com.ar/diario/elpais/index-2014-08-18.html'
p142
aS'https://www.pagina12.com.ar/diario/economia/index-2014-08-18.html'
p143
aS'https://www.pagina12.com.ar/diario/sociedad/index-2014-08-18.html'
p144
aS'https://www.pagina12.com.ar/diario/elpais/index-2014-08-19.html'
p145
aS'https://www.pagina12.com.ar/diario/economia/index-2014-08-19.html'
p146
aS'https://www.pagina12.com.ar/diario/sociedad/index-2014-08-19.html'
p147
aS'https://www.pagina12.com.ar/diario/elpais/index-2014-08-20.html'
p148
aS'https://www.pagina12.com.ar/diario/economia/index-2014-08-20.html'
p149
aS'https://www.pagina12.com.ar/diario/sociedad/index-2014-08-20.html'
p150
aS'https://www.pagina12.com.ar/diario/elpais/index-2014-08-21.html'
p151
aS'https://www.pagina12.com.ar/diario/economia/index-2014-08-21.html'
p152
aS'https://www.pagina12.com.ar/diario/sociedad/index-2014-08-21.html'
p153
aS'https://www.pagina12.com.ar/diario/elpais/index-2014-08-22.html'
p154
aS'https://www.pagina12.com.ar/diario/economia/index-2014-08-22.html'
p155
aS'https://www.pagina12.com.ar/diario/sociedad/index-2014-08-22.html'
p156
aS'https://www.pagina12.com.ar/diario/elpais/index-2014-08-23.html'
p157
aS'https://www.pagina12.com.ar/diario/economia/index-2014-08-23.html'
p158
aS'https://www.pagina12.com.ar/diario/sociedad/index-2014-08-23.html'
p159
aS'https://www.pagina12.com.ar/diario/elpais/index-2014-08-24.html'
p160
aS'https://www.pagina12.com.ar/diario/economia/index-2014-08-24.html'
p161
aS'https://www.pagina12.com.ar/diario/sociedad/index-2014-08-24.html'
p162
aS'https://www.pagina12.com.ar/diario/elpais/index-2014-08-25.html'
p163
aS'https://www.pagina12.com.ar/diario/economia/index-2014-08-25.html'
p164
aS'https://www.pagina12.com.ar/diario/sociedad/index-2014-08-25.html'
p165
aS'https://www.pagina12.com.ar/diario/elpais/index-2014-08-26.html'
p166
aS'https://www.pagina12.com.ar/diario/economia/index-2014-08-26.html'
p167
aS'https://www.pagina12.com.ar/diario/sociedad/index-2014-08-26.html'
p168
aS'https://www.pagina12.com.ar/diario/elpais/index-2014-08-27.html'
p169
aS'https://www.pagina12.com.ar/diario/economia/index-2014-08-27.html'
p170
aS'https://www.pagina12.com.ar/diario/sociedad/index-2014-08-27.html'
p171
aS'https://www.pagina12.com.ar/diario/elpais/index-2014-08-28.html'
p172
aS'https://www.pagina12.com.ar/diario/economia/index-2014-08-28.html'
p173
aS'https://www.pagina12.com.ar/diario/sociedad/index-2014-08-28.html'
p174
aS'https://www.pagina12.com.ar/diario/elpais/index-2014-08-29.html'
p175
aS'https://www.pagina12.com.ar/diario/economia/index-2014-08-29.html'
p176
aS'https://www.pagina12.com.ar/diario/sociedad/index-2014-08-29.html'
p177
aS'https://www.pagina12.com.ar/diario/elpais/index-2014-08-30.html'
p178
aS'https://www.pagina12.com.ar/diario/economia/index-2014-08-30.html'
p179
aS'https://www.pagina12.com.ar/diario/sociedad/index-2014-08-30.html'
p180
aS'https://www.pagina12.com.ar/diario/elpais/index-2014-08-31.html'
p181
aS'https://www.pagina12.com.ar/diario/economia/index-2014-08-31.html'
p182
aS'https://www.pagina12.com.ar/diario/sociedad/index-2014-08-31.html'
p183
aS'https://www.pagina12.com.ar/diario/elpais/index-2014-09-01.html'
p184
aS'https://www.pagina12.com.ar/diario/economia/index-2014-09-01.html'
p185
aS'https://www.pagina12.com.ar/diario/sociedad/index-2014-09-01.html'
p186
aS'https://www.pagina12.com.ar/diario/elpais/index-2014-09-02.html'
p187
aS'https://www.pagina12.com.ar/diario/economia/index-2014-09-02.html'
p188
aS'https://www.pagina12.com.ar/diario/sociedad/index-2014-09-02.html'
p189
aS'https://www.pagina12.com.ar/diario/elpais/index-2014-09-03.html'
p190
aS'https://www.pagina12.com.ar/diario/economia/index-2014-09-03.html'
p191
aS'https://www.pagina12.com.ar/diario/sociedad/index-2014-09-03.html'
p192
aS'https://www.pagina12.com.ar/diario/elpais/index-2014-09-04.html'
p193
aS'https://www.pagina12.com.ar/diario/economia/index-2014-09-04.html'
p194
aS'https://www.pagina12.com.ar/diario/sociedad/index-2014-09-04.html'
p195
aS'https://www.pagina12.com.ar/diario/elpais/index-2014-09-05.html'
p196
aS'https://www.pagina12.com.ar/diario/economia/index-2014-09-05.html'
p197
aS'https://www.pagina12.com.ar/diario/sociedad/index-2014-09-05.html'
p198
aS'https://www.pagina12.com.ar/diario/elpais/index-2014-09-06.html'
p199
aS'https://www.pagina12.com.ar/diario/economia/index-2014-09-06.html'
p200
aS'https://www.pagina12.com.ar/diario/sociedad/index-2014-09-06.html'
p201
aS'https://www.pagina12.com.ar/diario/elpais/index-2014-09-07.html'
p202
aS'https://www.pagina12.com.ar/diario/economia/index-2014-09-07.html'
p203
aS'https://www.pagina12.com.ar/diario/sociedad/index-2014-09-07.html'
p204
aS'https://www.pagina12.com.ar/diario/elpais/index-2014-09-08.html'
p205
aS'https://www.pagina12.com.ar/diario/economia/index-2014-09-08.html'
p206
aS'https://www.pagina12.com.ar/diario/sociedad/index-2014-09-08.html'
p207
aS'https://www.pagina12.com.ar/diario/elpais/index-2014-09-09.html'
p208
aS'https://www.pagina12.com.ar/diario/economia/index-2014-09-09.html'
p209
aS'https://www.pagina12.com.ar/diario/sociedad/index-2014-09-09.html'
p210
aS'https://www.pagina12.com.ar/diario/elpais/index-2014-09-10.html'
p211
aS'https://www.pagina12.com.ar/diario/economia/index-2014-09-10.html'
p212
aS'https://www.pagina12.com.ar/diario/sociedad/index-2014-09-10.html'
p213
aS'https://www.pagina12.com.ar/diario/elpais/index-2014-09-11.html'
p214
aS'https://www.pagina12.com.ar/diario/economia/index-2014-09-11.html'
p215
aS'https://www.pagina12.com.ar/diario/sociedad/index-2014-09-11.html'
p216
aS'https://www.pagina12.com.ar/diario/elpais/index-2014-09-12.html'
p217
aS'https://www.pagina12.com.ar/diario/economia/index-2014-09-12.html'
p218
aS'https://www.pagina12.com.ar/diario/sociedad/index-2014-09-12.html'
p219
aS'https://www.pagina12.com.ar/diario/elpais/index-2014-09-13.html'
p220
aS'https://www.pagina12.com.ar/diario/economia/index-2014-09-13.html'
p221
aS'https://www.pagina12.com.ar/diario/sociedad/index-2014-09-13.html'
p222
aS'https://www.pagina12.com.ar/diario/elpais/index-2014-09-14.html'
p223
aS'https://www.pagina12.com.ar/diario/economia/index-2014-09-14.html'
p224
aS'https://www.pagina12.com.ar/diario/sociedad/index-2014-09-14.html'
p225
aS'https://www.pagina12.com.ar/diario/elpais/index-2014-09-15.html'
p226
aS'https://www.pagina12.com.ar/diario/economia/index-2014-09-15.html'
p227
aS'https://www.pagina12.com.ar/diario/sociedad/index-2014-09-15.html'
p228
aS'https://www.pagina12.com.ar/diario/elpais/index-2014-09-16.html'
p229
aS'https://www.pagina12.com.ar/diario/economia/index-2014-09-16.html'
p230
aS'https://www.pagina12.com.ar/diario/sociedad/index-2014-09-16.html'
p231
aS'https://www.pagina12.com.ar/diario/elpais/index-2014-09-17.html'
p232
aS'https://www.pagina12.com.ar/diario/economia/index-2014-09-17.html'
p233
aS'https://www.pagina12.com.ar/diario/sociedad/index-2014-09-17.html'
p234
aS'https://www.pagina12.com.ar/diario/elpais/index-2014-09-18.html'
p235
aS'https://www.pagina12.com.ar/diario/economia/index-2014-09-18.html'
p236
aS'https://www.pagina12.com.ar/diario/sociedad/index-2014-09-18.html'
p237
aS'https://www.pagina12.com.ar/diario/elpais/index-2014-09-19.html'
p238
aS'https://www.pagina12.com.ar/diario/economia/index-2014-09-19.html'
p239
aS'https://www.pagina12.com.ar/diario/sociedad/index-2014-09-19.html'
p240
aS'https://www.pagina12.com.ar/diario/elpais/index-2014-09-20.html'
p241
aS'https://www.pagina12.com.ar/diario/economia/index-2014-09-20.html'
p242
aS'https://www.pagina12.com.ar/diario/sociedad/index-2014-09-20.html'
p243
aS'https://www.pagina12.com.ar/diario/elpais/index-2014-09-21.html'
p244
aS'https://www.pagina12.com.ar/diario/economia/index-2014-09-21.html'
p245
aS'https://www.pagina12.com.ar/diario/sociedad/index-2014-09-21.html'
p246
aS'https://www.pagina12.com.ar/diario/elpais/index-2014-09-22.html'
p247
aS'https://www.pagina12.com.ar/diario/economia/index-2014-09-22.html'
p248
aS'https://www.pagina12.com.ar/diario/sociedad/index-2014-09-22.html'
p249
aS'https://www.pagina12.com.ar/diario/elpais/index-2014-09-23.html'
p250
aS'https://www.pagina12.com.ar/diario/economia/index-2014-09-23.html'
p251
aS'https://www.pagina12.com.ar/diario/sociedad/index-2014-09-23.html'
p252
aS'https://www.pagina12.com.ar/diario/elpais/index-2014-09-24.html'
p253
aS'https://www.pagina12.com.ar/diario/economia/index-2014-09-24.html'
p254
aS'https://www.pagina12.com.ar/diario/sociedad/index-2014-09-24.html'
p255
aS'https://www.pagina12.com.ar/diario/elpais/index-2014-09-25.html'
p256
aS'https://www.pagina12.com.ar/diario/economia/index-2014-09-25.html'
p257
aS'https://www.pagina12.com.ar/diario/sociedad/index-2014-09-25.html'
p258
aS'https://www.pagina12.com.ar/diario/elpais/index-2014-09-26.html'
p259
aS'https://www.pagina12.com.ar/diario/economia/index-2014-09-26.html'
p260
aS'https://www.pagina12.com.ar/diario/sociedad/index-2014-09-26.html'
p261
aS'https://www.pagina12.com.ar/diario/elpais/index-2014-09-27.html'
p262
aS'https://www.pagina12.com.ar/diario/economia/index-2014-09-27.html'
p263
aS'https://www.pagina12.com.ar/diario/sociedad/index-2014-09-27.html'
p264
aS'https://www.pagina12.com.ar/diario/elpais/index-2014-09-28.html'
p265
aS'https://www.pagina12.com.ar/diario/economia/index-2014-09-28.html'
p266
aS'https://www.pagina12.com.ar/diario/sociedad/index-2014-09-28.html'
p267
aS'https://www.pagina12.com.ar/diario/elpais/index-2014-09-29.html'
p268
aS'https://www.pagina12.com.ar/diario/economia/index-2014-09-29.html'
p269
aS'https://www.pagina12.com.ar/diario/sociedad/index-2014-09-29.html'
p270
aS'https://www.pagina12.com.ar/diario/elpais/index-2014-09-30.html'
p271
aS'https://www.pagina12.com.ar/diario/economia/index-2014-09-30.html'
p272
aS'https://www.pagina12.com.ar/diario/sociedad/index-2014-09-30.html'
p273
aS'https://www.pagina12.com.ar/diario/elpais/index-2014-09-31.html'
p274
aS'https://www.pagina12.com.ar/diario/economia/index-2014-09-31.html'
p275
aS'https://www.pagina12.com.ar/diario/sociedad/index-2014-09-31.html'
p276
aS'https://www.pagina12.com.ar/diario/elpais/index-2014-10-01.html'
p277
aS'https://www.pagina12.com.ar/diario/economia/index-2014-10-01.html'
p278
aS'https://www.pagina12.com.ar/diario/sociedad/index-2014-10-01.html'
p279
aS'https://www.pagina12.com.ar/diario/elpais/index-2014-10-02.html'
p280
aS'https://www.pagina12.com.ar/diario/economia/index-2014-10-02.html'
p281
aS'https://www.pagina12.com.ar/diario/sociedad/index-2014-10-02.html'
p282
aS'https://www.pagina12.com.ar/diario/elpais/index-2014-10-03.html'
p283
aS'https://www.pagina12.com.ar/diario/economia/index-2014-10-03.html'
p284
aS'https://www.pagina12.com.ar/diario/sociedad/index-2014-10-03.html'
p285
aS'https://www.pagina12.com.ar/diario/elpais/index-2014-10-04.html'
p286
aS'https://www.pagina12.com.ar/diario/economia/index-2014-10-04.html'
p287
aS'https://www.pagina12.com.ar/diario/sociedad/index-2014-10-04.html'
p288
aS'https://www.pagina12.com.ar/diario/elpais/index-2014-10-05.html'
p289
aS'https://www.pagina12.com.ar/diario/economia/index-2014-10-05.html'
p290
aS'https://www.pagina12.com.ar/diario/sociedad/index-2014-10-05.html'
p291
aS'https://www.pagina12.com.ar/diario/elpais/index-2014-10-06.html'
p292
aS'https://www.pagina12.com.ar/diario/economia/index-2014-10-06.html'
p293
aS'https://www.pagina12.com.ar/diario/sociedad/index-2014-10-06.html'
p294
aS'https://www.pagina12.com.ar/diario/elpais/index-2014-10-07.html'
p295
aS'https://www.pagina12.com.ar/diario/economia/index-2014-10-07.html'
p296
aS'https://www.pagina12.com.ar/diario/sociedad/index-2014-10-07.html'
p297
aS'https://www.pagina12.com.ar/diario/elpais/index-2014-10-08.html'
p298
aS'https://www.pagina12.com.ar/diario/economia/index-2014-10-08.html'
p299
aS'https://www.pagina12.com.ar/diario/sociedad/index-2014-10-08.html'
p300
aS'https://www.pagina12.com.ar/diario/elpais/index-2014-10-09.html'
p301
aS'https://www.pagina12.com.ar/diario/economia/index-2014-10-09.html'
p302
aS'https://www.pagina12.com.ar/diario/sociedad/index-2014-10-09.html'
p303
aS'https://www.pagina12.com.ar/diario/elpais/index-2014-10-10.html'
p304
aS'https://www.pagina12.com.ar/diario/economia/index-2014-10-10.html'
p305
aS'https://www.pagina12.com.ar/diario/sociedad/index-2014-10-10.html'
p306
aS'https://www.pagina12.com.ar/diario/elpais/index-2014-10-11.html'
p307
aS'https://www.pagina12.com.ar/diario/economia/index-2014-10-11.html'
p308
aS'https://www.pagina12.com.ar/diario/sociedad/index-2014-10-11.html'
p309
aS'https://www.pagina12.com.ar/diario/elpais/index-2014-10-12.html'
p310
aS'https://www.pagina12.com.ar/diario/economia/index-2014-10-12.html'
p311
aS'https://www.pagina12.com.ar/diario/sociedad/index-2014-10-12.html'
p312
aS'https://www.pagina12.com.ar/diario/elpais/index-2014-10-13.html'
p313
aS'https://www.pagina12.com.ar/diario/economia/index-2014-10-13.html'
p314
aS'https://www.pagina12.com.ar/diario/sociedad/index-2014-10-13.html'
p315
aS'https://www.pagina12.com.ar/diario/elpais/index-2014-10-14.html'
p316
aS'https://www.pagina12.com.ar/diario/economia/index-2014-10-14.html'
p317
aS'https://www.pagina12.com.ar/diario/sociedad/index-2014-10-14.html'
p318
aS'https://www.pagina12.com.ar/diario/elpais/index-2014-10-15.html'
p319
aS'https://www.pagina12.com.ar/diario/economia/index-2014-10-15.html'
p320
aS'https://www.pagina12.com.ar/diario/sociedad/index-2014-10-15.html'
p321
aS'https://www.pagina12.com.ar/diario/elpais/index-2014-10-16.html'
p322
aS'https://www.pagina12.com.ar/diario/economia/index-2014-10-16.html'
p323
aS'https://www.pagina12.com.ar/diario/sociedad/index-2014-10-16.html'
p324
aS'https://www.pagina12.com.ar/diario/elpais/index-2014-10-17.html'
p325
aS'https://www.pagina12.com.ar/diario/economia/index-2014-10-17.html'
p326
aS'https://www.pagina12.com.ar/diario/sociedad/index-2014-10-17.html'
p327
aS'https://www.pagina12.com.ar/diario/elpais/index-2014-10-18.html'
p328
aS'https://www.pagina12.com.ar/diario/economia/index-2014-10-18.html'
p329
aS'https://www.pagina12.com.ar/diario/sociedad/index-2014-10-18.html'
p330
aS'https://www.pagina12.com.ar/diario/elpais/index-2014-10-19.html'
p331
aS'https://www.pagina12.com.ar/diario/economia/index-2014-10-19.html'
p332
aS'https://www.pagina12.com.ar/diario/sociedad/index-2014-10-19.html'
p333
aS'https://www.pagina12.com.ar/diario/elpais/index-2014-10-20.html'
p334
aS'https://www.pagina12.com.ar/diario/economia/index-2014-10-20.html'
p335
aS'https://www.pagina12.com.ar/diario/sociedad/index-2014-10-20.html'
p336
aS'https://www.pagina12.com.ar/diario/elpais/index-2014-10-21.html'
p337
aS'https://www.pagina12.com.ar/diario/economia/index-2014-10-21.html'
p338
aS'https://www.pagina12.com.ar/diario/sociedad/index-2014-10-21.html'
p339
aS'https://www.pagina12.com.ar/diario/elpais/index-2014-10-22.html'
p340
aS'https://www.pagina12.com.ar/diario/economia/index-2014-10-22.html'
p341
aS'https://www.pagina12.com.ar/diario/sociedad/index-2014-10-22.html'
p342
aS'https://www.pagina12.com.ar/diario/elpais/index-2014-10-23.html'
p343
aS'https://www.pagina12.com.ar/diario/economia/index-2014-10-23.html'
p344
aS'https://www.pagina12.com.ar/diario/sociedad/index-2014-10-23.html'
p345
aS'https://www.pagina12.com.ar/diario/elpais/index-2014-10-24.html'
p346
aS'https://www.pagina12.com.ar/diario/economia/index-2014-10-24.html'
p347
aS'https://www.pagina12.com.ar/diario/sociedad/index-2014-10-24.html'
p348
aS'https://www.pagina12.com.ar/diario/elpais/index-2014-10-25.html'
p349
aS'https://www.pagina12.com.ar/diario/economia/index-2014-10-25.html'
p350
aS'https://www.pagina12.com.ar/diario/sociedad/index-2014-10-25.html'
p351
aS'https://www.pagina12.com.ar/diario/elpais/index-2014-10-26.html'
p352
aS'https://www.pagina12.com.ar/diario/economia/index-2014-10-26.html'
p353
aS'https://www.pagina12.com.ar/diario/sociedad/index-2014-10-26.html'
p354
aS'https://www.pagina12.com.ar/diario/elpais/index-2014-10-27.html'
p355
aS'https://www.pagina12.com.ar/diario/economia/index-2014-10-27.html'
p356
aS'https://www.pagina12.com.ar/diario/sociedad/index-2014-10-27.html'
p357
aS'https://www.pagina12.com.ar/diario/elpais/index-2014-10-28.html'
p358
aS'https://www.pagina12.com.ar/diario/economia/index-2014-10-28.html'
p359
aS'https://www.pagina12.com.ar/diario/sociedad/index-2014-10-28.html'
p360
aS'https://www.pagina12.com.ar/diario/elpais/index-2014-10-29.html'
p361
aS'https://www.pagina12.com.ar/diario/economia/index-2014-10-29.html'
p362
aS'https://www.pagina12.com.ar/diario/sociedad/index-2014-10-29.html'
p363
aS'https://www.pagina12.com.ar/diario/elpais/index-2014-10-30.html'
p364
aS'https://www.pagina12.com.ar/diario/economia/index-2014-10-30.html'
p365
aS'https://www.pagina12.com.ar/diario/sociedad/index-2014-10-30.html'
p366
aS'https://www.pagina12.com.ar/diario/elpais/index-2014-10-31.html'
p367
aS'https://www.pagina12.com.ar/diario/economia/index-2014-10-31.html'
p368
aS'https://www.pagina12.com.ar/diario/sociedad/index-2014-10-31.html'
p369
aS'https://www.pagina12.com.ar/diario/elpais/index-2014-11-01.html'
p370
aS'https://www.pagina12.com.ar/diario/economia/index-2014-11-01.html'
p371
aS'https://www.pagina12.com.ar/diario/sociedad/index-2014-11-01.html'
p372
aS'https://www.pagina12.com.ar/diario/elpais/index-2014-11-02.html'
p373
aS'https://www.pagina12.com.ar/diario/economia/index-2014-11-02.html'
p374
aS'https://www.pagina12.com.ar/diario/sociedad/index-2014-11-02.html'
p375
aS'https://www.pagina12.com.ar/diario/elpais/index-2014-11-03.html'
p376
aS'https://www.pagina12.com.ar/diario/economia/index-2014-11-03.html'
p377
aS'https://www.pagina12.com.ar/diario/sociedad/index-2014-11-03.html'
p378
aS'https://www.pagina12.com.ar/diario/elpais/index-2014-11-04.html'
p379
aS'https://www.pagina12.com.ar/diario/economia/index-2014-11-04.html'
p380
aS'https://www.pagina12.com.ar/diario/sociedad/index-2014-11-04.html'
p381
aS'https://www.pagina12.com.ar/diario/elpais/index-2014-11-05.html'
p382
aS'https://www.pagina12.com.ar/diario/economia/index-2014-11-05.html'
p383
aS'https://www.pagina12.com.ar/diario/sociedad/index-2014-11-05.html'
p384
aS'https://www.pagina12.com.ar/diario/elpais/index-2014-11-06.html'
p385
aS'https://www.pagina12.com.ar/diario/economia/index-2014-11-06.html'
p386
aS'https://www.pagina12.com.ar/diario/sociedad/index-2014-11-06.html'
p387
aS'https://www.pagina12.com.ar/diario/elpais/index-2014-11-07.html'
p388
aS'https://www.pagina12.com.ar/diario/economia/index-2014-11-07.html'
p389
aS'https://www.pagina12.com.ar/diario/sociedad/index-2014-11-07.html'
p390
aS'https://www.pagina12.com.ar/diario/elpais/index-2014-11-08.html'
p391
aS'https://www.pagina12.com.ar/diario/economia/index-2014-11-08.html'
p392
aS'https://www.pagina12.com.ar/diario/sociedad/index-2014-11-08.html'
p393
aS'https://www.pagina12.com.ar/diario/elpais/index-2014-11-09.html'
p394
aS'https://www.pagina12.com.ar/diario/economia/index-2014-11-09.html'
p395
aS'https://www.pagina12.com.ar/diario/sociedad/index-2014-11-09.html'
p396
aS'https://www.pagina12.com.ar/diario/elpais/index-2014-11-10.html'
p397
aS'https://www.pagina12.com.ar/diario/economia/index-2014-11-10.html'
p398
aS'https://www.pagina12.com.ar/diario/sociedad/index-2014-11-10.html'
p399
aS'https://www.pagina12.com.ar/diario/elpais/index-2014-11-11.html'
p400
aS'https://www.pagina12.com.ar/diario/economia/index-2014-11-11.html'
p401
aS'https://www.pagina12.com.ar/diario/sociedad/index-2014-11-11.html'
p402
aS'https://www.pagina12.com.ar/diario/elpais/index-2014-11-12.html'
p403
aS'https://www.pagina12.com.ar/diario/economia/index-2014-11-12.html'
p404
aS'https://www.pagina12.com.ar/diario/sociedad/index-2014-11-12.html'
p405
aS'https://www.pagina12.com.ar/diario/elpais/index-2014-11-13.html'
p406
aS'https://www.pagina12.com.ar/diario/economia/index-2014-11-13.html'
p407
aS'https://www.pagina12.com.ar/diario/sociedad/index-2014-11-13.html'
p408
aS'https://www.pagina12.com.ar/diario/elpais/index-2014-11-14.html'
p409
aS'https://www.pagina12.com.ar/diario/economia/index-2014-11-14.html'
p410
aS'https://www.pagina12.com.ar/diario/sociedad/index-2014-11-14.html'
p411
aS'https://www.pagina12.com.ar/diario/elpais/index-2014-11-15.html'
p412
aS'https://www.pagina12.com.ar/diario/economia/index-2014-11-15.html'
p413
aS'https://www.pagina12.com.ar/diario/sociedad/index-2014-11-15.html'
p414
aS'https://www.pagina12.com.ar/diario/elpais/index-2014-11-16.html'
p415
aS'https://www.pagina12.com.ar/diario/economia/index-2014-11-16.html'
p416
aS'https://www.pagina12.com.ar/diario/sociedad/index-2014-11-16.html'
p417
aS'https://www.pagina12.com.ar/diario/elpais/index-2014-11-17.html'
p418
aS'https://www.pagina12.com.ar/diario/economia/index-2014-11-17.html'
p419
aS'https://www.pagina12.com.ar/diario/sociedad/index-2014-11-17.html'
p420
aS'https://www.pagina12.com.ar/diario/elpais/index-2014-11-18.html'
p421
aS'https://www.pagina12.com.ar/diario/economia/index-2014-11-18.html'
p422
aS'https://www.pagina12.com.ar/diario/sociedad/index-2014-11-18.html'
p423
aS'https://www.pagina12.com.ar/diario/elpais/index-2014-11-19.html'
p424
aS'https://www.pagina12.com.ar/diario/economia/index-2014-11-19.html'
p425
aS'https://www.pagina12.com.ar/diario/sociedad/index-2014-11-19.html'
p426
aS'https://www.pagina12.com.ar/diario/elpais/index-2014-11-20.html'
p427
aS'https://www.pagina12.com.ar/diario/economia/index-2014-11-20.html'
p428
aS'https://www.pagina12.com.ar/diario/sociedad/index-2014-11-20.html'
p429
aS'https://www.pagina12.com.ar/diario/elpais/index-2014-11-21.html'
p430
aS'https://www.pagina12.com.ar/diario/economia/index-2014-11-21.html'
p431
aS'https://www.pagina12.com.ar/diario/sociedad/index-2014-11-21.html'
p432
aS'https://www.pagina12.com.ar/diario/elpais/index-2014-11-22.html'
p433
aS'https://www.pagina12.com.ar/diario/economia/index-2014-11-22.html'
p434
aS'https://www.pagina12.com.ar/diario/sociedad/index-2014-11-22.html'
p435
aS'https://www.pagina12.com.ar/diario/elpais/index-2014-11-23.html'
p436
aS'https://www.pagina12.com.ar/diario/economia/index-2014-11-23.html'
p437
aS'https://www.pagina12.com.ar/diario/sociedad/index-2014-11-23.html'
p438
aS'https://www.pagina12.com.ar/diario/elpais/index-2014-11-24.html'
p439
aS'https://www.pagina12.com.ar/diario/economia/index-2014-11-24.html'
p440
aS'https://www.pagina12.com.ar/diario/sociedad/index-2014-11-24.html'
p441
aS'https://www.pagina12.com.ar/diario/elpais/index-2014-11-25.html'
p442
aS'https://www.pagina12.com.ar/diario/economia/index-2014-11-25.html'
p443
aS'https://www.pagina12.com.ar/diario/sociedad/index-2014-11-25.html'
p444
aS'https://www.pagina12.com.ar/diario/elpais/index-2014-11-26.html'
p445
aS'https://www.pagina12.com.ar/diario/economia/index-2014-11-26.html'
p446
aS'https://www.pagina12.com.ar/diario/sociedad/index-2014-11-26.html'
p447
aS'https://www.pagina12.com.ar/diario/elpais/index-2014-11-27.html'
p448
aS'https://www.pagina12.com.ar/diario/economia/index-2014-11-27.html'
p449
aS'https://www.pagina12.com.ar/diario/sociedad/index-2014-11-27.html'
p450
aS'https://www.pagina12.com.ar/diario/elpais/index-2014-11-28.html'
p451
aS'https://www.pagina12.com.ar/diario/economia/index-2014-11-28.html'
p452
aS'https://www.pagina12.com.ar/diario/sociedad/index-2014-11-28.html'
p453
aS'https://www.pagina12.com.ar/diario/elpais/index-2014-11-29.html'
p454
aS'https://www.pagina12.com.ar/diario/economia/index-2014-11-29.html'
p455
aS'https://www.pagina12.com.ar/diario/sociedad/index-2014-11-29.html'
p456
aS'https://www.pagina12.com.ar/diario/elpais/index-2014-11-30.html'
p457
aS'https://www.pagina12.com.ar/diario/economia/index-2014-11-30.html'
p458
aS'https://www.pagina12.com.ar/diario/sociedad/index-2014-11-30.html'
p459
aS'https://www.pagina12.com.ar/diario/elpais/index-2014-11-31.html'
p460
aS'https://www.pagina12.com.ar/diario/economia/index-2014-11-31.html'
p461
aS'https://www.pagina12.com.ar/diario/sociedad/index-2014-11-31.html'
p462
aS'https://www.pagina12.com.ar/diario/elpais/index-2014-12-01.html'
p463
aS'https://www.pagina12.com.ar/diario/economia/index-2014-12-01.html'
p464
aS'https://www.pagina12.com.ar/diario/sociedad/index-2014-12-01.html'
p465
aS'https://www.pagina12.com.ar/diario/elpais/index-2014-12-02.html'
p466
aS'https://www.pagina12.com.ar/diario/economia/index-2014-12-02.html'
p467
aS'https://www.pagina12.com.ar/diario/sociedad/index-2014-12-02.html'
p468
aS'https://www.pagina12.com.ar/diario/elpais/index-2014-12-03.html'
p469
aS'https://www.pagina12.com.ar/diario/economia/index-2014-12-03.html'
p470
aS'https://www.pagina12.com.ar/diario/sociedad/index-2014-12-03.html'
p471
aS'https://www.pagina12.com.ar/diario/elpais/index-2014-12-04.html'
p472
aS'https://www.pagina12.com.ar/diario/economia/index-2014-12-04.html'
p473
aS'https://www.pagina12.com.ar/diario/sociedad/index-2014-12-04.html'
p474
aS'https://www.pagina12.com.ar/diario/elpais/index-2014-12-05.html'
p475
aS'https://www.pagina12.com.ar/diario/economia/index-2014-12-05.html'
p476
aS'https://www.pagina12.com.ar/diario/sociedad/index-2014-12-05.html'
p477
aS'https://www.pagina12.com.ar/diario/elpais/index-2014-12-06.html'
p478
aS'https://www.pagina12.com.ar/diario/economia/index-2014-12-06.html'
p479
aS'https://www.pagina12.com.ar/diario/sociedad/index-2014-12-06.html'
p480
aS'https://www.pagina12.com.ar/diario/elpais/index-2014-12-07.html'
p481
aS'https://www.pagina12.com.ar/diario/economia/index-2014-12-07.html'
p482
aS'https://www.pagina12.com.ar/diario/sociedad/index-2014-12-07.html'
p483
aS'https://www.pagina12.com.ar/diario/elpais/index-2014-12-08.html'
p484
aS'https://www.pagina12.com.ar/diario/economia/index-2014-12-08.html'
p485
aS'https://www.pagina12.com.ar/diario/sociedad/index-2014-12-08.html'
p486
aS'https://www.pagina12.com.ar/diario/elpais/index-2014-12-09.html'
p487
aS'https://www.pagina12.com.ar/diario/economia/index-2014-12-09.html'
p488
aS'https://www.pagina12.com.ar/diario/sociedad/index-2014-12-09.html'
p489
aS'https://www.pagina12.com.ar/diario/elpais/index-2014-12-10.html'
p490
aS'https://www.pagina12.com.ar/diario/economia/index-2014-12-10.html'
p491
aS'https://www.pagina12.com.ar/diario/sociedad/index-2014-12-10.html'
p492
aS'https://www.pagina12.com.ar/diario/elpais/index-2014-12-11.html'
p493
aS'https://www.pagina12.com.ar/diario/economia/index-2014-12-11.html'
p494
aS'https://www.pagina12.com.ar/diario/sociedad/index-2014-12-11.html'
p495
aS'https://www.pagina12.com.ar/diario/elpais/index-2014-12-12.html'
p496
aS'https://www.pagina12.com.ar/diario/economia/index-2014-12-12.html'
p497
aS'https://www.pagina12.com.ar/diario/sociedad/index-2014-12-12.html'
p498
aS'https://www.pagina12.com.ar/diario/elpais/index-2014-12-13.html'
p499
aS'https://www.pagina12.com.ar/diario/economia/index-2014-12-13.html'
p500
aS'https://www.pagina12.com.ar/diario/sociedad/index-2014-12-13.html'
p501
aS'https://www.pagina12.com.ar/diario/elpais/index-2014-12-14.html'
p502
aS'https://www.pagina12.com.ar/diario/economia/index-2014-12-14.html'
p503
aS'https://www.pagina12.com.ar/diario/sociedad/index-2014-12-14.html'
p504
aS'https://www.pagina12.com.ar/diario/elpais/index-2014-12-15.html'
p505
aS'https://www.pagina12.com.ar/diario/economia/index-2014-12-15.html'
p506
aS'https://www.pagina12.com.ar/diario/sociedad/index-2014-12-15.html'
p507
aS'https://www.pagina12.com.ar/diario/elpais/index-2014-12-16.html'
p508
aS'https://www.pagina12.com.ar/diario/economia/index-2014-12-16.html'
p509
aS'https://www.pagina12.com.ar/diario/sociedad/index-2014-12-16.html'
p510
aS'https://www.pagina12.com.ar/diario/elpais/index-2014-12-17.html'
p511
aS'https://www.pagina12.com.ar/diario/economia/index-2014-12-17.html'
p512
aS'https://www.pagina12.com.ar/diario/sociedad/index-2014-12-17.html'
p513
aS'https://www.pagina12.com.ar/diario/elpais/index-2014-12-18.html'
p514
aS'https://www.pagina12.com.ar/diario/economia/index-2014-12-18.html'
p515
aS'https://www.pagina12.com.ar/diario/sociedad/index-2014-12-18.html'
p516
aS'https://www.pagina12.com.ar/diario/elpais/index-2014-12-19.html'
p517
aS'https://www.pagina12.com.ar/diario/economia/index-2014-12-19.html'
p518
aS'https://www.pagina12.com.ar/diario/sociedad/index-2014-12-19.html'
p519
aS'https://www.pagina12.com.ar/diario/elpais/index-2014-12-20.html'
p520
aS'https://www.pagina12.com.ar/diario/economia/index-2014-12-20.html'
p521
aS'https://www.pagina12.com.ar/diario/sociedad/index-2014-12-20.html'
p522
aS'https://www.pagina12.com.ar/diario/elpais/index-2014-12-21.html'
p523
aS'https://www.pagina12.com.ar/diario/economia/index-2014-12-21.html'
p524
aS'https://www.pagina12.com.ar/diario/sociedad/index-2014-12-21.html'
p525
aS'https://www.pagina12.com.ar/diario/elpais/index-2014-12-22.html'
p526
aS'https://www.pagina12.com.ar/diario/economia/index-2014-12-22.html'
p527
aS'https://www.pagina12.com.ar/diario/sociedad/index-2014-12-22.html'
p528
aS'https://www.pagina12.com.ar/diario/elpais/index-2014-12-23.html'
p529
aS'https://www.pagina12.com.ar/diario/economia/index-2014-12-23.html'
p530
aS'https://www.pagina12.com.ar/diario/sociedad/index-2014-12-23.html'
p531
aS'https://www.pagina12.com.ar/diario/elpais/index-2014-12-24.html'
p532
aS'https://www.pagina12.com.ar/diario/economia/index-2014-12-24.html'
p533
aS'https://www.pagina12.com.ar/diario/sociedad/index-2014-12-24.html'
p534
aS'https://www.pagina12.com.ar/diario/elpais/index-2014-12-25.html'
p535
aS'https://www.pagina12.com.ar/diario/economia/index-2014-12-25.html'
p536
aS'https://www.pagina12.com.ar/diario/sociedad/index-2014-12-25.html'
p537
aS'https://www.pagina12.com.ar/diario/elpais/index-2014-12-26.html'
p538
aS'https://www.pagina12.com.ar/diario/economia/index-2014-12-26.html'
p539
aS'https://www.pagina12.com.ar/diario/sociedad/index-2014-12-26.html'
p540
aS'https://www.pagina12.com.ar/diario/elpais/index-2014-12-27.html'
p541
aS'https://www.pagina12.com.ar/diario/economia/index-2014-12-27.html'
p542
aS'https://www.pagina12.com.ar/diario/sociedad/index-2014-12-27.html'
p543
aS'https://www.pagina12.com.ar/diario/elpais/index-2014-12-28.html'
p544
aS'https://www.pagina12.com.ar/diario/economia/index-2014-12-28.html'
p545
aS'https://www.pagina12.com.ar/diario/sociedad/index-2014-12-28.html'
p546
aS'https://www.pagina12.com.ar/diario/elpais/index-2014-12-29.html'
p547
aS'https://www.pagina12.com.ar/diario/economia/index-2014-12-29.html'
p548
aS'https://www.pagina12.com.ar/diario/sociedad/index-2014-12-29.html'
p549
aS'https://www.pagina12.com.ar/diario/elpais/index-2014-12-30.html'
p550
aS'https://www.pagina12.com.ar/diario/economia/index-2014-12-30.html'
p551
aS'https://www.pagina12.com.ar/diario/sociedad/index-2014-12-30.html'
p552
aS'https://www.pagina12.com.ar/diario/elpais/index-2014-12-31.html'
p553
aS'https://www.pagina12.com.ar/diario/economia/index-2014-12-31.html'
p554
aS'https://www.pagina12.com.ar/diario/sociedad/index-2014-12-31.html'
p555
aS'https://www.pagina12.com.ar/diario/elpais/index-2015-01-01.html'
p556
aS'https://www.pagina12.com.ar/diario/economia/index-2015-01-01.html'
p557
aS'https://www.pagina12.com.ar/diario/sociedad/index-2015-01-01.html'
p558
aS'https://www.pagina12.com.ar/diario/elpais/index-2015-01-02.html'
p559
aS'https://www.pagina12.com.ar/diario/economia/index-2015-01-02.html'
p560
aS'https://www.pagina12.com.ar/diario/sociedad/index-2015-01-02.html'
p561
aS'https://www.pagina12.com.ar/diario/elpais/index-2015-01-03.html'
p562
aS'https://www.pagina12.com.ar/diario/economia/index-2015-01-03.html'
p563
aS'https://www.pagina12.com.ar/diario/sociedad/index-2015-01-03.html'
p564
aS'https://www.pagina12.com.ar/diario/elpais/index-2015-01-04.html'
p565
aS'https://www.pagina12.com.ar/diario/economia/index-2015-01-04.html'
p566
aS'https://www.pagina12.com.ar/diario/sociedad/index-2015-01-04.html'
p567
aS'https://www.pagina12.com.ar/diario/elpais/index-2015-01-05.html'
p568
aS'https://www.pagina12.com.ar/diario/economia/index-2015-01-05.html'
p569
aS'https://www.pagina12.com.ar/diario/sociedad/index-2015-01-05.html'
p570
aS'https://www.pagina12.com.ar/diario/elpais/index-2015-01-06.html'
p571
aS'https://www.pagina12.com.ar/diario/economia/index-2015-01-06.html'
p572
aS'https://www.pagina12.com.ar/diario/sociedad/index-2015-01-06.html'
p573
aS'https://www.pagina12.com.ar/diario/elpais/index-2015-01-07.html'
p574
aS'https://www.pagina12.com.ar/diario/economia/index-2015-01-07.html'
p575
aS'https://www.pagina12.com.ar/diario/sociedad/index-2015-01-07.html'
p576
aS'https://www.pagina12.com.ar/diario/elpais/index-2015-01-08.html'
p577
aS'https://www.pagina12.com.ar/diario/economia/index-2015-01-08.html'
p578
aS'https://www.pagina12.com.ar/diario/sociedad/index-2015-01-08.html'
p579
aS'https://www.pagina12.com.ar/diario/elpais/index-2015-01-09.html'
p580
aS'https://www.pagina12.com.ar/diario/economia/index-2015-01-09.html'
p581
aS'https://www.pagina12.com.ar/diario/sociedad/index-2015-01-09.html'
p582
aS'https://www.pagina12.com.ar/diario/elpais/index-2015-01-10.html'
p583
aS'https://www.pagina12.com.ar/diario/economia/index-2015-01-10.html'
p584
aS'https://www.pagina12.com.ar/diario/sociedad/index-2015-01-10.html'
p585
aS'https://www.pagina12.com.ar/diario/elpais/index-2015-01-11.html'
p586
aS'https://www.pagina12.com.ar/diario/economia/index-2015-01-11.html'
p587
aS'https://www.pagina12.com.ar/diario/sociedad/index-2015-01-11.html'
p588
aS'https://www.pagina12.com.ar/diario/elpais/index-2015-01-12.html'
p589
aS'https://www.pagina12.com.ar/diario/economia/index-2015-01-12.html'
p590
aS'https://www.pagina12.com.ar/diario/sociedad/index-2015-01-12.html'
p591
aS'https://www.pagina12.com.ar/diario/elpais/index-2015-01-13.html'
p592
aS'https://www.pagina12.com.ar/diario/economia/index-2015-01-13.html'
p593
aS'https://www.pagina12.com.ar/diario/sociedad/index-2015-01-13.html'
p594
aS'https://www.pagina12.com.ar/diario/elpais/index-2015-01-14.html'
p595
aS'https://www.pagina12.com.ar/diario/economia/index-2015-01-14.html'
p596
aS'https://www.pagina12.com.ar/diario/sociedad/index-2015-01-14.html'
p597
aS'https://www.pagina12.com.ar/diario/elpais/index-2015-01-15.html'
p598
aS'https://www.pagina12.com.ar/diario/economia/index-2015-01-15.html'
p599
aS'https://www.pagina12.com.ar/diario/sociedad/index-2015-01-15.html'
p600
aS'https://www.pagina12.com.ar/diario/elpais/index-2015-01-16.html'
p601
aS'https://www.pagina12.com.ar/diario/economia/index-2015-01-16.html'
p602
aS'https://www.pagina12.com.ar/diario/sociedad/index-2015-01-16.html'
p603
aS'https://www.pagina12.com.ar/diario/elpais/index-2015-01-17.html'
p604
aS'https://www.pagina12.com.ar/diario/economia/index-2015-01-17.html'
p605
aS'https://www.pagina12.com.ar/diario/sociedad/index-2015-01-17.html'
p606
aS'https://www.pagina12.com.ar/diario/elpais/index-2015-01-18.html'
p607
aS'https://www.pagina12.com.ar/diario/economia/index-2015-01-18.html'
p608
aS'https://www.pagina12.com.ar/diario/sociedad/index-2015-01-18.html'
p609
aS'https://www.pagina12.com.ar/diario/elpais/index-2015-01-19.html'
p610
aS'https://www.pagina12.com.ar/diario/economia/index-2015-01-19.html'
p611
aS'https://www.pagina12.com.ar/diario/sociedad/index-2015-01-19.html'
p612
aS'https://www.pagina12.com.ar/diario/elpais/index-2015-01-20.html'
p613
aS'https://www.pagina12.com.ar/diario/economia/index-2015-01-20.html'
p614
aS'https://www.pagina12.com.ar/diario/sociedad/index-2015-01-20.html'
p615
aS'https://www.pagina12.com.ar/diario/elpais/index-2015-01-21.html'
p616
aS'https://www.pagina12.com.ar/diario/economia/index-2015-01-21.html'
p617
aS'https://www.pagina12.com.ar/diario/sociedad/index-2015-01-21.html'
p618
aS'https://www.pagina12.com.ar/diario/elpais/index-2015-01-22.html'
p619
aS'https://www.pagina12.com.ar/diario/economia/index-2015-01-22.html'
p620
aS'https://www.pagina12.com.ar/diario/sociedad/index-2015-01-22.html'
p621
aS'https://www.pagina12.com.ar/diario/elpais/index-2015-01-23.html'
p622
aS'https://www.pagina12.com.ar/diario/economia/index-2015-01-23.html'
p623
aS'https://www.pagina12.com.ar/diario/sociedad/index-2015-01-23.html'
p624
aS'https://www.pagina12.com.ar/diario/elpais/index-2015-01-24.html'
p625
aS'https://www.pagina12.com.ar/diario/economia/index-2015-01-24.html'
p626
aS'https://www.pagina12.com.ar/diario/sociedad/index-2015-01-24.html'
p627
aS'https://www.pagina12.com.ar/diario/elpais/index-2015-01-25.html'
p628
aS'https://www.pagina12.com.ar/diario/economia/index-2015-01-25.html'
p629
aS'https://www.pagina12.com.ar/diario/sociedad/index-2015-01-25.html'
p630
aS'https://www.pagina12.com.ar/diario/elpais/index-2015-01-26.html'
p631
aS'https://www.pagina12.com.ar/diario/economia/index-2015-01-26.html'
p632
aS'https://www.pagina12.com.ar/diario/sociedad/index-2015-01-26.html'
p633
aS'https://www.pagina12.com.ar/diario/elpais/index-2015-01-27.html'
p634
aS'https://www.pagina12.com.ar/diario/economia/index-2015-01-27.html'
p635
aS'https://www.pagina12.com.ar/diario/sociedad/index-2015-01-27.html'
p636
aS'https://www.pagina12.com.ar/diario/elpais/index-2015-01-28.html'
p637
aS'https://www.pagina12.com.ar/diario/economia/index-2015-01-28.html'
p638
aS'https://www.pagina12.com.ar/diario/sociedad/index-2015-01-28.html'
p639
aS'https://www.pagina12.com.ar/diario/elpais/index-2015-01-29.html'
p640
aS'https://www.pagina12.com.ar/diario/economia/index-2015-01-29.html'
p641
aS'https://www.pagina12.com.ar/diario/sociedad/index-2015-01-29.html'
p642
aS'https://www.pagina12.com.ar/diario/elpais/index-2015-01-30.html'
p643
aS'https://www.pagina12.com.ar/diario/economia/index-2015-01-30.html'
p644
aS'https://www.pagina12.com.ar/diario/sociedad/index-2015-01-30.html'
p645
aS'https://www.pagina12.com.ar/diario/elpais/index-2015-01-31.html'
p646
aS'https://www.pagina12.com.ar/diario/economia/index-2015-01-31.html'
p647
aS'https://www.pagina12.com.ar/diario/sociedad/index-2015-01-31.html'
p648
aS'https://www.pagina12.com.ar/diario/elpais/index-2015-02-01.html'
p649
aS'https://www.pagina12.com.ar/diario/economia/index-2015-02-01.html'
p650
aS'https://www.pagina12.com.ar/diario/sociedad/index-2015-02-01.html'
p651
aS'https://www.pagina12.com.ar/diario/elpais/index-2015-02-02.html'
p652
aS'https://www.pagina12.com.ar/diario/economia/index-2015-02-02.html'
p653
aS'https://www.pagina12.com.ar/diario/sociedad/index-2015-02-02.html'
p654
aS'https://www.pagina12.com.ar/diario/elpais/index-2015-02-03.html'
p655
aS'https://www.pagina12.com.ar/diario/economia/index-2015-02-03.html'
p656
aS'https://www.pagina12.com.ar/diario/sociedad/index-2015-02-03.html'
p657
aS'https://www.pagina12.com.ar/diario/elpais/index-2015-02-04.html'
p658
aS'https://www.pagina12.com.ar/diario/economia/index-2015-02-04.html'
p659
aS'https://www.pagina12.com.ar/diario/sociedad/index-2015-02-04.html'
p660
aS'https://www.pagina12.com.ar/diario/elpais/index-2015-02-05.html'
p661
aS'https://www.pagina12.com.ar/diario/economia/index-2015-02-05.html'
p662
aS'https://www.pagina12.com.ar/diario/sociedad/index-2015-02-05.html'
p663
aS'https://www.pagina12.com.ar/diario/elpais/index-2015-02-06.html'
p664
aS'https://www.pagina12.com.ar/diario/economia/index-2015-02-06.html'
p665
aS'https://www.pagina12.com.ar/diario/sociedad/index-2015-02-06.html'
p666
aS'https://www.pagina12.com.ar/diario/elpais/index-2015-02-07.html'
p667
aS'https://www.pagina12.com.ar/diario/economia/index-2015-02-07.html'
p668
aS'https://www.pagina12.com.ar/diario/sociedad/index-2015-02-07.html'
p669
aS'https://www.pagina12.com.ar/diario/elpais/index-2015-02-08.html'
p670
aS'https://www.pagina12.com.ar/diario/economia/index-2015-02-08.html'
p671
aS'https://www.pagina12.com.ar/diario/sociedad/index-2015-02-08.html'
p672
aS'https://www.pagina12.com.ar/diario/elpais/index-2015-02-09.html'
p673
aS'https://www.pagina12.com.ar/diario/economia/index-2015-02-09.html'
p674
aS'https://www.pagina12.com.ar/diario/sociedad/index-2015-02-09.html'
p675
aS'https://www.pagina12.com.ar/diario/elpais/index-2015-02-10.html'
p676
aS'https://www.pagina12.com.ar/diario/economia/index-2015-02-10.html'
p677
aS'https://www.pagina12.com.ar/diario/sociedad/index-2015-02-10.html'
p678
aS'https://www.pagina12.com.ar/diario/elpais/index-2015-02-11.html'
p679
aS'https://www.pagina12.com.ar/diario/economia/index-2015-02-11.html'
p680
aS'https://www.pagina12.com.ar/diario/sociedad/index-2015-02-11.html'
p681
aS'https://www.pagina12.com.ar/diario/elpais/index-2015-02-12.html'
p682
aS'https://www.pagina12.com.ar/diario/economia/index-2015-02-12.html'
p683
aS'https://www.pagina12.com.ar/diario/sociedad/index-2015-02-12.html'
p684
aS'https://www.pagina12.com.ar/diario/elpais/index-2015-02-13.html'
p685
aS'https://www.pagina12.com.ar/diario/economia/index-2015-02-13.html'
p686
aS'https://www.pagina12.com.ar/diario/sociedad/index-2015-02-13.html'
p687
aS'https://www.pagina12.com.ar/diario/elpais/index-2015-02-14.html'
p688
aS'https://www.pagina12.com.ar/diario/economia/index-2015-02-14.html'
p689
aS'https://www.pagina12.com.ar/diario/sociedad/index-2015-02-14.html'
p690
aS'https://www.pagina12.com.ar/diario/elpais/index-2015-02-15.html'
p691
aS'https://www.pagina12.com.ar/diario/economia/index-2015-02-15.html'
p692
aS'https://www.pagina12.com.ar/diario/sociedad/index-2015-02-15.html'
p693
aS'https://www.pagina12.com.ar/diario/elpais/index-2015-02-16.html'
p694
aS'https://www.pagina12.com.ar/diario/economia/index-2015-02-16.html'
p695
aS'https://www.pagina12.com.ar/diario/sociedad/index-2015-02-16.html'
p696
aS'https://www.pagina12.com.ar/diario/elpais/index-2015-02-17.html'
p697
aS'https://www.pagina12.com.ar/diario/economia/index-2015-02-17.html'
p698
aS'https://www.pagina12.com.ar/diario/sociedad/index-2015-02-17.html'
p699
aS'https://www.pagina12.com.ar/diario/elpais/index-2015-02-18.html'
p700
aS'https://www.pagina12.com.ar/diario/economia/index-2015-02-18.html'
p701
aS'https://www.pagina12.com.ar/diario/sociedad/index-2015-02-18.html'
p702
aS'https://www.pagina12.com.ar/diario/elpais/index-2015-02-19.html'
p703
aS'https://www.pagina12.com.ar/diario/economia/index-2015-02-19.html'
p704
aS'https://www.pagina12.com.ar/diario/sociedad/index-2015-02-19.html'
p705
aS'https://www.pagina12.com.ar/diario/elpais/index-2015-02-20.html'
p706
aS'https://www.pagina12.com.ar/diario/economia/index-2015-02-20.html'
p707
aS'https://www.pagina12.com.ar/diario/sociedad/index-2015-02-20.html'
p708
aS'https://www.pagina12.com.ar/diario/elpais/index-2015-02-21.html'
p709
aS'https://www.pagina12.com.ar/diario/economia/index-2015-02-21.html'
p710
aS'https://www.pagina12.com.ar/diario/sociedad/index-2015-02-21.html'
p711
aS'https://www.pagina12.com.ar/diario/elpais/index-2015-02-22.html'
p712
aS'https://www.pagina12.com.ar/diario/economia/index-2015-02-22.html'
p713
aS'https://www.pagina12.com.ar/diario/sociedad/index-2015-02-22.html'
p714
aS'https://www.pagina12.com.ar/diario/elpais/index-2015-02-23.html'
p715
aS'https://www.pagina12.com.ar/diario/economia/index-2015-02-23.html'
p716
aS'https://www.pagina12.com.ar/diario/sociedad/index-2015-02-23.html'
p717
aS'https://www.pagina12.com.ar/diario/elpais/index-2015-02-24.html'
p718
aS'https://www.pagina12.com.ar/diario/economia/index-2015-02-24.html'
p719
aS'https://www.pagina12.com.ar/diario/sociedad/index-2015-02-24.html'
p720
aS'https://www.pagina12.com.ar/diario/elpais/index-2015-02-25.html'
p721
aS'https://www.pagina12.com.ar/diario/economia/index-2015-02-25.html'
p722
aS'https://www.pagina12.com.ar/diario/sociedad/index-2015-02-25.html'
p723
aS'https://www.pagina12.com.ar/diario/elpais/index-2015-02-26.html'
p724
aS'https://www.pagina12.com.ar/diario/economia/index-2015-02-26.html'
p725
aS'https://www.pagina12.com.ar/diario/sociedad/index-2015-02-26.html'
p726
aS'https://www.pagina12.com.ar/diario/elpais/index-2015-02-27.html'
p727
aS'https://www.pagina12.com.ar/diario/economia/index-2015-02-27.html'
p728
aS'https://www.pagina12.com.ar/diario/sociedad/index-2015-02-27.html'
p729
aS'https://www.pagina12.com.ar/diario/elpais/index-2015-02-28.html'
p730
aS'https://www.pagina12.com.ar/diario/economia/index-2015-02-28.html'
p731
aS'https://www.pagina12.com.ar/diario/sociedad/index-2015-02-28.html'
p732
aS'https://www.pagina12.com.ar/diario/elpais/index-2015-02-29.html'
p733
aS'https://www.pagina12.com.ar/diario/economia/index-2015-02-29.html'
p734
aS'https://www.pagina12.com.ar/diario/sociedad/index-2015-02-29.html'
p735
aS'https://www.pagina12.com.ar/diario/elpais/index-2015-02-30.html'
p736
aS'https://www.pagina12.com.ar/diario/economia/index-2015-02-30.html'
p737
aS'https://www.pagina12.com.ar/diario/sociedad/index-2015-02-30.html'
p738
aS'https://www.pagina12.com.ar/diario/elpais/index-2015-02-31.html'
p739
aS'https://www.pagina12.com.ar/diario/economia/index-2015-02-31.html'
p740
aS'https://www.pagina12.com.ar/diario/sociedad/index-2015-02-31.html'
p741
aS'https://www.pagina12.com.ar/diario/elpais/index-2015-03-01.html'
p742
aS'https://www.pagina12.com.ar/diario/economia/index-2015-03-01.html'
p743
aS'https://www.pagina12.com.ar/diario/sociedad/index-2015-03-01.html'
p744
aS'https://www.pagina12.com.ar/diario/elpais/index-2015-03-02.html'
p745
aS'https://www.pagina12.com.ar/diario/economia/index-2015-03-02.html'
p746
aS'https://www.pagina12.com.ar/diario/sociedad/index-2015-03-02.html'
p747
aS'https://www.pagina12.com.ar/diario/elpais/index-2015-03-03.html'
p748
aS'https://www.pagina12.com.ar/diario/economia/index-2015-03-03.html'
p749
aS'https://www.pagina12.com.ar/diario/sociedad/index-2015-03-03.html'
p750
aS'https://www.pagina12.com.ar/diario/elpais/index-2015-03-04.html'
p751
aS'https://www.pagina12.com.ar/diario/economia/index-2015-03-04.html'
p752
aS'https://www.pagina12.com.ar/diario/sociedad/index-2015-03-04.html'
p753
aS'https://www.pagina12.com.ar/diario/elpais/index-2015-03-05.html'
p754
aS'https://www.pagina12.com.ar/diario/economia/index-2015-03-05.html'
p755
aS'https://www.pagina12.com.ar/diario/sociedad/index-2015-03-05.html'
p756
aS'https://www.pagina12.com.ar/diario/elpais/index-2015-03-06.html'
p757
aS'https://www.pagina12.com.ar/diario/economia/index-2015-03-06.html'
p758
aS'https://www.pagina12.com.ar/diario/sociedad/index-2015-03-06.html'
p759
aS'https://www.pagina12.com.ar/diario/elpais/index-2015-03-07.html'
p760
aS'https://www.pagina12.com.ar/diario/economia/index-2015-03-07.html'
p761
aS'https://www.pagina12.com.ar/diario/sociedad/index-2015-03-07.html'
p762
aS'https://www.pagina12.com.ar/diario/elpais/index-2015-03-08.html'
p763
aS'https://www.pagina12.com.ar/diario/economia/index-2015-03-08.html'
p764
aS'https://www.pagina12.com.ar/diario/sociedad/index-2015-03-08.html'
p765
aS'https://www.pagina12.com.ar/diario/elpais/index-2015-03-09.html'
p766
aS'https://www.pagina12.com.ar/diario/economia/index-2015-03-09.html'
p767
aS'https://www.pagina12.com.ar/diario/sociedad/index-2015-03-09.html'
p768
aS'https://www.pagina12.com.ar/diario/elpais/index-2015-03-10.html'
p769
aS'https://www.pagina12.com.ar/diario/economia/index-2015-03-10.html'
p770
aS'https://www.pagina12.com.ar/diario/sociedad/index-2015-03-10.html'
p771
aS'https://www.pagina12.com.ar/diario/elpais/index-2015-03-11.html'
p772
aS'https://www.pagina12.com.ar/diario/economia/index-2015-03-11.html'
p773
aS'https://www.pagina12.com.ar/diario/sociedad/index-2015-03-11.html'
p774
aS'https://www.pagina12.com.ar/diario/elpais/index-2015-03-12.html'
p775
aS'https://www.pagina12.com.ar/diario/economia/index-2015-03-12.html'
p776
aS'https://www.pagina12.com.ar/diario/sociedad/index-2015-03-12.html'
p777
aS'https://www.pagina12.com.ar/diario/elpais/index-2015-03-13.html'
p778
aS'https://www.pagina12.com.ar/diario/economia/index-2015-03-13.html'
p779
aS'https://www.pagina12.com.ar/diario/sociedad/index-2015-03-13.html'
p780
aS'https://www.pagina12.com.ar/diario/elpais/index-2015-03-14.html'
p781
aS'https://www.pagina12.com.ar/diario/economia/index-2015-03-14.html'
p782
aS'https://www.pagina12.com.ar/diario/sociedad/index-2015-03-14.html'
p783
aS'https://www.pagina12.com.ar/diario/elpais/index-2015-03-15.html'
p784
aS'https://www.pagina12.com.ar/diario/economia/index-2015-03-15.html'
p785
aS'https://www.pagina12.com.ar/diario/sociedad/index-2015-03-15.html'
p786
aS'https://www.pagina12.com.ar/diario/elpais/index-2015-03-16.html'
p787
aS'https://www.pagina12.com.ar/diario/economia/index-2015-03-16.html'
p788
aS'https://www.pagina12.com.ar/diario/sociedad/index-2015-03-16.html'
p789
aS'https://www.pagina12.com.ar/diario/elpais/index-2015-03-17.html'
p790
aS'https://www.pagina12.com.ar/diario/economia/index-2015-03-17.html'
p791
aS'https://www.pagina12.com.ar/diario/sociedad/index-2015-03-17.html'
p792
aS'https://www.pagina12.com.ar/diario/elpais/index-2015-03-18.html'
p793
aS'https://www.pagina12.com.ar/diario/economia/index-2015-03-18.html'
p794
aS'https://www.pagina12.com.ar/diario/sociedad/index-2015-03-18.html'
p795
aS'https://www.pagina12.com.ar/diario/elpais/index-2015-03-19.html'
p796
aS'https://www.pagina12.com.ar/diario/economia/index-2015-03-19.html'
p797
aS'https://www.pagina12.com.ar/diario/sociedad/index-2015-03-19.html'
p798
aS'https://www.pagina12.com.ar/diario/elpais/index-2015-03-20.html'
p799
aS'https://www.pagina12.com.ar/diario/economia/index-2015-03-20.html'
p800
aS'https://www.pagina12.com.ar/diario/sociedad/index-2015-03-20.html'
p801
aS'https://www.pagina12.com.ar/diario/elpais/index-2015-03-21.html'
p802
aS'https://www.pagina12.com.ar/diario/economia/index-2015-03-21.html'
p803
aS'https://www.pagina12.com.ar/diario/sociedad/index-2015-03-21.html'
p804
aS'https://www.pagina12.com.ar/diario/elpais/index-2015-03-22.html'
p805
aS'https://www.pagina12.com.ar/diario/economia/index-2015-03-22.html'
p806
aS'https://www.pagina12.com.ar/diario/sociedad/index-2015-03-22.html'
p807
aS'https://www.pagina12.com.ar/diario/elpais/index-2015-03-23.html'
p808
aS'https://www.pagina12.com.ar/diario/economia/index-2015-03-23.html'
p809
aS'https://www.pagina12.com.ar/diario/sociedad/index-2015-03-23.html'
p810
aS'https://www.pagina12.com.ar/diario/elpais/index-2015-03-24.html'
p811
aS'https://www.pagina12.com.ar/diario/economia/index-2015-03-24.html'
p812
aS'https://www.pagina12.com.ar/diario/sociedad/index-2015-03-24.html'
p813
aS'https://www.pagina12.com.ar/diario/elpais/index-2015-03-25.html'
p814
aS'https://www.pagina12.com.ar/diario/economia/index-2015-03-25.html'
p815
aS'https://www.pagina12.com.ar/diario/sociedad/index-2015-03-25.html'
p816
aS'https://www.pagina12.com.ar/diario/elpais/index-2015-03-26.html'
p817
aS'https://www.pagina12.com.ar/diario/economia/index-2015-03-26.html'
p818
aS'https://www.pagina12.com.ar/diario/sociedad/index-2015-03-26.html'
p819
aS'https://www.pagina12.com.ar/diario/elpais/index-2015-03-27.html'
p820
aS'https://www.pagina12.com.ar/diario/economia/index-2015-03-27.html'
p821
aS'https://www.pagina12.com.ar/diario/sociedad/index-2015-03-27.html'
p822
aS'https://www.pagina12.com.ar/diario/elpais/index-2015-03-28.html'
p823
aS'https://www.pagina12.com.ar/diario/economia/index-2015-03-28.html'
p824
aS'https://www.pagina12.com.ar/diario/sociedad/index-2015-03-28.html'
p825
aS'https://www.pagina12.com.ar/diario/elpais/index-2015-03-29.html'
p826
aS'https://www.pagina12.com.ar/diario/economia/index-2015-03-29.html'
p827
aS'https://www.pagina12.com.ar/diario/sociedad/index-2015-03-29.html'
p828
aS'https://www.pagina12.com.ar/diario/elpais/index-2015-03-30.html'
p829
aS'https://www.pagina12.com.ar/diario/economia/index-2015-03-30.html'
p830
aS'https://www.pagina12.com.ar/diario/sociedad/index-2015-03-30.html'
p831
aS'https://www.pagina12.com.ar/diario/elpais/index-2015-03-31.html'
p832
aS'https://www.pagina12.com.ar/diario/economia/index-2015-03-31.html'
p833
aS'https://www.pagina12.com.ar/diario/sociedad/index-2015-03-31.html'
p834
aS'https://www.pagina12.com.ar/diario/elpais/index-2015-04-01.html'
p835
aS'https://www.pagina12.com.ar/diario/economia/index-2015-04-01.html'
p836
aS'https://www.pagina12.com.ar/diario/sociedad/index-2015-04-01.html'
p837
aS'https://www.pagina12.com.ar/diario/elpais/index-2015-04-02.html'
p838
aS'https://www.pagina12.com.ar/diario/economia/index-2015-04-02.html'
p839
aS'https://www.pagina12.com.ar/diario/sociedad/index-2015-04-02.html'
p840
aS'https://www.pagina12.com.ar/diario/elpais/index-2015-04-03.html'
p841
aS'https://www.pagina12.com.ar/diario/economia/index-2015-04-03.html'
p842
aS'https://www.pagina12.com.ar/diario/sociedad/index-2015-04-03.html'
p843
aS'https://www.pagina12.com.ar/diario/elpais/index-2015-04-04.html'
p844
aS'https://www.pagina12.com.ar/diario/economia/index-2015-04-04.html'
p845
aS'https://www.pagina12.com.ar/diario/sociedad/index-2015-04-04.html'
p846
aS'https://www.pagina12.com.ar/diario/elpais/index-2015-04-05.html'
p847
aS'https://www.pagina12.com.ar/diario/economia/index-2015-04-05.html'
p848
aS'https://www.pagina12.com.ar/diario/sociedad/index-2015-04-05.html'
p849
aS'https://www.pagina12.com.ar/diario/elpais/index-2015-04-06.html'
p850
aS'https://www.pagina12.com.ar/diario/economia/index-2015-04-06.html'
p851
aS'https://www.pagina12.com.ar/diario/sociedad/index-2015-04-06.html'
p852
aS'https://www.pagina12.com.ar/diario/elpais/index-2015-04-07.html'
p853
aS'https://www.pagina12.com.ar/diario/economia/index-2015-04-07.html'
p854
aS'https://www.pagina12.com.ar/diario/sociedad/index-2015-04-07.html'
p855
aS'https://www.pagina12.com.ar/diario/elpais/index-2015-04-08.html'
p856
aS'https://www.pagina12.com.ar/diario/economia/index-2015-04-08.html'
p857
aS'https://www.pagina12.com.ar/diario/sociedad/index-2015-04-08.html'
p858
aS'https://www.pagina12.com.ar/diario/elpais/index-2015-04-09.html'
p859
aS'https://www.pagina12.com.ar/diario/economia/index-2015-04-09.html'
p860
aS'https://www.pagina12.com.ar/diario/sociedad/index-2015-04-09.html'
p861
aS'https://www.pagina12.com.ar/diario/elpais/index-2015-04-10.html'
p862
aS'https://www.pagina12.com.ar/diario/economia/index-2015-04-10.html'
p863
aS'https://www.pagina12.com.ar/diario/sociedad/index-2015-04-10.html'
p864
aS'https://www.pagina12.com.ar/diario/elpais/index-2015-04-11.html'
p865
aS'https://www.pagina12.com.ar/diario/economia/index-2015-04-11.html'
p866
aS'https://www.pagina12.com.ar/diario/sociedad/index-2015-04-11.html'
p867
aS'https://www.pagina12.com.ar/diario/elpais/index-2015-04-12.html'
p868
aS'https://www.pagina12.com.ar/diario/economia/index-2015-04-12.html'
p869
aS'https://www.pagina12.com.ar/diario/sociedad/index-2015-04-12.html'
p870
aS'https://www.pagina12.com.ar/diario/elpais/index-2015-04-13.html'
p871
aS'https://www.pagina12.com.ar/diario/economia/index-2015-04-13.html'
p872
aS'https://www.pagina12.com.ar/diario/sociedad/index-2015-04-13.html'
p873
aS'https://www.pagina12.com.ar/diario/elpais/index-2015-04-14.html'
p874
aS'https://www.pagina12.com.ar/diario/economia/index-2015-04-14.html'
p875
aS'https://www.pagina12.com.ar/diario/sociedad/index-2015-04-14.html'
p876
aS'https://www.pagina12.com.ar/diario/elpais/index-2015-04-15.html'
p877
aS'https://www.pagina12.com.ar/diario/economia/index-2015-04-15.html'
p878
aS'https://www.pagina12.com.ar/diario/sociedad/index-2015-04-15.html'
p879
aS'https://www.pagina12.com.ar/diario/elpais/index-2015-04-16.html'
p880
aS'https://www.pagina12.com.ar/diario/economia/index-2015-04-16.html'
p881
aS'https://www.pagina12.com.ar/diario/sociedad/index-2015-04-16.html'
p882
aS'https://www.pagina12.com.ar/diario/elpais/index-2015-04-17.html'
p883
aS'https://www.pagina12.com.ar/diario/economia/index-2015-04-17.html'
p884
aS'https://www.pagina12.com.ar/diario/sociedad/index-2015-04-17.html'
p885
aS'https://www.pagina12.com.ar/diario/elpais/index-2015-04-18.html'
p886
aS'https://www.pagina12.com.ar/diario/economia/index-2015-04-18.html'
p887
aS'https://www.pagina12.com.ar/diario/sociedad/index-2015-04-18.html'
p888
aS'https://www.pagina12.com.ar/diario/elpais/index-2015-04-19.html'
p889
aS'https://www.pagina12.com.ar/diario/economia/index-2015-04-19.html'
p890
aS'https://www.pagina12.com.ar/diario/sociedad/index-2015-04-19.html'
p891
aS'https://www.pagina12.com.ar/diario/elpais/index-2015-04-20.html'
p892
aS'https://www.pagina12.com.ar/diario/economia/index-2015-04-20.html'
p893
aS'https://www.pagina12.com.ar/diario/sociedad/index-2015-04-20.html'
p894
aS'https://www.pagina12.com.ar/diario/elpais/index-2015-04-21.html'
p895
aS'https://www.pagina12.com.ar/diario/economia/index-2015-04-21.html'
p896
aS'https://www.pagina12.com.ar/diario/sociedad/index-2015-04-21.html'
p897
aS'https://www.pagina12.com.ar/diario/elpais/index-2015-04-22.html'
p898
aS'https://www.pagina12.com.ar/diario/economia/index-2015-04-22.html'
p899
aS'https://www.pagina12.com.ar/diario/sociedad/index-2015-04-22.html'
p900
aS'https://www.pagina12.com.ar/diario/elpais/index-2015-04-23.html'
p901
aS'https://www.pagina12.com.ar/diario/economia/index-2015-04-23.html'
p902
aS'https://www.pagina12.com.ar/diario/sociedad/index-2015-04-23.html'
p903
aS'https://www.pagina12.com.ar/diario/elpais/index-2015-04-24.html'
p904
aS'https://www.pagina12.com.ar/diario/economia/index-2015-04-24.html'
p905
aS'https://www.pagina12.com.ar/diario/sociedad/index-2015-04-24.html'
p906
aS'https://www.pagina12.com.ar/diario/elpais/index-2015-04-25.html'
p907
aS'https://www.pagina12.com.ar/diario/economia/index-2015-04-25.html'
p908
aS'https://www.pagina12.com.ar/diario/sociedad/index-2015-04-25.html'
p909
aS'https://www.pagina12.com.ar/diario/elpais/index-2015-04-26.html'
p910
aS'https://www.pagina12.com.ar/diario/economia/index-2015-04-26.html'
p911
aS'https://www.pagina12.com.ar/diario/sociedad/index-2015-04-26.html'
p912
aS'https://www.pagina12.com.ar/diario/elpais/index-2015-04-27.html'
p913
aS'https://www.pagina12.com.ar/diario/economia/index-2015-04-27.html'
p914
aS'https://www.pagina12.com.ar/diario/sociedad/index-2015-04-27.html'
p915
aS'https://www.pagina12.com.ar/diario/elpais/index-2015-04-28.html'
p916
aS'https://www.pagina12.com.ar/diario/economia/index-2015-04-28.html'
p917
aS'https://www.pagina12.com.ar/diario/sociedad/index-2015-04-28.html'
p918
aS'https://www.pagina12.com.ar/diario/elpais/index-2015-04-29.html'
p919
aS'https://www.pagina12.com.ar/diario/economia/index-2015-04-29.html'
p920
aS'https://www.pagina12.com.ar/diario/sociedad/index-2015-04-29.html'
p921
aS'https://www.pagina12.com.ar/diario/elpais/index-2015-04-30.html'
p922
aS'https://www.pagina12.com.ar/diario/economia/index-2015-04-30.html'
p923
aS'https://www.pagina12.com.ar/diario/sociedad/index-2015-04-30.html'
p924
aS'https://www.pagina12.com.ar/diario/elpais/index-2015-04-31.html'
p925
aS'https://www.pagina12.com.ar/diario/economia/index-2015-04-31.html'
p926
aS'https://www.pagina12.com.ar/diario/sociedad/index-2015-04-31.html'
p927
aS'https://www.pagina12.com.ar/diario/elpais/index-2015-05-01.html'
p928
aS'https://www.pagina12.com.ar/diario/economia/index-2015-05-01.html'
p929
aS'https://www.pagina12.com.ar/diario/sociedad/index-2015-05-01.html'
p930
aS'https://www.pagina12.com.ar/diario/elpais/index-2015-05-02.html'
p931
aS'https://www.pagina12.com.ar/diario/economia/index-2015-05-02.html'
p932
aS'https://www.pagina12.com.ar/diario/sociedad/index-2015-05-02.html'
p933
aS'https://www.pagina12.com.ar/diario/elpais/index-2015-05-03.html'
p934
aS'https://www.pagina12.com.ar/diario/economia/index-2015-05-03.html'
p935
aS'https://www.pagina12.com.ar/diario/sociedad/index-2015-05-03.html'
p936
aS'https://www.pagina12.com.ar/diario/elpais/index-2015-05-04.html'
p937
aS'https://www.pagina12.com.ar/diario/economia/index-2015-05-04.html'
p938
aS'https://www.pagina12.com.ar/diario/sociedad/index-2015-05-04.html'
p939
aS'https://www.pagina12.com.ar/diario/elpais/index-2015-05-05.html'
p940
aS'https://www.pagina12.com.ar/diario/economia/index-2015-05-05.html'
p941
aS'https://www.pagina12.com.ar/diario/sociedad/index-2015-05-05.html'
p942
aS'https://www.pagina12.com.ar/diario/elpais/index-2015-05-06.html'
p943
aS'https://www.pagina12.com.ar/diario/economia/index-2015-05-06.html'
p944
aS'https://www.pagina12.com.ar/diario/sociedad/index-2015-05-06.html'
p945
aS'https://www.pagina12.com.ar/diario/elpais/index-2015-05-07.html'
p946
aS'https://www.pagina12.com.ar/diario/economia/index-2015-05-07.html'
p947
aS'https://www.pagina12.com.ar/diario/sociedad/index-2015-05-07.html'
p948
aS'https://www.pagina12.com.ar/diario/elpais/index-2015-05-08.html'
p949
aS'https://www.pagina12.com.ar/diario/economia/index-2015-05-08.html'
p950
aS'https://www.pagina12.com.ar/diario/sociedad/index-2015-05-08.html'
p951
aS'https://www.pagina12.com.ar/diario/elpais/index-2015-05-09.html'
p952
aS'https://www.pagina12.com.ar/diario/economia/index-2015-05-09.html'
p953
aS'https://www.pagina12.com.ar/diario/sociedad/index-2015-05-09.html'
p954
aS'https://www.pagina12.com.ar/diario/elpais/index-2015-05-10.html'
p955
aS'https://www.pagina12.com.ar/diario/economia/index-2015-05-10.html'
p956
aS'https://www.pagina12.com.ar/diario/sociedad/index-2015-05-10.html'
p957
aS'https://www.pagina12.com.ar/diario/elpais/index-2015-05-11.html'
p958
aS'https://www.pagina12.com.ar/diario/economia/index-2015-05-11.html'
p959
aS'https://www.pagina12.com.ar/diario/sociedad/index-2015-05-11.html'
p960
aS'https://www.pagina12.com.ar/diario/elpais/index-2015-05-12.html'
p961
aS'https://www.pagina12.com.ar/diario/economia/index-2015-05-12.html'
p962
aS'https://www.pagina12.com.ar/diario/sociedad/index-2015-05-12.html'
p963
aS'https://www.pagina12.com.ar/diario/elpais/index-2015-05-13.html'
p964
aS'https://www.pagina12.com.ar/diario/economia/index-2015-05-13.html'
p965
aS'https://www.pagina12.com.ar/diario/sociedad/index-2015-05-13.html'
p966
aS'https://www.pagina12.com.ar/diario/elpais/index-2015-05-14.html'
p967
aS'https://www.pagina12.com.ar/diario/economia/index-2015-05-14.html'
p968
aS'https://www.pagina12.com.ar/diario/sociedad/index-2015-05-14.html'
p969
aS'https://www.pagina12.com.ar/diario/elpais/index-2015-05-15.html'
p970
aS'https://www.pagina12.com.ar/diario/economia/index-2015-05-15.html'
p971
aS'https://www.pagina12.com.ar/diario/sociedad/index-2015-05-15.html'
p972
aS'https://www.pagina12.com.ar/diario/elpais/index-2015-05-16.html'
p973
aS'https://www.pagina12.com.ar/diario/economia/index-2015-05-16.html'
p974
aS'https://www.pagina12.com.ar/diario/sociedad/index-2015-05-16.html'
p975
aS'https://www.pagina12.com.ar/diario/elpais/index-2015-05-17.html'
p976
aS'https://www.pagina12.com.ar/diario/economia/index-2015-05-17.html'
p977
aS'https://www.pagina12.com.ar/diario/sociedad/index-2015-05-17.html'
p978
aS'https://www.pagina12.com.ar/diario/elpais/index-2015-05-18.html'
p979
aS'https://www.pagina12.com.ar/diario/economia/index-2015-05-18.html'
p980
aS'https://www.pagina12.com.ar/diario/sociedad/index-2015-05-18.html'
p981
aS'https://www.pagina12.com.ar/diario/elpais/index-2015-05-19.html'
p982
aS'https://www.pagina12.com.ar/diario/economia/index-2015-05-19.html'
p983
aS'https://www.pagina12.com.ar/diario/sociedad/index-2015-05-19.html'
p984
aS'https://www.pagina12.com.ar/diario/elpais/index-2015-05-20.html'
p985
aS'https://www.pagina12.com.ar/diario/economia/index-2015-05-20.html'
p986
aS'https://www.pagina12.com.ar/diario/sociedad/index-2015-05-20.html'
p987
aS'https://www.pagina12.com.ar/diario/elpais/index-2015-05-21.html'
p988
aS'https://www.pagina12.com.ar/diario/economia/index-2015-05-21.html'
p989
aS'https://www.pagina12.com.ar/diario/sociedad/index-2015-05-21.html'
p990
aS'https://www.pagina12.com.ar/diario/elpais/index-2015-05-22.html'
p991
aS'https://www.pagina12.com.ar/diario/economia/index-2015-05-22.html'
p992
aS'https://www.pagina12.com.ar/diario/sociedad/index-2015-05-22.html'
p993
aS'https://www.pagina12.com.ar/diario/elpais/index-2015-05-23.html'
p994
aS'https://www.pagina12.com.ar/diario/economia/index-2015-05-23.html'
p995
aS'https://www.pagina12.com.ar/diario/sociedad/index-2015-05-23.html'
p996
aS'https://www.pagina12.com.ar/diario/elpais/index-2015-05-24.html'
p997
aS'https://www.pagina12.com.ar/diario/economia/index-2015-05-24.html'
p998
aS'https://www.pagina12.com.ar/diario/sociedad/index-2015-05-24.html'
p999
aS'https://www.pagina12.com.ar/diario/elpais/index-2015-05-25.html'
p1000
aS'https://www.pagina12.com.ar/diario/economia/index-2015-05-25.html'
p1001
aS'https://www.pagina12.com.ar/diario/sociedad/index-2015-05-25.html'
p1002
aS'https://www.pagina12.com.ar/diario/elpais/index-2015-05-26.html'
p1003
aS'https://www.pagina12.com.ar/diario/economia/index-2015-05-26.html'
p1004
aS'https://www.pagina12.com.ar/diario/sociedad/index-2015-05-26.html'
p1005
aS'https://www.pagina12.com.ar/diario/elpais/index-2015-05-27.html'
p1006
aS'https://www.pagina12.com.ar/diario/economia/index-2015-05-27.html'
p1007
aS'https://www.pagina12.com.ar/diario/sociedad/index-2015-05-27.html'
p1008
aS'https://www.pagina12.com.ar/diario/elpais/index-2015-05-28.html'
p1009
aS'https://www.pagina12.com.ar/diario/economia/index-2015-05-28.html'
p1010
aS'https://www.pagina12.com.ar/diario/sociedad/index-2015-05-28.html'
p1011
aS'https://www.pagina12.com.ar/diario/elpais/index-2015-05-29.html'
p1012
aS'https://www.pagina12.com.ar/diario/economia/index-2015-05-29.html'
p1013
aS'https://www.pagina12.com.ar/diario/sociedad/index-2015-05-29.html'
p1014
aS'https://www.pagina12.com.ar/diario/elpais/index-2015-05-30.html'
p1015
aS'https://www.pagina12.com.ar/diario/economia/index-2015-05-30.html'
p1016
aS'https://www.pagina12.com.ar/diario/sociedad/index-2015-05-30.html'
p1017
aS'https://www.pagina12.com.ar/diario/elpais/index-2015-05-31.html'
p1018
aS'https://www.pagina12.com.ar/diario/economia/index-2015-05-31.html'
p1019
aS'https://www.pagina12.com.ar/diario/sociedad/index-2015-05-31.html'
p1020
aS'https://www.pagina12.com.ar/diario/elpais/index-2015-06-01.html'
p1021
aS'https://www.pagina12.com.ar/diario/economia/index-2015-06-01.html'
p1022
aS'https://www.pagina12.com.ar/diario/sociedad/index-2015-06-01.html'
p1023
aS'https://www.pagina12.com.ar/diario/elpais/index-2015-06-02.html'
p1024
aS'https://www.pagina12.com.ar/diario/economia/index-2015-06-02.html'
p1025
aS'https://www.pagina12.com.ar/diario/sociedad/index-2015-06-02.html'
p1026
aS'https://www.pagina12.com.ar/diario/elpais/index-2015-06-03.html'
p1027
aS'https://www.pagina12.com.ar/diario/economia/index-2015-06-03.html'
p1028
aS'https://www.pagina12.com.ar/diario/sociedad/index-2015-06-03.html'
p1029
aS'https://www.pagina12.com.ar/diario/elpais/index-2015-06-04.html'
p1030
aS'https://www.pagina12.com.ar/diario/economia/index-2015-06-04.html'
p1031
aS'https://www.pagina12.com.ar/diario/sociedad/index-2015-06-04.html'
p1032
aS'https://www.pagina12.com.ar/diario/elpais/index-2015-06-05.html'
p1033
aS'https://www.pagina12.com.ar/diario/economia/index-2015-06-05.html'
p1034
aS'https://www.pagina12.com.ar/diario/sociedad/index-2015-06-05.html'
p1035
aS'https://www.pagina12.com.ar/diario/elpais/index-2015-06-06.html'
p1036
aS'https://www.pagina12.com.ar/diario/economia/index-2015-06-06.html'
p1037
aS'https://www.pagina12.com.ar/diario/sociedad/index-2015-06-06.html'
p1038
aS'https://www.pagina12.com.ar/diario/elpais/index-2015-06-07.html'
p1039
aS'https://www.pagina12.com.ar/diario/economia/index-2015-06-07.html'
p1040
aS'https://www.pagina12.com.ar/diario/sociedad/index-2015-06-07.html'
p1041
aS'https://www.pagina12.com.ar/diario/elpais/index-2015-06-08.html'
p1042
aS'https://www.pagina12.com.ar/diario/economia/index-2015-06-08.html'
p1043
aS'https://www.pagina12.com.ar/diario/sociedad/index-2015-06-08.html'
p1044
aS'https://www.pagina12.com.ar/diario/elpais/index-2015-06-09.html'
p1045
aS'https://www.pagina12.com.ar/diario/economia/index-2015-06-09.html'
p1046
aS'https://www.pagina12.com.ar/diario/sociedad/index-2015-06-09.html'
p1047
aS'https://www.pagina12.com.ar/diario/elpais/index-2015-06-10.html'
p1048
aS'https://www.pagina12.com.ar/diario/economia/index-2015-06-10.html'
p1049
aS'https://www.pagina12.com.ar/diario/sociedad/index-2015-06-10.html'
p1050
aS'https://www.pagina12.com.ar/diario/elpais/index-2015-06-11.html'
p1051
aS'https://www.pagina12.com.ar/diario/economia/index-2015-06-11.html'
p1052
aS'https://www.pagina12.com.ar/diario/sociedad/index-2015-06-11.html'
p1053
aS'https://www.pagina12.com.ar/diario/elpais/index-2015-06-12.html'
p1054
aS'https://www.pagina12.com.ar/diario/economia/index-2015-06-12.html'
p1055
aS'https://www.pagina12.com.ar/diario/sociedad/index-2015-06-12.html'
p1056
aS'https://www.pagina12.com.ar/diario/elpais/index-2015-06-13.html'
p1057
aS'https://www.pagina12.com.ar/diario/economia/index-2015-06-13.html'
p1058
aS'https://www.pagina12.com.ar/diario/sociedad/index-2015-06-13.html'
p1059
aS'https://www.pagina12.com.ar/diario/elpais/index-2015-06-14.html'
p1060
aS'https://www.pagina12.com.ar/diario/economia/index-2015-06-14.html'
p1061
aS'https://www.pagina12.com.ar/diario/sociedad/index-2015-06-14.html'
p1062
aS'https://www.pagina12.com.ar/diario/elpais/index-2015-06-15.html'
p1063
aS'https://www.pagina12.com.ar/diario/economia/index-2015-06-15.html'
p1064
aS'https://www.pagina12.com.ar/diario/sociedad/index-2015-06-15.html'
p1065
aS'https://www.pagina12.com.ar/diario/elpais/index-2015-06-16.html'
p1066
aS'https://www.pagina12.com.ar/diario/economia/index-2015-06-16.html'
p1067
aS'https://www.pagina12.com.ar/diario/sociedad/index-2015-06-16.html'
p1068
aS'https://www.pagina12.com.ar/diario/elpais/index-2015-06-17.html'
p1069
aS'https://www.pagina12.com.ar/diario/economia/index-2015-06-17.html'
p1070
aS'https://www.pagina12.com.ar/diario/sociedad/index-2015-06-17.html'
p1071
aS'https://www.pagina12.com.ar/diario/elpais/index-2015-06-18.html'
p1072
aS'https://www.pagina12.com.ar/diario/economia/index-2015-06-18.html'
p1073
aS'https://www.pagina12.com.ar/diario/sociedad/index-2015-06-18.html'
p1074
aS'https://www.pagina12.com.ar/diario/elpais/index-2015-06-19.html'
p1075
aS'https://www.pagina12.com.ar/diario/economia/index-2015-06-19.html'
p1076
aS'https://www.pagina12.com.ar/diario/sociedad/index-2015-06-19.html'
p1077
aS'https://www.pagina12.com.ar/diario/elpais/index-2015-06-20.html'
p1078
aS'https://www.pagina12.com.ar/diario/economia/index-2015-06-20.html'
p1079
aS'https://www.pagina12.com.ar/diario/sociedad/index-2015-06-20.html'
p1080
aS'https://www.pagina12.com.ar/diario/elpais/index-2015-06-21.html'
p1081
aS'https://www.pagina12.com.ar/diario/economia/index-2015-06-21.html'
p1082
aS'https://www.pagina12.com.ar/diario/sociedad/index-2015-06-21.html'
p1083
aS'https://www.pagina12.com.ar/diario/elpais/index-2015-06-22.html'
p1084
aS'https://www.pagina12.com.ar/diario/economia/index-2015-06-22.html'
p1085
aS'https://www.pagina12.com.ar/diario/sociedad/index-2015-06-22.html'
p1086
aS'https://www.pagina12.com.ar/diario/elpais/index-2015-06-23.html'
p1087
aS'https://www.pagina12.com.ar/diario/economia/index-2015-06-23.html'
p1088
aS'https://www.pagina12.com.ar/diario/sociedad/index-2015-06-23.html'
p1089
aS'https://www.pagina12.com.ar/diario/elpais/index-2015-06-24.html'
p1090
aS'https://www.pagina12.com.ar/diario/economia/index-2015-06-24.html'
p1091
aS'https://www.pagina12.com.ar/diario/sociedad/index-2015-06-24.html'
p1092
aS'https://www.pagina12.com.ar/diario/elpais/index-2015-06-25.html'
p1093
aS'https://www.pagina12.com.ar/diario/economia/index-2015-06-25.html'
p1094
aS'https://www.pagina12.com.ar/diario/sociedad/index-2015-06-25.html'
p1095
aS'https://www.pagina12.com.ar/diario/elpais/index-2015-06-26.html'
p1096
aS'https://www.pagina12.com.ar/diario/economia/index-2015-06-26.html'
p1097
aS'https://www.pagina12.com.ar/diario/sociedad/index-2015-06-26.html'
p1098
aS'https://www.pagina12.com.ar/diario/elpais/index-2015-06-27.html'
p1099
aS'https://www.pagina12.com.ar/diario/economia/index-2015-06-27.html'
p1100
aS'https://www.pagina12.com.ar/diario/sociedad/index-2015-06-27.html'
p1101
aS'https://www.pagina12.com.ar/diario/elpais/index-2015-06-28.html'
p1102
aS'https://www.pagina12.com.ar/diario/economia/index-2015-06-28.html'
p1103
aS'https://www.pagina12.com.ar/diario/sociedad/index-2015-06-28.html'
p1104
aS'https://www.pagina12.com.ar/diario/elpais/index-2015-06-29.html'
p1105
aS'https://www.pagina12.com.ar/diario/economia/index-2015-06-29.html'
p1106
aS'https://www.pagina12.com.ar/diario/sociedad/index-2015-06-29.html'
p1107
aS'https://www.pagina12.com.ar/diario/elpais/index-2015-06-30.html'
p1108
aS'https://www.pagina12.com.ar/diario/economia/index-2015-06-30.html'
p1109
aS'https://www.pagina12.com.ar/diario/sociedad/index-2015-06-30.html'
p1110
aS'https://www.pagina12.com.ar/diario/elpais/index-2015-06-31.html'
p1111
aS'https://www.pagina12.com.ar/diario/economia/index-2015-06-31.html'
p1112
aS'https://www.pagina12.com.ar/diario/sociedad/index-2015-06-31.html'
p1113
aS'https://www.pagina12.com.ar/diario/elpais/index-2015-07-01.html'
p1114
aS'https://www.pagina12.com.ar/diario/economia/index-2015-07-01.html'
p1115
aS'https://www.pagina12.com.ar/diario/sociedad/index-2015-07-01.html'
p1116
aS'https://www.pagina12.com.ar/diario/elpais/index-2015-07-02.html'
p1117
aS'https://www.pagina12.com.ar/diario/economia/index-2015-07-02.html'
p1118
aS'https://www.pagina12.com.ar/diario/sociedad/index-2015-07-02.html'
p1119
aS'https://www.pagina12.com.ar/diario/elpais/index-2015-07-03.html'
p1120
aS'https://www.pagina12.com.ar/diario/economia/index-2015-07-03.html'
p1121
aS'https://www.pagina12.com.ar/diario/sociedad/index-2015-07-03.html'
p1122
aS'https://www.pagina12.com.ar/diario/elpais/index-2015-07-04.html'
p1123
aS'https://www.pagina12.com.ar/diario/economia/index-2015-07-04.html'
p1124
aS'https://www.pagina12.com.ar/diario/sociedad/index-2015-07-04.html'
p1125
aS'https://www.pagina12.com.ar/diario/elpais/index-2015-07-05.html'
p1126
aS'https://www.pagina12.com.ar/diario/economia/index-2015-07-05.html'
p1127
aS'https://www.pagina12.com.ar/diario/sociedad/index-2015-07-05.html'
p1128
aS'https://www.pagina12.com.ar/diario/elpais/index-2015-07-06.html'
p1129
aS'https://www.pagina12.com.ar/diario/economia/index-2015-07-06.html'
p1130
aS'https://www.pagina12.com.ar/diario/sociedad/index-2015-07-06.html'
p1131
aS'https://www.pagina12.com.ar/diario/elpais/index-2015-07-07.html'
p1132
aS'https://www.pagina12.com.ar/diario/economia/index-2015-07-07.html'
p1133
aS'https://www.pagina12.com.ar/diario/sociedad/index-2015-07-07.html'
p1134
aS'https://www.pagina12.com.ar/diario/elpais/index-2015-07-08.html'
p1135
aS'https://www.pagina12.com.ar/diario/economia/index-2015-07-08.html'
p1136
aS'https://www.pagina12.com.ar/diario/sociedad/index-2015-07-08.html'
p1137
aS'https://www.pagina12.com.ar/diario/elpais/index-2015-07-09.html'
p1138
aS'https://www.pagina12.com.ar/diario/economia/index-2015-07-09.html'
p1139
aS'https://www.pagina12.com.ar/diario/sociedad/index-2015-07-09.html'
p1140
aS'https://www.pagina12.com.ar/diario/elpais/index-2015-07-10.html'
p1141
aS'https://www.pagina12.com.ar/diario/economia/index-2015-07-10.html'
p1142
aS'https://www.pagina12.com.ar/diario/sociedad/index-2015-07-10.html'
p1143
aS'https://www.pagina12.com.ar/diario/elpais/index-2015-07-11.html'
p1144
aS'https://www.pagina12.com.ar/diario/economia/index-2015-07-11.html'
p1145
aS'https://www.pagina12.com.ar/diario/sociedad/index-2015-07-11.html'
p1146
aS'https://www.pagina12.com.ar/diario/elpais/index-2015-07-12.html'
p1147
aS'https://www.pagina12.com.ar/diario/economia/index-2015-07-12.html'
p1148
aS'https://www.pagina12.com.ar/diario/sociedad/index-2015-07-12.html'
p1149
aS'https://www.pagina12.com.ar/diario/elpais/index-2015-07-13.html'
p1150
aS'https://www.pagina12.com.ar/diario/economia/index-2015-07-13.html'
p1151
aS'https://www.pagina12.com.ar/diario/sociedad/index-2015-07-13.html'
p1152
aS'https://www.pagina12.com.ar/diario/elpais/index-2015-07-14.html'
p1153
aS'https://www.pagina12.com.ar/diario/economia/index-2015-07-14.html'
p1154
aS'https://www.pagina12.com.ar/diario/sociedad/index-2015-07-14.html'
p1155
aS'https://www.pagina12.com.ar/diario/elpais/index-2015-07-15.html'
p1156
aS'https://www.pagina12.com.ar/diario/economia/index-2015-07-15.html'
p1157
aS'https://www.pagina12.com.ar/diario/sociedad/index-2015-07-15.html'
p1158
aS'https://www.pagina12.com.ar/diario/elpais/index-2015-07-16.html'
p1159
aS'https://www.pagina12.com.ar/diario/economia/index-2015-07-16.html'
p1160
aS'https://www.pagina12.com.ar/diario/sociedad/index-2015-07-16.html'
p1161
aS'https://www.pagina12.com.ar/diario/elpais/index-2015-07-17.html'
p1162
aS'https://www.pagina12.com.ar/diario/economia/index-2015-07-17.html'
p1163
aS'https://www.pagina12.com.ar/diario/sociedad/index-2015-07-17.html'
p1164
aS'https://www.pagina12.com.ar/diario/elpais/index-2015-07-18.html'
p1165
aS'https://www.pagina12.com.ar/diario/economia/index-2015-07-18.html'
p1166
aS'https://www.pagina12.com.ar/diario/sociedad/index-2015-07-18.html'
p1167
aS'https://www.pagina12.com.ar/diario/elpais/index-2015-07-19.html'
p1168
aS'https://www.pagina12.com.ar/diario/economia/index-2015-07-19.html'
p1169
aS'https://www.pagina12.com.ar/diario/sociedad/index-2015-07-19.html'
p1170
aS'https://www.pagina12.com.ar/diario/elpais/index-2015-07-20.html'
p1171
aS'https://www.pagina12.com.ar/diario/economia/index-2015-07-20.html'
p1172
aS'https://www.pagina12.com.ar/diario/sociedad/index-2015-07-20.html'
p1173
aS'https://www.pagina12.com.ar/diario/elpais/index-2015-07-21.html'
p1174
aS'https://www.pagina12.com.ar/diario/economia/index-2015-07-21.html'
p1175
aS'https://www.pagina12.com.ar/diario/sociedad/index-2015-07-21.html'
p1176
aS'https://www.pagina12.com.ar/diario/elpais/index-2015-07-22.html'
p1177
aS'https://www.pagina12.com.ar/diario/economia/index-2015-07-22.html'
p1178
aS'https://www.pagina12.com.ar/diario/sociedad/index-2015-07-22.html'
p1179
aS'https://www.pagina12.com.ar/diario/elpais/index-2015-07-23.html'
p1180
aS'https://www.pagina12.com.ar/diario/economia/index-2015-07-23.html'
p1181
aS'https://www.pagina12.com.ar/diario/sociedad/index-2015-07-23.html'
p1182
aS'https://www.pagina12.com.ar/diario/elpais/index-2015-07-24.html'
p1183
aS'https://www.pagina12.com.ar/diario/economia/index-2015-07-24.html'
p1184
aS'https://www.pagina12.com.ar/diario/sociedad/index-2015-07-24.html'
p1185
aS'https://www.pagina12.com.ar/diario/elpais/index-2015-07-25.html'
p1186
aS'https://www.pagina12.com.ar/diario/economia/index-2015-07-25.html'
p1187
aS'https://www.pagina12.com.ar/diario/sociedad/index-2015-07-25.html'
p1188
aS'https://www.pagina12.com.ar/diario/elpais/index-2015-07-26.html'
p1189
aS'https://www.pagina12.com.ar/diario/economia/index-2015-07-26.html'
p1190
aS'https://www.pagina12.com.ar/diario/sociedad/index-2015-07-26.html'
p1191
aS'https://www.pagina12.com.ar/diario/elpais/index-2015-07-27.html'
p1192
aS'https://www.pagina12.com.ar/diario/economia/index-2015-07-27.html'
p1193
aS'https://www.pagina12.com.ar/diario/sociedad/index-2015-07-27.html'
p1194
aS'https://www.pagina12.com.ar/diario/elpais/index-2015-07-28.html'
p1195
aS'https://www.pagina12.com.ar/diario/economia/index-2015-07-28.html'
p1196
aS'https://www.pagina12.com.ar/diario/sociedad/index-2015-07-28.html'
p1197
aS'https://www.pagina12.com.ar/diario/elpais/index-2015-07-29.html'
p1198
aS'https://www.pagina12.com.ar/diario/economia/index-2015-07-29.html'
p1199
aS'https://www.pagina12.com.ar/diario/sociedad/index-2015-07-29.html'
p1200
aS'https://www.pagina12.com.ar/diario/elpais/index-2015-07-30.html'
p1201
aS'https://www.pagina12.com.ar/diario/economia/index-2015-07-30.html'
p1202
aS'https://www.pagina12.com.ar/diario/sociedad/index-2015-07-30.html'
p1203
aS'https://www.pagina12.com.ar/diario/elpais/index-2015-07-31.html'
p1204
aS'https://www.pagina12.com.ar/diario/economia/index-2015-07-31.html'
p1205
aS'https://www.pagina12.com.ar/diario/sociedad/index-2015-07-31.html'
p1206
aS'https://www.pagina12.com.ar/diario/elpais/index-2015-08-01.html'
p1207
aS'https://www.pagina12.com.ar/diario/economia/index-2015-08-01.html'
p1208
aS'https://www.pagina12.com.ar/diario/sociedad/index-2015-08-01.html'
p1209
aS'https://www.pagina12.com.ar/diario/elpais/index-2015-08-02.html'
p1210
aS'https://www.pagina12.com.ar/diario/economia/index-2015-08-02.html'
p1211
aS'https://www.pagina12.com.ar/diario/sociedad/index-2015-08-02.html'
p1212
aS'https://www.pagina12.com.ar/diario/elpais/index-2015-08-03.html'
p1213
aS'https://www.pagina12.com.ar/diario/economia/index-2015-08-03.html'
p1214
aS'https://www.pagina12.com.ar/diario/sociedad/index-2015-08-03.html'
p1215
aS'https://www.pagina12.com.ar/diario/elpais/index-2015-08-04.html'
p1216
aS'https://www.pagina12.com.ar/diario/economia/index-2015-08-04.html'
p1217
aS'https://www.pagina12.com.ar/diario/sociedad/index-2015-08-04.html'
p1218
aS'https://www.pagina12.com.ar/diario/elpais/index-2015-08-05.html'
p1219
aS'https://www.pagina12.com.ar/diario/economia/index-2015-08-05.html'
p1220
aS'https://www.pagina12.com.ar/diario/sociedad/index-2015-08-05.html'
p1221
aS'https://www.pagina12.com.ar/diario/elpais/index-2015-08-06.html'
p1222
aS'https://www.pagina12.com.ar/diario/economia/index-2015-08-06.html'
p1223
aS'https://www.pagina12.com.ar/diario/sociedad/index-2015-08-06.html'
p1224
aS'https://www.pagina12.com.ar/diario/elpais/index-2015-08-07.html'
p1225
aS'https://www.pagina12.com.ar/diario/economia/index-2015-08-07.html'
p1226
aS'https://www.pagina12.com.ar/diario/sociedad/index-2015-08-07.html'
p1227
aS'https://www.pagina12.com.ar/diario/elpais/index-2015-08-08.html'
p1228
aS'https://www.pagina12.com.ar/diario/economia/index-2015-08-08.html'
p1229
aS'https://www.pagina12.com.ar/diario/sociedad/index-2015-08-08.html'
p1230
aS'https://www.pagina12.com.ar/diario/elpais/index-2015-08-09.html'
p1231
aS'https://www.pagina12.com.ar/diario/economia/index-2015-08-09.html'
p1232
aS'https://www.pagina12.com.ar/diario/sociedad/index-2015-08-09.html'
p1233
aS'https://www.pagina12.com.ar/diario/elpais/index-2015-08-10.html'
p1234
aS'https://www.pagina12.com.ar/diario/economia/index-2015-08-10.html'
p1235
aS'https://www.pagina12.com.ar/diario/sociedad/index-2015-08-10.html'
p1236
aS'https://www.pagina12.com.ar/diario/elpais/index-2015-08-11.html'
p1237
aS'https://www.pagina12.com.ar/diario/economia/index-2015-08-11.html'
p1238
aS'https://www.pagina12.com.ar/diario/sociedad/index-2015-08-11.html'
p1239
aS'https://www.pagina12.com.ar/diario/elpais/index-2015-08-12.html'
p1240
aS'https://www.pagina12.com.ar/diario/economia/index-2015-08-12.html'
p1241
aS'https://www.pagina12.com.ar/diario/sociedad/index-2015-08-12.html'
p1242
aS'https://www.pagina12.com.ar/diario/elpais/index-2015-08-13.html'
p1243
aS'https://www.pagina12.com.ar/diario/economia/index-2015-08-13.html'
p1244
aS'https://www.pagina12.com.ar/diario/sociedad/index-2015-08-13.html'
p1245
aS'https://www.pagina12.com.ar/diario/elpais/index-2015-08-14.html'
p1246
aS'https://www.pagina12.com.ar/diario/economia/index-2015-08-14.html'
p1247
aS'https://www.pagina12.com.ar/diario/sociedad/index-2015-08-14.html'
p1248
aS'https://www.pagina12.com.ar/diario/elpais/index-2015-08-15.html'
p1249
aS'https://www.pagina12.com.ar/diario/economia/index-2015-08-15.html'
p1250
aS'https://www.pagina12.com.ar/diario/sociedad/index-2015-08-15.html'
p1251
aS'https://www.pagina12.com.ar/diario/elpais/index-2015-08-16.html'
p1252
aS'https://www.pagina12.com.ar/diario/economia/index-2015-08-16.html'
p1253
aS'https://www.pagina12.com.ar/diario/sociedad/index-2015-08-16.html'
p1254
aS'https://www.pagina12.com.ar/diario/elpais/index-2015-08-17.html'
p1255
aS'https://www.pagina12.com.ar/diario/economia/index-2015-08-17.html'
p1256
aS'https://www.pagina12.com.ar/diario/sociedad/index-2015-08-17.html'
p1257
aS'https://www.pagina12.com.ar/diario/elpais/index-2015-08-18.html'
p1258
aS'https://www.pagina12.com.ar/diario/economia/index-2015-08-18.html'
p1259
aS'https://www.pagina12.com.ar/diario/sociedad/index-2015-08-18.html'
p1260
aS'https://www.pagina12.com.ar/diario/elpais/index-2015-08-19.html'
p1261
aS'https://www.pagina12.com.ar/diario/economia/index-2015-08-19.html'
p1262
aS'https://www.pagina12.com.ar/diario/sociedad/index-2015-08-19.html'
p1263
aS'https://www.pagina12.com.ar/diario/elpais/index-2015-08-20.html'
p1264
aS'https://www.pagina12.com.ar/diario/economia/index-2015-08-20.html'
p1265
aS'https://www.pagina12.com.ar/diario/sociedad/index-2015-08-20.html'
p1266
aS'https://www.pagina12.com.ar/diario/elpais/index-2015-08-21.html'
p1267
aS'https://www.pagina12.com.ar/diario/economia/index-2015-08-21.html'
p1268
aS'https://www.pagina12.com.ar/diario/sociedad/index-2015-08-21.html'
p1269
aS'https://www.pagina12.com.ar/diario/elpais/index-2015-08-22.html'
p1270
aS'https://www.pagina12.com.ar/diario/economia/index-2015-08-22.html'
p1271
aS'https://www.pagina12.com.ar/diario/sociedad/index-2015-08-22.html'
p1272
aS'https://www.pagina12.com.ar/diario/elpais/index-2015-08-23.html'
p1273
aS'https://www.pagina12.com.ar/diario/economia/index-2015-08-23.html'
p1274
aS'https://www.pagina12.com.ar/diario/sociedad/index-2015-08-23.html'
p1275
aS'https://www.pagina12.com.ar/diario/elpais/index-2015-08-24.html'
p1276
aS'https://www.pagina12.com.ar/diario/economia/index-2015-08-24.html'
p1277
aS'https://www.pagina12.com.ar/diario/sociedad/index-2015-08-24.html'
p1278
aS'https://www.pagina12.com.ar/diario/elpais/index-2015-08-25.html'
p1279
aS'https://www.pagina12.com.ar/diario/economia/index-2015-08-25.html'
p1280
aS'https://www.pagina12.com.ar/diario/sociedad/index-2015-08-25.html'
p1281
aS'https://www.pagina12.com.ar/diario/elpais/index-2015-08-26.html'
p1282
aS'https://www.pagina12.com.ar/diario/economia/index-2015-08-26.html'
p1283
aS'https://www.pagina12.com.ar/diario/sociedad/index-2015-08-26.html'
p1284
aS'https://www.pagina12.com.ar/diario/elpais/index-2015-08-27.html'
p1285
aS'https://www.pagina12.com.ar/diario/economia/index-2015-08-27.html'
p1286
aS'https://www.pagina12.com.ar/diario/sociedad/index-2015-08-27.html'
p1287
aS'https://www.pagina12.com.ar/diario/elpais/index-2015-08-28.html'
p1288
aS'https://www.pagina12.com.ar/diario/economia/index-2015-08-28.html'
p1289
aS'https://www.pagina12.com.ar/diario/sociedad/index-2015-08-28.html'
p1290
aS'https://www.pagina12.com.ar/diario/elpais/index-2015-08-29.html'
p1291
aS'https://www.pagina12.com.ar/diario/economia/index-2015-08-29.html'
p1292
aS'https://www.pagina12.com.ar/diario/sociedad/index-2015-08-29.html'
p1293
aS'https://www.pagina12.com.ar/diario/elpais/index-2015-08-30.html'
p1294
aS'https://www.pagina12.com.ar/diario/economia/index-2015-08-30.html'
p1295
aS'https://www.pagina12.com.ar/diario/sociedad/index-2015-08-30.html'
p1296
aS'https://www.pagina12.com.ar/diario/elpais/index-2015-08-31.html'
p1297
aS'https://www.pagina12.com.ar/diario/economia/index-2015-08-31.html'
p1298
aS'https://www.pagina12.com.ar/diario/sociedad/index-2015-08-31.html'
p1299
aS'https://www.pagina12.com.ar/diario/elpais/index-2015-09-01.html'
p1300
aS'https://www.pagina12.com.ar/diario/economia/index-2015-09-01.html'
p1301
aS'https://www.pagina12.com.ar/diario/sociedad/index-2015-09-01.html'
p1302
aS'https://www.pagina12.com.ar/diario/elpais/index-2015-09-02.html'
p1303
aS'https://www.pagina12.com.ar/diario/economia/index-2015-09-02.html'
p1304
aS'https://www.pagina12.com.ar/diario/sociedad/index-2015-09-02.html'
p1305
aS'https://www.pagina12.com.ar/diario/elpais/index-2015-09-03.html'
p1306
aS'https://www.pagina12.com.ar/diario/economia/index-2015-09-03.html'
p1307
aS'https://www.pagina12.com.ar/diario/sociedad/index-2015-09-03.html'
p1308
aS'https://www.pagina12.com.ar/diario/elpais/index-2015-09-04.html'
p1309
aS'https://www.pagina12.com.ar/diario/economia/index-2015-09-04.html'
p1310
aS'https://www.pagina12.com.ar/diario/sociedad/index-2015-09-04.html'
p1311
aS'https://www.pagina12.com.ar/diario/elpais/index-2015-09-05.html'
p1312
aS'https://www.pagina12.com.ar/diario/economia/index-2015-09-05.html'
p1313
aS'https://www.pagina12.com.ar/diario/sociedad/index-2015-09-05.html'
p1314
aS'https://www.pagina12.com.ar/diario/elpais/index-2015-09-06.html'
p1315
aS'https://www.pagina12.com.ar/diario/economia/index-2015-09-06.html'
p1316
aS'https://www.pagina12.com.ar/diario/sociedad/index-2015-09-06.html'
p1317
aS'https://www.pagina12.com.ar/diario/elpais/index-2015-09-07.html'
p1318
aS'https://www.pagina12.com.ar/diario/economia/index-2015-09-07.html'
p1319
aS'https://www.pagina12.com.ar/diario/sociedad/index-2015-09-07.html'
p1320
aS'https://www.pagina12.com.ar/diario/elpais/index-2015-09-08.html'
p1321
aS'https://www.pagina12.com.ar/diario/economia/index-2015-09-08.html'
p1322
aS'https://www.pagina12.com.ar/diario/sociedad/index-2015-09-08.html'
p1323
aS'https://www.pagina12.com.ar/diario/elpais/index-2015-09-09.html'
p1324
aS'https://www.pagina12.com.ar/diario/economia/index-2015-09-09.html'
p1325
aS'https://www.pagina12.com.ar/diario/sociedad/index-2015-09-09.html'
p1326
aS'https://www.pagina12.com.ar/diario/elpais/index-2015-09-10.html'
p1327
aS'https://www.pagina12.com.ar/diario/economia/index-2015-09-10.html'
p1328
aS'https://www.pagina12.com.ar/diario/sociedad/index-2015-09-10.html'
p1329
aS'https://www.pagina12.com.ar/diario/elpais/index-2015-09-11.html'
p1330
aS'https://www.pagina12.com.ar/diario/economia/index-2015-09-11.html'
p1331
aS'https://www.pagina12.com.ar/diario/sociedad/index-2015-09-11.html'
p1332
aS'https://www.pagina12.com.ar/diario/elpais/index-2015-09-12.html'
p1333
aS'https://www.pagina12.com.ar/diario/economia/index-2015-09-12.html'
p1334
aS'https://www.pagina12.com.ar/diario/sociedad/index-2015-09-12.html'
p1335
aS'https://www.pagina12.com.ar/diario/elpais/index-2015-09-13.html'
p1336
aS'https://www.pagina12.com.ar/diario/economia/index-2015-09-13.html'
p1337
aS'https://www.pagina12.com.ar/diario/sociedad/index-2015-09-13.html'
p1338
aS'https://www.pagina12.com.ar/diario/elpais/index-2015-09-14.html'
p1339
aS'https://www.pagina12.com.ar/diario/economia/index-2015-09-14.html'
p1340
aS'https://www.pagina12.com.ar/diario/sociedad/index-2015-09-14.html'
p1341
aS'https://www.pagina12.com.ar/diario/elpais/index-2015-09-15.html'
p1342
aS'https://www.pagina12.com.ar/diario/economia/index-2015-09-15.html'
p1343
aS'https://www.pagina12.com.ar/diario/sociedad/index-2015-09-15.html'
p1344
aS'https://www.pagina12.com.ar/diario/elpais/index-2015-09-16.html'
p1345
aS'https://www.pagina12.com.ar/diario/economia/index-2015-09-16.html'
p1346
aS'https://www.pagina12.com.ar/diario/sociedad/index-2015-09-16.html'
p1347
aS'https://www.pagina12.com.ar/diario/elpais/index-2015-09-17.html'
p1348
aS'https://www.pagina12.com.ar/diario/economia/index-2015-09-17.html'
p1349
aS'https://www.pagina12.com.ar/diario/sociedad/index-2015-09-17.html'
p1350
aS'https://www.pagina12.com.ar/diario/elpais/index-2015-09-18.html'
p1351
aS'https://www.pagina12.com.ar/diario/economia/index-2015-09-18.html'
p1352
aS'https://www.pagina12.com.ar/diario/sociedad/index-2015-09-18.html'
p1353
aS'https://www.pagina12.com.ar/diario/elpais/index-2015-09-19.html'
p1354
aS'https://www.pagina12.com.ar/diario/economia/index-2015-09-19.html'
p1355
aS'https://www.pagina12.com.ar/diario/sociedad/index-2015-09-19.html'
p1356
aS'https://www.pagina12.com.ar/diario/elpais/index-2015-09-20.html'
p1357
aS'https://www.pagina12.com.ar/diario/economia/index-2015-09-20.html'
p1358
aS'https://www.pagina12.com.ar/diario/sociedad/index-2015-09-20.html'
p1359
aS'https://www.pagina12.com.ar/diario/elpais/index-2015-09-21.html'
p1360
aS'https://www.pagina12.com.ar/diario/economia/index-2015-09-21.html'
p1361
aS'https://www.pagina12.com.ar/diario/sociedad/index-2015-09-21.html'
p1362
aS'https://www.pagina12.com.ar/diario/elpais/index-2015-09-22.html'
p1363
aS'https://www.pagina12.com.ar/diario/economia/index-2015-09-22.html'
p1364
aS'https://www.pagina12.com.ar/diario/sociedad/index-2015-09-22.html'
p1365
aS'https://www.pagina12.com.ar/diario/elpais/index-2015-09-23.html'
p1366
aS'https://www.pagina12.com.ar/diario/economia/index-2015-09-23.html'
p1367
aS'https://www.pagina12.com.ar/diario/sociedad/index-2015-09-23.html'
p1368
aS'https://www.pagina12.com.ar/diario/elpais/index-2015-09-24.html'
p1369
aS'https://www.pagina12.com.ar/diario/economia/index-2015-09-24.html'
p1370
aS'https://www.pagina12.com.ar/diario/sociedad/index-2015-09-24.html'
p1371
aS'https://www.pagina12.com.ar/diario/elpais/index-2015-09-25.html'
p1372
aS'https://www.pagina12.com.ar/diario/economia/index-2015-09-25.html'
p1373
aS'https://www.pagina12.com.ar/diario/sociedad/index-2015-09-25.html'
p1374
aS'https://www.pagina12.com.ar/diario/elpais/index-2015-09-26.html'
p1375
aS'https://www.pagina12.com.ar/diario/economia/index-2015-09-26.html'
p1376
aS'https://www.pagina12.com.ar/diario/sociedad/index-2015-09-26.html'
p1377
aS'https://www.pagina12.com.ar/diario/elpais/index-2015-09-27.html'
p1378
aS'https://www.pagina12.com.ar/diario/economia/index-2015-09-27.html'
p1379
aS'https://www.pagina12.com.ar/diario/sociedad/index-2015-09-27.html'
p1380
aS'https://www.pagina12.com.ar/diario/elpais/index-2015-09-28.html'
p1381
aS'https://www.pagina12.com.ar/diario/economia/index-2015-09-28.html'
p1382
aS'https://www.pagina12.com.ar/diario/sociedad/index-2015-09-28.html'
p1383
aS'https://www.pagina12.com.ar/diario/elpais/index-2015-09-29.html'
p1384
aS'https://www.pagina12.com.ar/diario/economia/index-2015-09-29.html'
p1385
aS'https://www.pagina12.com.ar/diario/sociedad/index-2015-09-29.html'
p1386
aS'https://www.pagina12.com.ar/diario/elpais/index-2015-09-30.html'
p1387
aS'https://www.pagina12.com.ar/diario/economia/index-2015-09-30.html'
p1388
aS'https://www.pagina12.com.ar/diario/sociedad/index-2015-09-30.html'
p1389
aS'https://www.pagina12.com.ar/diario/elpais/index-2015-09-31.html'
p1390
aS'https://www.pagina12.com.ar/diario/economia/index-2015-09-31.html'
p1391
aS'https://www.pagina12.com.ar/diario/sociedad/index-2015-09-31.html'
p1392
aS'https://www.pagina12.com.ar/diario/elpais/index-2015-10-01.html'
p1393
aS'https://www.pagina12.com.ar/diario/economia/index-2015-10-01.html'
p1394
aS'https://www.pagina12.com.ar/diario/sociedad/index-2015-10-01.html'
p1395
aS'https://www.pagina12.com.ar/diario/elpais/index-2015-10-02.html'
p1396
aS'https://www.pagina12.com.ar/diario/economia/index-2015-10-02.html'
p1397
aS'https://www.pagina12.com.ar/diario/sociedad/index-2015-10-02.html'
p1398
aS'https://www.pagina12.com.ar/diario/elpais/index-2015-10-03.html'
p1399
aS'https://www.pagina12.com.ar/diario/economia/index-2015-10-03.html'
p1400
aS'https://www.pagina12.com.ar/diario/sociedad/index-2015-10-03.html'
p1401
aS'https://www.pagina12.com.ar/diario/elpais/index-2015-10-04.html'
p1402
aS'https://www.pagina12.com.ar/diario/economia/index-2015-10-04.html'
p1403
aS'https://www.pagina12.com.ar/diario/sociedad/index-2015-10-04.html'
p1404
aS'https://www.pagina12.com.ar/diario/elpais/index-2015-10-05.html'
p1405
aS'https://www.pagina12.com.ar/diario/economia/index-2015-10-05.html'
p1406
aS'https://www.pagina12.com.ar/diario/sociedad/index-2015-10-05.html'
p1407
aS'https://www.pagina12.com.ar/diario/elpais/index-2015-10-06.html'
p1408
aS'https://www.pagina12.com.ar/diario/economia/index-2015-10-06.html'
p1409
aS'https://www.pagina12.com.ar/diario/sociedad/index-2015-10-06.html'
p1410
aS'https://www.pagina12.com.ar/diario/elpais/index-2015-10-07.html'
p1411
aS'https://www.pagina12.com.ar/diario/economia/index-2015-10-07.html'
p1412
aS'https://www.pagina12.com.ar/diario/sociedad/index-2015-10-07.html'
p1413
aS'https://www.pagina12.com.ar/diario/elpais/index-2015-10-08.html'
p1414
aS'https://www.pagina12.com.ar/diario/economia/index-2015-10-08.html'
p1415
aS'https://www.pagina12.com.ar/diario/sociedad/index-2015-10-08.html'
p1416
aS'https://www.pagina12.com.ar/diario/elpais/index-2015-10-09.html'
p1417
aS'https://www.pagina12.com.ar/diario/economia/index-2015-10-09.html'
p1418
aS'https://www.pagina12.com.ar/diario/sociedad/index-2015-10-09.html'
p1419
aS'https://www.pagina12.com.ar/diario/elpais/index-2015-10-10.html'
p1420
aS'https://www.pagina12.com.ar/diario/economia/index-2015-10-10.html'
p1421
aS'https://www.pagina12.com.ar/diario/sociedad/index-2015-10-10.html'
p1422
aS'https://www.pagina12.com.ar/diario/elpais/index-2015-10-11.html'
p1423
aS'https://www.pagina12.com.ar/diario/economia/index-2015-10-11.html'
p1424
aS'https://www.pagina12.com.ar/diario/sociedad/index-2015-10-11.html'
p1425
aS'https://www.pagina12.com.ar/diario/elpais/index-2015-10-12.html'
p1426
aS'https://www.pagina12.com.ar/diario/economia/index-2015-10-12.html'
p1427
aS'https://www.pagina12.com.ar/diario/sociedad/index-2015-10-12.html'
p1428
aS'https://www.pagina12.com.ar/diario/elpais/index-2015-10-13.html'
p1429
aS'https://www.pagina12.com.ar/diario/economia/index-2015-10-13.html'
p1430
aS'https://www.pagina12.com.ar/diario/sociedad/index-2015-10-13.html'
p1431
aS'https://www.pagina12.com.ar/diario/elpais/index-2015-10-14.html'
p1432
aS'https://www.pagina12.com.ar/diario/economia/index-2015-10-14.html'
p1433
aS'https://www.pagina12.com.ar/diario/sociedad/index-2015-10-14.html'
p1434
aS'https://www.pagina12.com.ar/diario/elpais/index-2015-10-15.html'
p1435
aS'https://www.pagina12.com.ar/diario/economia/index-2015-10-15.html'
p1436
aS'https://www.pagina12.com.ar/diario/sociedad/index-2015-10-15.html'
p1437
aS'https://www.pagina12.com.ar/diario/elpais/index-2015-10-16.html'
p1438
aS'https://www.pagina12.com.ar/diario/economia/index-2015-10-16.html'
p1439
aS'https://www.pagina12.com.ar/diario/sociedad/index-2015-10-16.html'
p1440
aS'https://www.pagina12.com.ar/diario/elpais/index-2015-10-17.html'
p1441
aS'https://www.pagina12.com.ar/diario/economia/index-2015-10-17.html'
p1442
aS'https://www.pagina12.com.ar/diario/sociedad/index-2015-10-17.html'
p1443
aS'https://www.pagina12.com.ar/diario/elpais/index-2015-10-18.html'
p1444
aS'https://www.pagina12.com.ar/diario/economia/index-2015-10-18.html'
p1445
aS'https://www.pagina12.com.ar/diario/sociedad/index-2015-10-18.html'
p1446
aS'https://www.pagina12.com.ar/diario/elpais/index-2015-10-19.html'
p1447
aS'https://www.pagina12.com.ar/diario/economia/index-2015-10-19.html'
p1448
aS'https://www.pagina12.com.ar/diario/sociedad/index-2015-10-19.html'
p1449
aS'https://www.pagina12.com.ar/diario/elpais/index-2015-10-20.html'
p1450
aS'https://www.pagina12.com.ar/diario/economia/index-2015-10-20.html'
p1451
aS'https://www.pagina12.com.ar/diario/sociedad/index-2015-10-20.html'
p1452
aS'https://www.pagina12.com.ar/diario/elpais/index-2015-10-21.html'
p1453
aS'https://www.pagina12.com.ar/diario/economia/index-2015-10-21.html'
p1454
aS'https://www.pagina12.com.ar/diario/sociedad/index-2015-10-21.html'
p1455
aS'https://www.pagina12.com.ar/diario/elpais/index-2015-10-22.html'
p1456
aS'https://www.pagina12.com.ar/diario/economia/index-2015-10-22.html'
p1457
aS'https://www.pagina12.com.ar/diario/sociedad/index-2015-10-22.html'
p1458
aS'https://www.pagina12.com.ar/diario/elpais/index-2015-10-23.html'
p1459
aS'https://www.pagina12.com.ar/diario/economia/index-2015-10-23.html'
p1460
aS'https://www.pagina12.com.ar/diario/sociedad/index-2015-10-23.html'
p1461
aS'https://www.pagina12.com.ar/diario/elpais/index-2015-10-24.html'
p1462
aS'https://www.pagina12.com.ar/diario/economia/index-2015-10-24.html'
p1463
aS'https://www.pagina12.com.ar/diario/sociedad/index-2015-10-24.html'
p1464
aS'https://www.pagina12.com.ar/diario/elpais/index-2015-10-25.html'
p1465
aS'https://www.pagina12.com.ar/diario/economia/index-2015-10-25.html'
p1466
aS'https://www.pagina12.com.ar/diario/sociedad/index-2015-10-25.html'
p1467
aS'https://www.pagina12.com.ar/diario/elpais/index-2015-10-26.html'
p1468
aS'https://www.pagina12.com.ar/diario/economia/index-2015-10-26.html'
p1469
aS'https://www.pagina12.com.ar/diario/sociedad/index-2015-10-26.html'
p1470
aS'https://www.pagina12.com.ar/diario/elpais/index-2015-10-27.html'
p1471
aS'https://www.pagina12.com.ar/diario/economia/index-2015-10-27.html'
p1472
aS'https://www.pagina12.com.ar/diario/sociedad/index-2015-10-27.html'
p1473
aS'https://www.pagina12.com.ar/diario/elpais/index-2015-10-28.html'
p1474
aS'https://www.pagina12.com.ar/diario/economia/index-2015-10-28.html'
p1475
aS'https://www.pagina12.com.ar/diario/sociedad/index-2015-10-28.html'
p1476
aS'https://www.pagina12.com.ar/diario/elpais/index-2015-10-29.html'
p1477
aS'https://www.pagina12.com.ar/diario/economia/index-2015-10-29.html'
p1478
aS'https://www.pagina12.com.ar/diario/sociedad/index-2015-10-29.html'
p1479
aS'https://www.pagina12.com.ar/diario/elpais/index-2015-10-30.html'
p1480
aS'https://www.pagina12.com.ar/diario/economia/index-2015-10-30.html'
p1481
aS'https://www.pagina12.com.ar/diario/sociedad/index-2015-10-30.html'
p1482
aS'https://www.pagina12.com.ar/diario/elpais/index-2015-10-31.html'
p1483
aS'https://www.pagina12.com.ar/diario/economia/index-2015-10-31.html'
p1484
aS'https://www.pagina12.com.ar/diario/sociedad/index-2015-10-31.html'
p1485
aS'https://www.pagina12.com.ar/diario/elpais/index-2015-11-01.html'
p1486
aS'https://www.pagina12.com.ar/diario/economia/index-2015-11-01.html'
p1487
aS'https://www.pagina12.com.ar/diario/sociedad/index-2015-11-01.html'
p1488
aS'https://www.pagina12.com.ar/diario/elpais/index-2015-11-02.html'
p1489
aS'https://www.pagina12.com.ar/diario/economia/index-2015-11-02.html'
p1490
aS'https://www.pagina12.com.ar/diario/sociedad/index-2015-11-02.html'
p1491
aS'https://www.pagina12.com.ar/diario/elpais/index-2015-11-03.html'
p1492
aS'https://www.pagina12.com.ar/diario/economia/index-2015-11-03.html'
p1493
aS'https://www.pagina12.com.ar/diario/sociedad/index-2015-11-03.html'
p1494
aS'https://www.pagina12.com.ar/diario/elpais/index-2015-11-04.html'
p1495
aS'https://www.pagina12.com.ar/diario/economia/index-2015-11-04.html'
p1496
aS'https://www.pagina12.com.ar/diario/sociedad/index-2015-11-04.html'
p1497
aS'https://www.pagina12.com.ar/diario/elpais/index-2015-11-05.html'
p1498
aS'https://www.pagina12.com.ar/diario/economia/index-2015-11-05.html'
p1499
aS'https://www.pagina12.com.ar/diario/sociedad/index-2015-11-05.html'
p1500
aS'https://www.pagina12.com.ar/diario/elpais/index-2015-11-06.html'
p1501
aS'https://www.pagina12.com.ar/diario/economia/index-2015-11-06.html'
p1502
aS'https://www.pagina12.com.ar/diario/sociedad/index-2015-11-06.html'
p1503
aS'https://www.pagina12.com.ar/diario/elpais/index-2015-11-07.html'
p1504
aS'https://www.pagina12.com.ar/diario/economia/index-2015-11-07.html'
p1505
aS'https://www.pagina12.com.ar/diario/sociedad/index-2015-11-07.html'
p1506
aS'https://www.pagina12.com.ar/diario/elpais/index-2015-11-08.html'
p1507
aS'https://www.pagina12.com.ar/diario/economia/index-2015-11-08.html'
p1508
aS'https://www.pagina12.com.ar/diario/sociedad/index-2015-11-08.html'
p1509
aS'https://www.pagina12.com.ar/diario/elpais/index-2015-11-09.html'
p1510
aS'https://www.pagina12.com.ar/diario/economia/index-2015-11-09.html'
p1511
aS'https://www.pagina12.com.ar/diario/sociedad/index-2015-11-09.html'
p1512
aS'https://www.pagina12.com.ar/diario/elpais/index-2015-11-10.html'
p1513
aS'https://www.pagina12.com.ar/diario/economia/index-2015-11-10.html'
p1514
aS'https://www.pagina12.com.ar/diario/sociedad/index-2015-11-10.html'
p1515
aS'https://www.pagina12.com.ar/diario/elpais/index-2015-11-11.html'
p1516
aS'https://www.pagina12.com.ar/diario/economia/index-2015-11-11.html'
p1517
aS'https://www.pagina12.com.ar/diario/sociedad/index-2015-11-11.html'
p1518
aS'https://www.pagina12.com.ar/diario/elpais/index-2015-11-12.html'
p1519
aS'https://www.pagina12.com.ar/diario/economia/index-2015-11-12.html'
p1520
aS'https://www.pagina12.com.ar/diario/sociedad/index-2015-11-12.html'
p1521
aS'https://www.pagina12.com.ar/diario/elpais/index-2015-11-13.html'
p1522
aS'https://www.pagina12.com.ar/diario/economia/index-2015-11-13.html'
p1523
aS'https://www.pagina12.com.ar/diario/sociedad/index-2015-11-13.html'
p1524
aS'https://www.pagina12.com.ar/diario/elpais/index-2015-11-14.html'
p1525
aS'https://www.pagina12.com.ar/diario/economia/index-2015-11-14.html'
p1526
aS'https://www.pagina12.com.ar/diario/sociedad/index-2015-11-14.html'
p1527
aS'https://www.pagina12.com.ar/diario/elpais/index-2015-11-15.html'
p1528
aS'https://www.pagina12.com.ar/diario/economia/index-2015-11-15.html'
p1529
aS'https://www.pagina12.com.ar/diario/sociedad/index-2015-11-15.html'
p1530
aS'https://www.pagina12.com.ar/diario/elpais/index-2015-11-16.html'
p1531
aS'https://www.pagina12.com.ar/diario/economia/index-2015-11-16.html'
p1532
aS'https://www.pagina12.com.ar/diario/sociedad/index-2015-11-16.html'
p1533
aS'https://www.pagina12.com.ar/diario/elpais/index-2015-11-17.html'
p1534
aS'https://www.pagina12.com.ar/diario/economia/index-2015-11-17.html'
p1535
aS'https://www.pagina12.com.ar/diario/sociedad/index-2015-11-17.html'
p1536
aS'https://www.pagina12.com.ar/diario/elpais/index-2015-11-18.html'
p1537
aS'https://www.pagina12.com.ar/diario/economia/index-2015-11-18.html'
p1538
aS'https://www.pagina12.com.ar/diario/sociedad/index-2015-11-18.html'
p1539
aS'https://www.pagina12.com.ar/diario/elpais/index-2015-11-19.html'
p1540
aS'https://www.pagina12.com.ar/diario/economia/index-2015-11-19.html'
p1541
aS'https://www.pagina12.com.ar/diario/sociedad/index-2015-11-19.html'
p1542
aS'https://www.pagina12.com.ar/diario/elpais/index-2015-11-20.html'
p1543
aS'https://www.pagina12.com.ar/diario/economia/index-2015-11-20.html'
p1544
aS'https://www.pagina12.com.ar/diario/sociedad/index-2015-11-20.html'
p1545
aS'https://www.pagina12.com.ar/diario/elpais/index-2015-11-21.html'
p1546
aS'https://www.pagina12.com.ar/diario/economia/index-2015-11-21.html'
p1547
aS'https://www.pagina12.com.ar/diario/sociedad/index-2015-11-21.html'
p1548
aS'https://www.pagina12.com.ar/diario/elpais/index-2015-11-22.html'
p1549
aS'https://www.pagina12.com.ar/diario/economia/index-2015-11-22.html'
p1550
aS'https://www.pagina12.com.ar/diario/sociedad/index-2015-11-22.html'
p1551
aS'https://www.pagina12.com.ar/diario/elpais/index-2015-11-23.html'
p1552
aS'https://www.pagina12.com.ar/diario/economia/index-2015-11-23.html'
p1553
aS'https://www.pagina12.com.ar/diario/sociedad/index-2015-11-23.html'
p1554
aS'https://www.pagina12.com.ar/diario/elpais/index-2015-11-24.html'
p1555
aS'https://www.pagina12.com.ar/diario/economia/index-2015-11-24.html'
p1556
aS'https://www.pagina12.com.ar/diario/sociedad/index-2015-11-24.html'
p1557
aS'https://www.pagina12.com.ar/diario/elpais/index-2015-11-25.html'
p1558
aS'https://www.pagina12.com.ar/diario/economia/index-2015-11-25.html'
p1559
aS'https://www.pagina12.com.ar/diario/sociedad/index-2015-11-25.html'
p1560
aS'https://www.pagina12.com.ar/diario/elpais/index-2015-11-26.html'
p1561
aS'https://www.pagina12.com.ar/diario/economia/index-2015-11-26.html'
p1562
aS'https://www.pagina12.com.ar/diario/sociedad/index-2015-11-26.html'
p1563
aS'https://www.pagina12.com.ar/diario/elpais/index-2015-11-27.html'
p1564
aS'https://www.pagina12.com.ar/diario/economia/index-2015-11-27.html'
p1565
aS'https://www.pagina12.com.ar/diario/sociedad/index-2015-11-27.html'
p1566
aS'https://www.pagina12.com.ar/diario/elpais/index-2015-11-28.html'
p1567
aS'https://www.pagina12.com.ar/diario/economia/index-2015-11-28.html'
p1568
aS'https://www.pagina12.com.ar/diario/sociedad/index-2015-11-28.html'
p1569
aS'https://www.pagina12.com.ar/diario/elpais/index-2015-11-29.html'
p1570
aS'https://www.pagina12.com.ar/diario/economia/index-2015-11-29.html'
p1571
aS'https://www.pagina12.com.ar/diario/sociedad/index-2015-11-29.html'
p1572
aS'https://www.pagina12.com.ar/diario/elpais/index-2015-11-30.html'
p1573
aS'https://www.pagina12.com.ar/diario/economia/index-2015-11-30.html'
p1574
aS'https://www.pagina12.com.ar/diario/sociedad/index-2015-11-30.html'
p1575
aS'https://www.pagina12.com.ar/diario/elpais/index-2015-11-31.html'
p1576
aS'https://www.pagina12.com.ar/diario/economia/index-2015-11-31.html'
p1577
aS'https://www.pagina12.com.ar/diario/sociedad/index-2015-11-31.html'
p1578
aS'https://www.pagina12.com.ar/diario/elpais/index-2015-12-01.html'
p1579
aS'https://www.pagina12.com.ar/diario/economia/index-2015-12-01.html'
p1580
aS'https://www.pagina12.com.ar/diario/sociedad/index-2015-12-01.html'
p1581
aS'https://www.pagina12.com.ar/diario/elpais/index-2015-12-02.html'
p1582
aS'https://www.pagina12.com.ar/diario/economia/index-2015-12-02.html'
p1583
aS'https://www.pagina12.com.ar/diario/sociedad/index-2015-12-02.html'
p1584
aS'https://www.pagina12.com.ar/diario/elpais/index-2015-12-03.html'
p1585
aS'https://www.pagina12.com.ar/diario/economia/index-2015-12-03.html'
p1586
aS'https://www.pagina12.com.ar/diario/sociedad/index-2015-12-03.html'
p1587
aS'https://www.pagina12.com.ar/diario/elpais/index-2015-12-04.html'
p1588
aS'https://www.pagina12.com.ar/diario/economia/index-2015-12-04.html'
p1589
aS'https://www.pagina12.com.ar/diario/sociedad/index-2015-12-04.html'
p1590
aS'https://www.pagina12.com.ar/diario/elpais/index-2015-12-05.html'
p1591
aS'https://www.pagina12.com.ar/diario/economia/index-2015-12-05.html'
p1592
aS'https://www.pagina12.com.ar/diario/sociedad/index-2015-12-05.html'
p1593
aS'https://www.pagina12.com.ar/diario/elpais/index-2015-12-06.html'
p1594
aS'https://www.pagina12.com.ar/diario/economia/index-2015-12-06.html'
p1595
aS'https://www.pagina12.com.ar/diario/sociedad/index-2015-12-06.html'
p1596
aS'https://www.pagina12.com.ar/diario/elpais/index-2015-12-07.html'
p1597
aS'https://www.pagina12.com.ar/diario/economia/index-2015-12-07.html'
p1598
aS'https://www.pagina12.com.ar/diario/sociedad/index-2015-12-07.html'
p1599
aS'https://www.pagina12.com.ar/diario/elpais/index-2015-12-08.html'
p1600
aS'https://www.pagina12.com.ar/diario/economia/index-2015-12-08.html'
p1601
aS'https://www.pagina12.com.ar/diario/sociedad/index-2015-12-08.html'
p1602
aS'https://www.pagina12.com.ar/diario/elpais/index-2015-12-09.html'
p1603
aS'https://www.pagina12.com.ar/diario/economia/index-2015-12-09.html'
p1604
aS'https://www.pagina12.com.ar/diario/sociedad/index-2015-12-09.html'
p1605
aS'https://www.pagina12.com.ar/diario/elpais/index-2015-12-10.html'
p1606
aS'https://www.pagina12.com.ar/diario/economia/index-2015-12-10.html'
p1607
aS'https://www.pagina12.com.ar/diario/sociedad/index-2015-12-10.html'
p1608
aS'https://www.pagina12.com.ar/diario/elpais/index-2015-12-11.html'
p1609
aS'https://www.pagina12.com.ar/diario/economia/index-2015-12-11.html'
p1610
aS'https://www.pagina12.com.ar/diario/sociedad/index-2015-12-11.html'
p1611
aS'https://www.pagina12.com.ar/diario/elpais/index-2015-12-12.html'
p1612
aS'https://www.pagina12.com.ar/diario/economia/index-2015-12-12.html'
p1613
aS'https://www.pagina12.com.ar/diario/sociedad/index-2015-12-12.html'
p1614
aS'https://www.pagina12.com.ar/diario/elpais/index-2015-12-13.html'
p1615
aS'https://www.pagina12.com.ar/diario/economia/index-2015-12-13.html'
p1616
aS'https://www.pagina12.com.ar/diario/sociedad/index-2015-12-13.html'
p1617
aS'https://www.pagina12.com.ar/diario/elpais/index-2015-12-14.html'
p1618
aS'https://www.pagina12.com.ar/diario/economia/index-2015-12-14.html'
p1619
aS'https://www.pagina12.com.ar/diario/sociedad/index-2015-12-14.html'
p1620
aS'https://www.pagina12.com.ar/diario/elpais/index-2015-12-15.html'
p1621
aS'https://www.pagina12.com.ar/diario/economia/index-2015-12-15.html'
p1622
aS'https://www.pagina12.com.ar/diario/sociedad/index-2015-12-15.html'
p1623
aS'https://www.pagina12.com.ar/diario/elpais/index-2015-12-16.html'
p1624
aS'https://www.pagina12.com.ar/diario/economia/index-2015-12-16.html'
p1625
aS'https://www.pagina12.com.ar/diario/sociedad/index-2015-12-16.html'
p1626
aS'https://www.pagina12.com.ar/diario/elpais/index-2015-12-17.html'
p1627
aS'https://www.pagina12.com.ar/diario/economia/index-2015-12-17.html'
p1628
aS'https://www.pagina12.com.ar/diario/sociedad/index-2015-12-17.html'
p1629
aS'https://www.pagina12.com.ar/diario/elpais/index-2015-12-18.html'
p1630
aS'https://www.pagina12.com.ar/diario/economia/index-2015-12-18.html'
p1631
aS'https://www.pagina12.com.ar/diario/sociedad/index-2015-12-18.html'
p1632
aS'https://www.pagina12.com.ar/diario/elpais/index-2015-12-19.html'
p1633
aS'https://www.pagina12.com.ar/diario/economia/index-2015-12-19.html'
p1634
aS'https://www.pagina12.com.ar/diario/sociedad/index-2015-12-19.html'
p1635
aS'https://www.pagina12.com.ar/diario/elpais/index-2015-12-20.html'
p1636
aS'https://www.pagina12.com.ar/diario/economia/index-2015-12-20.html'
p1637
aS'https://www.pagina12.com.ar/diario/sociedad/index-2015-12-20.html'
p1638
aS'https://www.pagina12.com.ar/diario/elpais/index-2015-12-21.html'
p1639
aS'https://www.pagina12.com.ar/diario/economia/index-2015-12-21.html'
p1640
aS'https://www.pagina12.com.ar/diario/sociedad/index-2015-12-21.html'
p1641
aS'https://www.pagina12.com.ar/diario/elpais/index-2015-12-22.html'
p1642
aS'https://www.pagina12.com.ar/diario/economia/index-2015-12-22.html'
p1643
aS'https://www.pagina12.com.ar/diario/sociedad/index-2015-12-22.html'
p1644
aS'https://www.pagina12.com.ar/diario/elpais/index-2015-12-23.html'
p1645
aS'https://www.pagina12.com.ar/diario/economia/index-2015-12-23.html'
p1646
aS'https://www.pagina12.com.ar/diario/sociedad/index-2015-12-23.html'
p1647
aS'https://www.pagina12.com.ar/diario/elpais/index-2015-12-24.html'
p1648
aS'https://www.pagina12.com.ar/diario/economia/index-2015-12-24.html'
p1649
aS'https://www.pagina12.com.ar/diario/sociedad/index-2015-12-24.html'
p1650
aS'https://www.pagina12.com.ar/diario/elpais/index-2015-12-25.html'
p1651
aS'https://www.pagina12.com.ar/diario/economia/index-2015-12-25.html'
p1652
aS'https://www.pagina12.com.ar/diario/sociedad/index-2015-12-25.html'
p1653
aS'https://www.pagina12.com.ar/diario/elpais/index-2015-12-26.html'
p1654
aS'https://www.pagina12.com.ar/diario/economia/index-2015-12-26.html'
p1655
aS'https://www.pagina12.com.ar/diario/sociedad/index-2015-12-26.html'
p1656
aS'https://www.pagina12.com.ar/diario/elpais/index-2015-12-27.html'
p1657
aS'https://www.pagina12.com.ar/diario/economia/index-2015-12-27.html'
p1658
aS'https://www.pagina12.com.ar/diario/sociedad/index-2015-12-27.html'
p1659
aS'https://www.pagina12.com.ar/diario/elpais/index-2015-12-28.html'
p1660
aS'https://www.pagina12.com.ar/diario/economia/index-2015-12-28.html'
p1661
aS'https://www.pagina12.com.ar/diario/sociedad/index-2015-12-28.html'
p1662
aS'https://www.pagina12.com.ar/diario/elpais/index-2015-12-29.html'
p1663
aS'https://www.pagina12.com.ar/diario/economia/index-2015-12-29.html'
p1664
aS'https://www.pagina12.com.ar/diario/sociedad/index-2015-12-29.html'
p1665
aS'https://www.pagina12.com.ar/diario/elpais/index-2015-12-30.html'
p1666
aS'https://www.pagina12.com.ar/diario/economia/index-2015-12-30.html'
p1667
aS'https://www.pagina12.com.ar/diario/sociedad/index-2015-12-30.html'
p1668
aS'https://www.pagina12.com.ar/diario/elpais/index-2015-12-31.html'
p1669
aS'https://www.pagina12.com.ar/diario/economia/index-2015-12-31.html'
p1670
aS'https://www.pagina12.com.ar/diario/sociedad/index-2015-12-31.html'
p1671
aS'https://www.pagina12.com.ar/diario/elpais/index-2016-01-01.html'
p1672
aS'https://www.pagina12.com.ar/diario/economia/index-2016-01-01.html'
p1673
aS'https://www.pagina12.com.ar/diario/sociedad/index-2016-01-01.html'
p1674
aS'https://www.pagina12.com.ar/diario/elpais/index-2016-01-02.html'
p1675
aS'https://www.pagina12.com.ar/diario/economia/index-2016-01-02.html'
p1676
aS'https://www.pagina12.com.ar/diario/sociedad/index-2016-01-02.html'
p1677
aS'https://www.pagina12.com.ar/diario/elpais/index-2016-01-03.html'
p1678
aS'https://www.pagina12.com.ar/diario/economia/index-2016-01-03.html'
p1679
aS'https://www.pagina12.com.ar/diario/sociedad/index-2016-01-03.html'
p1680
aS'https://www.pagina12.com.ar/diario/elpais/index-2016-01-04.html'
p1681
aS'https://www.pagina12.com.ar/diario/economia/index-2016-01-04.html'
p1682
aS'https://www.pagina12.com.ar/diario/sociedad/index-2016-01-04.html'
p1683
aS'https://www.pagina12.com.ar/diario/elpais/index-2016-01-05.html'
p1684
aS'https://www.pagina12.com.ar/diario/economia/index-2016-01-05.html'
p1685
aS'https://www.pagina12.com.ar/diario/sociedad/index-2016-01-05.html'
p1686
aS'https://www.pagina12.com.ar/diario/elpais/index-2016-01-06.html'
p1687
aS'https://www.pagina12.com.ar/diario/economia/index-2016-01-06.html'
p1688
aS'https://www.pagina12.com.ar/diario/sociedad/index-2016-01-06.html'
p1689
aS'https://www.pagina12.com.ar/diario/elpais/index-2016-01-07.html'
p1690
aS'https://www.pagina12.com.ar/diario/economia/index-2016-01-07.html'
p1691
aS'https://www.pagina12.com.ar/diario/sociedad/index-2016-01-07.html'
p1692
aS'https://www.pagina12.com.ar/diario/elpais/index-2016-01-08.html'
p1693
aS'https://www.pagina12.com.ar/diario/economia/index-2016-01-08.html'
p1694
aS'https://www.pagina12.com.ar/diario/sociedad/index-2016-01-08.html'
p1695
aS'https://www.pagina12.com.ar/diario/elpais/index-2016-01-09.html'
p1696
aS'https://www.pagina12.com.ar/diario/economia/index-2016-01-09.html'
p1697
aS'https://www.pagina12.com.ar/diario/sociedad/index-2016-01-09.html'
p1698
aS'https://www.pagina12.com.ar/diario/elpais/index-2016-01-10.html'
p1699
aS'https://www.pagina12.com.ar/diario/economia/index-2016-01-10.html'
p1700
aS'https://www.pagina12.com.ar/diario/sociedad/index-2016-01-10.html'
p1701
aS'https://www.pagina12.com.ar/diario/elpais/index-2016-01-11.html'
p1702
aS'https://www.pagina12.com.ar/diario/economia/index-2016-01-11.html'
p1703
aS'https://www.pagina12.com.ar/diario/sociedad/index-2016-01-11.html'
p1704
aS'https://www.pagina12.com.ar/diario/elpais/index-2016-01-12.html'
p1705
aS'https://www.pagina12.com.ar/diario/economia/index-2016-01-12.html'
p1706
aS'https://www.pagina12.com.ar/diario/sociedad/index-2016-01-12.html'
p1707
aS'https://www.pagina12.com.ar/diario/elpais/index-2016-01-13.html'
p1708
aS'https://www.pagina12.com.ar/diario/economia/index-2016-01-13.html'
p1709
aS'https://www.pagina12.com.ar/diario/sociedad/index-2016-01-13.html'
p1710
aS'https://www.pagina12.com.ar/diario/elpais/index-2016-01-14.html'
p1711
aS'https://www.pagina12.com.ar/diario/economia/index-2016-01-14.html'
p1712
aS'https://www.pagina12.com.ar/diario/sociedad/index-2016-01-14.html'
p1713
aS'https://www.pagina12.com.ar/diario/elpais/index-2016-01-15.html'
p1714
aS'https://www.pagina12.com.ar/diario/economia/index-2016-01-15.html'
p1715
aS'https://www.pagina12.com.ar/diario/sociedad/index-2016-01-15.html'
p1716
aS'https://www.pagina12.com.ar/diario/elpais/index-2016-01-16.html'
p1717
aS'https://www.pagina12.com.ar/diario/economia/index-2016-01-16.html'
p1718
aS'https://www.pagina12.com.ar/diario/sociedad/index-2016-01-16.html'
p1719
aS'https://www.pagina12.com.ar/diario/elpais/index-2016-01-17.html'
p1720
aS'https://www.pagina12.com.ar/diario/economia/index-2016-01-17.html'
p1721
aS'https://www.pagina12.com.ar/diario/sociedad/index-2016-01-17.html'
p1722
aS'https://www.pagina12.com.ar/diario/elpais/index-2016-01-18.html'
p1723
aS'https://www.pagina12.com.ar/diario/economia/index-2016-01-18.html'
p1724
aS'https://www.pagina12.com.ar/diario/sociedad/index-2016-01-18.html'
p1725
aS'https://www.pagina12.com.ar/diario/elpais/index-2016-01-19.html'
p1726
aS'https://www.pagina12.com.ar/diario/economia/index-2016-01-19.html'
p1727
aS'https://www.pagina12.com.ar/diario/sociedad/index-2016-01-19.html'
p1728
aS'https://www.pagina12.com.ar/diario/elpais/index-2016-01-20.html'
p1729
aS'https://www.pagina12.com.ar/diario/economia/index-2016-01-20.html'
p1730
aS'https://www.pagina12.com.ar/diario/sociedad/index-2016-01-20.html'
p1731
aS'https://www.pagina12.com.ar/diario/elpais/index-2016-01-21.html'
p1732
aS'https://www.pagina12.com.ar/diario/economia/index-2016-01-21.html'
p1733
aS'https://www.pagina12.com.ar/diario/sociedad/index-2016-01-21.html'
p1734
aS'https://www.pagina12.com.ar/diario/elpais/index-2016-01-22.html'
p1735
aS'https://www.pagina12.com.ar/diario/economia/index-2016-01-22.html'
p1736
aS'https://www.pagina12.com.ar/diario/sociedad/index-2016-01-22.html'
p1737
aS'https://www.pagina12.com.ar/diario/elpais/index-2016-01-23.html'
p1738
aS'https://www.pagina12.com.ar/diario/economia/index-2016-01-23.html'
p1739
aS'https://www.pagina12.com.ar/diario/sociedad/index-2016-01-23.html'
p1740
aS'https://www.pagina12.com.ar/diario/elpais/index-2016-01-24.html'
p1741
aS'https://www.pagina12.com.ar/diario/economia/index-2016-01-24.html'
p1742
aS'https://www.pagina12.com.ar/diario/sociedad/index-2016-01-24.html'
p1743
aS'https://www.pagina12.com.ar/diario/elpais/index-2016-01-25.html'
p1744
aS'https://www.pagina12.com.ar/diario/economia/index-2016-01-25.html'
p1745
aS'https://www.pagina12.com.ar/diario/sociedad/index-2016-01-25.html'
p1746
aS'https://www.pagina12.com.ar/diario/elpais/index-2016-01-26.html'
p1747
aS'https://www.pagina12.com.ar/diario/economia/index-2016-01-26.html'
p1748
aS'https://www.pagina12.com.ar/diario/sociedad/index-2016-01-26.html'
p1749
aS'https://www.pagina12.com.ar/diario/elpais/index-2016-01-27.html'
p1750
aS'https://www.pagina12.com.ar/diario/economia/index-2016-01-27.html'
p1751
aS'https://www.pagina12.com.ar/diario/sociedad/index-2016-01-27.html'
p1752
aS'https://www.pagina12.com.ar/diario/elpais/index-2016-01-28.html'
p1753
aS'https://www.pagina12.com.ar/diario/economia/index-2016-01-28.html'
p1754
aS'https://www.pagina12.com.ar/diario/sociedad/index-2016-01-28.html'
p1755
aS'https://www.pagina12.com.ar/diario/elpais/index-2016-01-29.html'
p1756
aS'https://www.pagina12.com.ar/diario/economia/index-2016-01-29.html'
p1757
aS'https://www.pagina12.com.ar/diario/sociedad/index-2016-01-29.html'
p1758
aS'https://www.pagina12.com.ar/diario/elpais/index-2016-01-30.html'
p1759
aS'https://www.pagina12.com.ar/diario/economia/index-2016-01-30.html'
p1760
aS'https://www.pagina12.com.ar/diario/sociedad/index-2016-01-30.html'
p1761
aS'https://www.pagina12.com.ar/diario/elpais/index-2016-01-31.html'
p1762
aS'https://www.pagina12.com.ar/diario/economia/index-2016-01-31.html'
p1763
aS'https://www.pagina12.com.ar/diario/sociedad/index-2016-01-31.html'
p1764
aS'https://www.pagina12.com.ar/diario/elpais/index-2016-02-01.html'
p1765
aS'https://www.pagina12.com.ar/diario/economia/index-2016-02-01.html'
p1766
aS'https://www.pagina12.com.ar/diario/sociedad/index-2016-02-01.html'
p1767
aS'https://www.pagina12.com.ar/diario/elpais/index-2016-02-02.html'
p1768
aS'https://www.pagina12.com.ar/diario/economia/index-2016-02-02.html'
p1769
aS'https://www.pagina12.com.ar/diario/sociedad/index-2016-02-02.html'
p1770
aS'https://www.pagina12.com.ar/diario/elpais/index-2016-02-03.html'
p1771
aS'https://www.pagina12.com.ar/diario/economia/index-2016-02-03.html'
p1772
aS'https://www.pagina12.com.ar/diario/sociedad/index-2016-02-03.html'
p1773
aS'https://www.pagina12.com.ar/diario/elpais/index-2016-02-04.html'
p1774
aS'https://www.pagina12.com.ar/diario/economia/index-2016-02-04.html'
p1775
aS'https://www.pagina12.com.ar/diario/sociedad/index-2016-02-04.html'
p1776
aS'https://www.pagina12.com.ar/diario/elpais/index-2016-02-05.html'
p1777
aS'https://www.pagina12.com.ar/diario/economia/index-2016-02-05.html'
p1778
aS'https://www.pagina12.com.ar/diario/sociedad/index-2016-02-05.html'
p1779
aS'https://www.pagina12.com.ar/diario/elpais/index-2016-02-06.html'
p1780
aS'https://www.pagina12.com.ar/diario/economia/index-2016-02-06.html'
p1781
aS'https://www.pagina12.com.ar/diario/sociedad/index-2016-02-06.html'
p1782
aS'https://www.pagina12.com.ar/diario/elpais/index-2016-02-07.html'
p1783
aS'https://www.pagina12.com.ar/diario/economia/index-2016-02-07.html'
p1784
aS'https://www.pagina12.com.ar/diario/sociedad/index-2016-02-07.html'
p1785
aS'https://www.pagina12.com.ar/diario/elpais/index-2016-02-08.html'
p1786
aS'https://www.pagina12.com.ar/diario/economia/index-2016-02-08.html'
p1787
aS'https://www.pagina12.com.ar/diario/sociedad/index-2016-02-08.html'
p1788
aS'https://www.pagina12.com.ar/diario/elpais/index-2016-02-09.html'
p1789
aS'https://www.pagina12.com.ar/diario/economia/index-2016-02-09.html'
p1790
aS'https://www.pagina12.com.ar/diario/sociedad/index-2016-02-09.html'
p1791
aS'https://www.pagina12.com.ar/diario/elpais/index-2016-02-10.html'
p1792
aS'https://www.pagina12.com.ar/diario/economia/index-2016-02-10.html'
p1793
aS'https://www.pagina12.com.ar/diario/sociedad/index-2016-02-10.html'
p1794
aS'https://www.pagina12.com.ar/diario/elpais/index-2016-02-11.html'
p1795
aS'https://www.pagina12.com.ar/diario/economia/index-2016-02-11.html'
p1796
aS'https://www.pagina12.com.ar/diario/sociedad/index-2016-02-11.html'
p1797
aS'https://www.pagina12.com.ar/diario/elpais/index-2016-02-12.html'
p1798
aS'https://www.pagina12.com.ar/diario/economia/index-2016-02-12.html'
p1799
aS'https://www.pagina12.com.ar/diario/sociedad/index-2016-02-12.html'
p1800
aS'https://www.pagina12.com.ar/diario/elpais/index-2016-02-13.html'
p1801
aS'https://www.pagina12.com.ar/diario/economia/index-2016-02-13.html'
p1802
aS'https://www.pagina12.com.ar/diario/sociedad/index-2016-02-13.html'
p1803
aS'https://www.pagina12.com.ar/diario/elpais/index-2016-02-14.html'
p1804
aS'https://www.pagina12.com.ar/diario/economia/index-2016-02-14.html'
p1805
aS'https://www.pagina12.com.ar/diario/sociedad/index-2016-02-14.html'
p1806
aS'https://www.pagina12.com.ar/diario/elpais/index-2016-02-15.html'
p1807
aS'https://www.pagina12.com.ar/diario/economia/index-2016-02-15.html'
p1808
aS'https://www.pagina12.com.ar/diario/sociedad/index-2016-02-15.html'
p1809
aS'https://www.pagina12.com.ar/diario/elpais/index-2016-02-16.html'
p1810
aS'https://www.pagina12.com.ar/diario/economia/index-2016-02-16.html'
p1811
aS'https://www.pagina12.com.ar/diario/sociedad/index-2016-02-16.html'
p1812
aS'https://www.pagina12.com.ar/diario/elpais/index-2016-02-17.html'
p1813
aS'https://www.pagina12.com.ar/diario/economia/index-2016-02-17.html'
p1814
aS'https://www.pagina12.com.ar/diario/sociedad/index-2016-02-17.html'
p1815
aS'https://www.pagina12.com.ar/diario/elpais/index-2016-02-18.html'
p1816
aS'https://www.pagina12.com.ar/diario/economia/index-2016-02-18.html'
p1817
aS'https://www.pagina12.com.ar/diario/sociedad/index-2016-02-18.html'
p1818
aS'https://www.pagina12.com.ar/diario/elpais/index-2016-02-19.html'
p1819
aS'https://www.pagina12.com.ar/diario/economia/index-2016-02-19.html'
p1820
aS'https://www.pagina12.com.ar/diario/sociedad/index-2016-02-19.html'
p1821
aS'https://www.pagina12.com.ar/diario/elpais/index-2016-02-20.html'
p1822
aS'https://www.pagina12.com.ar/diario/economia/index-2016-02-20.html'
p1823
aS'https://www.pagina12.com.ar/diario/sociedad/index-2016-02-20.html'
p1824
aS'https://www.pagina12.com.ar/diario/elpais/index-2016-02-21.html'
p1825
aS'https://www.pagina12.com.ar/diario/economia/index-2016-02-21.html'
p1826
aS'https://www.pagina12.com.ar/diario/sociedad/index-2016-02-21.html'
p1827
aS'https://www.pagina12.com.ar/diario/elpais/index-2016-02-22.html'
p1828
aS'https://www.pagina12.com.ar/diario/economia/index-2016-02-22.html'
p1829
aS'https://www.pagina12.com.ar/diario/sociedad/index-2016-02-22.html'
p1830
aS'https://www.pagina12.com.ar/diario/elpais/index-2016-02-23.html'
p1831
aS'https://www.pagina12.com.ar/diario/economia/index-2016-02-23.html'
p1832
aS'https://www.pagina12.com.ar/diario/sociedad/index-2016-02-23.html'
p1833
aS'https://www.pagina12.com.ar/diario/elpais/index-2016-02-24.html'
p1834
aS'https://www.pagina12.com.ar/diario/economia/index-2016-02-24.html'
p1835
aS'https://www.pagina12.com.ar/diario/sociedad/index-2016-02-24.html'
p1836
aS'https://www.pagina12.com.ar/diario/elpais/index-2016-02-25.html'
p1837
aS'https://www.pagina12.com.ar/diario/economia/index-2016-02-25.html'
p1838
aS'https://www.pagina12.com.ar/diario/sociedad/index-2016-02-25.html'
p1839
aS'https://www.pagina12.com.ar/diario/elpais/index-2016-02-26.html'
p1840
aS'https://www.pagina12.com.ar/diario/economia/index-2016-02-26.html'
p1841
aS'https://www.pagina12.com.ar/diario/sociedad/index-2016-02-26.html'
p1842
aS'https://www.pagina12.com.ar/diario/elpais/index-2016-02-27.html'
p1843
aS'https://www.pagina12.com.ar/diario/economia/index-2016-02-27.html'
p1844
aS'https://www.pagina12.com.ar/diario/sociedad/index-2016-02-27.html'
p1845
aS'https://www.pagina12.com.ar/diario/elpais/index-2016-02-28.html'
p1846
aS'https://www.pagina12.com.ar/diario/economia/index-2016-02-28.html'
p1847
aS'https://www.pagina12.com.ar/diario/sociedad/index-2016-02-28.html'
p1848
aS'https://www.pagina12.com.ar/diario/elpais/index-2016-02-29.html'
p1849
aS'https://www.pagina12.com.ar/diario/economia/index-2016-02-29.html'
p1850
aS'https://www.pagina12.com.ar/diario/sociedad/index-2016-02-29.html'
p1851
aS'https://www.pagina12.com.ar/diario/elpais/index-2016-02-30.html'
p1852
aS'https://www.pagina12.com.ar/diario/economia/index-2016-02-30.html'
p1853
aS'https://www.pagina12.com.ar/diario/sociedad/index-2016-02-30.html'
p1854
aS'https://www.pagina12.com.ar/diario/elpais/index-2016-02-31.html'
p1855
aS'https://www.pagina12.com.ar/diario/economia/index-2016-02-31.html'
p1856
aS'https://www.pagina12.com.ar/diario/sociedad/index-2016-02-31.html'
p1857
aS'https://www.pagina12.com.ar/diario/elpais/index-2016-03-01.html'
p1858
aS'https://www.pagina12.com.ar/diario/economia/index-2016-03-01.html'
p1859
aS'https://www.pagina12.com.ar/diario/sociedad/index-2016-03-01.html'
p1860
aS'https://www.pagina12.com.ar/diario/elpais/index-2016-03-02.html'
p1861
aS'https://www.pagina12.com.ar/diario/economia/index-2016-03-02.html'
p1862
aS'https://www.pagina12.com.ar/diario/sociedad/index-2016-03-02.html'
p1863
aS'https://www.pagina12.com.ar/diario/elpais/index-2016-03-03.html'
p1864
aS'https://www.pagina12.com.ar/diario/economia/index-2016-03-03.html'
p1865
aS'https://www.pagina12.com.ar/diario/sociedad/index-2016-03-03.html'
p1866
aS'https://www.pagina12.com.ar/diario/elpais/index-2016-03-04.html'
p1867
aS'https://www.pagina12.com.ar/diario/economia/index-2016-03-04.html'
p1868
aS'https://www.pagina12.com.ar/diario/sociedad/index-2016-03-04.html'
p1869
aS'https://www.pagina12.com.ar/diario/elpais/index-2016-03-05.html'
p1870
aS'https://www.pagina12.com.ar/diario/economia/index-2016-03-05.html'
p1871
aS'https://www.pagina12.com.ar/diario/sociedad/index-2016-03-05.html'
p1872
aS'https://www.pagina12.com.ar/diario/elpais/index-2016-03-06.html'
p1873
aS'https://www.pagina12.com.ar/diario/economia/index-2016-03-06.html'
p1874
aS'https://www.pagina12.com.ar/diario/sociedad/index-2016-03-06.html'
p1875
aS'https://www.pagina12.com.ar/diario/elpais/index-2016-03-07.html'
p1876
aS'https://www.pagina12.com.ar/diario/economia/index-2016-03-07.html'
p1877
aS'https://www.pagina12.com.ar/diario/sociedad/index-2016-03-07.html'
p1878
aS'https://www.pagina12.com.ar/diario/elpais/index-2016-03-08.html'
p1879
aS'https://www.pagina12.com.ar/diario/economia/index-2016-03-08.html'
p1880
aS'https://www.pagina12.com.ar/diario/sociedad/index-2016-03-08.html'
p1881
aS'https://www.pagina12.com.ar/diario/elpais/index-2016-03-09.html'
p1882
aS'https://www.pagina12.com.ar/diario/economia/index-2016-03-09.html'
p1883
aS'https://www.pagina12.com.ar/diario/sociedad/index-2016-03-09.html'
p1884
aS'https://www.pagina12.com.ar/diario/elpais/index-2016-03-10.html'
p1885
aS'https://www.pagina12.com.ar/diario/economia/index-2016-03-10.html'
p1886
aS'https://www.pagina12.com.ar/diario/sociedad/index-2016-03-10.html'
p1887
aS'https://www.pagina12.com.ar/diario/elpais/index-2016-03-11.html'
p1888
aS'https://www.pagina12.com.ar/diario/economia/index-2016-03-11.html'
p1889
aS'https://www.pagina12.com.ar/diario/sociedad/index-2016-03-11.html'
p1890
aS'https://www.pagina12.com.ar/diario/elpais/index-2016-03-12.html'
p1891
aS'https://www.pagina12.com.ar/diario/economia/index-2016-03-12.html'
p1892
aS'https://www.pagina12.com.ar/diario/sociedad/index-2016-03-12.html'
p1893
aS'https://www.pagina12.com.ar/diario/elpais/index-2016-03-13.html'
p1894
aS'https://www.pagina12.com.ar/diario/economia/index-2016-03-13.html'
p1895
aS'https://www.pagina12.com.ar/diario/sociedad/index-2016-03-13.html'
p1896
aS'https://www.pagina12.com.ar/diario/elpais/index-2016-03-14.html'
p1897
aS'https://www.pagina12.com.ar/diario/economia/index-2016-03-14.html'
p1898
aS'https://www.pagina12.com.ar/diario/sociedad/index-2016-03-14.html'
p1899
aS'https://www.pagina12.com.ar/diario/elpais/index-2016-03-15.html'
p1900
aS'https://www.pagina12.com.ar/diario/economia/index-2016-03-15.html'
p1901
aS'https://www.pagina12.com.ar/diario/sociedad/index-2016-03-15.html'
p1902
aS'https://www.pagina12.com.ar/diario/elpais/index-2016-03-16.html'
p1903
aS'https://www.pagina12.com.ar/diario/economia/index-2016-03-16.html'
p1904
aS'https://www.pagina12.com.ar/diario/sociedad/index-2016-03-16.html'
p1905
aS'https://www.pagina12.com.ar/diario/elpais/index-2016-03-17.html'
p1906
aS'https://www.pagina12.com.ar/diario/economia/index-2016-03-17.html'
p1907
aS'https://www.pagina12.com.ar/diario/sociedad/index-2016-03-17.html'
p1908
aS'https://www.pagina12.com.ar/diario/elpais/index-2016-03-18.html'
p1909
aS'https://www.pagina12.com.ar/diario/economia/index-2016-03-18.html'
p1910
aS'https://www.pagina12.com.ar/diario/sociedad/index-2016-03-18.html'
p1911
aS'https://www.pagina12.com.ar/diario/elpais/index-2016-03-19.html'
p1912
aS'https://www.pagina12.com.ar/diario/economia/index-2016-03-19.html'
p1913
aS'https://www.pagina12.com.ar/diario/sociedad/index-2016-03-19.html'
p1914
aS'https://www.pagina12.com.ar/diario/elpais/index-2016-03-20.html'
p1915
aS'https://www.pagina12.com.ar/diario/economia/index-2016-03-20.html'
p1916
aS'https://www.pagina12.com.ar/diario/sociedad/index-2016-03-20.html'
p1917
aS'https://www.pagina12.com.ar/diario/elpais/index-2016-03-21.html'
p1918
aS'https://www.pagina12.com.ar/diario/economia/index-2016-03-21.html'
p1919
aS'https://www.pagina12.com.ar/diario/sociedad/index-2016-03-21.html'
p1920
aS'https://www.pagina12.com.ar/diario/elpais/index-2016-03-22.html'
p1921
aS'https://www.pagina12.com.ar/diario/economia/index-2016-03-22.html'
p1922
aS'https://www.pagina12.com.ar/diario/sociedad/index-2016-03-22.html'
p1923
aS'https://www.pagina12.com.ar/diario/elpais/index-2016-03-23.html'
p1924
aS'https://www.pagina12.com.ar/diario/economia/index-2016-03-23.html'
p1925
aS'https://www.pagina12.com.ar/diario/sociedad/index-2016-03-23.html'
p1926
aS'https://www.pagina12.com.ar/diario/elpais/index-2016-03-24.html'
p1927
aS'https://www.pagina12.com.ar/diario/economia/index-2016-03-24.html'
p1928
aS'https://www.pagina12.com.ar/diario/sociedad/index-2016-03-24.html'
p1929
aS'https://www.pagina12.com.ar/diario/elpais/index-2016-03-25.html'
p1930
aS'https://www.pagina12.com.ar/diario/economia/index-2016-03-25.html'
p1931
aS'https://www.pagina12.com.ar/diario/sociedad/index-2016-03-25.html'
p1932
aS'https://www.pagina12.com.ar/diario/elpais/index-2016-03-26.html'
p1933
aS'https://www.pagina12.com.ar/diario/economia/index-2016-03-26.html'
p1934
aS'https://www.pagina12.com.ar/diario/sociedad/index-2016-03-26.html'
p1935
aS'https://www.pagina12.com.ar/diario/elpais/index-2016-03-27.html'
p1936
aS'https://www.pagina12.com.ar/diario/economia/index-2016-03-27.html'
p1937
aS'https://www.pagina12.com.ar/diario/sociedad/index-2016-03-27.html'
p1938
aS'https://www.pagina12.com.ar/diario/elpais/index-2016-03-28.html'
p1939
aS'https://www.pagina12.com.ar/diario/economia/index-2016-03-28.html'
p1940
aS'https://www.pagina12.com.ar/diario/sociedad/index-2016-03-28.html'
p1941
aS'https://www.pagina12.com.ar/diario/elpais/index-2016-03-29.html'
p1942
aS'https://www.pagina12.com.ar/diario/economia/index-2016-03-29.html'
p1943
aS'https://www.pagina12.com.ar/diario/sociedad/index-2016-03-29.html'
p1944
aS'https://www.pagina12.com.ar/diario/elpais/index-2016-03-30.html'
p1945
aS'https://www.pagina12.com.ar/diario/economia/index-2016-03-30.html'
p1946
aS'https://www.pagina12.com.ar/diario/sociedad/index-2016-03-30.html'
p1947
aS'https://www.pagina12.com.ar/diario/elpais/index-2016-03-31.html'
p1948
aS'https://www.pagina12.com.ar/diario/economia/index-2016-03-31.html'
p1949
aS'https://www.pagina12.com.ar/diario/sociedad/index-2016-03-31.html'
p1950
aS'https://www.pagina12.com.ar/diario/elpais/index-2016-04-01.html'
p1951
aS'https://www.pagina12.com.ar/diario/economia/index-2016-04-01.html'
p1952
aS'https://www.pagina12.com.ar/diario/sociedad/index-2016-04-01.html'
p1953
aS'https://www.pagina12.com.ar/diario/elpais/index-2016-04-02.html'
p1954
aS'https://www.pagina12.com.ar/diario/economia/index-2016-04-02.html'
p1955
aS'https://www.pagina12.com.ar/diario/sociedad/index-2016-04-02.html'
p1956
aS'https://www.pagina12.com.ar/diario/elpais/index-2016-04-03.html'
p1957
aS'https://www.pagina12.com.ar/diario/economia/index-2016-04-03.html'
p1958
aS'https://www.pagina12.com.ar/diario/sociedad/index-2016-04-03.html'
p1959
aS'https://www.pagina12.com.ar/diario/elpais/index-2016-04-04.html'
p1960
aS'https://www.pagina12.com.ar/diario/economia/index-2016-04-04.html'
p1961
aS'https://www.pagina12.com.ar/diario/sociedad/index-2016-04-04.html'
p1962
aS'https://www.pagina12.com.ar/diario/elpais/index-2016-04-05.html'
p1963
aS'https://www.pagina12.com.ar/diario/economia/index-2016-04-05.html'
p1964
aS'https://www.pagina12.com.ar/diario/sociedad/index-2016-04-05.html'
p1965
aS'https://www.pagina12.com.ar/diario/elpais/index-2016-04-06.html'
p1966
aS'https://www.pagina12.com.ar/diario/economia/index-2016-04-06.html'
p1967
aS'https://www.pagina12.com.ar/diario/sociedad/index-2016-04-06.html'
p1968
aS'https://www.pagina12.com.ar/diario/elpais/index-2016-04-07.html'
p1969
aS'https://www.pagina12.com.ar/diario/economia/index-2016-04-07.html'
p1970
aS'https://www.pagina12.com.ar/diario/sociedad/index-2016-04-07.html'
p1971
aS'https://www.pagina12.com.ar/diario/elpais/index-2016-04-08.html'
p1972
aS'https://www.pagina12.com.ar/diario/economia/index-2016-04-08.html'
p1973
aS'https://www.pagina12.com.ar/diario/sociedad/index-2016-04-08.html'
p1974
aS'https://www.pagina12.com.ar/diario/elpais/index-2016-04-09.html'
p1975
aS'https://www.pagina12.com.ar/diario/economia/index-2016-04-09.html'
p1976
aS'https://www.pagina12.com.ar/diario/sociedad/index-2016-04-09.html'
p1977
aS'https://www.pagina12.com.ar/diario/elpais/index-2016-04-10.html'
p1978
aS'https://www.pagina12.com.ar/diario/economia/index-2016-04-10.html'
p1979
aS'https://www.pagina12.com.ar/diario/sociedad/index-2016-04-10.html'
p1980
aS'https://www.pagina12.com.ar/diario/elpais/index-2016-04-11.html'
p1981
aS'https://www.pagina12.com.ar/diario/economia/index-2016-04-11.html'
p1982
aS'https://www.pagina12.com.ar/diario/sociedad/index-2016-04-11.html'
p1983
aS'https://www.pagina12.com.ar/diario/elpais/index-2016-04-12.html'
p1984
aS'https://www.pagina12.com.ar/diario/economia/index-2016-04-12.html'
p1985
aS'https://www.pagina12.com.ar/diario/sociedad/index-2016-04-12.html'
p1986
aS'https://www.pagina12.com.ar/diario/elpais/index-2016-04-13.html'
p1987
aS'https://www.pagina12.com.ar/diario/economia/index-2016-04-13.html'
p1988
aS'https://www.pagina12.com.ar/diario/sociedad/index-2016-04-13.html'
p1989
aS'https://www.pagina12.com.ar/diario/elpais/index-2016-04-14.html'
p1990
aS'https://www.pagina12.com.ar/diario/economia/index-2016-04-14.html'
p1991
aS'https://www.pagina12.com.ar/diario/sociedad/index-2016-04-14.html'
p1992
aS'https://www.pagina12.com.ar/diario/elpais/index-2016-04-15.html'
p1993
aS'https://www.pagina12.com.ar/diario/economia/index-2016-04-15.html'
p1994
aS'https://www.pagina12.com.ar/diario/sociedad/index-2016-04-15.html'
p1995
aS'https://www.pagina12.com.ar/diario/elpais/index-2016-04-16.html'
p1996
aS'https://www.pagina12.com.ar/diario/economia/index-2016-04-16.html'
p1997
aS'https://www.pagina12.com.ar/diario/sociedad/index-2016-04-16.html'
p1998
aS'https://www.pagina12.com.ar/diario/elpais/index-2016-04-17.html'
p1999
aS'https://www.pagina12.com.ar/diario/economia/index-2016-04-17.html'
p2000
aS'https://www.pagina12.com.ar/diario/sociedad/index-2016-04-17.html'
p2001
aS'https://www.pagina12.com.ar/diario/elpais/index-2016-04-18.html'
p2002
aS'https://www.pagina12.com.ar/diario/economia/index-2016-04-18.html'
p2003
aS'https://www.pagina12.com.ar/diario/sociedad/index-2016-04-18.html'
p2004
aS'https://www.pagina12.com.ar/diario/elpais/index-2016-04-19.html'
p2005
aS'https://www.pagina12.com.ar/diario/economia/index-2016-04-19.html'
p2006
aS'https://www.pagina12.com.ar/diario/sociedad/index-2016-04-19.html'
p2007
aS'https://www.pagina12.com.ar/diario/elpais/index-2016-04-20.html'
p2008
aS'https://www.pagina12.com.ar/diario/economia/index-2016-04-20.html'
p2009
aS'https://www.pagina12.com.ar/diario/sociedad/index-2016-04-20.html'
p2010
aS'https://www.pagina12.com.ar/diario/elpais/index-2016-04-21.html'
p2011
aS'https://www.pagina12.com.ar/diario/economia/index-2016-04-21.html'
p2012
aS'https://www.pagina12.com.ar/diario/sociedad/index-2016-04-21.html'
p2013
aS'https://www.pagina12.com.ar/diario/elpais/index-2016-04-22.html'
p2014
aS'https://www.pagina12.com.ar/diario/economia/index-2016-04-22.html'
p2015
aS'https://www.pagina12.com.ar/diario/sociedad/index-2016-04-22.html'
p2016
aS'https://www.pagina12.com.ar/diario/elpais/index-2016-04-23.html'
p2017
aS'https://www.pagina12.com.ar/diario/economia/index-2016-04-23.html'
p2018
aS'https://www.pagina12.com.ar/diario/sociedad/index-2016-04-23.html'
p2019
aS'https://www.pagina12.com.ar/diario/elpais/index-2016-04-24.html'
p2020
aS'https://www.pagina12.com.ar/diario/economia/index-2016-04-24.html'
p2021
aS'https://www.pagina12.com.ar/diario/sociedad/index-2016-04-24.html'
p2022
aS'https://www.pagina12.com.ar/diario/elpais/index-2016-04-25.html'
p2023
aS'https://www.pagina12.com.ar/diario/economia/index-2016-04-25.html'
p2024
aS'https://www.pagina12.com.ar/diario/sociedad/index-2016-04-25.html'
p2025
aS'https://www.pagina12.com.ar/diario/elpais/index-2016-04-26.html'
p2026
aS'https://www.pagina12.com.ar/diario/economia/index-2016-04-26.html'
p2027
aS'https://www.pagina12.com.ar/diario/sociedad/index-2016-04-26.html'
p2028
aS'https://www.pagina12.com.ar/diario/elpais/index-2016-04-27.html'
p2029
aS'https://www.pagina12.com.ar/diario/economia/index-2016-04-27.html'
p2030
aS'https://www.pagina12.com.ar/diario/sociedad/index-2016-04-27.html'
p2031
aS'https://www.pagina12.com.ar/diario/elpais/index-2016-04-28.html'
p2032
aS'https://www.pagina12.com.ar/diario/economia/index-2016-04-28.html'
p2033
aS'https://www.pagina12.com.ar/diario/sociedad/index-2016-04-28.html'
p2034
aS'https://www.pagina12.com.ar/diario/elpais/index-2016-04-29.html'
p2035
aS'https://www.pagina12.com.ar/diario/economia/index-2016-04-29.html'
p2036
aS'https://www.pagina12.com.ar/diario/sociedad/index-2016-04-29.html'
p2037
aS'https://www.pagina12.com.ar/diario/elpais/index-2016-04-30.html'
p2038
aS'https://www.pagina12.com.ar/diario/economia/index-2016-04-30.html'
p2039
aS'https://www.pagina12.com.ar/diario/sociedad/index-2016-04-30.html'
p2040
aS'https://www.pagina12.com.ar/diario/elpais/index-2016-04-31.html'
p2041
aS'https://www.pagina12.com.ar/diario/economia/index-2016-04-31.html'
p2042
aS'https://www.pagina12.com.ar/diario/sociedad/index-2016-04-31.html'
p2043
aS'https://www.pagina12.com.ar/diario/elpais/index-2016-05-01.html'
p2044
aS'https://www.pagina12.com.ar/diario/economia/index-2016-05-01.html'
p2045
aS'https://www.pagina12.com.ar/diario/sociedad/index-2016-05-01.html'
p2046
aS'https://www.pagina12.com.ar/diario/elpais/index-2016-05-02.html'
p2047
aS'https://www.pagina12.com.ar/diario/economia/index-2016-05-02.html'
p2048
aS'https://www.pagina12.com.ar/diario/sociedad/index-2016-05-02.html'
p2049
aS'https://www.pagina12.com.ar/diario/elpais/index-2016-05-03.html'
p2050
aS'https://www.pagina12.com.ar/diario/economia/index-2016-05-03.html'
p2051
aS'https://www.pagina12.com.ar/diario/sociedad/index-2016-05-03.html'
p2052
aS'https://www.pagina12.com.ar/diario/elpais/index-2016-05-04.html'
p2053
aS'https://www.pagina12.com.ar/diario/economia/index-2016-05-04.html'
p2054
aS'https://www.pagina12.com.ar/diario/sociedad/index-2016-05-04.html'
p2055
aS'https://www.pagina12.com.ar/diario/elpais/index-2016-05-05.html'
p2056
aS'https://www.pagina12.com.ar/diario/economia/index-2016-05-05.html'
p2057
aS'https://www.pagina12.com.ar/diario/sociedad/index-2016-05-05.html'
p2058
aS'https://www.pagina12.com.ar/diario/elpais/index-2016-05-06.html'
p2059
aS'https://www.pagina12.com.ar/diario/economia/index-2016-05-06.html'
p2060
aS'https://www.pagina12.com.ar/diario/sociedad/index-2016-05-06.html'
p2061
aS'https://www.pagina12.com.ar/diario/elpais/index-2016-05-07.html'
p2062
aS'https://www.pagina12.com.ar/diario/economia/index-2016-05-07.html'
p2063
aS'https://www.pagina12.com.ar/diario/sociedad/index-2016-05-07.html'
p2064
aS'https://www.pagina12.com.ar/diario/elpais/index-2016-05-08.html'
p2065
aS'https://www.pagina12.com.ar/diario/economia/index-2016-05-08.html'
p2066
aS'https://www.pagina12.com.ar/diario/sociedad/index-2016-05-08.html'
p2067
aS'https://www.pagina12.com.ar/diario/elpais/index-2016-05-09.html'
p2068
aS'https://www.pagina12.com.ar/diario/economia/index-2016-05-09.html'
p2069
aS'https://www.pagina12.com.ar/diario/sociedad/index-2016-05-09.html'
p2070
aS'https://www.pagina12.com.ar/diario/elpais/index-2016-05-10.html'
p2071
aS'https://www.pagina12.com.ar/diario/economia/index-2016-05-10.html'
p2072
aS'https://www.pagina12.com.ar/diario/sociedad/index-2016-05-10.html'
p2073
aS'https://www.pagina12.com.ar/diario/elpais/index-2016-05-11.html'
p2074
aS'https://www.pagina12.com.ar/diario/economia/index-2016-05-11.html'
p2075
aS'https://www.pagina12.com.ar/diario/sociedad/index-2016-05-11.html'
p2076
aS'https://www.pagina12.com.ar/diario/elpais/index-2016-05-12.html'
p2077
aS'https://www.pagina12.com.ar/diario/economia/index-2016-05-12.html'
p2078
aS'https://www.pagina12.com.ar/diario/sociedad/index-2016-05-12.html'
p2079
aS'https://www.pagina12.com.ar/diario/elpais/index-2016-05-13.html'
p2080
aS'https://www.pagina12.com.ar/diario/economia/index-2016-05-13.html'
p2081
aS'https://www.pagina12.com.ar/diario/sociedad/index-2016-05-13.html'
p2082
aS'https://www.pagina12.com.ar/diario/elpais/index-2016-05-14.html'
p2083
aS'https://www.pagina12.com.ar/diario/economia/index-2016-05-14.html'
p2084
aS'https://www.pagina12.com.ar/diario/sociedad/index-2016-05-14.html'
p2085
aS'https://www.pagina12.com.ar/diario/elpais/index-2016-05-15.html'
p2086
aS'https://www.pagina12.com.ar/diario/economia/index-2016-05-15.html'
p2087
aS'https://www.pagina12.com.ar/diario/sociedad/index-2016-05-15.html'
p2088
aS'https://www.pagina12.com.ar/diario/elpais/index-2016-05-16.html'
p2089
aS'https://www.pagina12.com.ar/diario/economia/index-2016-05-16.html'
p2090
aS'https://www.pagina12.com.ar/diario/sociedad/index-2016-05-16.html'
p2091
aS'https://www.pagina12.com.ar/diario/elpais/index-2016-05-17.html'
p2092
aS'https://www.pagina12.com.ar/diario/economia/index-2016-05-17.html'
p2093
aS'https://www.pagina12.com.ar/diario/sociedad/index-2016-05-17.html'
p2094
aS'https://www.pagina12.com.ar/diario/elpais/index-2016-05-18.html'
p2095
aS'https://www.pagina12.com.ar/diario/economia/index-2016-05-18.html'
p2096
aS'https://www.pagina12.com.ar/diario/sociedad/index-2016-05-18.html'
p2097
aS'https://www.pagina12.com.ar/diario/elpais/index-2016-05-19.html'
p2098
aS'https://www.pagina12.com.ar/diario/economia/index-2016-05-19.html'
p2099
aS'https://www.pagina12.com.ar/diario/sociedad/index-2016-05-19.html'
p2100
aS'https://www.pagina12.com.ar/diario/elpais/index-2016-05-20.html'
p2101
aS'https://www.pagina12.com.ar/diario/economia/index-2016-05-20.html'
p2102
aS'https://www.pagina12.com.ar/diario/sociedad/index-2016-05-20.html'
p2103
aS'https://www.pagina12.com.ar/diario/elpais/index-2016-05-21.html'
p2104
aS'https://www.pagina12.com.ar/diario/economia/index-2016-05-21.html'
p2105
aS'https://www.pagina12.com.ar/diario/sociedad/index-2016-05-21.html'
p2106
aS'https://www.pagina12.com.ar/diario/elpais/index-2016-05-22.html'
p2107
aS'https://www.pagina12.com.ar/diario/economia/index-2016-05-22.html'
p2108
aS'https://www.pagina12.com.ar/diario/sociedad/index-2016-05-22.html'
p2109
aS'https://www.pagina12.com.ar/diario/elpais/index-2016-05-23.html'
p2110
aS'https://www.pagina12.com.ar/diario/economia/index-2016-05-23.html'
p2111
aS'https://www.pagina12.com.ar/diario/sociedad/index-2016-05-23.html'
p2112
aS'https://www.pagina12.com.ar/diario/elpais/index-2016-05-24.html'
p2113
aS'https://www.pagina12.com.ar/diario/economia/index-2016-05-24.html'
p2114
aS'https://www.pagina12.com.ar/diario/sociedad/index-2016-05-24.html'
p2115
aS'https://www.pagina12.com.ar/diario/elpais/index-2016-05-25.html'
p2116
aS'https://www.pagina12.com.ar/diario/economia/index-2016-05-25.html'
p2117
aS'https://www.pagina12.com.ar/diario/sociedad/index-2016-05-25.html'
p2118
aS'https://www.pagina12.com.ar/diario/elpais/index-2016-05-26.html'
p2119
aS'https://www.pagina12.com.ar/diario/economia/index-2016-05-26.html'
p2120
aS'https://www.pagina12.com.ar/diario/sociedad/index-2016-05-26.html'
p2121
aS'https://www.pagina12.com.ar/diario/elpais/index-2016-05-27.html'
p2122
aS'https://www.pagina12.com.ar/diario/economia/index-2016-05-27.html'
p2123
aS'https://www.pagina12.com.ar/diario/sociedad/index-2016-05-27.html'
p2124
aS'https://www.pagina12.com.ar/diario/elpais/index-2016-05-28.html'
p2125
aS'https://www.pagina12.com.ar/diario/economia/index-2016-05-28.html'
p2126
aS'https://www.pagina12.com.ar/diario/sociedad/index-2016-05-28.html'
p2127
aS'https://www.pagina12.com.ar/diario/elpais/index-2016-05-29.html'
p2128
aS'https://www.pagina12.com.ar/diario/economia/index-2016-05-29.html'
p2129
aS'https://www.pagina12.com.ar/diario/sociedad/index-2016-05-29.html'
p2130
aS'https://www.pagina12.com.ar/diario/elpais/index-2016-05-30.html'
p2131
aS'https://www.pagina12.com.ar/diario/economia/index-2016-05-30.html'
p2132
aS'https://www.pagina12.com.ar/diario/sociedad/index-2016-05-30.html'
p2133
aS'https://www.pagina12.com.ar/diario/elpais/index-2016-05-31.html'
p2134
aS'https://www.pagina12.com.ar/diario/economia/index-2016-05-31.html'
p2135
aS'https://www.pagina12.com.ar/diario/sociedad/index-2016-05-31.html'
p2136
aS'https://www.pagina12.com.ar/diario/elpais/index-2016-06-01.html'
p2137
aS'https://www.pagina12.com.ar/diario/economia/index-2016-06-01.html'
p2138
aS'https://www.pagina12.com.ar/diario/sociedad/index-2016-06-01.html'
p2139
aS'https://www.pagina12.com.ar/diario/elpais/index-2016-06-02.html'
p2140
aS'https://www.pagina12.com.ar/diario/economia/index-2016-06-02.html'
p2141
aS'https://www.pagina12.com.ar/diario/sociedad/index-2016-06-02.html'
p2142
aS'https://www.pagina12.com.ar/diario/elpais/index-2016-06-03.html'
p2143
aS'https://www.pagina12.com.ar/diario/economia/index-2016-06-03.html'
p2144
aS'https://www.pagina12.com.ar/diario/sociedad/index-2016-06-03.html'
p2145
aS'https://www.pagina12.com.ar/diario/elpais/index-2016-06-04.html'
p2146
aS'https://www.pagina12.com.ar/diario/economia/index-2016-06-04.html'
p2147
aS'https://www.pagina12.com.ar/diario/sociedad/index-2016-06-04.html'
p2148
aS'https://www.pagina12.com.ar/diario/elpais/index-2016-06-05.html'
p2149
aS'https://www.pagina12.com.ar/diario/economia/index-2016-06-05.html'
p2150
aS'https://www.pagina12.com.ar/diario/sociedad/index-2016-06-05.html'
p2151
aS'https://www.pagina12.com.ar/diario/elpais/index-2016-06-06.html'
p2152
aS'https://www.pagina12.com.ar/diario/economia/index-2016-06-06.html'
p2153
aS'https://www.pagina12.com.ar/diario/sociedad/index-2016-06-06.html'
p2154
aS'https://www.pagina12.com.ar/diario/elpais/index-2016-06-07.html'
p2155
aS'https://www.pagina12.com.ar/diario/economia/index-2016-06-07.html'
p2156
aS'https://www.pagina12.com.ar/diario/sociedad/index-2016-06-07.html'
p2157
aS'https://www.pagina12.com.ar/diario/elpais/index-2016-06-08.html'
p2158
aS'https://www.pagina12.com.ar/diario/economia/index-2016-06-08.html'
p2159
aS'https://www.pagina12.com.ar/diario/sociedad/index-2016-06-08.html'
p2160
aS'https://www.pagina12.com.ar/diario/elpais/index-2016-06-09.html'
p2161
aS'https://www.pagina12.com.ar/diario/economia/index-2016-06-09.html'
p2162
aS'https://www.pagina12.com.ar/diario/sociedad/index-2016-06-09.html'
p2163
aS'https://www.pagina12.com.ar/diario/elpais/index-2016-06-10.html'
p2164
aS'https://www.pagina12.com.ar/diario/economia/index-2016-06-10.html'
p2165
aS'https://www.pagina12.com.ar/diario/sociedad/index-2016-06-10.html'
p2166
aS'https://www.pagina12.com.ar/diario/elpais/index-2016-06-11.html'
p2167
aS'https://www.pagina12.com.ar/diario/economia/index-2016-06-11.html'
p2168
aS'https://www.pagina12.com.ar/diario/sociedad/index-2016-06-11.html'
p2169
aS'https://www.pagina12.com.ar/diario/elpais/index-2016-06-12.html'
p2170
aS'https://www.pagina12.com.ar/diario/economia/index-2016-06-12.html'
p2171
aS'https://www.pagina12.com.ar/diario/sociedad/index-2016-06-12.html'
p2172
aS'https://www.pagina12.com.ar/diario/elpais/index-2016-06-13.html'
p2173
aS'https://www.pagina12.com.ar/diario/economia/index-2016-06-13.html'
p2174
aS'https://www.pagina12.com.ar/diario/sociedad/index-2016-06-13.html'
p2175
aS'https://www.pagina12.com.ar/diario/elpais/index-2016-06-14.html'
p2176
aS'https://www.pagina12.com.ar/diario/economia/index-2016-06-14.html'
p2177
aS'https://www.pagina12.com.ar/diario/sociedad/index-2016-06-14.html'
p2178
aS'https://www.pagina12.com.ar/diario/elpais/index-2016-06-15.html'
p2179
aS'https://www.pagina12.com.ar/diario/economia/index-2016-06-15.html'
p2180
aS'https://www.pagina12.com.ar/diario/sociedad/index-2016-06-15.html'
p2181
aS'https://www.pagina12.com.ar/diario/elpais/index-2016-06-16.html'
p2182
aS'https://www.pagina12.com.ar/diario/economia/index-2016-06-16.html'
p2183
aS'https://www.pagina12.com.ar/diario/sociedad/index-2016-06-16.html'
p2184
aS'https://www.pagina12.com.ar/diario/elpais/index-2016-06-17.html'
p2185
aS'https://www.pagina12.com.ar/diario/economia/index-2016-06-17.html'
p2186
aS'https://www.pagina12.com.ar/diario/sociedad/index-2016-06-17.html'
p2187
aS'https://www.pagina12.com.ar/diario/elpais/index-2016-06-18.html'
p2188
aS'https://www.pagina12.com.ar/diario/economia/index-2016-06-18.html'
p2189
aS'https://www.pagina12.com.ar/diario/sociedad/index-2016-06-18.html'
p2190
aS'https://www.pagina12.com.ar/diario/elpais/index-2016-06-19.html'
p2191
aS'https://www.pagina12.com.ar/diario/economia/index-2016-06-19.html'
p2192
aS'https://www.pagina12.com.ar/diario/sociedad/index-2016-06-19.html'
p2193
aS'https://www.pagina12.com.ar/diario/elpais/index-2016-06-20.html'
p2194
aS'https://www.pagina12.com.ar/diario/economia/index-2016-06-20.html'
p2195
aS'https://www.pagina12.com.ar/diario/sociedad/index-2016-06-20.html'
p2196
aS'https://www.pagina12.com.ar/diario/elpais/index-2016-06-21.html'
p2197
aS'https://www.pagina12.com.ar/diario/economia/index-2016-06-21.html'
p2198
aS'https://www.pagina12.com.ar/diario/sociedad/index-2016-06-21.html'
p2199
aS'https://www.pagina12.com.ar/diario/elpais/index-2016-06-22.html'
p2200
aS'https://www.pagina12.com.ar/diario/economia/index-2016-06-22.html'
p2201
aS'https://www.pagina12.com.ar/diario/sociedad/index-2016-06-22.html'
p2202
aS'https://www.pagina12.com.ar/diario/elpais/index-2016-06-23.html'
p2203
aS'https://www.pagina12.com.ar/diario/economia/index-2016-06-23.html'
p2204
aS'https://www.pagina12.com.ar/diario/sociedad/index-2016-06-23.html'
p2205
aS'https://www.pagina12.com.ar/diario/elpais/index-2016-06-24.html'
p2206
aS'https://www.pagina12.com.ar/diario/economia/index-2016-06-24.html'
p2207
aS'https://www.pagina12.com.ar/diario/sociedad/index-2016-06-24.html'
p2208
aS'https://www.pagina12.com.ar/diario/elpais/index-2016-06-25.html'
p2209
aS'https://www.pagina12.com.ar/diario/economia/index-2016-06-25.html'
p2210
aS'https://www.pagina12.com.ar/diario/sociedad/index-2016-06-25.html'
p2211
aS'https://www.pagina12.com.ar/diario/elpais/index-2016-06-26.html'
p2212
aS'https://www.pagina12.com.ar/diario/economia/index-2016-06-26.html'
p2213
aS'https://www.pagina12.com.ar/diario/sociedad/index-2016-06-26.html'
p2214
aS'https://www.pagina12.com.ar/diario/elpais/index-2016-06-27.html'
p2215
aS'https://www.pagina12.com.ar/diario/economia/index-2016-06-27.html'
p2216
aS'https://www.pagina12.com.ar/diario/sociedad/index-2016-06-27.html'
p2217
aS'https://www.pagina12.com.ar/diario/elpais/index-2016-06-28.html'
p2218
aS'https://www.pagina12.com.ar/diario/economia/index-2016-06-28.html'
p2219
aS'https://www.pagina12.com.ar/diario/sociedad/index-2016-06-28.html'
p2220
aS'https://www.pagina12.com.ar/diario/elpais/index-2016-06-29.html'
p2221
aS'https://www.pagina12.com.ar/diario/economia/index-2016-06-29.html'
p2222
aS'https://www.pagina12.com.ar/diario/sociedad/index-2016-06-29.html'
p2223
aS'https://www.pagina12.com.ar/diario/elpais/index-2016-06-30.html'
p2224
aS'https://www.pagina12.com.ar/diario/economia/index-2016-06-30.html'
p2225
aS'https://www.pagina12.com.ar/diario/sociedad/index-2016-06-30.html'
p2226
aS'https://www.pagina12.com.ar/diario/elpais/index-2016-06-31.html'
p2227
aS'https://www.pagina12.com.ar/diario/economia/index-2016-06-31.html'
p2228
aS'https://www.pagina12.com.ar/diario/sociedad/index-2016-06-31.html'
p2229
aS'https://www.pagina12.com.ar/diario/elpais/index-2016-07-01.html'
p2230
aS'https://www.pagina12.com.ar/diario/economia/index-2016-07-01.html'
p2231
aS'https://www.pagina12.com.ar/diario/sociedad/index-2016-07-01.html'
p2232
aS'https://www.pagina12.com.ar/diario/elpais/index-2016-07-02.html'
p2233
aS'https://www.pagina12.com.ar/diario/economia/index-2016-07-02.html'
p2234
aS'https://www.pagina12.com.ar/diario/sociedad/index-2016-07-02.html'
p2235
aS'https://www.pagina12.com.ar/diario/elpais/index-2016-07-03.html'
p2236
aS'https://www.pagina12.com.ar/diario/economia/index-2016-07-03.html'
p2237
aS'https://www.pagina12.com.ar/diario/sociedad/index-2016-07-03.html'
p2238
aS'https://www.pagina12.com.ar/diario/elpais/index-2016-07-04.html'
p2239
aS'https://www.pagina12.com.ar/diario/economia/index-2016-07-04.html'
p2240
aS'https://www.pagina12.com.ar/diario/sociedad/index-2016-07-04.html'
p2241
aS'https://www.pagina12.com.ar/diario/elpais/index-2016-07-05.html'
p2242
aS'https://www.pagina12.com.ar/diario/economia/index-2016-07-05.html'
p2243
aS'https://www.pagina12.com.ar/diario/sociedad/index-2016-07-05.html'
p2244
aS'https://www.pagina12.com.ar/diario/elpais/index-2016-07-06.html'
p2245
aS'https://www.pagina12.com.ar/diario/economia/index-2016-07-06.html'
p2246
aS'https://www.pagina12.com.ar/diario/sociedad/index-2016-07-06.html'
p2247
aS'https://www.pagina12.com.ar/diario/elpais/index-2016-07-07.html'
p2248
aS'https://www.pagina12.com.ar/diario/economia/index-2016-07-07.html'
p2249
aS'https://www.pagina12.com.ar/diario/sociedad/index-2016-07-07.html'
p2250
aS'https://www.pagina12.com.ar/diario/elpais/index-2016-07-08.html'
p2251
aS'https://www.pagina12.com.ar/diario/economia/index-2016-07-08.html'
p2252
aS'https://www.pagina12.com.ar/diario/sociedad/index-2016-07-08.html'
p2253
aS'https://www.pagina12.com.ar/diario/elpais/index-2016-07-09.html'
p2254
aS'https://www.pagina12.com.ar/diario/economia/index-2016-07-09.html'
p2255
aS'https://www.pagina12.com.ar/diario/sociedad/index-2016-07-09.html'
p2256
aS'https://www.pagina12.com.ar/diario/elpais/index-2016-07-10.html'
p2257
aS'https://www.pagina12.com.ar/diario/economia/index-2016-07-10.html'
p2258
aS'https://www.pagina12.com.ar/diario/sociedad/index-2016-07-10.html'
p2259
aS'https://www.pagina12.com.ar/diario/elpais/index-2016-07-11.html'
p2260
aS'https://www.pagina12.com.ar/diario/economia/index-2016-07-11.html'
p2261
aS'https://www.pagina12.com.ar/diario/sociedad/index-2016-07-11.html'
p2262
aS'https://www.pagina12.com.ar/diario/elpais/index-2016-07-12.html'
p2263
aS'https://www.pagina12.com.ar/diario/economia/index-2016-07-12.html'
p2264
aS'https://www.pagina12.com.ar/diario/sociedad/index-2016-07-12.html'
p2265
aS'https://www.pagina12.com.ar/diario/elpais/index-2016-07-13.html'
p2266
aS'https://www.pagina12.com.ar/diario/economia/index-2016-07-13.html'
p2267
aS'https://www.pagina12.com.ar/diario/sociedad/index-2016-07-13.html'
p2268
aS'https://www.pagina12.com.ar/diario/elpais/index-2016-07-14.html'
p2269
aS'https://www.pagina12.com.ar/diario/economia/index-2016-07-14.html'
p2270
aS'https://www.pagina12.com.ar/diario/sociedad/index-2016-07-14.html'
p2271
aS'https://www.pagina12.com.ar/diario/elpais/index-2016-07-15.html'
p2272
aS'https://www.pagina12.com.ar/diario/economia/index-2016-07-15.html'
p2273
aS'https://www.pagina12.com.ar/diario/sociedad/index-2016-07-15.html'
p2274
aS'https://www.pagina12.com.ar/diario/elpais/index-2016-07-16.html'
p2275
aS'https://www.pagina12.com.ar/diario/economia/index-2016-07-16.html'
p2276
aS'https://www.pagina12.com.ar/diario/sociedad/index-2016-07-16.html'
p2277
aS'https://www.pagina12.com.ar/diario/elpais/index-2016-07-17.html'
p2278
aS'https://www.pagina12.com.ar/diario/economia/index-2016-07-17.html'
p2279
aS'https://www.pagina12.com.ar/diario/sociedad/index-2016-07-17.html'
p2280
aS'https://www.pagina12.com.ar/diario/elpais/index-2016-07-18.html'
p2281
aS'https://www.pagina12.com.ar/diario/economia/index-2016-07-18.html'
p2282
aS'https://www.pagina12.com.ar/diario/sociedad/index-2016-07-18.html'
p2283
aS'https://www.pagina12.com.ar/diario/elpais/index-2016-07-19.html'
p2284
aS'https://www.pagina12.com.ar/diario/economia/index-2016-07-19.html'
p2285
aS'https://www.pagina12.com.ar/diario/sociedad/index-2016-07-19.html'
p2286
aS'https://www.pagina12.com.ar/diario/elpais/index-2016-07-20.html'
p2287
aS'https://www.pagina12.com.ar/diario/economia/index-2016-07-20.html'
p2288
aS'https://www.pagina12.com.ar/diario/sociedad/index-2016-07-20.html'
p2289
aS'https://www.pagina12.com.ar/diario/elpais/index-2016-07-21.html'
p2290
aS'https://www.pagina12.com.ar/diario/economia/index-2016-07-21.html'
p2291
aS'https://www.pagina12.com.ar/diario/sociedad/index-2016-07-21.html'
p2292
aS'https://www.pagina12.com.ar/diario/elpais/index-2016-07-22.html'
p2293
aS'https://www.pagina12.com.ar/diario/economia/index-2016-07-22.html'
p2294
aS'https://www.pagina12.com.ar/diario/sociedad/index-2016-07-22.html'
p2295
aS'https://www.pagina12.com.ar/diario/elpais/index-2016-07-23.html'
p2296
aS'https://www.pagina12.com.ar/diario/economia/index-2016-07-23.html'
p2297
aS'https://www.pagina12.com.ar/diario/sociedad/index-2016-07-23.html'
p2298
aS'https://www.pagina12.com.ar/diario/elpais/index-2016-07-24.html'
p2299
aS'https://www.pagina12.com.ar/diario/economia/index-2016-07-24.html'
p2300
aS'https://www.pagina12.com.ar/diario/sociedad/index-2016-07-24.html'
p2301
aS'https://www.pagina12.com.ar/diario/elpais/index-2016-07-25.html'
p2302
aS'https://www.pagina12.com.ar/diario/economia/index-2016-07-25.html'
p2303
aS'https://www.pagina12.com.ar/diario/sociedad/index-2016-07-25.html'
p2304
aS'https://www.pagina12.com.ar/diario/elpais/index-2016-07-26.html'
p2305
aS'https://www.pagina12.com.ar/diario/economia/index-2016-07-26.html'
p2306
aS'https://www.pagina12.com.ar/diario/sociedad/index-2016-07-26.html'
p2307
aS'https://www.pagina12.com.ar/diario/elpais/index-2016-07-27.html'
p2308
aS'https://www.pagina12.com.ar/diario/economia/index-2016-07-27.html'
p2309
aS'https://www.pagina12.com.ar/diario/sociedad/index-2016-07-27.html'
p2310
aS'https://www.pagina12.com.ar/diario/elpais/index-2016-07-28.html'
p2311
aS'https://www.pagina12.com.ar/diario/economia/index-2016-07-28.html'
p2312
aS'https://www.pagina12.com.ar/diario/sociedad/index-2016-07-28.html'
p2313
aS'https://www.pagina12.com.ar/diario/elpais/index-2016-07-29.html'
p2314
aS'https://www.pagina12.com.ar/diario/economia/index-2016-07-29.html'
p2315
aS'https://www.pagina12.com.ar/diario/sociedad/index-2016-07-29.html'
p2316
aS'https://www.pagina12.com.ar/diario/elpais/index-2016-07-30.html'
p2317
aS'https://www.pagina12.com.ar/diario/economia/index-2016-07-30.html'
p2318
aS'https://www.pagina12.com.ar/diario/sociedad/index-2016-07-30.html'
p2319
aS'https://www.pagina12.com.ar/diario/elpais/index-2016-07-31.html'
p2320
aS'https://www.pagina12.com.ar/diario/economia/index-2016-07-31.html'
p2321
aS'https://www.pagina12.com.ar/diario/sociedad/index-2016-07-31.html'
p2322
aS'https://www.pagina12.com.ar/diario/elpais/index-2016-08-01.html'
p2323
aS'https://www.pagina12.com.ar/diario/economia/index-2016-08-01.html'
p2324
aS'https://www.pagina12.com.ar/diario/sociedad/index-2016-08-01.html'
p2325
aS'https://www.pagina12.com.ar/diario/elpais/index-2016-08-02.html'
p2326
aS'https://www.pagina12.com.ar/diario/economia/index-2016-08-02.html'
p2327
aS'https://www.pagina12.com.ar/diario/sociedad/index-2016-08-02.html'
p2328
aS'https://www.pagina12.com.ar/diario/elpais/index-2016-08-03.html'
p2329
aS'https://www.pagina12.com.ar/diario/economia/index-2016-08-03.html'
p2330
aS'https://www.pagina12.com.ar/diario/sociedad/index-2016-08-03.html'
p2331
aS'https://www.pagina12.com.ar/diario/elpais/index-2016-08-04.html'
p2332
aS'https://www.pagina12.com.ar/diario/economia/index-2016-08-04.html'
p2333
aS'https://www.pagina12.com.ar/diario/sociedad/index-2016-08-04.html'
p2334
aS'https://www.pagina12.com.ar/diario/elpais/index-2016-08-05.html'
p2335
aS'https://www.pagina12.com.ar/diario/economia/index-2016-08-05.html'
p2336
aS'https://www.pagina12.com.ar/diario/sociedad/index-2016-08-05.html'
p2337
aS'https://www.pagina12.com.ar/diario/elpais/index-2016-08-06.html'
p2338
aS'https://www.pagina12.com.ar/diario/economia/index-2016-08-06.html'
p2339
aS'https://www.pagina12.com.ar/diario/sociedad/index-2016-08-06.html'
p2340
aS'https://www.pagina12.com.ar/diario/elpais/index-2016-08-07.html'
p2341
aS'https://www.pagina12.com.ar/diario/economia/index-2016-08-07.html'
p2342
aS'https://www.pagina12.com.ar/diario/sociedad/index-2016-08-07.html'
p2343
aS'https://www.pagina12.com.ar/diario/elpais/index-2016-08-08.html'
p2344
aS'https://www.pagina12.com.ar/diario/economia/index-2016-08-08.html'
p2345
aS'https://www.pagina12.com.ar/diario/sociedad/index-2016-08-08.html'
p2346
aS'https://www.pagina12.com.ar/diario/elpais/index-2016-08-09.html'
p2347
aS'https://www.pagina12.com.ar/diario/economia/index-2016-08-09.html'
p2348
aS'https://www.pagina12.com.ar/diario/sociedad/index-2016-08-09.html'
p2349
aS'https://www.pagina12.com.ar/diario/elpais/index-2016-08-10.html'
p2350
aS'https://www.pagina12.com.ar/diario/economia/index-2016-08-10.html'
p2351
aS'https://www.pagina12.com.ar/diario/sociedad/index-2016-08-10.html'
p2352
aS'https://www.pagina12.com.ar/diario/elpais/index-2016-08-11.html'
p2353
aS'https://www.pagina12.com.ar/diario/economia/index-2016-08-11.html'
p2354
aS'https://www.pagina12.com.ar/diario/sociedad/index-2016-08-11.html'
p2355
aS'https://www.pagina12.com.ar/diario/elpais/index-2016-08-12.html'
p2356
aS'https://www.pagina12.com.ar/diario/economia/index-2016-08-12.html'
p2357
aS'https://www.pagina12.com.ar/diario/sociedad/index-2016-08-12.html'
p2358
aS'https://www.pagina12.com.ar/diario/elpais/index-2016-08-13.html'
p2359
aS'https://www.pagina12.com.ar/diario/economia/index-2016-08-13.html'
p2360
aS'https://www.pagina12.com.ar/diario/sociedad/index-2016-08-13.html'
p2361
aS'https://www.pagina12.com.ar/diario/elpais/index-2016-08-14.html'
p2362
aS'https://www.pagina12.com.ar/diario/economia/index-2016-08-14.html'
p2363
aS'https://www.pagina12.com.ar/diario/sociedad/index-2016-08-14.html'
p2364
aS'https://www.pagina12.com.ar/diario/elpais/index-2016-08-15.html'
p2365
aS'https://www.pagina12.com.ar/diario/economia/index-2016-08-15.html'
p2366
aS'https://www.pagina12.com.ar/diario/sociedad/index-2016-08-15.html'
p2367
aS'https://www.pagina12.com.ar/diario/elpais/index-2016-08-16.html'
p2368
aS'https://www.pagina12.com.ar/diario/economia/index-2016-08-16.html'
p2369
aS'https://www.pagina12.com.ar/diario/sociedad/index-2016-08-16.html'
p2370
aS'https://www.pagina12.com.ar/diario/elpais/index-2016-08-17.html'
p2371
aS'https://www.pagina12.com.ar/diario/economia/index-2016-08-17.html'
p2372
aS'https://www.pagina12.com.ar/diario/sociedad/index-2016-08-17.html'
p2373
aS'https://www.pagina12.com.ar/diario/elpais/index-2016-08-18.html'
p2374
aS'https://www.pagina12.com.ar/diario/economia/index-2016-08-18.html'
p2375
aS'https://www.pagina12.com.ar/diario/sociedad/index-2016-08-18.html'
p2376
aS'https://www.pagina12.com.ar/diario/elpais/index-2016-08-19.html'
p2377
aS'https://www.pagina12.com.ar/diario/economia/index-2016-08-19.html'
p2378
aS'https://www.pagina12.com.ar/diario/sociedad/index-2016-08-19.html'
p2379
aS'https://www.pagina12.com.ar/diario/elpais/index-2016-08-20.html'
p2380
aS'https://www.pagina12.com.ar/diario/economia/index-2016-08-20.html'
p2381
aS'https://www.pagina12.com.ar/diario/sociedad/index-2016-08-20.html'
p2382
aS'https://www.pagina12.com.ar/diario/elpais/index-2016-08-21.html'
p2383
aS'https://www.pagina12.com.ar/diario/economia/index-2016-08-21.html'
p2384
aS'https://www.pagina12.com.ar/diario/sociedad/index-2016-08-21.html'
p2385
aS'https://www.pagina12.com.ar/diario/elpais/index-2016-08-22.html'
p2386
aS'https://www.pagina12.com.ar/diario/economia/index-2016-08-22.html'
p2387
aS'https://www.pagina12.com.ar/diario/sociedad/index-2016-08-22.html'
p2388
aS'https://www.pagina12.com.ar/diario/elpais/index-2016-08-23.html'
p2389
aS'https://www.pagina12.com.ar/diario/economia/index-2016-08-23.html'
p2390
aS'https://www.pagina12.com.ar/diario/sociedad/index-2016-08-23.html'
p2391
aS'https://www.pagina12.com.ar/diario/elpais/index-2016-08-24.html'
p2392
aS'https://www.pagina12.com.ar/diario/economia/index-2016-08-24.html'
p2393
aS'https://www.pagina12.com.ar/diario/sociedad/index-2016-08-24.html'
p2394
aS'https://www.pagina12.com.ar/diario/elpais/index-2016-08-25.html'
p2395
aS'https://www.pagina12.com.ar/diario/economia/index-2016-08-25.html'
p2396
aS'https://www.pagina12.com.ar/diario/sociedad/index-2016-08-25.html'
p2397
aS'https://www.pagina12.com.ar/diario/elpais/index-2016-08-26.html'
p2398
aS'https://www.pagina12.com.ar/diario/economia/index-2016-08-26.html'
p2399
aS'https://www.pagina12.com.ar/diario/sociedad/index-2016-08-26.html'
p2400
aS'https://www.pagina12.com.ar/diario/elpais/index-2016-08-27.html'
p2401
aS'https://www.pagina12.com.ar/diario/economia/index-2016-08-27.html'
p2402
aS'https://www.pagina12.com.ar/diario/sociedad/index-2016-08-27.html'
p2403
aS'https://www.pagina12.com.ar/diario/elpais/index-2016-08-28.html'
p2404
aS'https://www.pagina12.com.ar/diario/economia/index-2016-08-28.html'
p2405
aS'https://www.pagina12.com.ar/diario/sociedad/index-2016-08-28.html'
p2406
aS'https://www.pagina12.com.ar/diario/elpais/index-2016-08-29.html'
p2407
aS'https://www.pagina12.com.ar/diario/economia/index-2016-08-29.html'
p2408
aS'https://www.pagina12.com.ar/diario/sociedad/index-2016-08-29.html'
p2409
aS'https://www.pagina12.com.ar/diario/elpais/index-2016-08-30.html'
p2410
aS'https://www.pagina12.com.ar/diario/economia/index-2016-08-30.html'
p2411
aS'https://www.pagina12.com.ar/diario/sociedad/index-2016-08-30.html'
p2412
aS'https://www.pagina12.com.ar/diario/elpais/index-2016-08-31.html'
p2413
aS'https://www.pagina12.com.ar/diario/economia/index-2016-08-31.html'
p2414
aS'https://www.pagina12.com.ar/diario/sociedad/index-2016-08-31.html'
p2415
aS'https://www.pagina12.com.ar/diario/elpais/index-2016-09-01.html'
p2416
aS'https://www.pagina12.com.ar/diario/economia/index-2016-09-01.html'
p2417
aS'https://www.pagina12.com.ar/diario/sociedad/index-2016-09-01.html'
p2418
aS'https://www.pagina12.com.ar/diario/elpais/index-2016-09-02.html'
p2419
aS'https://www.pagina12.com.ar/diario/economia/index-2016-09-02.html'
p2420
aS'https://www.pagina12.com.ar/diario/sociedad/index-2016-09-02.html'
p2421
aS'https://www.pagina12.com.ar/diario/elpais/index-2016-09-03.html'
p2422
aS'https://www.pagina12.com.ar/diario/economia/index-2016-09-03.html'
p2423
aS'https://www.pagina12.com.ar/diario/sociedad/index-2016-09-03.html'
p2424
aS'https://www.pagina12.com.ar/diario/elpais/index-2016-09-04.html'
p2425
aS'https://www.pagina12.com.ar/diario/economia/index-2016-09-04.html'
p2426
aS'https://www.pagina12.com.ar/diario/sociedad/index-2016-09-04.html'
p2427
aS'https://www.pagina12.com.ar/diario/elpais/index-2016-09-05.html'
p2428
aS'https://www.pagina12.com.ar/diario/economia/index-2016-09-05.html'
p2429
aS'https://www.pagina12.com.ar/diario/sociedad/index-2016-09-05.html'
p2430
aS'https://www.pagina12.com.ar/diario/elpais/index-2016-09-06.html'
p2431
aS'https://www.pagina12.com.ar/diario/economia/index-2016-09-06.html'
p2432
aS'https://www.pagina12.com.ar/diario/sociedad/index-2016-09-06.html'
p2433
aS'https://www.pagina12.com.ar/diario/elpais/index-2016-09-07.html'
p2434
aS'https://www.pagina12.com.ar/diario/economia/index-2016-09-07.html'
p2435
aS'https://www.pagina12.com.ar/diario/sociedad/index-2016-09-07.html'
p2436
aS'https://www.pagina12.com.ar/diario/elpais/index-2016-09-08.html'
p2437
aS'https://www.pagina12.com.ar/diario/economia/index-2016-09-08.html'
p2438
aS'https://www.pagina12.com.ar/diario/sociedad/index-2016-09-08.html'
p2439
aS'https://www.pagina12.com.ar/diario/elpais/index-2016-09-09.html'
p2440
aS'https://www.pagina12.com.ar/diario/economia/index-2016-09-09.html'
p2441
aS'https://www.pagina12.com.ar/diario/sociedad/index-2016-09-09.html'
p2442
aS'https://www.pagina12.com.ar/diario/elpais/index-2016-09-10.html'
p2443
aS'https://www.pagina12.com.ar/diario/economia/index-2016-09-10.html'
p2444
aS'https://www.pagina12.com.ar/diario/sociedad/index-2016-09-10.html'
p2445
aS'https://www.pagina12.com.ar/diario/elpais/index-2016-09-11.html'
p2446
aS'https://www.pagina12.com.ar/diario/economia/index-2016-09-11.html'
p2447
aS'https://www.pagina12.com.ar/diario/sociedad/index-2016-09-11.html'
p2448
aS'https://www.pagina12.com.ar/diario/elpais/index-2016-09-12.html'
p2449
aS'https://www.pagina12.com.ar/diario/economia/index-2016-09-12.html'
p2450
aS'https://www.pagina12.com.ar/diario/sociedad/index-2016-09-12.html'
p2451
aS'https://www.pagina12.com.ar/diario/elpais/index-2016-09-13.html'
p2452
aS'https://www.pagina12.com.ar/diario/economia/index-2016-09-13.html'
p2453
aS'https://www.pagina12.com.ar/diario/sociedad/index-2016-09-13.html'
p2454
aS'https://www.pagina12.com.ar/diario/elpais/index-2016-09-14.html'
p2455
aS'https://www.pagina12.com.ar/diario/economia/index-2016-09-14.html'
p2456
aS'https://www.pagina12.com.ar/diario/sociedad/index-2016-09-14.html'
p2457
aS'https://www.pagina12.com.ar/diario/elpais/index-2016-09-15.html'
p2458
aS'https://www.pagina12.com.ar/diario/economia/index-2016-09-15.html'
p2459
aS'https://www.pagina12.com.ar/diario/sociedad/index-2016-09-15.html'
p2460
aS'https://www.pagina12.com.ar/diario/elpais/index-2016-09-16.html'
p2461
aS'https://www.pagina12.com.ar/diario/economia/index-2016-09-16.html'
p2462
aS'https://www.pagina12.com.ar/diario/sociedad/index-2016-09-16.html'
p2463
aS'https://www.pagina12.com.ar/diario/elpais/index-2016-09-17.html'
p2464
aS'https://www.pagina12.com.ar/diario/economia/index-2016-09-17.html'
p2465
aS'https://www.pagina12.com.ar/diario/sociedad/index-2016-09-17.html'
p2466
aS'https://www.pagina12.com.ar/diario/elpais/index-2016-09-18.html'
p2467
aS'https://www.pagina12.com.ar/diario/economia/index-2016-09-18.html'
p2468
aS'https://www.pagina12.com.ar/diario/sociedad/index-2016-09-18.html'
p2469
aS'https://www.pagina12.com.ar/diario/elpais/index-2016-09-19.html'
p2470
aS'https://www.pagina12.com.ar/diario/economia/index-2016-09-19.html'
p2471
aS'https://www.pagina12.com.ar/diario/sociedad/index-2016-09-19.html'
p2472
aS'https://www.pagina12.com.ar/diario/elpais/index-2016-09-20.html'
p2473
aS'https://www.pagina12.com.ar/diario/economia/index-2016-09-20.html'
p2474
aS'https://www.pagina12.com.ar/diario/sociedad/index-2016-09-20.html'
p2475
aS'https://www.pagina12.com.ar/diario/elpais/index-2016-09-21.html'
p2476
aS'https://www.pagina12.com.ar/diario/economia/index-2016-09-21.html'
p2477
aS'https://www.pagina12.com.ar/diario/sociedad/index-2016-09-21.html'
p2478
aS'https://www.pagina12.com.ar/diario/elpais/index-2016-09-22.html'
p2479
aS'https://www.pagina12.com.ar/diario/economia/index-2016-09-22.html'
p2480
aS'https://www.pagina12.com.ar/diario/sociedad/index-2016-09-22.html'
p2481
aS'https://www.pagina12.com.ar/diario/elpais/index-2016-09-23.html'
p2482
aS'https://www.pagina12.com.ar/diario/economia/index-2016-09-23.html'
p2483
aS'https://www.pagina12.com.ar/diario/sociedad/index-2016-09-23.html'
p2484
aS'https://www.pagina12.com.ar/diario/elpais/index-2016-09-24.html'
p2485
aS'https://www.pagina12.com.ar/diario/economia/index-2016-09-24.html'
p2486
aS'https://www.pagina12.com.ar/diario/sociedad/index-2016-09-24.html'
p2487
aS'https://www.pagina12.com.ar/diario/elpais/index-2016-09-25.html'
p2488
aS'https://www.pagina12.com.ar/diario/economia/index-2016-09-25.html'
p2489
aS'https://www.pagina12.com.ar/diario/sociedad/index-2016-09-25.html'
p2490
aS'https://www.pagina12.com.ar/diario/elpais/index-2016-09-26.html'
p2491
aS'https://www.pagina12.com.ar/diario/economia/index-2016-09-26.html'
p2492
aS'https://www.pagina12.com.ar/diario/sociedad/index-2016-09-26.html'
p2493
aS'https://www.pagina12.com.ar/diario/elpais/index-2016-09-27.html'
p2494
aS'https://www.pagina12.com.ar/diario/economia/index-2016-09-27.html'
p2495
aS'https://www.pagina12.com.ar/diario/sociedad/index-2016-09-27.html'
p2496
aS'https://www.pagina12.com.ar/diario/elpais/index-2016-09-28.html'
p2497
aS'https://www.pagina12.com.ar/diario/economia/index-2016-09-28.html'
p2498
aS'https://www.pagina12.com.ar/diario/sociedad/index-2016-09-28.html'
p2499
aS'https://www.pagina12.com.ar/diario/elpais/index-2016-09-29.html'
p2500
aS'https://www.pagina12.com.ar/diario/economia/index-2016-09-29.html'
p2501
aS'https://www.pagina12.com.ar/diario/sociedad/index-2016-09-29.html'
p2502
aS'https://www.pagina12.com.ar/diario/elpais/index-2016-09-30.html'
p2503
aS'https://www.pagina12.com.ar/diario/economia/index-2016-09-30.html'
p2504
aS'https://www.pagina12.com.ar/diario/sociedad/index-2016-09-30.html'
p2505
aS'https://www.pagina12.com.ar/diario/elpais/index-2016-09-31.html'
p2506
aS'https://www.pagina12.com.ar/diario/economia/index-2016-09-31.html'
p2507
aS'https://www.pagina12.com.ar/diario/sociedad/index-2016-09-31.html'
p2508
aS'https://www.pagina12.com.ar/diario/elpais/index-2016-10-01.html'
p2509
aS'https://www.pagina12.com.ar/diario/economia/index-2016-10-01.html'
p2510
aS'https://www.pagina12.com.ar/diario/sociedad/index-2016-10-01.html'
p2511
aS'https://www.pagina12.com.ar/diario/elpais/index-2016-10-02.html'
p2512
aS'https://www.pagina12.com.ar/diario/economia/index-2016-10-02.html'
p2513
aS'https://www.pagina12.com.ar/diario/sociedad/index-2016-10-02.html'
p2514
aS'https://www.pagina12.com.ar/diario/elpais/index-2016-10-03.html'
p2515
aS'https://www.pagina12.com.ar/diario/economia/index-2016-10-03.html'
p2516
aS'https://www.pagina12.com.ar/diario/sociedad/index-2016-10-03.html'
p2517
aS'https://www.pagina12.com.ar/diario/elpais/index-2016-10-04.html'
p2518
aS'https://www.pagina12.com.ar/diario/economia/index-2016-10-04.html'
p2519
aS'https://www.pagina12.com.ar/diario/sociedad/index-2016-10-04.html'
p2520
aS'https://www.pagina12.com.ar/diario/elpais/index-2016-10-05.html'
p2521
aS'https://www.pagina12.com.ar/diario/economia/index-2016-10-05.html'
p2522
aS'https://www.pagina12.com.ar/diario/sociedad/index-2016-10-05.html'
p2523
aS'https://www.pagina12.com.ar/diario/elpais/index-2016-10-06.html'
p2524
aS'https://www.pagina12.com.ar/diario/economia/index-2016-10-06.html'
p2525
aS'https://www.pagina12.com.ar/diario/sociedad/index-2016-10-06.html'
p2526
aS'https://www.pagina12.com.ar/diario/elpais/index-2016-10-07.html'
p2527
aS'https://www.pagina12.com.ar/diario/economia/index-2016-10-07.html'
p2528
aS'https://www.pagina12.com.ar/diario/sociedad/index-2016-10-07.html'
p2529
aS'https://www.pagina12.com.ar/diario/elpais/index-2016-10-08.html'
p2530
aS'https://www.pagina12.com.ar/diario/economia/index-2016-10-08.html'
p2531
aS'https://www.pagina12.com.ar/diario/sociedad/index-2016-10-08.html'
p2532
aS'https://www.pagina12.com.ar/diario/elpais/index-2016-10-09.html'
p2533
aS'https://www.pagina12.com.ar/diario/economia/index-2016-10-09.html'
p2534
aS'https://www.pagina12.com.ar/diario/sociedad/index-2016-10-09.html'
p2535
aS'https://www.pagina12.com.ar/diario/elpais/index-2016-10-10.html'
p2536
aS'https://www.pagina12.com.ar/diario/economia/index-2016-10-10.html'
p2537
aS'https://www.pagina12.com.ar/diario/sociedad/index-2016-10-10.html'
p2538
aS'https://www.pagina12.com.ar/diario/elpais/index-2016-10-11.html'
p2539
aS'https://www.pagina12.com.ar/diario/economia/index-2016-10-11.html'
p2540
aS'https://www.pagina12.com.ar/diario/sociedad/index-2016-10-11.html'
p2541
aS'https://www.pagina12.com.ar/diario/elpais/index-2016-10-12.html'
p2542
aS'https://www.pagina12.com.ar/diario/economia/index-2016-10-12.html'
p2543
aS'https://www.pagina12.com.ar/diario/sociedad/index-2016-10-12.html'
p2544
aS'https://www.pagina12.com.ar/diario/elpais/index-2016-10-13.html'
p2545
aS'https://www.pagina12.com.ar/diario/economia/index-2016-10-13.html'
p2546
aS'https://www.pagina12.com.ar/diario/sociedad/index-2016-10-13.html'
p2547
aS'https://www.pagina12.com.ar/diario/elpais/index-2016-10-14.html'
p2548
aS'https://www.pagina12.com.ar/diario/economia/index-2016-10-14.html'
p2549
aS'https://www.pagina12.com.ar/diario/sociedad/index-2016-10-14.html'
p2550
aS'https://www.pagina12.com.ar/diario/elpais/index-2016-10-15.html'
p2551
aS'https://www.pagina12.com.ar/diario/economia/index-2016-10-15.html'
p2552
aS'https://www.pagina12.com.ar/diario/sociedad/index-2016-10-15.html'
p2553
aS'https://www.pagina12.com.ar/diario/elpais/index-2016-10-16.html'
p2554
aS'https://www.pagina12.com.ar/diario/economia/index-2016-10-16.html'
p2555
aS'https://www.pagina12.com.ar/diario/sociedad/index-2016-10-16.html'
p2556
aS'https://www.pagina12.com.ar/diario/elpais/index-2016-10-17.html'
p2557
aS'https://www.pagina12.com.ar/diario/economia/index-2016-10-17.html'
p2558
aS'https://www.pagina12.com.ar/diario/sociedad/index-2016-10-17.html'
p2559
aS'https://www.pagina12.com.ar/diario/elpais/index-2016-10-18.html'
p2560
aS'https://www.pagina12.com.ar/diario/economia/index-2016-10-18.html'
p2561
aS'https://www.pagina12.com.ar/diario/sociedad/index-2016-10-18.html'
p2562
aS'https://www.pagina12.com.ar/diario/elpais/index-2016-10-19.html'
p2563
aS'https://www.pagina12.com.ar/diario/economia/index-2016-10-19.html'
p2564
aS'https://www.pagina12.com.ar/diario/sociedad/index-2016-10-19.html'
p2565
aS'https://www.pagina12.com.ar/diario/elpais/index-2016-10-20.html'
p2566
aS'https://www.pagina12.com.ar/diario/economia/index-2016-10-20.html'
p2567
aS'https://www.pagina12.com.ar/diario/sociedad/index-2016-10-20.html'
p2568
aS'https://www.pagina12.com.ar/diario/elpais/index-2016-10-21.html'
p2569
aS'https://www.pagina12.com.ar/diario/economia/index-2016-10-21.html'
p2570
aS'https://www.pagina12.com.ar/diario/sociedad/index-2016-10-21.html'
p2571
aS'https://www.pagina12.com.ar/diario/elpais/index-2016-10-22.html'
p2572
aS'https://www.pagina12.com.ar/diario/economia/index-2016-10-22.html'
p2573
aS'https://www.pagina12.com.ar/diario/sociedad/index-2016-10-22.html'
p2574
aS'https://www.pagina12.com.ar/diario/elpais/index-2016-10-23.html'
p2575
aS'https://www.pagina12.com.ar/diario/economia/index-2016-10-23.html'
p2576
aS'https://www.pagina12.com.ar/diario/sociedad/index-2016-10-23.html'
p2577
aS'https://www.pagina12.com.ar/diario/elpais/index-2016-10-24.html'
p2578
aS'https://www.pagina12.com.ar/diario/economia/index-2016-10-24.html'
p2579
aS'https://www.pagina12.com.ar/diario/sociedad/index-2016-10-24.html'
p2580
aS'https://www.pagina12.com.ar/diario/elpais/index-2016-10-25.html'
p2581
aS'https://www.pagina12.com.ar/diario/economia/index-2016-10-25.html'
p2582
aS'https://www.pagina12.com.ar/diario/sociedad/index-2016-10-25.html'
p2583
aS'https://www.pagina12.com.ar/diario/elpais/index-2016-10-26.html'
p2584
aS'https://www.pagina12.com.ar/diario/economia/index-2016-10-26.html'
p2585
aS'https://www.pagina12.com.ar/diario/sociedad/index-2016-10-26.html'
p2586
aS'https://www.pagina12.com.ar/diario/elpais/index-2016-10-27.html'
p2587
aS'https://www.pagina12.com.ar/diario/economia/index-2016-10-27.html'
p2588
aS'https://www.pagina12.com.ar/diario/sociedad/index-2016-10-27.html'
p2589
aS'https://www.pagina12.com.ar/diario/elpais/index-2016-10-28.html'
p2590
aS'https://www.pagina12.com.ar/diario/economia/index-2016-10-28.html'
p2591
aS'https://www.pagina12.com.ar/diario/sociedad/index-2016-10-28.html'
p2592
aS'https://www.pagina12.com.ar/diario/elpais/index-2016-10-29.html'
p2593
aS'https://www.pagina12.com.ar/diario/economia/index-2016-10-29.html'
p2594
aS'https://www.pagina12.com.ar/diario/sociedad/index-2016-10-29.html'
p2595
aS'https://www.pagina12.com.ar/diario/elpais/index-2016-10-30.html'
p2596
aS'https://www.pagina12.com.ar/diario/economia/index-2016-10-30.html'
p2597
aS'https://www.pagina12.com.ar/diario/sociedad/index-2016-10-30.html'
p2598
aS'https://www.pagina12.com.ar/diario/elpais/index-2016-10-31.html'
p2599
aS'https://www.pagina12.com.ar/diario/economia/index-2016-10-31.html'
p2600
aS'https://www.pagina12.com.ar/diario/sociedad/index-2016-10-31.html'
p2601
aS'https://www.pagina12.com.ar/diario/elpais/index-2016-11-01.html'
p2602
aS'https://www.pagina12.com.ar/diario/economia/index-2016-11-01.html'
p2603
aS'https://www.pagina12.com.ar/diario/sociedad/index-2016-11-01.html'
p2604
aS'https://www.pagina12.com.ar/diario/elpais/index-2016-11-02.html'
p2605
aS'https://www.pagina12.com.ar/diario/economia/index-2016-11-02.html'
p2606
aS'https://www.pagina12.com.ar/diario/sociedad/index-2016-11-02.html'
p2607
aS'https://www.pagina12.com.ar/diario/elpais/index-2016-11-03.html'
p2608
aS'https://www.pagina12.com.ar/diario/economia/index-2016-11-03.html'
p2609
aS'https://www.pagina12.com.ar/diario/sociedad/index-2016-11-03.html'
p2610
aS'https://www.pagina12.com.ar/diario/elpais/index-2016-11-04.html'
p2611
aS'https://www.pagina12.com.ar/diario/economia/index-2016-11-04.html'
p2612
aS'https://www.pagina12.com.ar/diario/sociedad/index-2016-11-04.html'
p2613
aS'https://www.pagina12.com.ar/diario/elpais/index-2016-11-05.html'
p2614
aS'https://www.pagina12.com.ar/diario/economia/index-2016-11-05.html'
p2615
aS'https://www.pagina12.com.ar/diario/sociedad/index-2016-11-05.html'
p2616
aS'https://www.pagina12.com.ar/diario/elpais/index-2016-11-06.html'
p2617
aS'https://www.pagina12.com.ar/diario/economia/index-2016-11-06.html'
p2618
aS'https://www.pagina12.com.ar/diario/sociedad/index-2016-11-06.html'
p2619
aS'https://www.pagina12.com.ar/diario/elpais/index-2016-11-07.html'
p2620
aS'https://www.pagina12.com.ar/diario/economia/index-2016-11-07.html'
p2621
aS'https://www.pagina12.com.ar/diario/sociedad/index-2016-11-07.html'
p2622
aS'https://www.pagina12.com.ar/diario/elpais/index-2016-11-08.html'
p2623
aS'https://www.pagina12.com.ar/diario/economia/index-2016-11-08.html'
p2624
aS'https://www.pagina12.com.ar/diario/sociedad/index-2016-11-08.html'
p2625
aS'https://www.pagina12.com.ar/diario/elpais/index-2016-11-09.html'
p2626
aS'https://www.pagina12.com.ar/diario/economia/index-2016-11-09.html'
p2627
aS'https://www.pagina12.com.ar/diario/sociedad/index-2016-11-09.html'
p2628
aS'https://www.pagina12.com.ar/diario/elpais/index-2016-11-10.html'
p2629
aS'https://www.pagina12.com.ar/diario/economia/index-2016-11-10.html'
p2630
aS'https://www.pagina12.com.ar/diario/sociedad/index-2016-11-10.html'
p2631
aS'https://www.pagina12.com.ar/diario/elpais/index-2016-11-11.html'
p2632
aS'https://www.pagina12.com.ar/diario/economia/index-2016-11-11.html'
p2633
aS'https://www.pagina12.com.ar/diario/sociedad/index-2016-11-11.html'
p2634
aS'https://www.pagina12.com.ar/diario/elpais/index-2016-11-12.html'
p2635
aS'https://www.pagina12.com.ar/diario/economia/index-2016-11-12.html'
p2636
aS'https://www.pagina12.com.ar/diario/sociedad/index-2016-11-12.html'
p2637
aS'https://www.pagina12.com.ar/diario/elpais/index-2016-11-13.html'
p2638
aS'https://www.pagina12.com.ar/diario/economia/index-2016-11-13.html'
p2639
aS'https://www.pagina12.com.ar/diario/sociedad/index-2016-11-13.html'
p2640
aS'https://www.pagina12.com.ar/diario/elpais/index-2016-11-14.html'
p2641
aS'https://www.pagina12.com.ar/diario/economia/index-2016-11-14.html'
p2642
aS'https://www.pagina12.com.ar/diario/sociedad/index-2016-11-14.html'
p2643
a.