(lp0
S'http://www.clarin.com/ediciones-anteriores/20140702'
p1
aS'http://www.clarin.com/ediciones-anteriores/20140703'
p2
aS'http://www.clarin.com/ediciones-anteriores/20140704'
p3
aS'http://www.clarin.com/ediciones-anteriores/20140705'
p4
aS'http://www.clarin.com/ediciones-anteriores/20140706'
p5
aS'http://www.clarin.com/ediciones-anteriores/20140707'
p6
aS'http://www.clarin.com/ediciones-anteriores/20140708'
p7
aS'http://www.clarin.com/ediciones-anteriores/20140709'
p8
aS'http://www.clarin.com/ediciones-anteriores/20140710'
p9
aS'http://www.clarin.com/ediciones-anteriores/20140711'
p10
aS'http://www.clarin.com/ediciones-anteriores/20140712'
p11
aS'http://www.clarin.com/ediciones-anteriores/20140713'
p12
aS'http://www.clarin.com/ediciones-anteriores/20140714'
p13
aS'http://www.clarin.com/ediciones-anteriores/20140715'
p14
aS'http://www.clarin.com/ediciones-anteriores/20140716'
p15
aS'http://www.clarin.com/ediciones-anteriores/20140717'
p16
aS'http://www.clarin.com/ediciones-anteriores/20140718'
p17
aS'http://www.clarin.com/ediciones-anteriores/20140719'
p18
aS'http://www.clarin.com/ediciones-anteriores/20140720'
p19
aS'http://www.clarin.com/ediciones-anteriores/20140721'
p20
aS'http://www.clarin.com/ediciones-anteriores/20140722'
p21
aS'http://www.clarin.com/ediciones-anteriores/20140723'
p22
aS'http://www.clarin.com/ediciones-anteriores/20140724'
p23
aS'http://www.clarin.com/ediciones-anteriores/20140725'
p24
aS'http://www.clarin.com/ediciones-anteriores/20140726'
p25
aS'http://www.clarin.com/ediciones-anteriores/20140727'
p26
aS'http://www.clarin.com/ediciones-anteriores/20140728'
p27
aS'http://www.clarin.com/ediciones-anteriores/20140729'
p28
aS'http://www.clarin.com/ediciones-anteriores/20140730'
p29
aS'http://www.clarin.com/ediciones-anteriores/20140731'
p30
aS'http://www.clarin.com/ediciones-anteriores/20140801'
p31
aS'http://www.clarin.com/ediciones-anteriores/20140802'
p32
aS'http://www.clarin.com/ediciones-anteriores/20140803'
p33
aS'http://www.clarin.com/ediciones-anteriores/20140804'
p34
aS'http://www.clarin.com/ediciones-anteriores/20140805'
p35
aS'http://www.clarin.com/ediciones-anteriores/20140806'
p36
aS'http://www.clarin.com/ediciones-anteriores/20140807'
p37
aS'http://www.clarin.com/ediciones-anteriores/20140808'
p38
aS'http://www.clarin.com/ediciones-anteriores/20140809'
p39
aS'http://www.clarin.com/ediciones-anteriores/20140810'
p40
aS'http://www.clarin.com/ediciones-anteriores/20140811'
p41
aS'http://www.clarin.com/ediciones-anteriores/20140812'
p42
aS'http://www.clarin.com/ediciones-anteriores/20140813'
p43
aS'http://www.clarin.com/ediciones-anteriores/20140814'
p44
aS'http://www.clarin.com/ediciones-anteriores/20140815'
p45
aS'http://www.clarin.com/ediciones-anteriores/20140816'
p46
aS'http://www.clarin.com/ediciones-anteriores/20140817'
p47
aS'http://www.clarin.com/ediciones-anteriores/20140818'
p48
aS'http://www.clarin.com/ediciones-anteriores/20140819'
p49
aS'http://www.clarin.com/ediciones-anteriores/20140820'
p50
aS'http://www.clarin.com/ediciones-anteriores/20140821'
p51
aS'http://www.clarin.com/ediciones-anteriores/20140822'
p52
aS'http://www.clarin.com/ediciones-anteriores/20140823'
p53
aS'http://www.clarin.com/ediciones-anteriores/20140824'
p54
aS'http://www.clarin.com/ediciones-anteriores/20140825'
p55
aS'http://www.clarin.com/ediciones-anteriores/20140826'
p56
aS'http://www.clarin.com/ediciones-anteriores/20140827'
p57
aS'http://www.clarin.com/ediciones-anteriores/20140828'
p58
aS'http://www.clarin.com/ediciones-anteriores/20140829'
p59
aS'http://www.clarin.com/ediciones-anteriores/20140830'
p60
aS'http://www.clarin.com/ediciones-anteriores/20140831'
p61
aS'http://www.clarin.com/ediciones-anteriores/20140901'
p62
aS'http://www.clarin.com/ediciones-anteriores/20140902'
p63
aS'http://www.clarin.com/ediciones-anteriores/20140903'
p64
aS'http://www.clarin.com/ediciones-anteriores/20140904'
p65
aS'http://www.clarin.com/ediciones-anteriores/20140905'
p66
aS'http://www.clarin.com/ediciones-anteriores/20140906'
p67
aS'http://www.clarin.com/ediciones-anteriores/20140907'
p68
aS'http://www.clarin.com/ediciones-anteriores/20140908'
p69
aS'http://www.clarin.com/ediciones-anteriores/20140909'
p70
aS'http://www.clarin.com/ediciones-anteriores/20140910'
p71
aS'http://www.clarin.com/ediciones-anteriores/20140911'
p72
aS'http://www.clarin.com/ediciones-anteriores/20140912'
p73
aS'http://www.clarin.com/ediciones-anteriores/20140913'
p74
aS'http://www.clarin.com/ediciones-anteriores/20140914'
p75
aS'http://www.clarin.com/ediciones-anteriores/20140915'
p76
aS'http://www.clarin.com/ediciones-anteriores/20140916'
p77
aS'http://www.clarin.com/ediciones-anteriores/20140917'
p78
aS'http://www.clarin.com/ediciones-anteriores/20140918'
p79
aS'http://www.clarin.com/ediciones-anteriores/20140919'
p80
aS'http://www.clarin.com/ediciones-anteriores/20140920'
p81
aS'http://www.clarin.com/ediciones-anteriores/20140921'
p82
aS'http://www.clarin.com/ediciones-anteriores/20140922'
p83
aS'http://www.clarin.com/ediciones-anteriores/20140923'
p84
aS'http://www.clarin.com/ediciones-anteriores/20140924'
p85
aS'http://www.clarin.com/ediciones-anteriores/20140925'
p86
aS'http://www.clarin.com/ediciones-anteriores/20140926'
p87
aS'http://www.clarin.com/ediciones-anteriores/20140927'
p88
aS'http://www.clarin.com/ediciones-anteriores/20140928'
p89
aS'http://www.clarin.com/ediciones-anteriores/20140929'
p90
aS'http://www.clarin.com/ediciones-anteriores/20140930'
p91
aS'http://www.clarin.com/ediciones-anteriores/20140931'
p92
aS'http://www.clarin.com/ediciones-anteriores/20141001'
p93
aS'http://www.clarin.com/ediciones-anteriores/20141002'
p94
aS'http://www.clarin.com/ediciones-anteriores/20141003'
p95
aS'http://www.clarin.com/ediciones-anteriores/20141004'
p96
aS'http://www.clarin.com/ediciones-anteriores/20141005'
p97
aS'http://www.clarin.com/ediciones-anteriores/20141006'
p98
aS'http://www.clarin.com/ediciones-anteriores/20141007'
p99
aS'http://www.clarin.com/ediciones-anteriores/20141008'
p100
aS'http://www.clarin.com/ediciones-anteriores/20141009'
p101
aS'http://www.clarin.com/ediciones-anteriores/20141010'
p102
aS'http://www.clarin.com/ediciones-anteriores/20141011'
p103
aS'http://www.clarin.com/ediciones-anteriores/20141012'
p104
aS'http://www.clarin.com/ediciones-anteriores/20141013'
p105
aS'http://www.clarin.com/ediciones-anteriores/20141014'
p106
aS'http://www.clarin.com/ediciones-anteriores/20141015'
p107
aS'http://www.clarin.com/ediciones-anteriores/20141016'
p108
aS'http://www.clarin.com/ediciones-anteriores/20141017'
p109
aS'http://www.clarin.com/ediciones-anteriores/20141018'
p110
aS'http://www.clarin.com/ediciones-anteriores/20141019'
p111
aS'http://www.clarin.com/ediciones-anteriores/20141020'
p112
aS'http://www.clarin.com/ediciones-anteriores/20141021'
p113
aS'http://www.clarin.com/ediciones-anteriores/20141022'
p114
aS'http://www.clarin.com/ediciones-anteriores/20141023'
p115
aS'http://www.clarin.com/ediciones-anteriores/20141024'
p116
aS'http://www.clarin.com/ediciones-anteriores/20141025'
p117
aS'http://www.clarin.com/ediciones-anteriores/20141026'
p118
aS'http://www.clarin.com/ediciones-anteriores/20141027'
p119
aS'http://www.clarin.com/ediciones-anteriores/20141028'
p120
aS'http://www.clarin.com/ediciones-anteriores/20141029'
p121
aS'http://www.clarin.com/ediciones-anteriores/20141030'
p122
aS'http://www.clarin.com/ediciones-anteriores/20141031'
p123
aS'http://www.clarin.com/ediciones-anteriores/20141101'
p124
aS'http://www.clarin.com/ediciones-anteriores/20141102'
p125
aS'http://www.clarin.com/ediciones-anteriores/20141103'
p126
aS'http://www.clarin.com/ediciones-anteriores/20141104'
p127
aS'http://www.clarin.com/ediciones-anteriores/20141105'
p128
aS'http://www.clarin.com/ediciones-anteriores/20141106'
p129
aS'http://www.clarin.com/ediciones-anteriores/20141107'
p130
aS'http://www.clarin.com/ediciones-anteriores/20141108'
p131
aS'http://www.clarin.com/ediciones-anteriores/20141109'
p132
aS'http://www.clarin.com/ediciones-anteriores/20141110'
p133
aS'http://www.clarin.com/ediciones-anteriores/20141111'
p134
aS'http://www.clarin.com/ediciones-anteriores/20141112'
p135
aS'http://www.clarin.com/ediciones-anteriores/20141113'
p136
aS'http://www.clarin.com/ediciones-anteriores/20141114'
p137
aS'http://www.clarin.com/ediciones-anteriores/20141115'
p138
aS'http://www.clarin.com/ediciones-anteriores/20141116'
p139
aS'http://www.clarin.com/ediciones-anteriores/20141117'
p140
aS'http://www.clarin.com/ediciones-anteriores/20141118'
p141
aS'http://www.clarin.com/ediciones-anteriores/20141119'
p142
aS'http://www.clarin.com/ediciones-anteriores/20141120'
p143
aS'http://www.clarin.com/ediciones-anteriores/20141121'
p144
aS'http://www.clarin.com/ediciones-anteriores/20141122'
p145
aS'http://www.clarin.com/ediciones-anteriores/20141123'
p146
aS'http://www.clarin.com/ediciones-anteriores/20141124'
p147
aS'http://www.clarin.com/ediciones-anteriores/20141125'
p148
aS'http://www.clarin.com/ediciones-anteriores/20141126'
p149
aS'http://www.clarin.com/ediciones-anteriores/20141127'
p150
aS'http://www.clarin.com/ediciones-anteriores/20141128'
p151
aS'http://www.clarin.com/ediciones-anteriores/20141129'
p152
aS'http://www.clarin.com/ediciones-anteriores/20141130'
p153
aS'http://www.clarin.com/ediciones-anteriores/20141131'
p154
aS'http://www.clarin.com/ediciones-anteriores/20141201'
p155
aS'http://www.clarin.com/ediciones-anteriores/20141202'
p156
aS'http://www.clarin.com/ediciones-anteriores/20141203'
p157
aS'http://www.clarin.com/ediciones-anteriores/20141204'
p158
aS'http://www.clarin.com/ediciones-anteriores/20141205'
p159
aS'http://www.clarin.com/ediciones-anteriores/20141206'
p160
aS'http://www.clarin.com/ediciones-anteriores/20141207'
p161
aS'http://www.clarin.com/ediciones-anteriores/20141208'
p162
aS'http://www.clarin.com/ediciones-anteriores/20141209'
p163
aS'http://www.clarin.com/ediciones-anteriores/20141210'
p164
aS'http://www.clarin.com/ediciones-anteriores/20141211'
p165
aS'http://www.clarin.com/ediciones-anteriores/20141212'
p166
aS'http://www.clarin.com/ediciones-anteriores/20141213'
p167
aS'http://www.clarin.com/ediciones-anteriores/20141214'
p168
aS'http://www.clarin.com/ediciones-anteriores/20141215'
p169
aS'http://www.clarin.com/ediciones-anteriores/20141216'
p170
aS'http://www.clarin.com/ediciones-anteriores/20141217'
p171
aS'http://www.clarin.com/ediciones-anteriores/20141218'
p172
aS'http://www.clarin.com/ediciones-anteriores/20141219'
p173
aS'http://www.clarin.com/ediciones-anteriores/20141220'
p174
aS'http://www.clarin.com/ediciones-anteriores/20141221'
p175
aS'http://www.clarin.com/ediciones-anteriores/20141222'
p176
aS'http://www.clarin.com/ediciones-anteriores/20141223'
p177
aS'http://www.clarin.com/ediciones-anteriores/20141224'
p178
aS'http://www.clarin.com/ediciones-anteriores/20141225'
p179
aS'http://www.clarin.com/ediciones-anteriores/20141226'
p180
aS'http://www.clarin.com/ediciones-anteriores/20141227'
p181
aS'http://www.clarin.com/ediciones-anteriores/20141228'
p182
aS'http://www.clarin.com/ediciones-anteriores/20141229'
p183
aS'http://www.clarin.com/ediciones-anteriores/20141230'
p184
aS'http://www.clarin.com/ediciones-anteriores/20141231'
p185
aS'http://www.clarin.com/ediciones-anteriores/20150101'
p186
aS'http://www.clarin.com/ediciones-anteriores/20150102'
p187
aS'http://www.clarin.com/ediciones-anteriores/20150103'
p188
aS'http://www.clarin.com/ediciones-anteriores/20150104'
p189
aS'http://www.clarin.com/ediciones-anteriores/20150105'
p190
aS'http://www.clarin.com/ediciones-anteriores/20150106'
p191
aS'http://www.clarin.com/ediciones-anteriores/20150107'
p192
aS'http://www.clarin.com/ediciones-anteriores/20150108'
p193
aS'http://www.clarin.com/ediciones-anteriores/20150109'
p194
aS'http://www.clarin.com/ediciones-anteriores/20150110'
p195
aS'http://www.clarin.com/ediciones-anteriores/20150111'
p196
aS'http://www.clarin.com/ediciones-anteriores/20150112'
p197
aS'http://www.clarin.com/ediciones-anteriores/20150113'
p198
aS'http://www.clarin.com/ediciones-anteriores/20150114'
p199
aS'http://www.clarin.com/ediciones-anteriores/20150115'
p200
aS'http://www.clarin.com/ediciones-anteriores/20150116'
p201
aS'http://www.clarin.com/ediciones-anteriores/20150117'
p202
aS'http://www.clarin.com/ediciones-anteriores/20150118'
p203
aS'http://www.clarin.com/ediciones-anteriores/20150119'
p204
aS'http://www.clarin.com/ediciones-anteriores/20150120'
p205
aS'http://www.clarin.com/ediciones-anteriores/20150121'
p206
aS'http://www.clarin.com/ediciones-anteriores/20150122'
p207
aS'http://www.clarin.com/ediciones-anteriores/20150123'
p208
aS'http://www.clarin.com/ediciones-anteriores/20150124'
p209
aS'http://www.clarin.com/ediciones-anteriores/20150125'
p210
aS'http://www.clarin.com/ediciones-anteriores/20150126'
p211
aS'http://www.clarin.com/ediciones-anteriores/20150127'
p212
aS'http://www.clarin.com/ediciones-anteriores/20150128'
p213
aS'http://www.clarin.com/ediciones-anteriores/20150129'
p214
aS'http://www.clarin.com/ediciones-anteriores/20150130'
p215
aS'http://www.clarin.com/ediciones-anteriores/20150131'
p216
aS'http://www.clarin.com/ediciones-anteriores/20150201'
p217
aS'http://www.clarin.com/ediciones-anteriores/20150202'
p218
aS'http://www.clarin.com/ediciones-anteriores/20150203'
p219
aS'http://www.clarin.com/ediciones-anteriores/20150204'
p220
aS'http://www.clarin.com/ediciones-anteriores/20150205'
p221
aS'http://www.clarin.com/ediciones-anteriores/20150206'
p222
aS'http://www.clarin.com/ediciones-anteriores/20150207'
p223
aS'http://www.clarin.com/ediciones-anteriores/20150208'
p224
aS'http://www.clarin.com/ediciones-anteriores/20150209'
p225
aS'http://www.clarin.com/ediciones-anteriores/20150210'
p226
aS'http://www.clarin.com/ediciones-anteriores/20150211'
p227
aS'http://www.clarin.com/ediciones-anteriores/20150212'
p228
aS'http://www.clarin.com/ediciones-anteriores/20150213'
p229
aS'http://www.clarin.com/ediciones-anteriores/20150214'
p230
aS'http://www.clarin.com/ediciones-anteriores/20150215'
p231
aS'http://www.clarin.com/ediciones-anteriores/20150216'
p232
aS'http://www.clarin.com/ediciones-anteriores/20150217'
p233
aS'http://www.clarin.com/ediciones-anteriores/20150218'
p234
aS'http://www.clarin.com/ediciones-anteriores/20150219'
p235
aS'http://www.clarin.com/ediciones-anteriores/20150220'
p236
aS'http://www.clarin.com/ediciones-anteriores/20150221'
p237
aS'http://www.clarin.com/ediciones-anteriores/20150222'
p238
aS'http://www.clarin.com/ediciones-anteriores/20150223'
p239
aS'http://www.clarin.com/ediciones-anteriores/20150224'
p240
aS'http://www.clarin.com/ediciones-anteriores/20150225'
p241
aS'http://www.clarin.com/ediciones-anteriores/20150226'
p242
aS'http://www.clarin.com/ediciones-anteriores/20150227'
p243
aS'http://www.clarin.com/ediciones-anteriores/20150228'
p244
aS'http://www.clarin.com/ediciones-anteriores/20150229'
p245
aS'http://www.clarin.com/ediciones-anteriores/20150230'
p246
aS'http://www.clarin.com/ediciones-anteriores/20150231'
p247
aS'http://www.clarin.com/ediciones-anteriores/20150301'
p248
aS'http://www.clarin.com/ediciones-anteriores/20150302'
p249
aS'http://www.clarin.com/ediciones-anteriores/20150303'
p250
aS'http://www.clarin.com/ediciones-anteriores/20150304'
p251
aS'http://www.clarin.com/ediciones-anteriores/20150305'
p252
aS'http://www.clarin.com/ediciones-anteriores/20150306'
p253
aS'http://www.clarin.com/ediciones-anteriores/20150307'
p254
aS'http://www.clarin.com/ediciones-anteriores/20150308'
p255
aS'http://www.clarin.com/ediciones-anteriores/20150309'
p256
aS'http://www.clarin.com/ediciones-anteriores/20150310'
p257
aS'http://www.clarin.com/ediciones-anteriores/20150311'
p258
aS'http://www.clarin.com/ediciones-anteriores/20150312'
p259
aS'http://www.clarin.com/ediciones-anteriores/20150313'
p260
aS'http://www.clarin.com/ediciones-anteriores/20150314'
p261
aS'http://www.clarin.com/ediciones-anteriores/20150315'
p262
aS'http://www.clarin.com/ediciones-anteriores/20150316'
p263
aS'http://www.clarin.com/ediciones-anteriores/20150317'
p264
aS'http://www.clarin.com/ediciones-anteriores/20150318'
p265
aS'http://www.clarin.com/ediciones-anteriores/20150319'
p266
aS'http://www.clarin.com/ediciones-anteriores/20150320'
p267
aS'http://www.clarin.com/ediciones-anteriores/20150321'
p268
aS'http://www.clarin.com/ediciones-anteriores/20150322'
p269
aS'http://www.clarin.com/ediciones-anteriores/20150323'
p270
aS'http://www.clarin.com/ediciones-anteriores/20150324'
p271
aS'http://www.clarin.com/ediciones-anteriores/20150325'
p272
aS'http://www.clarin.com/ediciones-anteriores/20150326'
p273
aS'http://www.clarin.com/ediciones-anteriores/20150327'
p274
aS'http://www.clarin.com/ediciones-anteriores/20150328'
p275
aS'http://www.clarin.com/ediciones-anteriores/20150329'
p276
aS'http://www.clarin.com/ediciones-anteriores/20150330'
p277
aS'http://www.clarin.com/ediciones-anteriores/20150331'
p278
aS'http://www.clarin.com/ediciones-anteriores/20150401'
p279
aS'http://www.clarin.com/ediciones-anteriores/20150402'
p280
aS'http://www.clarin.com/ediciones-anteriores/20150403'
p281
aS'http://www.clarin.com/ediciones-anteriores/20150404'
p282
aS'http://www.clarin.com/ediciones-anteriores/20150405'
p283
aS'http://www.clarin.com/ediciones-anteriores/20150406'
p284
aS'http://www.clarin.com/ediciones-anteriores/20150407'
p285
aS'http://www.clarin.com/ediciones-anteriores/20150408'
p286
aS'http://www.clarin.com/ediciones-anteriores/20150409'
p287
aS'http://www.clarin.com/ediciones-anteriores/20150410'
p288
aS'http://www.clarin.com/ediciones-anteriores/20150411'
p289
aS'http://www.clarin.com/ediciones-anteriores/20150412'
p290
aS'http://www.clarin.com/ediciones-anteriores/20150413'
p291
aS'http://www.clarin.com/ediciones-anteriores/20150414'
p292
aS'http://www.clarin.com/ediciones-anteriores/20150415'
p293
aS'http://www.clarin.com/ediciones-anteriores/20150416'
p294
aS'http://www.clarin.com/ediciones-anteriores/20150417'
p295
aS'http://www.clarin.com/ediciones-anteriores/20150418'
p296
aS'http://www.clarin.com/ediciones-anteriores/20150419'
p297
aS'http://www.clarin.com/ediciones-anteriores/20150420'
p298
aS'http://www.clarin.com/ediciones-anteriores/20150421'
p299
aS'http://www.clarin.com/ediciones-anteriores/20150422'
p300
aS'http://www.clarin.com/ediciones-anteriores/20150423'
p301
aS'http://www.clarin.com/ediciones-anteriores/20150424'
p302
aS'http://www.clarin.com/ediciones-anteriores/20150425'
p303
aS'http://www.clarin.com/ediciones-anteriores/20150426'
p304
aS'http://www.clarin.com/ediciones-anteriores/20150427'
p305
aS'http://www.clarin.com/ediciones-anteriores/20150428'
p306
aS'http://www.clarin.com/ediciones-anteriores/20150429'
p307
aS'http://www.clarin.com/ediciones-anteriores/20150430'
p308
aS'http://www.clarin.com/ediciones-anteriores/20150431'
p309
aS'http://www.clarin.com/ediciones-anteriores/20150501'
p310
aS'http://www.clarin.com/ediciones-anteriores/20150502'
p311
aS'http://www.clarin.com/ediciones-anteriores/20150503'
p312
aS'http://www.clarin.com/ediciones-anteriores/20150504'
p313
aS'http://www.clarin.com/ediciones-anteriores/20150505'
p314
aS'http://www.clarin.com/ediciones-anteriores/20150506'
p315
aS'http://www.clarin.com/ediciones-anteriores/20150507'
p316
aS'http://www.clarin.com/ediciones-anteriores/20150508'
p317
aS'http://www.clarin.com/ediciones-anteriores/20150509'
p318
aS'http://www.clarin.com/ediciones-anteriores/20150510'
p319
aS'http://www.clarin.com/ediciones-anteriores/20150511'
p320
aS'http://www.clarin.com/ediciones-anteriores/20150512'
p321
aS'http://www.clarin.com/ediciones-anteriores/20150513'
p322
aS'http://www.clarin.com/ediciones-anteriores/20150514'
p323
aS'http://www.clarin.com/ediciones-anteriores/20150515'
p324
aS'http://www.clarin.com/ediciones-anteriores/20150516'
p325
aS'http://www.clarin.com/ediciones-anteriores/20150517'
p326
aS'http://www.clarin.com/ediciones-anteriores/20150518'
p327
aS'http://www.clarin.com/ediciones-anteriores/20150519'
p328
aS'http://www.clarin.com/ediciones-anteriores/20150520'
p329
aS'http://www.clarin.com/ediciones-anteriores/20150521'
p330
aS'http://www.clarin.com/ediciones-anteriores/20150522'
p331
aS'http://www.clarin.com/ediciones-anteriores/20150523'
p332
aS'http://www.clarin.com/ediciones-anteriores/20150524'
p333
aS'http://www.clarin.com/ediciones-anteriores/20150525'
p334
aS'http://www.clarin.com/ediciones-anteriores/20150526'
p335
aS'http://www.clarin.com/ediciones-anteriores/20150527'
p336
aS'http://www.clarin.com/ediciones-anteriores/20150528'
p337
aS'http://www.clarin.com/ediciones-anteriores/20150529'
p338
aS'http://www.clarin.com/ediciones-anteriores/20150530'
p339
aS'http://www.clarin.com/ediciones-anteriores/20150531'
p340
aS'http://www.clarin.com/ediciones-anteriores/20150601'
p341
aS'http://www.clarin.com/ediciones-anteriores/20150602'
p342
aS'http://www.clarin.com/ediciones-anteriores/20150603'
p343
aS'http://www.clarin.com/ediciones-anteriores/20150604'
p344
aS'http://www.clarin.com/ediciones-anteriores/20150605'
p345
aS'http://www.clarin.com/ediciones-anteriores/20150606'
p346
aS'http://www.clarin.com/ediciones-anteriores/20150607'
p347
aS'http://www.clarin.com/ediciones-anteriores/20150608'
p348
aS'http://www.clarin.com/ediciones-anteriores/20150609'
p349
aS'http://www.clarin.com/ediciones-anteriores/20150610'
p350
aS'http://www.clarin.com/ediciones-anteriores/20150611'
p351
aS'http://www.clarin.com/ediciones-anteriores/20150612'
p352
aS'http://www.clarin.com/ediciones-anteriores/20150613'
p353
aS'http://www.clarin.com/ediciones-anteriores/20150614'
p354
aS'http://www.clarin.com/ediciones-anteriores/20150615'
p355
aS'http://www.clarin.com/ediciones-anteriores/20150616'
p356
aS'http://www.clarin.com/ediciones-anteriores/20150617'
p357
aS'http://www.clarin.com/ediciones-anteriores/20150618'
p358
aS'http://www.clarin.com/ediciones-anteriores/20150619'
p359
aS'http://www.clarin.com/ediciones-anteriores/20150620'
p360
aS'http://www.clarin.com/ediciones-anteriores/20150621'
p361
aS'http://www.clarin.com/ediciones-anteriores/20150622'
p362
aS'http://www.clarin.com/ediciones-anteriores/20150623'
p363
aS'http://www.clarin.com/ediciones-anteriores/20150624'
p364
aS'http://www.clarin.com/ediciones-anteriores/20150625'
p365
aS'http://www.clarin.com/ediciones-anteriores/20150626'
p366
aS'http://www.clarin.com/ediciones-anteriores/20150627'
p367
aS'http://www.clarin.com/ediciones-anteriores/20150628'
p368
aS'http://www.clarin.com/ediciones-anteriores/20150629'
p369
aS'http://www.clarin.com/ediciones-anteriores/20150630'
p370
aS'http://www.clarin.com/ediciones-anteriores/20150631'
p371
aS'http://www.clarin.com/ediciones-anteriores/20150701'
p372
aS'http://www.clarin.com/ediciones-anteriores/20150702'
p373
aS'http://www.clarin.com/ediciones-anteriores/20150703'
p374
aS'http://www.clarin.com/ediciones-anteriores/20150704'
p375
aS'http://www.clarin.com/ediciones-anteriores/20150705'
p376
aS'http://www.clarin.com/ediciones-anteriores/20150706'
p377
aS'http://www.clarin.com/ediciones-anteriores/20150707'
p378
aS'http://www.clarin.com/ediciones-anteriores/20150708'
p379
aS'http://www.clarin.com/ediciones-anteriores/20150709'
p380
aS'http://www.clarin.com/ediciones-anteriores/20150710'
p381
aS'http://www.clarin.com/ediciones-anteriores/20150711'
p382
aS'http://www.clarin.com/ediciones-anteriores/20150712'
p383
aS'http://www.clarin.com/ediciones-anteriores/20150713'
p384
aS'http://www.clarin.com/ediciones-anteriores/20150714'
p385
aS'http://www.clarin.com/ediciones-anteriores/20150715'
p386
aS'http://www.clarin.com/ediciones-anteriores/20150716'
p387
aS'http://www.clarin.com/ediciones-anteriores/20150717'
p388
aS'http://www.clarin.com/ediciones-anteriores/20150718'
p389
aS'http://www.clarin.com/ediciones-anteriores/20150719'
p390
aS'http://www.clarin.com/ediciones-anteriores/20150720'
p391
aS'http://www.clarin.com/ediciones-anteriores/20150721'
p392
aS'http://www.clarin.com/ediciones-anteriores/20150722'
p393
aS'http://www.clarin.com/ediciones-anteriores/20150723'
p394
aS'http://www.clarin.com/ediciones-anteriores/20150724'
p395
aS'http://www.clarin.com/ediciones-anteriores/20150725'
p396
aS'http://www.clarin.com/ediciones-anteriores/20150726'
p397
aS'http://www.clarin.com/ediciones-anteriores/20150727'
p398
aS'http://www.clarin.com/ediciones-anteriores/20150728'
p399
aS'http://www.clarin.com/ediciones-anteriores/20150729'
p400
aS'http://www.clarin.com/ediciones-anteriores/20150730'
p401
aS'http://www.clarin.com/ediciones-anteriores/20150731'
p402
aS'http://www.clarin.com/ediciones-anteriores/20150801'
p403
aS'http://www.clarin.com/ediciones-anteriores/20150802'
p404
aS'http://www.clarin.com/ediciones-anteriores/20150803'
p405
aS'http://www.clarin.com/ediciones-anteriores/20150804'
p406
aS'http://www.clarin.com/ediciones-anteriores/20150805'
p407
aS'http://www.clarin.com/ediciones-anteriores/20150806'
p408
aS'http://www.clarin.com/ediciones-anteriores/20150807'
p409
aS'http://www.clarin.com/ediciones-anteriores/20150808'
p410
aS'http://www.clarin.com/ediciones-anteriores/20150809'
p411
aS'http://www.clarin.com/ediciones-anteriores/20150810'
p412
aS'http://www.clarin.com/ediciones-anteriores/20150811'
p413
aS'http://www.clarin.com/ediciones-anteriores/20150812'
p414
aS'http://www.clarin.com/ediciones-anteriores/20150813'
p415
aS'http://www.clarin.com/ediciones-anteriores/20150814'
p416
aS'http://www.clarin.com/ediciones-anteriores/20150815'
p417
aS'http://www.clarin.com/ediciones-anteriores/20150816'
p418
aS'http://www.clarin.com/ediciones-anteriores/20150817'
p419
aS'http://www.clarin.com/ediciones-anteriores/20150818'
p420
aS'http://www.clarin.com/ediciones-anteriores/20150819'
p421
aS'http://www.clarin.com/ediciones-anteriores/20150820'
p422
aS'http://www.clarin.com/ediciones-anteriores/20150821'
p423
aS'http://www.clarin.com/ediciones-anteriores/20150822'
p424
aS'http://www.clarin.com/ediciones-anteriores/20150823'
p425
aS'http://www.clarin.com/ediciones-anteriores/20150824'
p426
aS'http://www.clarin.com/ediciones-anteriores/20150825'
p427
aS'http://www.clarin.com/ediciones-anteriores/20150826'
p428
aS'http://www.clarin.com/ediciones-anteriores/20150827'
p429
aS'http://www.clarin.com/ediciones-anteriores/20150828'
p430
aS'http://www.clarin.com/ediciones-anteriores/20150829'
p431
aS'http://www.clarin.com/ediciones-anteriores/20150830'
p432
aS'http://www.clarin.com/ediciones-anteriores/20150831'
p433
aS'http://www.clarin.com/ediciones-anteriores/20150901'
p434
aS'http://www.clarin.com/ediciones-anteriores/20150902'
p435
aS'http://www.clarin.com/ediciones-anteriores/20150903'
p436
aS'http://www.clarin.com/ediciones-anteriores/20150904'
p437
aS'http://www.clarin.com/ediciones-anteriores/20150905'
p438
aS'http://www.clarin.com/ediciones-anteriores/20150906'
p439
aS'http://www.clarin.com/ediciones-anteriores/20150907'
p440
aS'http://www.clarin.com/ediciones-anteriores/20150908'
p441
aS'http://www.clarin.com/ediciones-anteriores/20150909'
p442
aS'http://www.clarin.com/ediciones-anteriores/20150910'
p443
aS'http://www.clarin.com/ediciones-anteriores/20150911'
p444
aS'http://www.clarin.com/ediciones-anteriores/20150912'
p445
aS'http://www.clarin.com/ediciones-anteriores/20150913'
p446
aS'http://www.clarin.com/ediciones-anteriores/20150914'
p447
aS'http://www.clarin.com/ediciones-anteriores/20150915'
p448
aS'http://www.clarin.com/ediciones-anteriores/20150916'
p449
aS'http://www.clarin.com/ediciones-anteriores/20150917'
p450
aS'http://www.clarin.com/ediciones-anteriores/20150918'
p451
aS'http://www.clarin.com/ediciones-anteriores/20150919'
p452
aS'http://www.clarin.com/ediciones-anteriores/20150920'
p453
aS'http://www.clarin.com/ediciones-anteriores/20150921'
p454
aS'http://www.clarin.com/ediciones-anteriores/20150922'
p455
aS'http://www.clarin.com/ediciones-anteriores/20150923'
p456
aS'http://www.clarin.com/ediciones-anteriores/20150924'
p457
aS'http://www.clarin.com/ediciones-anteriores/20150925'
p458
aS'http://www.clarin.com/ediciones-anteriores/20150926'
p459
aS'http://www.clarin.com/ediciones-anteriores/20150927'
p460
aS'http://www.clarin.com/ediciones-anteriores/20150928'
p461
aS'http://www.clarin.com/ediciones-anteriores/20150929'
p462
aS'http://www.clarin.com/ediciones-anteriores/20150930'
p463
aS'http://www.clarin.com/ediciones-anteriores/20150931'
p464
aS'http://www.clarin.com/ediciones-anteriores/20151001'
p465
aS'http://www.clarin.com/ediciones-anteriores/20151002'
p466
aS'http://www.clarin.com/ediciones-anteriores/20151003'
p467
aS'http://www.clarin.com/ediciones-anteriores/20151004'
p468
aS'http://www.clarin.com/ediciones-anteriores/20151005'
p469
aS'http://www.clarin.com/ediciones-anteriores/20151006'
p470
aS'http://www.clarin.com/ediciones-anteriores/20151007'
p471
aS'http://www.clarin.com/ediciones-anteriores/20151008'
p472
aS'http://www.clarin.com/ediciones-anteriores/20151009'
p473
aS'http://www.clarin.com/ediciones-anteriores/20151010'
p474
aS'http://www.clarin.com/ediciones-anteriores/20151011'
p475
aS'http://www.clarin.com/ediciones-anteriores/20151012'
p476
aS'http://www.clarin.com/ediciones-anteriores/20151013'
p477
aS'http://www.clarin.com/ediciones-anteriores/20151014'
p478
aS'http://www.clarin.com/ediciones-anteriores/20151015'
p479
aS'http://www.clarin.com/ediciones-anteriores/20151016'
p480
aS'http://www.clarin.com/ediciones-anteriores/20151017'
p481
aS'http://www.clarin.com/ediciones-anteriores/20151018'
p482
aS'http://www.clarin.com/ediciones-anteriores/20151019'
p483
aS'http://www.clarin.com/ediciones-anteriores/20151020'
p484
aS'http://www.clarin.com/ediciones-anteriores/20151021'
p485
aS'http://www.clarin.com/ediciones-anteriores/20151022'
p486
aS'http://www.clarin.com/ediciones-anteriores/20151023'
p487
aS'http://www.clarin.com/ediciones-anteriores/20151024'
p488
aS'http://www.clarin.com/ediciones-anteriores/20151025'
p489
aS'http://www.clarin.com/ediciones-anteriores/20151026'
p490
aS'http://www.clarin.com/ediciones-anteriores/20151027'
p491
aS'http://www.clarin.com/ediciones-anteriores/20151028'
p492
aS'http://www.clarin.com/ediciones-anteriores/20151029'
p493
aS'http://www.clarin.com/ediciones-anteriores/20151030'
p494
aS'http://www.clarin.com/ediciones-anteriores/20151031'
p495
aS'http://www.clarin.com/ediciones-anteriores/20151101'
p496
aS'http://www.clarin.com/ediciones-anteriores/20151102'
p497
aS'http://www.clarin.com/ediciones-anteriores/20151103'
p498
aS'http://www.clarin.com/ediciones-anteriores/20151104'
p499
aS'http://www.clarin.com/ediciones-anteriores/20151105'
p500
aS'http://www.clarin.com/ediciones-anteriores/20151106'
p501
aS'http://www.clarin.com/ediciones-anteriores/20151107'
p502
aS'http://www.clarin.com/ediciones-anteriores/20151108'
p503
aS'http://www.clarin.com/ediciones-anteriores/20151109'
p504
aS'http://www.clarin.com/ediciones-anteriores/20151110'
p505
aS'http://www.clarin.com/ediciones-anteriores/20151111'
p506
aS'http://www.clarin.com/ediciones-anteriores/20151112'
p507
aS'http://www.clarin.com/ediciones-anteriores/20151113'
p508
aS'http://www.clarin.com/ediciones-anteriores/20151114'
p509
aS'http://www.clarin.com/ediciones-anteriores/20151115'
p510
aS'http://www.clarin.com/ediciones-anteriores/20151116'
p511
aS'http://www.clarin.com/ediciones-anteriores/20151117'
p512
aS'http://www.clarin.com/ediciones-anteriores/20151118'
p513
aS'http://www.clarin.com/ediciones-anteriores/20151119'
p514
aS'http://www.clarin.com/ediciones-anteriores/20151120'
p515
aS'http://www.clarin.com/ediciones-anteriores/20151121'
p516
aS'http://www.clarin.com/ediciones-anteriores/20151122'
p517
aS'http://www.clarin.com/ediciones-anteriores/20151123'
p518
aS'http://www.clarin.com/ediciones-anteriores/20151124'
p519
aS'http://www.clarin.com/ediciones-anteriores/20151125'
p520
aS'http://www.clarin.com/ediciones-anteriores/20151126'
p521
aS'http://www.clarin.com/ediciones-anteriores/20151127'
p522
aS'http://www.clarin.com/ediciones-anteriores/20151128'
p523
aS'http://www.clarin.com/ediciones-anteriores/20151129'
p524
aS'http://www.clarin.com/ediciones-anteriores/20151130'
p525
aS'http://www.clarin.com/ediciones-anteriores/20151131'
p526
aS'http://www.clarin.com/ediciones-anteriores/20151201'
p527
aS'http://www.clarin.com/ediciones-anteriores/20151202'
p528
aS'http://www.clarin.com/ediciones-anteriores/20151203'
p529
aS'http://www.clarin.com/ediciones-anteriores/20151204'
p530
aS'http://www.clarin.com/ediciones-anteriores/20151205'
p531
aS'http://www.clarin.com/ediciones-anteriores/20151206'
p532
aS'http://www.clarin.com/ediciones-anteriores/20151207'
p533
aS'http://www.clarin.com/ediciones-anteriores/20151208'
p534
aS'http://www.clarin.com/ediciones-anteriores/20151209'
p535
aS'http://www.clarin.com/ediciones-anteriores/20151210'
p536
aS'http://www.clarin.com/ediciones-anteriores/20151211'
p537
aS'http://www.clarin.com/ediciones-anteriores/20151212'
p538
aS'http://www.clarin.com/ediciones-anteriores/20151213'
p539
aS'http://www.clarin.com/ediciones-anteriores/20151214'
p540
aS'http://www.clarin.com/ediciones-anteriores/20151215'
p541
aS'http://www.clarin.com/ediciones-anteriores/20151216'
p542
aS'http://www.clarin.com/ediciones-anteriores/20151217'
p543
aS'http://www.clarin.com/ediciones-anteriores/20151218'
p544
aS'http://www.clarin.com/ediciones-anteriores/20151219'
p545
aS'http://www.clarin.com/ediciones-anteriores/20151220'
p546
aS'http://www.clarin.com/ediciones-anteriores/20151221'
p547
aS'http://www.clarin.com/ediciones-anteriores/20151222'
p548
aS'http://www.clarin.com/ediciones-anteriores/20151223'
p549
aS'http://www.clarin.com/ediciones-anteriores/20151224'
p550
aS'http://www.clarin.com/ediciones-anteriores/20151225'
p551
aS'http://www.clarin.com/ediciones-anteriores/20151226'
p552
aS'http://www.clarin.com/ediciones-anteriores/20151227'
p553
aS'http://www.clarin.com/ediciones-anteriores/20151228'
p554
aS'http://www.clarin.com/ediciones-anteriores/20151229'
p555
aS'http://www.clarin.com/ediciones-anteriores/20151230'
p556
aS'http://www.clarin.com/ediciones-anteriores/20151231'
p557
aS'http://www.clarin.com/ediciones-anteriores/20160101'
p558
aS'http://www.clarin.com/ediciones-anteriores/20160102'
p559
aS'http://www.clarin.com/ediciones-anteriores/20160103'
p560
aS'http://www.clarin.com/ediciones-anteriores/20160104'
p561
aS'http://www.clarin.com/ediciones-anteriores/20160105'
p562
aS'http://www.clarin.com/ediciones-anteriores/20160106'
p563
aS'http://www.clarin.com/ediciones-anteriores/20160107'
p564
aS'http://www.clarin.com/ediciones-anteriores/20160108'
p565
aS'http://www.clarin.com/ediciones-anteriores/20160109'
p566
aS'http://www.clarin.com/ediciones-anteriores/20160110'
p567
aS'http://www.clarin.com/ediciones-anteriores/20160111'
p568
aS'http://www.clarin.com/ediciones-anteriores/20160112'
p569
aS'http://www.clarin.com/ediciones-anteriores/20160113'
p570
aS'http://www.clarin.com/ediciones-anteriores/20160114'
p571
aS'http://www.clarin.com/ediciones-anteriores/20160115'
p572
aS'http://www.clarin.com/ediciones-anteriores/20160116'
p573
aS'http://www.clarin.com/ediciones-anteriores/20160117'
p574
aS'http://www.clarin.com/ediciones-anteriores/20160118'
p575
aS'http://www.clarin.com/ediciones-anteriores/20160119'
p576
aS'http://www.clarin.com/ediciones-anteriores/20160120'
p577
aS'http://www.clarin.com/ediciones-anteriores/20160121'
p578
aS'http://www.clarin.com/ediciones-anteriores/20160122'
p579
aS'http://www.clarin.com/ediciones-anteriores/20160123'
p580
aS'http://www.clarin.com/ediciones-anteriores/20160124'
p581
aS'http://www.clarin.com/ediciones-anteriores/20160125'
p582
aS'http://www.clarin.com/ediciones-anteriores/20160126'
p583
aS'http://www.clarin.com/ediciones-anteriores/20160127'
p584
aS'http://www.clarin.com/ediciones-anteriores/20160128'
p585
aS'http://www.clarin.com/ediciones-anteriores/20160129'
p586
aS'http://www.clarin.com/ediciones-anteriores/20160130'
p587
aS'http://www.clarin.com/ediciones-anteriores/20160131'
p588
aS'http://www.clarin.com/ediciones-anteriores/20160201'
p589
aS'http://www.clarin.com/ediciones-anteriores/20160202'
p590
aS'http://www.clarin.com/ediciones-anteriores/20160203'
p591
aS'http://www.clarin.com/ediciones-anteriores/20160204'
p592
aS'http://www.clarin.com/ediciones-anteriores/20160205'
p593
aS'http://www.clarin.com/ediciones-anteriores/20160206'
p594
aS'http://www.clarin.com/ediciones-anteriores/20160207'
p595
aS'http://www.clarin.com/ediciones-anteriores/20160208'
p596
aS'http://www.clarin.com/ediciones-anteriores/20160209'
p597
aS'http://www.clarin.com/ediciones-anteriores/20160210'
p598
aS'http://www.clarin.com/ediciones-anteriores/20160211'
p599
aS'http://www.clarin.com/ediciones-anteriores/20160212'
p600
aS'http://www.clarin.com/ediciones-anteriores/20160213'
p601
aS'http://www.clarin.com/ediciones-anteriores/20160214'
p602
aS'http://www.clarin.com/ediciones-anteriores/20160215'
p603
aS'http://www.clarin.com/ediciones-anteriores/20160216'
p604
aS'http://www.clarin.com/ediciones-anteriores/20160217'
p605
aS'http://www.clarin.com/ediciones-anteriores/20160218'
p606
aS'http://www.clarin.com/ediciones-anteriores/20160219'
p607
aS'http://www.clarin.com/ediciones-anteriores/20160220'
p608
aS'http://www.clarin.com/ediciones-anteriores/20160221'
p609
aS'http://www.clarin.com/ediciones-anteriores/20160222'
p610
aS'http://www.clarin.com/ediciones-anteriores/20160223'
p611
aS'http://www.clarin.com/ediciones-anteriores/20160224'
p612
aS'http://www.clarin.com/ediciones-anteriores/20160225'
p613
aS'http://www.clarin.com/ediciones-anteriores/20160226'
p614
aS'http://www.clarin.com/ediciones-anteriores/20160227'
p615
aS'http://www.clarin.com/ediciones-anteriores/20160228'
p616
aS'http://www.clarin.com/ediciones-anteriores/20160229'
p617
aS'http://www.clarin.com/ediciones-anteriores/20160230'
p618
aS'http://www.clarin.com/ediciones-anteriores/20160231'
p619
aS'http://www.clarin.com/ediciones-anteriores/20160301'
p620
aS'http://www.clarin.com/ediciones-anteriores/20160302'
p621
aS'http://www.clarin.com/ediciones-anteriores/20160303'
p622
aS'http://www.clarin.com/ediciones-anteriores/20160304'
p623
aS'http://www.clarin.com/ediciones-anteriores/20160305'
p624
aS'http://www.clarin.com/ediciones-anteriores/20160306'
p625
aS'http://www.clarin.com/ediciones-anteriores/20160307'
p626
aS'http://www.clarin.com/ediciones-anteriores/20160308'
p627
aS'http://www.clarin.com/ediciones-anteriores/20160309'
p628
aS'http://www.clarin.com/ediciones-anteriores/20160310'
p629
aS'http://www.clarin.com/ediciones-anteriores/20160311'
p630
aS'http://www.clarin.com/ediciones-anteriores/20160312'
p631
aS'http://www.clarin.com/ediciones-anteriores/20160313'
p632
aS'http://www.clarin.com/ediciones-anteriores/20160314'
p633
aS'http://www.clarin.com/ediciones-anteriores/20160315'
p634
aS'http://www.clarin.com/ediciones-anteriores/20160316'
p635
aS'http://www.clarin.com/ediciones-anteriores/20160317'
p636
aS'http://www.clarin.com/ediciones-anteriores/20160318'
p637
aS'http://www.clarin.com/ediciones-anteriores/20160319'
p638
aS'http://www.clarin.com/ediciones-anteriores/20160320'
p639
aS'http://www.clarin.com/ediciones-anteriores/20160321'
p640
aS'http://www.clarin.com/ediciones-anteriores/20160322'
p641
aS'http://www.clarin.com/ediciones-anteriores/20160323'
p642
aS'http://www.clarin.com/ediciones-anteriores/20160324'
p643
aS'http://www.clarin.com/ediciones-anteriores/20160325'
p644
aS'http://www.clarin.com/ediciones-anteriores/20160326'
p645
aS'http://www.clarin.com/ediciones-anteriores/20160327'
p646
aS'http://www.clarin.com/ediciones-anteriores/20160328'
p647
aS'http://www.clarin.com/ediciones-anteriores/20160329'
p648
aS'http://www.clarin.com/ediciones-anteriores/20160330'
p649
aS'http://www.clarin.com/ediciones-anteriores/20160331'
p650
aS'http://www.clarin.com/ediciones-anteriores/20160401'
p651
aS'http://www.clarin.com/ediciones-anteriores/20160402'
p652
aS'http://www.clarin.com/ediciones-anteriores/20160403'
p653
aS'http://www.clarin.com/ediciones-anteriores/20160404'
p654
aS'http://www.clarin.com/ediciones-anteriores/20160405'
p655
aS'http://www.clarin.com/ediciones-anteriores/20160406'
p656
aS'http://www.clarin.com/ediciones-anteriores/20160407'
p657
aS'http://www.clarin.com/ediciones-anteriores/20160408'
p658
aS'http://www.clarin.com/ediciones-anteriores/20160409'
p659
aS'http://www.clarin.com/ediciones-anteriores/20160410'
p660
aS'http://www.clarin.com/ediciones-anteriores/20160411'
p661
aS'http://www.clarin.com/ediciones-anteriores/20160412'
p662
aS'http://www.clarin.com/ediciones-anteriores/20160413'
p663
aS'http://www.clarin.com/ediciones-anteriores/20160414'
p664
aS'http://www.clarin.com/ediciones-anteriores/20160415'
p665
aS'http://www.clarin.com/ediciones-anteriores/20160416'
p666
aS'http://www.clarin.com/ediciones-anteriores/20160417'
p667
aS'http://www.clarin.com/ediciones-anteriores/20160418'
p668
aS'http://www.clarin.com/ediciones-anteriores/20160419'
p669
aS'http://www.clarin.com/ediciones-anteriores/20160420'
p670
aS'http://www.clarin.com/ediciones-anteriores/20160421'
p671
aS'http://www.clarin.com/ediciones-anteriores/20160422'
p672
aS'http://www.clarin.com/ediciones-anteriores/20160423'
p673
aS'http://www.clarin.com/ediciones-anteriores/20160424'
p674
aS'http://www.clarin.com/ediciones-anteriores/20160425'
p675
aS'http://www.clarin.com/ediciones-anteriores/20160426'
p676
aS'http://www.clarin.com/ediciones-anteriores/20160427'
p677
aS'http://www.clarin.com/ediciones-anteriores/20160428'
p678
aS'http://www.clarin.com/ediciones-anteriores/20160429'
p679
aS'http://www.clarin.com/ediciones-anteriores/20160430'
p680
aS'http://www.clarin.com/ediciones-anteriores/20160431'
p681
aS'http://www.clarin.com/ediciones-anteriores/20160501'
p682
aS'http://www.clarin.com/ediciones-anteriores/20160502'
p683
aS'http://www.clarin.com/ediciones-anteriores/20160503'
p684
aS'http://www.clarin.com/ediciones-anteriores/20160504'
p685
aS'http://www.clarin.com/ediciones-anteriores/20160505'
p686
aS'http://www.clarin.com/ediciones-anteriores/20160506'
p687
aS'http://www.clarin.com/ediciones-anteriores/20160507'
p688
aS'http://www.clarin.com/ediciones-anteriores/20160508'
p689
aS'http://www.clarin.com/ediciones-anteriores/20160509'
p690
aS'http://www.clarin.com/ediciones-anteriores/20160510'
p691
aS'http://www.clarin.com/ediciones-anteriores/20160511'
p692
aS'http://www.clarin.com/ediciones-anteriores/20160512'
p693
aS'http://www.clarin.com/ediciones-anteriores/20160513'
p694
aS'http://www.clarin.com/ediciones-anteriores/20160514'
p695
aS'http://www.clarin.com/ediciones-anteriores/20160515'
p696
aS'http://www.clarin.com/ediciones-anteriores/20160516'
p697
aS'http://www.clarin.com/ediciones-anteriores/20160517'
p698
aS'http://www.clarin.com/ediciones-anteriores/20160518'
p699
aS'http://www.clarin.com/ediciones-anteriores/20160519'
p700
aS'http://www.clarin.com/ediciones-anteriores/20160520'
p701
aS'http://www.clarin.com/ediciones-anteriores/20160521'
p702
aS'http://www.clarin.com/ediciones-anteriores/20160522'
p703
aS'http://www.clarin.com/ediciones-anteriores/20160523'
p704
aS'http://www.clarin.com/ediciones-anteriores/20160524'
p705
aS'http://www.clarin.com/ediciones-anteriores/20160525'
p706
aS'http://www.clarin.com/ediciones-anteriores/20160526'
p707
aS'http://www.clarin.com/ediciones-anteriores/20160527'
p708
aS'http://www.clarin.com/ediciones-anteriores/20160528'
p709
aS'http://www.clarin.com/ediciones-anteriores/20160529'
p710
aS'http://www.clarin.com/ediciones-anteriores/20160530'
p711
aS'http://www.clarin.com/ediciones-anteriores/20160531'
p712
aS'http://www.clarin.com/ediciones-anteriores/20160601'
p713
aS'http://www.clarin.com/ediciones-anteriores/20160602'
p714
aS'http://www.clarin.com/ediciones-anteriores/20160603'
p715
aS'http://www.clarin.com/ediciones-anteriores/20160604'
p716
aS'http://www.clarin.com/ediciones-anteriores/20160605'
p717
aS'http://www.clarin.com/ediciones-anteriores/20160606'
p718
aS'http://www.clarin.com/ediciones-anteriores/20160607'
p719
aS'http://www.clarin.com/ediciones-anteriores/20160608'
p720
aS'http://www.clarin.com/ediciones-anteriores/20160609'
p721
aS'http://www.clarin.com/ediciones-anteriores/20160610'
p722
aS'http://www.clarin.com/ediciones-anteriores/20160611'
p723
aS'http://www.clarin.com/ediciones-anteriores/20160612'
p724
aS'http://www.clarin.com/ediciones-anteriores/20160613'
p725
aS'http://www.clarin.com/ediciones-anteriores/20160614'
p726
aS'http://www.clarin.com/ediciones-anteriores/20160615'
p727
aS'http://www.clarin.com/ediciones-anteriores/20160616'
p728
aS'http://www.clarin.com/ediciones-anteriores/20160617'
p729
aS'http://www.clarin.com/ediciones-anteriores/20160618'
p730
aS'http://www.clarin.com/ediciones-anteriores/20160619'
p731
aS'http://www.clarin.com/ediciones-anteriores/20160620'
p732
aS'http://www.clarin.com/ediciones-anteriores/20160621'
p733
aS'http://www.clarin.com/ediciones-anteriores/20160622'
p734
aS'http://www.clarin.com/ediciones-anteriores/20160623'
p735
aS'http://www.clarin.com/ediciones-anteriores/20160624'
p736
aS'http://www.clarin.com/ediciones-anteriores/20160625'
p737
aS'http://www.clarin.com/ediciones-anteriores/20160626'
p738
aS'http://www.clarin.com/ediciones-anteriores/20160627'
p739
aS'http://www.clarin.com/ediciones-anteriores/20160628'
p740
aS'http://www.clarin.com/ediciones-anteriores/20160629'
p741
aS'http://www.clarin.com/ediciones-anteriores/20160630'
p742
aS'http://www.clarin.com/ediciones-anteriores/20160631'
p743
aS'http://www.clarin.com/ediciones-anteriores/20160701'
p744
aS'http://www.clarin.com/ediciones-anteriores/20160702'
p745
aS'http://www.clarin.com/ediciones-anteriores/20160703'
p746
aS'http://www.clarin.com/ediciones-anteriores/20160704'
p747
aS'http://www.clarin.com/ediciones-anteriores/20160705'
p748
aS'http://www.clarin.com/ediciones-anteriores/20160706'
p749
aS'http://www.clarin.com/ediciones-anteriores/20160707'
p750
aS'http://www.clarin.com/ediciones-anteriores/20160708'
p751
aS'http://www.clarin.com/ediciones-anteriores/20160709'
p752
aS'http://www.clarin.com/ediciones-anteriores/20160710'
p753
aS'http://www.clarin.com/ediciones-anteriores/20160711'
p754
aS'http://www.clarin.com/ediciones-anteriores/20160712'
p755
aS'http://www.clarin.com/ediciones-anteriores/20160713'
p756
aS'http://www.clarin.com/ediciones-anteriores/20160714'
p757
aS'http://www.clarin.com/ediciones-anteriores/20160715'
p758
aS'http://www.clarin.com/ediciones-anteriores/20160716'
p759
aS'http://www.clarin.com/ediciones-anteriores/20160717'
p760
aS'http://www.clarin.com/ediciones-anteriores/20160718'
p761
aS'http://www.clarin.com/ediciones-anteriores/20160719'
p762
aS'http://www.clarin.com/ediciones-anteriores/20160720'
p763
aS'http://www.clarin.com/ediciones-anteriores/20160721'
p764
aS'http://www.clarin.com/ediciones-anteriores/20160722'
p765
aS'http://www.clarin.com/ediciones-anteriores/20160723'
p766
aS'http://www.clarin.com/ediciones-anteriores/20160724'
p767
aS'http://www.clarin.com/ediciones-anteriores/20160725'
p768
aS'http://www.clarin.com/ediciones-anteriores/20160726'
p769
aS'http://www.clarin.com/ediciones-anteriores/20160727'
p770
aS'http://www.clarin.com/ediciones-anteriores/20160728'
p771
aS'http://www.clarin.com/ediciones-anteriores/20160729'
p772
aS'http://www.clarin.com/ediciones-anteriores/20160730'
p773
aS'http://www.clarin.com/ediciones-anteriores/20160731'
p774
aS'http://www.clarin.com/ediciones-anteriores/20160801'
p775
aS'http://www.clarin.com/ediciones-anteriores/20160802'
p776
aS'http://www.clarin.com/ediciones-anteriores/20160803'
p777
aS'http://www.clarin.com/ediciones-anteriores/20160804'
p778
aS'http://www.clarin.com/ediciones-anteriores/20160805'
p779
aS'http://www.clarin.com/ediciones-anteriores/20160806'
p780
aS'http://www.clarin.com/ediciones-anteriores/20160807'
p781
aS'http://www.clarin.com/ediciones-anteriores/20160808'
p782
aS'http://www.clarin.com/ediciones-anteriores/20160809'
p783
aS'http://www.clarin.com/ediciones-anteriores/20160810'
p784
aS'http://www.clarin.com/ediciones-anteriores/20160811'
p785
aS'http://www.clarin.com/ediciones-anteriores/20160812'
p786
aS'http://www.clarin.com/ediciones-anteriores/20160813'
p787
aS'http://www.clarin.com/ediciones-anteriores/20160814'
p788
aS'http://www.clarin.com/ediciones-anteriores/20160815'
p789
aS'http://www.clarin.com/ediciones-anteriores/20160816'
p790
aS'http://www.clarin.com/ediciones-anteriores/20160817'
p791
aS'http://www.clarin.com/ediciones-anteriores/20160818'
p792
aS'http://www.clarin.com/ediciones-anteriores/20160819'
p793
aS'http://www.clarin.com/ediciones-anteriores/20160820'
p794
aS'http://www.clarin.com/ediciones-anteriores/20160821'
p795
aS'http://www.clarin.com/ediciones-anteriores/20160822'
p796
aS'http://www.clarin.com/ediciones-anteriores/20160823'
p797
aS'http://www.clarin.com/ediciones-anteriores/20160824'
p798
aS'http://www.clarin.com/ediciones-anteriores/20160825'
p799
aS'http://www.clarin.com/ediciones-anteriores/20160826'
p800
aS'http://www.clarin.com/ediciones-anteriores/20160827'
p801
aS'http://www.clarin.com/ediciones-anteriores/20160828'
p802
aS'http://www.clarin.com/ediciones-anteriores/20160829'
p803
aS'http://www.clarin.com/ediciones-anteriores/20160830'
p804
aS'http://www.clarin.com/ediciones-anteriores/20160831'
p805
aS'http://www.clarin.com/ediciones-anteriores/20160901'
p806
aS'http://www.clarin.com/ediciones-anteriores/20160902'
p807
aS'http://www.clarin.com/ediciones-anteriores/20160903'
p808
aS'http://www.clarin.com/ediciones-anteriores/20160904'
p809
aS'http://www.clarin.com/ediciones-anteriores/20160905'
p810
aS'http://www.clarin.com/ediciones-anteriores/20160906'
p811
aS'http://www.clarin.com/ediciones-anteriores/20160907'
p812
aS'http://www.clarin.com/ediciones-anteriores/20160908'
p813
aS'http://www.clarin.com/ediciones-anteriores/20160909'
p814
aS'http://www.clarin.com/ediciones-anteriores/20160910'
p815
aS'http://www.clarin.com/ediciones-anteriores/20160911'
p816
aS'http://www.clarin.com/ediciones-anteriores/20160912'
p817
aS'http://www.clarin.com/ediciones-anteriores/20160913'
p818
aS'http://www.clarin.com/ediciones-anteriores/20160914'
p819
aS'http://www.clarin.com/ediciones-anteriores/20160915'
p820
aS'http://www.clarin.com/ediciones-anteriores/20160916'
p821
aS'http://www.clarin.com/ediciones-anteriores/20160917'
p822
aS'http://www.clarin.com/ediciones-anteriores/20160918'
p823
aS'http://www.clarin.com/ediciones-anteriores/20160919'
p824
aS'http://www.clarin.com/ediciones-anteriores/20160920'
p825
aS'http://www.clarin.com/ediciones-anteriores/20160921'
p826
aS'http://www.clarin.com/ediciones-anteriores/20160922'
p827
aS'http://www.clarin.com/ediciones-anteriores/20160923'
p828
aS'http://www.clarin.com/ediciones-anteriores/20160924'
p829
aS'http://www.clarin.com/ediciones-anteriores/20160925'
p830
aS'http://www.clarin.com/ediciones-anteriores/20160926'
p831
aS'http://www.clarin.com/ediciones-anteriores/20160927'
p832
aS'http://www.clarin.com/ediciones-anteriores/20160928'
p833
aS'http://www.clarin.com/ediciones-anteriores/20160929'
p834
aS'http://www.clarin.com/ediciones-anteriores/20160930'
p835
aS'http://www.clarin.com/ediciones-anteriores/20160931'
p836
aS'http://www.clarin.com/ediciones-anteriores/20161001'
p837
aS'http://www.clarin.com/ediciones-anteriores/20161002'
p838
aS'http://www.clarin.com/ediciones-anteriores/20161003'
p839
aS'http://www.clarin.com/ediciones-anteriores/20161004'
p840
aS'http://www.clarin.com/ediciones-anteriores/20161005'
p841
aS'http://www.clarin.com/ediciones-anteriores/20161006'
p842
aS'http://www.clarin.com/ediciones-anteriores/20161007'
p843
aS'http://www.clarin.com/ediciones-anteriores/20161008'
p844
aS'http://www.clarin.com/ediciones-anteriores/20161009'
p845
aS'http://www.clarin.com/ediciones-anteriores/20161010'
p846
aS'http://www.clarin.com/ediciones-anteriores/20161011'
p847
aS'http://www.clarin.com/ediciones-anteriores/20161012'
p848
aS'http://www.clarin.com/ediciones-anteriores/20161013'
p849
aS'http://www.clarin.com/ediciones-anteriores/20161014'
p850
aS'http://www.clarin.com/ediciones-anteriores/20161015'
p851
aS'http://www.clarin.com/ediciones-anteriores/20161016'
p852
aS'http://www.clarin.com/ediciones-anteriores/20161017'
p853
aS'http://www.clarin.com/ediciones-anteriores/20161018'
p854
aS'http://www.clarin.com/ediciones-anteriores/20161019'
p855
aS'http://www.clarin.com/ediciones-anteriores/20161020'
p856
aS'http://www.clarin.com/ediciones-anteriores/20161021'
p857
aS'http://www.clarin.com/ediciones-anteriores/20161022'
p858
aS'http://www.clarin.com/ediciones-anteriores/20161023'
p859
aS'http://www.clarin.com/ediciones-anteriores/20161024'
p860
aS'http://www.clarin.com/ediciones-anteriores/20161025'
p861
aS'http://www.clarin.com/ediciones-anteriores/20161026'
p862
aS'http://www.clarin.com/ediciones-anteriores/20161027'
p863
aS'http://www.clarin.com/ediciones-anteriores/20161028'
p864
aS'http://www.clarin.com/ediciones-anteriores/20161029'
p865
aS'http://www.clarin.com/ediciones-anteriores/20161030'
p866
aS'http://www.clarin.com/ediciones-anteriores/20161031'
p867
aS'http://www.clarin.com/ediciones-anteriores/20161101'
p868
aS'http://www.clarin.com/ediciones-anteriores/20161102'
p869
aS'http://www.clarin.com/ediciones-anteriores/20161103'
p870
aS'http://www.clarin.com/ediciones-anteriores/20161104'
p871
aS'http://www.clarin.com/ediciones-anteriores/20161105'
p872
aS'http://www.clarin.com/ediciones-anteriores/20161106'
p873
aS'http://www.clarin.com/ediciones-anteriores/20161107'
p874
aS'http://www.clarin.com/ediciones-anteriores/20161108'
p875
aS'http://www.clarin.com/ediciones-anteriores/20161109'
p876
aS'http://www.clarin.com/ediciones-anteriores/20161110'
p877
aS'http://www.clarin.com/ediciones-anteriores/20161111'
p878
aS'http://www.clarin.com/ediciones-anteriores/20161112'
p879
aS'http://www.clarin.com/ediciones-anteriores/20161113'
p880
aS'http://www.clarin.com/ediciones-anteriores/20161114'
p881
aS'http://www.clarin.com/ediciones-anteriores/20161115'
p882
aS'http://www.clarin.com/ediciones-anteriores/20161116'
p883
aS'http://www.clarin.com/ediciones-anteriores/20161117'
p884
aS'http://www.clarin.com/ediciones-anteriores/20161118'
p885
aS'http://www.clarin.com/ediciones-anteriores/20161119'
p886
aS'http://www.clarin.com/ediciones-anteriores/20161120'
p887
a.