(lp0
Vhttps://www.pagina12.com.ar/diario/economia/2-251656-2014-07-27.html
p1
aVhttps://www.pagina12.com.ar/diario/economia/2-251657-2014-07-27.html
p2
aVhttps://www.pagina12.com.ar/diario/economia/2-251654-2014-07-27.html
p3
a.