(lp0
Vhttps://www.pagina12.com.ar/diario/economia/2-254884-2014-09-09.html
p1
aVhttps://www.pagina12.com.ar/diario/economia/2-254885-2014-09-09.html
p2
aVhttps://www.pagina12.com.ar/diario/economia/2-254886-2014-09-09.html
p3
aVhttps://www.pagina12.com.ar/diario/economia/2-254887-2014-09-09.html
p4
aVhttps://www.pagina12.com.ar/diario/economia/2-254879-2014-09-09.html
p5
aVhttps://www.pagina12.com.ar/diario/economia/2-254881-2014-09-09.html
p6
aVhttps://www.pagina12.com.ar/diario/economia/2-254875-2014-09-09.html
p7
aVhttps://www.pagina12.com.ar/diario/economia/2-254868-2014-09-09.html
p8
aVhttps://www.pagina12.com.ar/diario/economia/2-254869-2014-09-09.html
p9
aVhttps://www.pagina12.com.ar/diario/economia/2-254870-2014-09-09.html
p10
aVhttps://www.pagina12.com.ar/diario/economia/2-254876-2014-09-09.html
p11
aVhttps://www.pagina12.com.ar/diario/economia/2-254877-2014-09-09.html
p12
aVhttps://www.pagina12.com.ar/diario/economia/2-254878-2014-09-09.html
p13
a.