(lp0
Vhttps://www.pagina12.com.ar/diario/economia/2-255836-2014-09-22.html
p1
aVhttps://www.pagina12.com.ar/diario/economia/2-255823-2014-09-22.html
p2
aVhttps://www.pagina12.com.ar/diario/economia/2-255824-2014-09-22.html
p3
a.