(lp0
Vhttps://www.pagina12.com.ar/diario/elpais/1-255074-2014-09-11.html
p1
aVhttps://www.pagina12.com.ar/diario/elpais/1-255075-2014-09-11.html
p2
aVhttps://www.pagina12.com.ar/diario/elpais/1-255060-2014-09-11.html
p3
aVhttps://www.pagina12.com.ar/diario/elpais/1-255055-2014-09-11.html
p4
aVhttps://www.pagina12.com.ar/diario/elpais/1-255056-2014-09-11.html
p5
aVhttps://www.pagina12.com.ar/diario/elpais/1-255049-2014-09-11.html
p6
aVhttps://www.pagina12.com.ar/diario/elpais/1-255050-2014-09-11.html
p7
aVhttps://www.pagina12.com.ar/diario/elpais/1-255045-2014-09-11.html
p8
aVhttps://www.pagina12.com.ar/diario/elpais/1-255046-2014-09-11.html
p9
aVhttps://www.pagina12.com.ar/diario/elpais/1-255043-2014-09-11.html
p10
aVhttps://www.pagina12.com.ar/diario/elpais/1-255044-2014-09-11.html
p11
aVhttps://www.pagina12.com.ar/diario/elpais/1-255042-2014-09-11.html
p12
aVhttps://www.pagina12.com.ar/diario/elpais/1-255040-2014-09-11.html
p13
aVhttps://www.pagina12.com.ar/diario/elpais/1-255041-2014-09-11.html
p14
aVhttps://www.pagina12.com.ar/diario/elpais/1-255047-2014-09-11.html
p15
aVhttps://www.pagina12.com.ar/diario/elpais/1-255048-2014-09-11.html
p16
aVhttps://www.pagina12.com.ar/diario/elpais/1-255051-2014-09-11.html
p17
aVhttps://www.pagina12.com.ar/diario/elpais/1-255052-2014-09-11.html
p18
aVhttps://www.pagina12.com.ar/diario/elpais/1-255053-2014-09-11.html
p19
aVhttps://www.pagina12.com.ar/diario/elpais/1-255054-2014-09-11.html
p20
aVhttps://www.pagina12.com.ar/diario/elpais/1-255057-2014-09-11.html
p21
aVhttps://www.pagina12.com.ar/diario/elpais/1-255058-2014-09-11.html
p22
aVhttps://www.pagina12.com.ar/diario/elpais/1-255059-2014-09-11.html
p23
a.