(lp0
Vhttps://www.pagina12.com.ar/diario/elpais/1-257155-2014-10-09.html
p1
aVhttps://www.pagina12.com.ar/diario/elpais/1-257138-2014-10-09.html
p2
aVhttps://www.pagina12.com.ar/diario/elpais/1-257139-2014-10-09.html
p3
aVhttps://www.pagina12.com.ar/diario/elpais/1-257136-2014-10-09.html
p4
aVhttps://www.pagina12.com.ar/diario/elpais/1-257137-2014-10-09.html
p5
aVhttps://www.pagina12.com.ar/diario/elpais/1-257134-2014-10-09.html
p6
aVhttps://www.pagina12.com.ar/diario/elpais/1-257135-2014-10-09.html
p7
aVhttps://www.pagina12.com.ar/diario/elpais/1-257140-2014-10-09.html
p8
aVhttps://www.pagina12.com.ar/diario/elpais/1-257141-2014-10-09.html
p9
a.