(lp0
Vhttps://www.pagina12.com.ar/diario/economia/2-250307-2014-07-08.html
p1
aVhttps://www.pagina12.com.ar/diario/economia/2-250309-2014-07-08.html
p2
aVhttps://www.pagina12.com.ar/diario/economia/2-250308-2014-07-08.html
p3
aVhttps://www.pagina12.com.ar/diario/economia/2-250303-2014-07-08.html
p4
aVhttps://www.pagina12.com.ar/diario/economia/2-250305-2014-07-08.html
p5
aVhttps://www.pagina12.com.ar/diario/economia/2-250306-2014-07-08.html
p6
aVhttps://www.pagina12.com.ar/diario/economia/2-250304-2014-07-08.html
p7
aVhttps://www.pagina12.com.ar/diario/economia/2-250301-2014-07-08.html
p8
aVhttps://www.pagina12.com.ar/diario/economia/2-250302-2014-07-08.html
p9
aVhttps://www.pagina12.com.ar/diario/economia/2-250294-2014-07-08.html
p10
aVhttps://www.pagina12.com.ar/diario/economia/2-250297-2014-07-08.html
p11
aVhttps://www.pagina12.com.ar/diario/economia/2-250292-2014-07-08.html
p12
aVhttps://www.pagina12.com.ar/diario/economia/2-250293-2014-07-08.html
p13
aVhttps://www.pagina12.com.ar/diario/economia/2-250290-2014-07-08.html
p14
aVhttps://www.pagina12.com.ar/diario/economia/2-250291-2014-07-08.html
p15
aVhttps://www.pagina12.com.ar/diario/economia/2-250295-2014-07-08.html
p16
aVhttps://www.pagina12.com.ar/diario/economia/2-250296-2014-07-08.html
p17
a.