(lp0
Vhttps://www.pagina12.com.ar/diario/sociedad/3-257471-2014-10-14.html
p1
aVhttps://www.pagina12.com.ar/diario/sociedad/3-257472-2014-10-14.html
p2
aVhttps://www.pagina12.com.ar/diario/sociedad/3-257470-2014-10-14.html
p3
aVhttps://www.pagina12.com.ar/diario/sociedad/3-257468-2014-10-14.html
p4
aVhttps://www.pagina12.com.ar/diario/sociedad/3-257469-2014-10-14.html
p5
aVhttps://www.pagina12.com.ar/diario/sociedad/3-257464-2014-10-14.html
p6
a.