(lp0
Vhttps://www.pagina12.com.ar/diario/elpais/1-250231-2014-07-07.html
p1
aVhttps://www.pagina12.com.ar/diario/elpais/1-250232-2014-07-07.html
p2
aVhttps://www.pagina12.com.ar/diario/elpais/1-250228-2014-07-07.html
p3
aVhttps://www.pagina12.com.ar/diario/elpais/1-250229-2014-07-07.html
p4
aVhttps://www.pagina12.com.ar/diario/elpais/1-250230-2014-07-07.html
p5
aVhttps://www.pagina12.com.ar/diario/elpais/1-250219-2014-07-07.html
p6
aVhttps://www.pagina12.com.ar/diario/elpais/1-250218-2014-07-07.html
p7
aVhttps://www.pagina12.com.ar/diario/elpais/1-250224-2014-07-07.html
p8
aVhttps://www.pagina12.com.ar/diario/elpais/1-250211-2014-07-07.html
p9
aVhttps://www.pagina12.com.ar/diario/elpais/1-250220-2014-07-07.html
p10
aVhttps://www.pagina12.com.ar/diario/elpais/1-250221-2014-07-07.html
p11
aVhttps://www.pagina12.com.ar/diario/elpais/1-250222-2014-07-07.html
p12
aVhttps://www.pagina12.com.ar/diario/elpais/1-250223-2014-07-07.html
p13
aVhttps://www.pagina12.com.ar/diario/elpais/1-250225-2014-07-07.html
p14
a.