(lp0
Vhttps://www.pagina12.com.ar/diario/sociedad/3-253041-2014-08-15.html
p1
aVhttps://www.pagina12.com.ar/diario/sociedad/3-253042-2014-08-15.html
p2
aVhttps://www.pagina12.com.ar/diario/sociedad/3-253043-2014-08-15.html
p3
aVhttps://www.pagina12.com.ar/diario/sociedad/3-252989-2014-08-15.html
p4
aVhttps://www.pagina12.com.ar/diario/sociedad/3-252990-2014-08-15.html
p5
aVhttps://www.pagina12.com.ar/diario/sociedad/3-253023-2014-08-15.html
p6
aVhttps://www.pagina12.com.ar/diario/sociedad/3-253026-2014-08-15.html
p7
aVhttps://www.pagina12.com.ar/diario/sociedad/3-253012-2014-08-15.html
p8
aVhttps://www.pagina12.com.ar/diario/sociedad/3-253013-2014-08-15.html
p9
aVhttps://www.pagina12.com.ar/diario/sociedad/3-253044-2014-08-15.html
p10
aVhttps://www.pagina12.com.ar/diario/sociedad/3-253045-2014-08-15.html
p11
aVhttps://www.pagina12.com.ar/diario/sociedad/3-253046-2014-08-15.html
p12
aVhttps://www.pagina12.com.ar/diario/sociedad/3-253027-2014-08-15.html
p13
aVhttps://www.pagina12.com.ar/diario/sociedad/3-253028-2014-08-15.html
p14
aVhttps://www.pagina12.com.ar/diario/sociedad/3-253029-2014-08-15.html
p15
a.