(lp0
Vhttps://www.pagina12.com.ar/diario/economia/2-254071-2014-08-29.html
p1
aVhttps://www.pagina12.com.ar/diario/economia/2-254073-2014-08-29.html
p2
aVhttps://www.pagina12.com.ar/diario/economia/2-254074-2014-08-29.html
p3
aVhttps://www.pagina12.com.ar/diario/economia/2-254075-2014-08-29.html
p4
aVhttps://www.pagina12.com.ar/diario/economia/2-254076-2014-08-29.html
p5
aVhttps://www.pagina12.com.ar/diario/economia/2-254078-2014-08-29.html
p6
aVhttps://www.pagina12.com.ar/diario/economia/2-254077-2014-08-29.html
p7
aVhttps://www.pagina12.com.ar/diario/economia/2-254066-2014-08-29.html
p8
aVhttps://www.pagina12.com.ar/diario/economia/2-254072-2014-08-29.html
p9
a.