(lp0
Vhttps://www.pagina12.com.ar/diario/elpais/1-252715-2014-08-11.html
p1
aVhttps://www.pagina12.com.ar/diario/elpais/1-252710-2014-08-11.html
p2
aVhttps://www.pagina12.com.ar/diario/elpais/1-252708-2014-08-11.html
p3
aVhttps://www.pagina12.com.ar/diario/elpais/1-252706-2014-08-11.html
p4
aVhttps://www.pagina12.com.ar/diario/elpais/1-252701-2014-08-11.html
p5
aVhttps://www.pagina12.com.ar/diario/elpais/1-252702-2014-08-11.html
p6
aVhttps://www.pagina12.com.ar/diario/elpais/1-252703-2014-08-11.html
p7
aVhttps://www.pagina12.com.ar/diario/elpais/1-252704-2014-08-11.html
p8
aVhttps://www.pagina12.com.ar/diario/elpais/1-252711-2014-08-11.html
p9
aVhttps://www.pagina12.com.ar/diario/elpais/1-252712-2014-08-11.html
p10
aVhttps://www.pagina12.com.ar/diario/elpais/1-252713-2014-08-11.html
p11
aVhttps://www.pagina12.com.ar/diario/elpais/1-252714-2014-08-11.html
p12
a.