(lp0
Vhttps://www.pagina12.com.ar/diario/sociedad/3-261168-2014-12-03.html
p1
aVhttps://www.pagina12.com.ar/diario/sociedad/3-261170-2014-12-03.html
p2
aVhttps://www.pagina12.com.ar/diario/sociedad/3-261125-2014-12-03.html
p3
aVhttps://www.pagina12.com.ar/diario/sociedad/3-261126-2014-12-03.html
p4
aVhttps://www.pagina12.com.ar/diario/sociedad/3-261127-2014-12-03.html
p5
a.