(lp0
Vhttps://www.pagina12.com.ar/diario/sociedad/3-260292-2014-11-21.html
p1
aVhttps://www.pagina12.com.ar/diario/sociedad/3-260290-2014-11-21.html
p2
aVhttps://www.pagina12.com.ar/diario/sociedad/3-260293-2014-11-21.html
p3
aVhttps://www.pagina12.com.ar/diario/sociedad/3-260291-2014-11-21.html
p4
aVhttps://www.pagina12.com.ar/diario/sociedad/3-260310-2014-11-21.html
p5
aVhttps://www.pagina12.com.ar/diario/sociedad/3-260325-2014-11-21.html
p6
aVhttps://www.pagina12.com.ar/diario/sociedad/3-260326-2014-11-21.html
p7
aVhttps://www.pagina12.com.ar/diario/sociedad/3-260327-2014-11-21.html
p8
aVhttps://www.pagina12.com.ar/diario/sociedad/3-260294-2014-11-21.html
p9
aVhttps://www.pagina12.com.ar/diario/sociedad/3-260295-2014-11-21.html
p10
aVhttps://www.pagina12.com.ar/diario/sociedad/3-260311-2014-11-21.html
p11
aVhttps://www.pagina12.com.ar/diario/sociedad/3-260312-2014-11-21.html
p12
aVhttps://www.pagina12.com.ar/diario/sociedad/3-260328-2014-11-21.html
p13
aVhttps://www.pagina12.com.ar/diario/sociedad/3-260329-2014-11-21.html
p14
aVhttps://www.pagina12.com.ar/diario/sociedad/3-260330-2014-11-21.html
p15
aVhttps://www.pagina12.com.ar/diario/sociedad/3-260331-2014-11-21.html
p16
a.