(lp0
Vhttps://www.pagina12.com.ar/diario/elpais/1-255992-2014-09-24.html
p1
aVhttps://www.pagina12.com.ar/diario/elpais/1-256002-2014-09-24.html
p2
aVhttps://www.pagina12.com.ar/diario/elpais/1-256004-2014-09-24.html
p3
aVhttps://www.pagina12.com.ar/diario/elpais/1-256005-2014-09-24.html
p4
aVhttps://www.pagina12.com.ar/diario/elpais/1-256000-2014-09-24.html
p5
aVhttps://www.pagina12.com.ar/diario/elpais/1-256003-2014-09-24.html
p6
aVhttps://www.pagina12.com.ar/diario/elpais/1-256006-2014-09-24.html
p7
aVhttps://www.pagina12.com.ar/diario/elpais/1-256001-2014-09-24.html
p8
aVhttps://www.pagina12.com.ar/diario/elpais/1-255986-2014-09-24.html
p9
aVhttps://www.pagina12.com.ar/diario/elpais/1-255987-2014-09-24.html
p10
aVhttps://www.pagina12.com.ar/diario/elpais/1-255991-2014-09-24.html
p11
aVhttps://www.pagina12.com.ar/diario/elpais/1-256007-2014-09-24.html
p12
aVhttps://www.pagina12.com.ar/diario/elpais/1-256008-2014-09-24.html
p13
aVhttps://www.pagina12.com.ar/diario/elpais/1-256009-2014-09-24.html
p14
aVhttps://www.pagina12.com.ar/diario/elpais/1-255993-2014-09-24.html
p15
aVhttps://www.pagina12.com.ar/diario/elpais/1-255995-2014-09-24.html
p16
aVhttps://www.pagina12.com.ar/diario/elpais/1-256010-2014-09-24.html
p17
aVhttps://www.pagina12.com.ar/diario/elpais/1-256011-2014-09-24.html
p18
aVhttps://www.pagina12.com.ar/diario/elpais/1-256012-2014-09-24.html
p19
aVhttps://www.pagina12.com.ar/diario/elpais/1-256013-2014-09-24.html
p20
aVhttps://www.pagina12.com.ar/diario/elpais/1-255988-2014-09-24.html
p21
aVhttps://www.pagina12.com.ar/diario/elpais/1-255989-2014-09-24.html
p22
aVhttps://www.pagina12.com.ar/diario/elpais/1-255990-2014-09-24.html
p23
aVhttps://www.pagina12.com.ar/diario/elpais/1-255994-2014-09-24.html
p24
a.