(lp0
Vhttps://www.pagina12.com.ar/diario/economia/2-252876-2014-08-13.html
p1
aVhttps://www.pagina12.com.ar/diario/economia/2-252877-2014-08-13.html
p2
aVhttps://www.pagina12.com.ar/diario/economia/2-252873-2014-08-13.html
p3
aVhttps://www.pagina12.com.ar/diario/economia/2-252874-2014-08-13.html
p4
aVhttps://www.pagina12.com.ar/diario/economia/2-252875-2014-08-13.html
p5
aVhttps://www.pagina12.com.ar/diario/economia/2-252868-2014-08-13.html
p6
aVhttps://www.pagina12.com.ar/diario/economia/2-252869-2014-08-13.html
p7
aVhttps://www.pagina12.com.ar/diario/economia/2-252865-2014-08-13.html
p8
aVhttps://www.pagina12.com.ar/diario/economia/2-252866-2014-08-13.html
p9
aVhttps://www.pagina12.com.ar/diario/economia/2-252867-2014-08-13.html
p10
aVhttps://www.pagina12.com.ar/diario/economia/2-252870-2014-08-13.html
p11
aVhttps://www.pagina12.com.ar/diario/economia/2-252871-2014-08-13.html
p12
aVhttps://www.pagina12.com.ar/diario/economia/2-252872-2014-08-13.html
p13
aVhttps://www.pagina12.com.ar/diario/economia/2-252878-2014-08-13.html
p14
aVhttps://www.pagina12.com.ar/diario/economia/2-252879-2014-08-13.html
p15
aVhttps://www.pagina12.com.ar/diario/economia/2-252880-2014-08-13.html
p16
a.