(lp0
Vhttps://www.pagina12.com.ar/diario/economia/2-259408-2014-11-08.html
p1
aVhttps://www.pagina12.com.ar/diario/economia/2-259409-2014-11-08.html
p2
aVhttps://www.pagina12.com.ar/diario/economia/2-259398-2014-11-08.html
p3
aVhttps://www.pagina12.com.ar/diario/economia/2-259403-2014-11-08.html
p4
aVhttps://www.pagina12.com.ar/diario/economia/2-259404-2014-11-08.html
p5
aVhttps://www.pagina12.com.ar/diario/economia/2-259399-2014-11-08.html
p6
aVhttps://www.pagina12.com.ar/diario/economia/2-259395-2014-11-08.html
p7
aVhttps://www.pagina12.com.ar/diario/economia/2-259389-2014-11-08.html
p8
aVhttps://www.pagina12.com.ar/diario/economia/2-259390-2014-11-08.html
p9
aVhttps://www.pagina12.com.ar/diario/economia/2-259393-2014-11-08.html
p10
aVhttps://www.pagina12.com.ar/diario/economia/2-259394-2014-11-08.html
p11
aVhttps://www.pagina12.com.ar/diario/economia/2-259400-2014-11-08.html
p12
aVhttps://www.pagina12.com.ar/diario/economia/2-259401-2014-11-08.html
p13
aVhttps://www.pagina12.com.ar/diario/economia/2-259402-2014-11-08.html
p14
aVhttps://www.pagina12.com.ar/diario/economia/2-259405-2014-11-08.html
p15
aVhttps://www.pagina12.com.ar/diario/economia/2-259406-2014-11-08.html
p16
aVhttps://www.pagina12.com.ar/diario/economia/2-259407-2014-11-08.html
p17
a.