(lp0
Vhttps://www.pagina12.com.ar/diario/elpais/1-257323-2014-10-11.html
p1
aVhttps://www.pagina12.com.ar/diario/elpais/1-257324-2014-10-11.html
p2
aVhttps://www.pagina12.com.ar/diario/elpais/1-257316-2014-10-11.html
p3
aVhttps://www.pagina12.com.ar/diario/elpais/1-257317-2014-10-11.html
p4
aVhttps://www.pagina12.com.ar/diario/elpais/1-257318-2014-10-11.html
p5
aVhttps://www.pagina12.com.ar/diario/elpais/1-257315-2014-10-11.html
p6
aVhttps://www.pagina12.com.ar/diario/elpais/1-257314-2014-10-11.html
p7
aVhttps://www.pagina12.com.ar/diario/elpais/1-257319-2014-10-11.html
p8
aVhttps://www.pagina12.com.ar/diario/elpais/1-257320-2014-10-11.html
p9
aVhttps://www.pagina12.com.ar/diario/elpais/1-257321-2014-10-11.html
p10
aVhttps://www.pagina12.com.ar/diario/elpais/1-257322-2014-10-11.html
p11
a.