(lp0
Vhttps://www.pagina12.com.ar/diario/elpais/1-251015-2014-07-18.html
p1
aVhttps://www.pagina12.com.ar/diario/elpais/1-250997-2014-07-18.html
p2
aVhttps://www.pagina12.com.ar/diario/elpais/1-250981-2014-07-18.html
p3
aVhttps://www.pagina12.com.ar/diario/elpais/1-250982-2014-07-18.html
p4
aVhttps://www.pagina12.com.ar/diario/elpais/1-251011-2014-07-18.html
p5
aVhttps://www.pagina12.com.ar/diario/elpais/1-251008-2014-07-18.html
p6
aVhttps://www.pagina12.com.ar/diario/elpais/1-251012-2014-07-18.html
p7
aVhttps://www.pagina12.com.ar/diario/elpais/1-251009-2014-07-18.html
p8
aVhttps://www.pagina12.com.ar/diario/elpais/1-251010-2014-07-18.html
p9
aVhttps://www.pagina12.com.ar/diario/elpais/1-250983-2014-07-18.html
p10
aVhttps://www.pagina12.com.ar/diario/elpais/1-250984-2014-07-18.html
p11
aVhttps://www.pagina12.com.ar/diario/elpais/1-250985-2014-07-18.html
p12
aVhttps://www.pagina12.com.ar/diario/elpais/1-251013-2014-07-18.html
p13
aVhttps://www.pagina12.com.ar/diario/elpais/1-251014-2014-07-18.html
p14
a.