(lp0
Vhttps://www.pagina12.com.ar/diario/sociedad/3-251147-2014-07-20.html
p1
aVhttps://www.pagina12.com.ar/diario/sociedad/3-251144-2014-07-20.html
p2
aVhttps://www.pagina12.com.ar/diario/sociedad/3-251143-2014-07-20.html
p3
aVhttps://www.pagina12.com.ar/diario/sociedad/3-251145-2014-07-20.html
p4
a.