(lp0
Vhttps://www.pagina12.com.ar/diario/elpais/1-262830-2014-12-28.html
p1
aVhttps://www.pagina12.com.ar/diario/elpais/1-262816-2014-12-28.html
p2
aVhttps://www.pagina12.com.ar/diario/elpais/1-262815-2014-12-28.html
p3
aVhttps://www.pagina12.com.ar/diario/elpais/1-262820-2014-12-28.html
p4
aVhttps://www.pagina12.com.ar/diario/elpais/1-262819-2014-12-28.html
p5
aVhttps://www.pagina12.com.ar/diario/elpais/1-262814-2014-12-28.html
p6
aVhttps://www.pagina12.com.ar/diario/elpais/1-262821-2014-12-28.html
p7
aVhttps://www.pagina12.com.ar/diario/elpais/1-262822-2014-12-28.html
p8
aVhttps://www.pagina12.com.ar/diario/elpais/1-262823-2014-12-28.html
p9
a.