(lp0
Vhttps://www.pagina12.com.ar/diario/elpais/1-254752-2014-09-07.html
p1
aVhttps://www.pagina12.com.ar/diario/elpais/1-254751-2014-09-07.html
p2
aVhttps://www.pagina12.com.ar/diario/elpais/1-254750-2014-09-07.html
p3
aVhttps://www.pagina12.com.ar/diario/elpais/1-254723-2014-09-07.html
p4
aVhttps://www.pagina12.com.ar/diario/elpais/1-254741-2014-09-07.html
p5
aVhttps://www.pagina12.com.ar/diario/elpais/1-254742-2014-09-07.html
p6
aVhttps://www.pagina12.com.ar/diario/elpais/1-254743-2014-09-07.html
p7
aVhttps://www.pagina12.com.ar/diario/elpais/1-254755-2014-09-07.html
p8
aVhttps://www.pagina12.com.ar/diario/elpais/1-254754-2014-09-07.html
p9
aVhttps://www.pagina12.com.ar/diario/elpais/1-254740-2014-09-07.html
p10
aVhttps://www.pagina12.com.ar/diario/elpais/1-254739-2014-09-07.html
p11
aVhttps://www.pagina12.com.ar/diario/elpais/1-254744-2014-09-07.html
p12
aVhttps://www.pagina12.com.ar/diario/elpais/1-254745-2014-09-07.html
p13
aVhttps://www.pagina12.com.ar/diario/elpais/1-254746-2014-09-07.html
p14
aVhttps://www.pagina12.com.ar/diario/elpais/1-254747-2014-09-07.html
p15
aVhttps://www.pagina12.com.ar/diario/elpais/1-254748-2014-09-07.html
p16
aVhttps://www.pagina12.com.ar/diario/elpais/1-254749-2014-09-07.html
p17
a.