(lp0
Vhttps://www.pagina12.com.ar/diario/elpais/1-256539-2014-10-01.html
p1
aVhttps://www.pagina12.com.ar/diario/elpais/1-256540-2014-10-01.html
p2
aVhttps://www.pagina12.com.ar/diario/elpais/1-256541-2014-10-01.html
p3
aVhttps://www.pagina12.com.ar/diario/elpais/1-256534-2014-10-01.html
p4
aVhttps://www.pagina12.com.ar/diario/elpais/1-256535-2014-10-01.html
p5
aVhttps://www.pagina12.com.ar/diario/elpais/1-256513-2014-10-01.html
p6
aVhttps://www.pagina12.com.ar/diario/elpais/1-256514-2014-10-01.html
p7
aVhttps://www.pagina12.com.ar/diario/elpais/1-256524-2014-10-01.html
p8
aVhttps://www.pagina12.com.ar/diario/elpais/1-256497-2014-10-01.html
p9
aVhttps://www.pagina12.com.ar/diario/elpais/1-256536-2014-10-01.html
p10
aVhttps://www.pagina12.com.ar/diario/elpais/1-256537-2014-10-01.html
p11
aVhttps://www.pagina12.com.ar/diario/elpais/1-256501-2014-10-01.html
p12
aVhttps://www.pagina12.com.ar/diario/elpais/1-256502-2014-10-01.html
p13
aVhttps://www.pagina12.com.ar/diario/elpais/1-256538-2014-10-01.html
p14
aVhttps://www.pagina12.com.ar/diario/elpais/1-256498-2014-10-01.html
p15
aVhttps://www.pagina12.com.ar/diario/elpais/1-256499-2014-10-01.html
p16
aVhttps://www.pagina12.com.ar/diario/elpais/1-256500-2014-10-01.html
p17
a.