(lp0
Vhttps://www.pagina12.com.ar/diario/economia/2-254612-2014-09-05.html
p1
aVhttps://www.pagina12.com.ar/diario/economia/2-254610-2014-09-05.html
p2
aVhttps://www.pagina12.com.ar/diario/economia/2-254613-2014-09-05.html
p3
aVhttps://www.pagina12.com.ar/diario/economia/2-254605-2014-09-05.html
p4
aVhttps://www.pagina12.com.ar/diario/economia/2-254611-2014-09-05.html
p5
aVhttps://www.pagina12.com.ar/diario/economia/2-254606-2014-09-05.html
p6
aVhttps://www.pagina12.com.ar/diario/economia/2-254600-2014-09-05.html
p7
aVhttps://www.pagina12.com.ar/diario/economia/2-254598-2014-09-05.html
p8
aVhttps://www.pagina12.com.ar/diario/economia/2-254599-2014-09-05.html
p9
aVhttps://www.pagina12.com.ar/diario/economia/2-254602-2014-09-05.html
p10
aVhttps://www.pagina12.com.ar/diario/economia/2-254603-2014-09-05.html
p11
aVhttps://www.pagina12.com.ar/diario/economia/2-254604-2014-09-05.html
p12
aVhttps://www.pagina12.com.ar/diario/economia/2-254607-2014-09-05.html
p13
aVhttps://www.pagina12.com.ar/diario/economia/2-254608-2014-09-05.html
p14
aVhttps://www.pagina12.com.ar/diario/economia/2-254609-2014-09-05.html
p15
aVhttps://www.pagina12.com.ar/diario/economia/2-254614-2014-09-05.html
p16
a.