(lp0
Vhttps://www.pagina12.com.ar/diario/sociedad/3-256430-2014-09-30.html
p1
aVhttps://www.pagina12.com.ar/diario/sociedad/3-256425-2014-09-30.html
p2
aVhttps://www.pagina12.com.ar/diario/sociedad/3-256426-2014-09-30.html
p3
aVhttps://www.pagina12.com.ar/diario/sociedad/3-256423-2014-09-30.html
p4
aVhttps://www.pagina12.com.ar/diario/sociedad/3-256424-2014-09-30.html
p5
aVhttps://www.pagina12.com.ar/diario/sociedad/3-256427-2014-09-30.html
p6
aVhttps://www.pagina12.com.ar/diario/sociedad/3-256428-2014-09-30.html
p7
aVhttps://www.pagina12.com.ar/diario/sociedad/3-256429-2014-09-30.html
p8
aVhttps://www.pagina12.com.ar/diario/sociedad/3-256431-2014-09-30.html
p9
a.