(lp0
Vhttps://www.pagina12.com.ar/diario/sociedad/3-262269-2014-12-19.html
p1
aVhttps://www.pagina12.com.ar/diario/sociedad/3-262270-2014-12-19.html
p2
aVhttps://www.pagina12.com.ar/diario/sociedad/3-262261-2014-12-19.html
p3
aVhttps://www.pagina12.com.ar/diario/sociedad/3-262293-2014-12-19.html
p4
aVhttps://www.pagina12.com.ar/diario/sociedad/3-262294-2014-12-19.html
p5
aVhttps://www.pagina12.com.ar/diario/sociedad/3-262295-2014-12-19.html
p6
aVhttps://www.pagina12.com.ar/diario/sociedad/3-262296-2014-12-19.html
p7
aVhttps://www.pagina12.com.ar/diario/sociedad/3-262262-2014-12-19.html
p8
aVhttps://www.pagina12.com.ar/diario/sociedad/3-262263-2014-12-19.html
p9
aVhttps://www.pagina12.com.ar/diario/sociedad/3-262271-2014-12-19.html
p10
aVhttps://www.pagina12.com.ar/diario/sociedad/3-262272-2014-12-19.html
p11
aVhttps://www.pagina12.com.ar/diario/sociedad/3-262273-2014-12-19.html
p12
a.