(lp0
Vhttps://www.pagina12.com.ar/diario/sociedad/3-258909-2014-11-02.html
p1
aVhttps://www.pagina12.com.ar/diario/sociedad/3-258911-2014-11-02.html
p2
aVhttps://www.pagina12.com.ar/diario/sociedad/3-258910-2014-11-02.html
p3
aVhttps://www.pagina12.com.ar/diario/sociedad/3-258912-2014-11-02.html
p4
aVhttps://www.pagina12.com.ar/diario/sociedad/3-258913-2014-11-02.html
p5
a.