(lp0
Vhttps://www.pagina12.com.ar/diario/sociedad/3-250977-2014-07-18.html
p1
aVhttps://www.pagina12.com.ar/diario/sociedad/3-250975-2014-07-18.html
p2
aVhttps://www.pagina12.com.ar/diario/sociedad/3-250976-2014-07-18.html
p3
aVhttps://www.pagina12.com.ar/diario/sociedad/3-250970-2014-07-18.html
p4
aVhttps://www.pagina12.com.ar/diario/sociedad/3-250971-2014-07-18.html
p5
aVhttps://www.pagina12.com.ar/diario/sociedad/3-251006-2014-07-18.html
p6
aVhttps://www.pagina12.com.ar/diario/sociedad/3-251007-2014-07-18.html
p7
aVhttps://www.pagina12.com.ar/diario/sociedad/3-250972-2014-07-18.html
p8
aVhttps://www.pagina12.com.ar/diario/sociedad/3-250973-2014-07-18.html
p9
aVhttps://www.pagina12.com.ar/diario/sociedad/3-250974-2014-07-18.html
p10
aVhttps://www.pagina12.com.ar/diario/sociedad/3-250978-2014-07-18.html
p11
aVhttps://www.pagina12.com.ar/diario/sociedad/3-250979-2014-07-18.html
p12
aVhttps://www.pagina12.com.ar/diario/sociedad/3-250980-2014-07-18.html
p13
a.