(lp0
Vhttps://www.pagina12.com.ar/diario/economia/2-258520-2014-10-28.html
p1
aVhttps://www.pagina12.com.ar/diario/economia/2-258521-2014-10-28.html
p2
aVhttps://www.pagina12.com.ar/diario/economia/2-258522-2014-10-28.html
p3
aVhttps://www.pagina12.com.ar/diario/economia/2-258519-2014-10-28.html
p4
aVhttps://www.pagina12.com.ar/diario/economia/2-258516-2014-10-28.html
p5
aVhttps://www.pagina12.com.ar/diario/economia/2-258517-2014-10-28.html
p6
aVhttps://www.pagina12.com.ar/diario/economia/2-258518-2014-10-28.html
p7
a.