(lp0
Vhttps://www.pagina12.com.ar/diario/elpais/1-250434-2014-07-10.html
p1
aVhttps://www.pagina12.com.ar/diario/elpais/1-250435-2014-07-10.html
p2
aVhttps://www.pagina12.com.ar/diario/elpais/1-250436-2014-07-10.html
p3
aVhttps://www.pagina12.com.ar/diario/elpais/1-250432-2014-07-10.html
p4
aVhttps://www.pagina12.com.ar/diario/elpais/1-250433-2014-07-10.html
p5
aVhttps://www.pagina12.com.ar/diario/elpais/1-250431-2014-07-10.html
p6
a.