(lp0
Vhttps://www.pagina12.com.ar/diario/sociedad/3-261571-2014-12-09.html
p1
aVhttps://www.pagina12.com.ar/diario/sociedad/3-261567-2014-12-09.html
p2
aVhttps://www.pagina12.com.ar/diario/sociedad/3-261537-2014-12-09.html
p3
aVhttps://www.pagina12.com.ar/diario/sociedad/3-261551-2014-12-09.html
p4
aVhttps://www.pagina12.com.ar/diario/sociedad/3-261552-2014-12-09.html
p5
aVhttps://www.pagina12.com.ar/diario/sociedad/3-261553-2014-12-09.html
p6
aVhttps://www.pagina12.com.ar/diario/sociedad/3-261568-2014-12-09.html
p7
aVhttps://www.pagina12.com.ar/diario/sociedad/3-261569-2014-12-09.html
p8
aVhttps://www.pagina12.com.ar/diario/sociedad/3-261570-2014-12-09.html
p9
aVhttps://www.pagina12.com.ar/diario/sociedad/3-261572-2014-12-09.html
p10
aVhttps://www.pagina12.com.ar/diario/sociedad/3-261573-2014-12-09.html
p11
a.