(lp0
Vhttps://www.pagina12.com.ar/diario/sociedad/3-260068-2014-11-18.html
p1
aVhttps://www.pagina12.com.ar/diario/sociedad/3-260069-2014-11-18.html
p2
aVhttps://www.pagina12.com.ar/diario/sociedad/3-260067-2014-11-18.html
p3
aVhttps://www.pagina12.com.ar/diario/sociedad/3-260065-2014-11-18.html
p4
aVhttps://www.pagina12.com.ar/diario/sociedad/3-260066-2014-11-18.html
p5
aVhttps://www.pagina12.com.ar/diario/sociedad/3-260062-2014-11-18.html
p6
aVhttps://www.pagina12.com.ar/diario/sociedad/3-260063-2014-11-18.html
p7
aVhttps://www.pagina12.com.ar/diario/sociedad/3-260064-2014-11-18.html
p8
a.