(lp0
Vhttps://www.pagina12.com.ar/diario/elpais/1-252503-2014-08-08.html
p1
aVhttps://www.pagina12.com.ar/diario/elpais/1-252504-2014-08-08.html
p2
aVhttps://www.pagina12.com.ar/diario/elpais/1-252467-2014-08-08.html
p3
aVhttps://www.pagina12.com.ar/diario/elpais/1-252483-2014-08-08.html
p4
aVhttps://www.pagina12.com.ar/diario/elpais/1-252484-2014-08-08.html
p5
aVhttps://www.pagina12.com.ar/diario/elpais/1-252466-2014-08-08.html
p6
aVhttps://www.pagina12.com.ar/diario/elpais/1-252492-2014-08-08.html
p7
aVhttps://www.pagina12.com.ar/diario/elpais/1-252473-2014-08-08.html
p8
aVhttps://www.pagina12.com.ar/diario/elpais/1-252468-2014-08-08.html
p9
aVhttps://www.pagina12.com.ar/diario/elpais/1-252488-2014-08-08.html
p10
aVhttps://www.pagina12.com.ar/diario/elpais/1-252489-2014-08-08.html
p11
aVhttps://www.pagina12.com.ar/diario/elpais/1-252490-2014-08-08.html
p12
aVhttps://www.pagina12.com.ar/diario/elpais/1-252491-2014-08-08.html
p13
aVhttps://www.pagina12.com.ar/diario/elpais/1-252493-2014-08-08.html
p14
aVhttps://www.pagina12.com.ar/diario/elpais/1-252470-2014-08-08.html
p15
aVhttps://www.pagina12.com.ar/diario/elpais/1-252471-2014-08-08.html
p16
aVhttps://www.pagina12.com.ar/diario/elpais/1-252472-2014-08-08.html
p17
a.