(lp0
Vhttps://www.pagina12.com.ar/diario/sociedad/3-258699-2014-10-30.html
p1
aVhttps://www.pagina12.com.ar/diario/sociedad/3-258675-2014-10-30.html
p2
aVhttps://www.pagina12.com.ar/diario/sociedad/3-258676-2014-10-30.html
p3
aVhttps://www.pagina12.com.ar/diario/sociedad/3-258652-2014-10-30.html
p4
aVhttps://www.pagina12.com.ar/diario/sociedad/3-258677-2014-10-30.html
p5
aVhttps://www.pagina12.com.ar/diario/sociedad/3-258678-2014-10-30.html
p6
aVhttps://www.pagina12.com.ar/diario/sociedad/3-258679-2014-10-30.html
p7
aVhttps://www.pagina12.com.ar/diario/sociedad/3-258653-2014-10-30.html
p8
a.