(lp0
Vhttps://www.pagina12.com.ar/diario/elpais/1-254365-2014-09-02.html
p1
aVhttps://www.pagina12.com.ar/diario/elpais/1-254366-2014-09-02.html
p2
aVhttps://www.pagina12.com.ar/diario/elpais/1-254367-2014-09-02.html
p3
aVhttps://www.pagina12.com.ar/diario/elpais/1-254368-2014-09-02.html
p4
aVhttps://www.pagina12.com.ar/diario/elpais/1-254372-2014-09-02.html
p5
aVhttps://www.pagina12.com.ar/diario/elpais/1-254347-2014-09-02.html
p6
aVhttps://www.pagina12.com.ar/diario/elpais/1-254346-2014-09-02.html
p7
aVhttps://www.pagina12.com.ar/diario/elpais/1-254342-2014-09-02.html
p8
aVhttps://www.pagina12.com.ar/diario/elpais/1-254343-2014-09-02.html
p9
aVhttps://www.pagina12.com.ar/diario/elpais/1-254337-2014-09-02.html
p10
aVhttps://www.pagina12.com.ar/diario/elpais/1-254338-2014-09-02.html
p11
aVhttps://www.pagina12.com.ar/diario/elpais/1-254326-2014-09-02.html
p12
aVhttps://www.pagina12.com.ar/diario/elpais/1-254323-2014-09-02.html
p13
aVhttps://www.pagina12.com.ar/diario/elpais/1-254324-2014-09-02.html
p14
aVhttps://www.pagina12.com.ar/diario/elpais/1-254348-2014-09-02.html
p15
aVhttps://www.pagina12.com.ar/diario/elpais/1-254349-2014-09-02.html
p16
aVhttps://www.pagina12.com.ar/diario/elpais/1-254369-2014-09-02.html
p17
aVhttps://www.pagina12.com.ar/diario/elpais/1-254325-2014-09-02.html
p18
aVhttps://www.pagina12.com.ar/diario/elpais/1-254327-2014-09-02.html
p19
aVhttps://www.pagina12.com.ar/diario/elpais/1-254328-2014-09-02.html
p20
aVhttps://www.pagina12.com.ar/diario/elpais/1-254329-2014-09-02.html
p21
aVhttps://www.pagina12.com.ar/diario/elpais/1-254330-2014-09-02.html
p22
aVhttps://www.pagina12.com.ar/diario/elpais/1-254339-2014-09-02.html
p23
aVhttps://www.pagina12.com.ar/diario/elpais/1-254340-2014-09-02.html
p24
aVhttps://www.pagina12.com.ar/diario/elpais/1-254341-2014-09-02.html
p25
aVhttps://www.pagina12.com.ar/diario/elpais/1-254344-2014-09-02.html
p26
aVhttps://www.pagina12.com.ar/diario/elpais/1-254345-2014-09-02.html
p27
a.