(lp0
Vhttps://www.pagina12.com.ar/diario/elpais/1-251168-2014-07-20.html
p1
aVhttps://www.pagina12.com.ar/diario/elpais/1-251169-2014-07-20.html
p2
aVhttps://www.pagina12.com.ar/diario/elpais/1-251167-2014-07-20.html
p3
aVhttps://www.pagina12.com.ar/diario/elpais/1-251161-2014-07-20.html
p4
aVhttps://www.pagina12.com.ar/diario/elpais/1-251162-2014-07-20.html
p5
aVhttps://www.pagina12.com.ar/diario/elpais/1-251165-2014-07-20.html
p6
aVhttps://www.pagina12.com.ar/diario/elpais/1-251160-2014-07-20.html
p7
aVhttps://www.pagina12.com.ar/diario/elpais/1-251155-2014-07-20.html
p8
aVhttps://www.pagina12.com.ar/diario/elpais/1-251154-2014-07-20.html
p9
aVhttps://www.pagina12.com.ar/diario/elpais/1-251153-2014-07-20.html
p10
aVhttps://www.pagina12.com.ar/diario/elpais/1-251148-2014-07-20.html
p11
aVhttps://www.pagina12.com.ar/diario/elpais/1-251149-2014-07-20.html
p12
aVhttps://www.pagina12.com.ar/diario/elpais/1-251150-2014-07-20.html
p13
aVhttps://www.pagina12.com.ar/diario/elpais/1-251151-2014-07-20.html
p14
aVhttps://www.pagina12.com.ar/diario/elpais/1-251152-2014-07-20.html
p15
aVhttps://www.pagina12.com.ar/diario/elpais/1-251156-2014-07-20.html
p16
aVhttps://www.pagina12.com.ar/diario/elpais/1-251157-2014-07-20.html
p17
aVhttps://www.pagina12.com.ar/diario/elpais/1-251158-2014-07-20.html
p18
aVhttps://www.pagina12.com.ar/diario/elpais/1-251159-2014-07-20.html
p19
aVhttps://www.pagina12.com.ar/diario/elpais/1-251163-2014-07-20.html
p20
aVhttps://www.pagina12.com.ar/diario/elpais/1-251164-2014-07-20.html
p21
a.