(lp0
Vhttps://www.pagina12.com.ar/diario/elpais/1-252589-2014-08-09.html
p1
aVhttps://www.pagina12.com.ar/diario/elpais/1-252590-2014-08-09.html
p2
aVhttps://www.pagina12.com.ar/diario/elpais/1-252582-2014-08-09.html
p3
aVhttps://www.pagina12.com.ar/diario/elpais/1-252577-2014-08-09.html
p4
aVhttps://www.pagina12.com.ar/diario/elpais/1-252578-2014-08-09.html
p5
aVhttps://www.pagina12.com.ar/diario/elpais/1-252560-2014-08-09.html
p6
aVhttps://www.pagina12.com.ar/diario/elpais/1-252538-2014-08-09.html
p7
aVhttps://www.pagina12.com.ar/diario/elpais/1-252562-2014-08-09.html
p8
aVhttps://www.pagina12.com.ar/diario/elpais/1-252555-2014-08-09.html
p9
aVhttps://www.pagina12.com.ar/diario/elpais/1-252556-2014-08-09.html
p10
aVhttps://www.pagina12.com.ar/diario/elpais/1-252539-2014-08-09.html
p11
aVhttps://www.pagina12.com.ar/diario/elpais/1-252540-2014-08-09.html
p12
aVhttps://www.pagina12.com.ar/diario/elpais/1-252541-2014-08-09.html
p13
aVhttps://www.pagina12.com.ar/diario/elpais/1-252557-2014-08-09.html
p14
aVhttps://www.pagina12.com.ar/diario/elpais/1-252558-2014-08-09.html
p15
aVhttps://www.pagina12.com.ar/diario/elpais/1-252559-2014-08-09.html
p16
aVhttps://www.pagina12.com.ar/diario/elpais/1-252561-2014-08-09.html
p17
aVhttps://www.pagina12.com.ar/diario/elpais/1-252579-2014-08-09.html
p18
aVhttps://www.pagina12.com.ar/diario/elpais/1-252580-2014-08-09.html
p19
aVhttps://www.pagina12.com.ar/diario/elpais/1-252581-2014-08-09.html
p20
a.