(lp0
Vhttps://www.pagina12.com.ar/diario/economia/2-257484-2014-10-14.html
p1
aVhttps://www.pagina12.com.ar/diario/economia/2-257485-2014-10-14.html
p2
aVhttps://www.pagina12.com.ar/diario/economia/2-257486-2014-10-14.html
p3
aVhttps://www.pagina12.com.ar/diario/economia/2-257487-2014-10-14.html
p4
aVhttps://www.pagina12.com.ar/diario/economia/2-257480-2014-10-14.html
p5
aVhttps://www.pagina12.com.ar/diario/economia/2-257481-2014-10-14.html
p6
aVhttps://www.pagina12.com.ar/diario/economia/2-257482-2014-10-14.html
p7
aVhttps://www.pagina12.com.ar/diario/economia/2-257483-2014-10-14.html
p8
a.