(lp0
Vhttps://www.pagina12.com.ar/diario/economia/2-253211-2014-08-18.html
p1
aVhttps://www.pagina12.com.ar/diario/economia/2-253210-2014-08-18.html
p2
aVhttps://www.pagina12.com.ar/diario/economia/2-253207-2014-08-18.html
p3
aVhttps://www.pagina12.com.ar/diario/economia/2-253209-2014-08-18.html
p4
aVhttps://www.pagina12.com.ar/diario/economia/2-253208-2014-08-18.html
p5
a.