(lp0
Vhttps://www.pagina12.com.ar/diario/elpais/1-260589-2014-11-25.html
p1
aVhttps://www.pagina12.com.ar/diario/elpais/1-260590-2014-11-25.html
p2
aVhttps://www.pagina12.com.ar/diario/elpais/1-260591-2014-11-25.html
p3
aVhttps://www.pagina12.com.ar/diario/elpais/1-260587-2014-11-25.html
p4
aVhttps://www.pagina12.com.ar/diario/elpais/1-260588-2014-11-25.html
p5
aVhttps://www.pagina12.com.ar/diario/elpais/1-260586-2014-11-25.html
p6
aVhttps://www.pagina12.com.ar/diario/elpais/1-260585-2014-11-25.html
p7
aVhttps://www.pagina12.com.ar/diario/elpais/1-260583-2014-11-25.html
p8
aVhttps://www.pagina12.com.ar/diario/elpais/1-260584-2014-11-25.html
p9
aVhttps://www.pagina12.com.ar/diario/elpais/1-260581-2014-11-25.html
p10
aVhttps://www.pagina12.com.ar/diario/elpais/1-260582-2014-11-25.html
p11
a.