(lp0
Vhttps://www.pagina12.com.ar/diario/elpais/1-262471-2014-12-22.html
p1
aVhttps://www.pagina12.com.ar/diario/elpais/1-262469-2014-12-22.html
p2
aVhttps://www.pagina12.com.ar/diario/elpais/1-262470-2014-12-22.html
p3
aVhttps://www.pagina12.com.ar/diario/elpais/1-262472-2014-12-22.html
p4
aVhttps://www.pagina12.com.ar/diario/elpais/1-262477-2014-12-22.html
p5
aVhttps://www.pagina12.com.ar/diario/elpais/1-262479-2014-12-22.html
p6
aVhttps://www.pagina12.com.ar/diario/elpais/1-262480-2014-12-22.html
p7
aVhttps://www.pagina12.com.ar/diario/elpais/1-262464-2014-12-22.html
p8
aVhttps://www.pagina12.com.ar/diario/elpais/1-262468-2014-12-22.html
p9
aVhttps://www.pagina12.com.ar/diario/elpais/1-262473-2014-12-22.html
p10
aVhttps://www.pagina12.com.ar/diario/elpais/1-262474-2014-12-22.html
p11
aVhttps://www.pagina12.com.ar/diario/elpais/1-262475-2014-12-22.html
p12
aVhttps://www.pagina12.com.ar/diario/elpais/1-262476-2014-12-22.html
p13
a.