(lp0
Vhttps://www.pagina12.com.ar/diario/elpais/1-250718-2014-07-14.html
p1
aVhttps://www.pagina12.com.ar/diario/elpais/1-250710-2014-07-14.html
p2
aVhttps://www.pagina12.com.ar/diario/elpais/1-250701-2014-07-14.html
p3
aVhttps://www.pagina12.com.ar/diario/elpais/1-250703-2014-07-14.html
p4
aVhttps://www.pagina12.com.ar/diario/elpais/1-250711-2014-07-14.html
p5
aVhttps://www.pagina12.com.ar/diario/elpais/1-250712-2014-07-14.html
p6
aVhttps://www.pagina12.com.ar/diario/elpais/1-250719-2014-07-14.html
p7
aVhttps://www.pagina12.com.ar/diario/elpais/1-250720-2014-07-14.html
p8
aVhttps://www.pagina12.com.ar/diario/elpais/1-250721-2014-07-14.html
p9
aVhttps://www.pagina12.com.ar/diario/elpais/1-250722-2014-07-14.html
p10
a.