(lp0
Vhttps://www.pagina12.com.ar/diario/sociedad/3-257959-2014-10-21.html
p1
aVhttps://www.pagina12.com.ar/diario/sociedad/3-257960-2014-10-21.html
p2
aVhttps://www.pagina12.com.ar/diario/sociedad/3-257956-2014-10-21.html
p3
aVhttps://www.pagina12.com.ar/diario/sociedad/3-257957-2014-10-21.html
p4
aVhttps://www.pagina12.com.ar/diario/sociedad/3-257958-2014-10-21.html
p5
aVhttps://www.pagina12.com.ar/diario/sociedad/3-257955-2014-10-21.html
p6
aVhttps://www.pagina12.com.ar/diario/sociedad/3-257951-2014-10-21.html
p7
aVhttps://www.pagina12.com.ar/diario/sociedad/3-257952-2014-10-21.html
p8
aVhttps://www.pagina12.com.ar/diario/sociedad/3-257950-2014-10-21.html
p9
aVhttps://www.pagina12.com.ar/diario/sociedad/3-257953-2014-10-21.html
p10
aVhttps://www.pagina12.com.ar/diario/sociedad/3-257954-2014-10-21.html
p11
a.