(lp0
Vhttps://www.pagina12.com.ar/diario/economia/2-252494-2014-08-08.html
p1
aVhttps://www.pagina12.com.ar/diario/economia/2-252495-2014-08-08.html
p2
aVhttps://www.pagina12.com.ar/diario/economia/2-252497-2014-08-08.html
p3
aVhttps://www.pagina12.com.ar/diario/economia/2-252498-2014-08-08.html
p4
aVhttps://www.pagina12.com.ar/diario/economia/2-252508-2014-08-08.html
p5
aVhttps://www.pagina12.com.ar/diario/economia/2-252510-2014-08-08.html
p6
aVhttps://www.pagina12.com.ar/diario/economia/2-252511-2014-08-08.html
p7
aVhttps://www.pagina12.com.ar/diario/economia/2-252512-2014-08-08.html
p8
aVhttps://www.pagina12.com.ar/diario/economia/2-252475-2014-08-08.html
p9
aVhttps://www.pagina12.com.ar/diario/economia/2-252476-2014-08-08.html
p10
aVhttps://www.pagina12.com.ar/diario/economia/2-252474-2014-08-08.html
p11
aVhttps://www.pagina12.com.ar/diario/economia/2-252469-2014-08-08.html
p12
aVhttps://www.pagina12.com.ar/diario/economia/2-252496-2014-08-08.html
p13
aVhttps://www.pagina12.com.ar/diario/economia/2-252477-2014-08-08.html
p14
aVhttps://www.pagina12.com.ar/diario/economia/2-252478-2014-08-08.html
p15
a.