(lp0
Vhttps://www.pagina12.com.ar/diario/sociedad/3-261861-2014-12-13.html
p1
aVhttps://www.pagina12.com.ar/diario/sociedad/3-261860-2014-12-13.html
p2
aVhttps://www.pagina12.com.ar/diario/sociedad/3-261862-2014-12-13.html
p3
a.