(lp0
Vhttps://www.pagina12.com.ar/diario/sociedad/3-270300-2015-04-11.html
p1
aVhttps://www.pagina12.com.ar/diario/sociedad/3-270301-2015-04-11.html
p2
aVhttps://www.pagina12.com.ar/diario/sociedad/3-270302-2015-04-11.html
p3
aVhttps://www.pagina12.com.ar/diario/sociedad/3-270257-2015-04-11.html
p4
aVhttps://www.pagina12.com.ar/diario/sociedad/3-270294-2015-04-11.html
p5
aVhttps://www.pagina12.com.ar/diario/sociedad/3-270258-2015-04-11.html
p6
aVhttps://www.pagina12.com.ar/diario/sociedad/3-270295-2015-04-11.html
p7
aVhttps://www.pagina12.com.ar/diario/sociedad/3-270271-2015-04-11.html
p8
aVhttps://www.pagina12.com.ar/diario/sociedad/3-270272-2015-04-11.html
p9
aVhttps://www.pagina12.com.ar/diario/sociedad/3-270296-2015-04-11.html
p10
aVhttps://www.pagina12.com.ar/diario/sociedad/3-270297-2015-04-11.html
p11
aVhttps://www.pagina12.com.ar/diario/sociedad/3-270298-2015-04-11.html
p12
aVhttps://www.pagina12.com.ar/diario/sociedad/3-270299-2015-04-11.html
p13
aVhttps://www.pagina12.com.ar/diario/sociedad/3-270303-2015-04-11.html
p14
aVhttps://www.pagina12.com.ar/diario/sociedad/3-270304-2015-04-11.html
p15
aVhttps://www.pagina12.com.ar/diario/sociedad/3-270273-2015-04-11.html
p16
aVhttps://www.pagina12.com.ar/diario/sociedad/3-270274-2015-04-11.html
p17
aVhttps://www.pagina12.com.ar/diario/sociedad/3-270275-2015-04-11.html
p18
a.