(lp0
Vhttps://www.pagina12.com.ar/diario/sociedad/3-283122-2015-10-05.html
p1
aVhttps://www.pagina12.com.ar/diario/sociedad/3-283123-2015-10-05.html
p2
aVhttps://www.pagina12.com.ar/diario/sociedad/3-283118-2015-10-05.html
p3
aVhttps://www.pagina12.com.ar/diario/sociedad/3-283107-2015-10-05.html
p4
aVhttps://www.pagina12.com.ar/diario/sociedad/3-283105-2015-10-05.html
p5
aVhttps://www.pagina12.com.ar/diario/sociedad/3-283135-2015-10-05.html
p6
aVhttps://www.pagina12.com.ar/diario/sociedad/3-283106-2015-10-05.html
p7
aVhttps://www.pagina12.com.ar/diario/sociedad/3-283108-2015-10-05.html
p8
aVhttps://www.pagina12.com.ar/diario/sociedad/3-283119-2015-10-05.html
p9
aVhttps://www.pagina12.com.ar/diario/sociedad/3-283120-2015-10-05.html
p10
aVhttps://www.pagina12.com.ar/diario/sociedad/3-283121-2015-10-05.html
p11
aVhttps://www.pagina12.com.ar/diario/sociedad/3-283124-2015-10-05.html
p12
aVhttps://www.pagina12.com.ar/diario/sociedad/3-283125-2015-10-05.html
p13
aVhttps://www.pagina12.com.ar/diario/sociedad/3-283126-2015-10-05.html
p14
a.