(lp0
Vhttps://www.pagina12.com.ar/diario/elpais/1-282120-2015-09-21.html
p1
aVhttps://www.pagina12.com.ar/diario/elpais/1-282124-2015-09-21.html
p2
aVhttps://www.pagina12.com.ar/diario/elpais/1-282121-2015-09-21.html
p3
aVhttps://www.pagina12.com.ar/diario/elpais/1-282122-2015-09-21.html
p4
aVhttps://www.pagina12.com.ar/diario/elpais/1-282114-2015-09-21.html
p5
aVhttps://www.pagina12.com.ar/diario/elpais/1-282115-2015-09-21.html
p6
aVhttps://www.pagina12.com.ar/diario/elpais/1-282119-2015-09-21.html
p7
a.