(lp0
Vhttps://www.pagina12.com.ar/diario/elpais/1-270008-2015-04-08.html
p1
aVhttps://www.pagina12.com.ar/diario/elpais/1-270002-2015-04-08.html
p2
aVhttps://www.pagina12.com.ar/diario/elpais/1-270004-2015-04-08.html
p3
aVhttps://www.pagina12.com.ar/diario/elpais/1-270005-2015-04-08.html
p4
aVhttps://www.pagina12.com.ar/diario/elpais/1-270023-2015-04-08.html
p5
aVhttps://www.pagina12.com.ar/diario/elpais/1-270024-2015-04-08.html
p6
aVhttps://www.pagina12.com.ar/diario/elpais/1-270025-2015-04-08.html
p7
aVhttps://www.pagina12.com.ar/diario/elpais/1-270006-2015-04-08.html
p8
aVhttps://www.pagina12.com.ar/diario/elpais/1-270007-2015-04-08.html
p9
aVhttps://www.pagina12.com.ar/diario/elpais/1-269979-2015-04-08.html
p10
aVhttps://www.pagina12.com.ar/diario/elpais/1-270012-2015-04-08.html
p11
aVhttps://www.pagina12.com.ar/diario/elpais/1-270013-2015-04-08.html
p12
aVhttps://www.pagina12.com.ar/diario/elpais/1-270014-2015-04-08.html
p13
aVhttps://www.pagina12.com.ar/diario/elpais/1-270015-2015-04-08.html
p14
aVhttps://www.pagina12.com.ar/diario/elpais/1-270016-2015-04-08.html
p15
aVhttps://www.pagina12.com.ar/diario/elpais/1-270017-2015-04-08.html
p16
aVhttps://www.pagina12.com.ar/diario/elpais/1-269966-2015-04-08.html
p17
aVhttps://www.pagina12.com.ar/diario/elpais/1-270001-2015-04-08.html
p18
aVhttps://www.pagina12.com.ar/diario/elpais/1-270003-2015-04-08.html
p19
aVhttps://www.pagina12.com.ar/diario/elpais/1-270009-2015-04-08.html
p20
aVhttps://www.pagina12.com.ar/diario/elpais/1-270010-2015-04-08.html
p21
aVhttps://www.pagina12.com.ar/diario/elpais/1-270011-2015-04-08.html
p22
aVhttps://www.pagina12.com.ar/diario/elpais/1-270018-2015-04-08.html
p23
aVhttps://www.pagina12.com.ar/diario/elpais/1-270019-2015-04-08.html
p24
aVhttps://www.pagina12.com.ar/diario/elpais/1-270020-2015-04-08.html
p25
aVhttps://www.pagina12.com.ar/diario/elpais/1-270021-2015-04-08.html
p26
aVhttps://www.pagina12.com.ar/diario/elpais/1-270022-2015-04-08.html
p27
aVhttps://www.pagina12.com.ar/diario/elpais/1-269968-2015-04-08.html
p28
a.