(lp0
Vhttps://www.pagina12.com.ar/diario/economia/2-266164-2015-02-15.html
p1
aVhttps://www.pagina12.com.ar/diario/economia/2-266176-2015-02-15.html
p2
aVhttps://www.pagina12.com.ar/diario/economia/2-266177-2015-02-15.html
p3
a.