(lp0
Vhttps://www.pagina12.com.ar/diario/sociedad/3-270213-2015-04-10.html
p1
aVhttps://www.pagina12.com.ar/diario/sociedad/3-270214-2015-04-10.html
p2
aVhttps://www.pagina12.com.ar/diario/sociedad/3-270196-2015-04-10.html
p3
aVhttps://www.pagina12.com.ar/diario/sociedad/3-270181-2015-04-10.html
p4
aVhttps://www.pagina12.com.ar/diario/sociedad/3-270162-2015-04-10.html
p5
aVhttps://www.pagina12.com.ar/diario/sociedad/3-270182-2015-04-10.html
p6
aVhttps://www.pagina12.com.ar/diario/sociedad/3-270163-2015-04-10.html
p7
aVhttps://www.pagina12.com.ar/diario/sociedad/3-270164-2015-04-10.html
p8
aVhttps://www.pagina12.com.ar/diario/sociedad/3-270215-2015-04-10.html
p9
aVhttps://www.pagina12.com.ar/diario/sociedad/3-270216-2015-04-10.html
p10
aVhttps://www.pagina12.com.ar/diario/sociedad/3-270217-2015-04-10.html
p11
aVhttps://www.pagina12.com.ar/diario/sociedad/3-270165-2015-04-10.html
p12
aVhttps://www.pagina12.com.ar/diario/sociedad/3-270166-2015-04-10.html
p13
aVhttps://www.pagina12.com.ar/diario/sociedad/3-270167-2015-04-10.html
p14
aVhttps://www.pagina12.com.ar/diario/sociedad/3-270168-2015-04-10.html
p15
aVhttps://www.pagina12.com.ar/diario/sociedad/3-270197-2015-04-10.html
p16
aVhttps://www.pagina12.com.ar/diario/sociedad/3-270198-2015-04-10.html
p17
a.