(lp0
Vhttps://www.pagina12.com.ar/diario/economia/2-273242-2015-05-22.html
p1
aVhttps://www.pagina12.com.ar/diario/economia/2-273232-2015-05-22.html
p2
aVhttps://www.pagina12.com.ar/diario/economia/2-273230-2015-05-22.html
p3
aVhttps://www.pagina12.com.ar/diario/economia/2-273233-2015-05-22.html
p4
aVhttps://www.pagina12.com.ar/diario/economia/2-273225-2015-05-22.html
p5
aVhttps://www.pagina12.com.ar/diario/economia/2-273231-2015-05-22.html
p6
aVhttps://www.pagina12.com.ar/diario/economia/2-273226-2015-05-22.html
p7
aVhttps://www.pagina12.com.ar/diario/economia/2-273264-2015-05-22.html
p8
aVhttps://www.pagina12.com.ar/diario/economia/2-273265-2015-05-22.html
p9
aVhttps://www.pagina12.com.ar/diario/economia/2-273227-2015-05-22.html
p10
aVhttps://www.pagina12.com.ar/diario/economia/2-273228-2015-05-22.html
p11
aVhttps://www.pagina12.com.ar/diario/economia/2-273229-2015-05-22.html
p12
aVhttps://www.pagina12.com.ar/diario/economia/2-273234-2015-05-22.html
p13
aVhttps://www.pagina12.com.ar/diario/economia/2-273235-2015-05-22.html
p14
aVhttps://www.pagina12.com.ar/diario/economia/2-273236-2015-05-22.html
p15
aVhttps://www.pagina12.com.ar/diario/economia/2-273263-2015-05-22.html
p16
a.