(lp0
Vhttps://www.pagina12.com.ar/diario/sociedad/3-285004-2015-10-30.html
p1
aVhttps://www.pagina12.com.ar/diario/sociedad/3-284998-2015-10-30.html
p2
aVhttps://www.pagina12.com.ar/diario/sociedad/3-285005-2015-10-30.html
p3
aVhttps://www.pagina12.com.ar/diario/sociedad/3-284991-2015-10-30.html
p4
aVhttps://www.pagina12.com.ar/diario/sociedad/3-284999-2015-10-30.html
p5
aVhttps://www.pagina12.com.ar/diario/sociedad/3-284992-2015-10-30.html
p6
aVhttps://www.pagina12.com.ar/diario/sociedad/3-284996-2015-10-30.html
p7
aVhttps://www.pagina12.com.ar/diario/sociedad/3-284993-2015-10-30.html
p8
aVhttps://www.pagina12.com.ar/diario/sociedad/3-284994-2015-10-30.html
p9
aVhttps://www.pagina12.com.ar/diario/sociedad/3-284995-2015-10-30.html
p10
aVhttps://www.pagina12.com.ar/diario/sociedad/3-284997-2015-10-30.html
p11
aVhttps://www.pagina12.com.ar/diario/sociedad/3-285000-2015-10-30.html
p12
aVhttps://www.pagina12.com.ar/diario/sociedad/3-285001-2015-10-30.html
p13
aVhttps://www.pagina12.com.ar/diario/sociedad/3-285002-2015-10-30.html
p14
aVhttps://www.pagina12.com.ar/diario/sociedad/3-285003-2015-10-30.html
p15
aVhttps://www.pagina12.com.ar/diario/sociedad/3-285006-2015-10-30.html
p16
a.