(lp0
Vhttps://www.pagina12.com.ar/diario/economia/2-269405-2015-04-01.html
p1
aVhttps://www.pagina12.com.ar/diario/economia/2-269406-2015-04-01.html
p2
aVhttps://www.pagina12.com.ar/diario/economia/2-269410-2015-04-01.html
p3
aVhttps://www.pagina12.com.ar/diario/economia/2-269411-2015-04-01.html
p4
aVhttps://www.pagina12.com.ar/diario/economia/2-269412-2015-04-01.html
p5
aVhttps://www.pagina12.com.ar/diario/economia/2-269417-2015-04-01.html
p6
aVhttps://www.pagina12.com.ar/diario/economia/2-269418-2015-04-01.html
p7
aVhttps://www.pagina12.com.ar/diario/economia/2-269484-2015-04-01.html
p8
aVhttps://www.pagina12.com.ar/diario/economia/2-269421-2015-04-01.html
p9
aVhttps://www.pagina12.com.ar/diario/economia/2-269422-2015-04-01.html
p10
aVhttps://www.pagina12.com.ar/diario/economia/2-269423-2015-04-01.html
p11
aVhttps://www.pagina12.com.ar/diario/economia/2-269424-2015-04-01.html
p12
aVhttps://www.pagina12.com.ar/diario/economia/2-269407-2015-04-01.html
p13
aVhttps://www.pagina12.com.ar/diario/economia/2-269408-2015-04-01.html
p14
aVhttps://www.pagina12.com.ar/diario/economia/2-269409-2015-04-01.html
p15
a.