(lp0
Vhttps://www.pagina12.com.ar/diario/elpais/1-279039-2015-08-10.html
p1
aVhttps://www.pagina12.com.ar/diario/elpais/1-279048-2015-08-10.html
p2
aVhttps://www.pagina12.com.ar/diario/elpais/1-279022-2015-08-10.html
p3
aVhttps://www.pagina12.com.ar/diario/elpais/1-279023-2015-08-10.html
p4
aVhttps://www.pagina12.com.ar/diario/elpais/1-279033-2015-08-10.html
p5
aVhttps://www.pagina12.com.ar/diario/elpais/1-279021-2015-08-10.html
p6
aVhttps://www.pagina12.com.ar/diario/elpais/1-279028-2015-08-10.html
p7
aVhttps://www.pagina12.com.ar/diario/elpais/1-279034-2015-08-10.html
p8
aVhttps://www.pagina12.com.ar/diario/elpais/1-279035-2015-08-10.html
p9
aVhttps://www.pagina12.com.ar/diario/elpais/1-279036-2015-08-10.html
p10
aVhttps://www.pagina12.com.ar/diario/elpais/1-279038-2015-08-10.html
p11
aVhttps://www.pagina12.com.ar/diario/elpais/1-279025-2015-08-10.html
p12
aVhttps://www.pagina12.com.ar/diario/elpais/1-279049-2015-08-10.html
p13
aVhttps://www.pagina12.com.ar/diario/elpais/1-279043-2015-08-10.html
p14
aVhttps://www.pagina12.com.ar/diario/elpais/1-279044-2015-08-10.html
p15
aVhttps://www.pagina12.com.ar/diario/elpais/1-279041-2015-08-10.html
p16
aVhttps://www.pagina12.com.ar/diario/elpais/1-279042-2015-08-10.html
p17
aVhttps://www.pagina12.com.ar/diario/elpais/1-279029-2015-08-10.html
p18
aVhttps://www.pagina12.com.ar/diario/elpais/1-279030-2015-08-10.html
p19
aVhttps://www.pagina12.com.ar/diario/elpais/1-279045-2015-08-10.html
p20
aVhttps://www.pagina12.com.ar/diario/elpais/1-279046-2015-08-10.html
p21
aVhttps://www.pagina12.com.ar/diario/elpais/1-279047-2015-08-10.html
p22
aVhttps://www.pagina12.com.ar/diario/elpais/1-279031-2015-08-10.html
p23
aVhttps://www.pagina12.com.ar/diario/elpais/1-279032-2015-08-10.html
p24
aVhttps://www.pagina12.com.ar/diario/elpais/1-279037-2015-08-10.html
p25
aVhttps://www.pagina12.com.ar/diario/elpais/1-279026-2015-08-10.html
p26
aVhttps://www.pagina12.com.ar/diario/elpais/1-279027-2015-08-10.html
p27
a.