(lp0
Vhttps://www.pagina12.com.ar/diario/economia/2-282502-2015-09-26.html
p1
aVhttps://www.pagina12.com.ar/diario/economia/2-282504-2015-09-26.html
p2
aVhttps://www.pagina12.com.ar/diario/economia/2-282498-2015-09-26.html
p3
aVhttps://www.pagina12.com.ar/diario/economia/2-282494-2015-09-26.html
p4
aVhttps://www.pagina12.com.ar/diario/economia/2-282499-2015-09-26.html
p5
aVhttps://www.pagina12.com.ar/diario/economia/2-282497-2015-09-26.html
p6
aVhttps://www.pagina12.com.ar/diario/economia/2-282495-2015-09-26.html
p7
aVhttps://www.pagina12.com.ar/diario/economia/2-282496-2015-09-26.html
p8
aVhttps://www.pagina12.com.ar/diario/economia/2-282500-2015-09-26.html
p9
aVhttps://www.pagina12.com.ar/diario/economia/2-282501-2015-09-26.html
p10
aVhttps://www.pagina12.com.ar/diario/economia/2-282503-2015-09-26.html
p11
a.