(lp0
Vhttps://www.pagina12.com.ar/diario/sociedad/3-267842-2015-03-11.html
p1
aVhttps://www.pagina12.com.ar/diario/sociedad/3-267843-2015-03-11.html
p2
aVhttps://www.pagina12.com.ar/diario/sociedad/3-267837-2015-03-11.html
p3
aVhttps://www.pagina12.com.ar/diario/sociedad/3-267832-2015-03-11.html
p4
aVhttps://www.pagina12.com.ar/diario/sociedad/3-267833-2015-03-11.html
p5
aVhttps://www.pagina12.com.ar/diario/sociedad/3-267834-2015-03-11.html
p6
aVhttps://www.pagina12.com.ar/diario/sociedad/3-267835-2015-03-11.html
p7
a.