(lp0
Vhttps://www.pagina12.com.ar/diario/elpais/1-286255-2015-11-16.html
p1
aVhttps://www.pagina12.com.ar/diario/elpais/1-286256-2015-11-16.html
p2
aVhttps://www.pagina12.com.ar/diario/elpais/1-286257-2015-11-16.html
p3
aVhttps://www.pagina12.com.ar/diario/elpais/1-286252-2015-11-16.html
p4
aVhttps://www.pagina12.com.ar/diario/elpais/1-286251-2015-11-16.html
p5
aVhttps://www.pagina12.com.ar/diario/elpais/1-286253-2015-11-16.html
p6
aVhttps://www.pagina12.com.ar/diario/elpais/1-286254-2015-11-16.html
p7
aVhttps://www.pagina12.com.ar/diario/elpais/1-286243-2015-11-16.html
p8
aVhttps://www.pagina12.com.ar/diario/elpais/1-286244-2015-11-16.html
p9
aVhttps://www.pagina12.com.ar/diario/elpais/1-286236-2015-11-16.html
p10
aVhttps://www.pagina12.com.ar/diario/elpais/1-286237-2015-11-16.html
p11
aVhttps://www.pagina12.com.ar/diario/elpais/1-286235-2015-11-16.html
p12
a.