(lp0
Vhttps://www.pagina12.com.ar/diario/economia/2-284224-2015-10-20.html
p1
aVhttps://www.pagina12.com.ar/diario/economia/2-284225-2015-10-20.html
p2
aVhttps://www.pagina12.com.ar/diario/economia/2-284214-2015-10-20.html
p3
aVhttps://www.pagina12.com.ar/diario/economia/2-284215-2015-10-20.html
p4
aVhttps://www.pagina12.com.ar/diario/economia/2-284216-2015-10-20.html
p5
aVhttps://www.pagina12.com.ar/diario/economia/2-284217-2015-10-20.html
p6
aVhttps://www.pagina12.com.ar/diario/economia/2-284218-2015-10-20.html
p7
a.