(lp0
Vhttps://www.pagina12.com.ar/diario/elpais/1-287234-2015-11-30.html
p1
aVhttps://www.pagina12.com.ar/diario/elpais/1-287235-2015-11-30.html
p2
aVhttps://www.pagina12.com.ar/diario/elpais/1-287214-2015-11-30.html
p3
aVhttps://www.pagina12.com.ar/diario/elpais/1-287237-2015-11-30.html
p4
aVhttps://www.pagina12.com.ar/diario/elpais/1-287238-2015-11-30.html
p5
aVhttps://www.pagina12.com.ar/diario/elpais/1-287224-2015-11-30.html
p6
aVhttps://www.pagina12.com.ar/diario/elpais/1-287225-2015-11-30.html
p7
aVhttps://www.pagina12.com.ar/diario/elpais/1-287226-2015-11-30.html
p8
aVhttps://www.pagina12.com.ar/diario/elpais/1-287215-2015-11-30.html
p9
aVhttps://www.pagina12.com.ar/diario/elpais/1-287239-2015-11-30.html
p10
aVhttps://www.pagina12.com.ar/diario/elpais/1-287240-2015-11-30.html
p11
aVhttps://www.pagina12.com.ar/diario/elpais/1-287241-2015-11-30.html
p12
a.