(lp0
Vhttps://www.pagina12.com.ar/diario/economia/2-287611-2015-12-05.html
p1
aVhttps://www.pagina12.com.ar/diario/economia/2-287612-2015-12-05.html
p2
aVhttps://www.pagina12.com.ar/diario/economia/2-287613-2015-12-05.html
p3
aVhttps://www.pagina12.com.ar/diario/economia/2-287609-2015-12-05.html
p4
aVhttps://www.pagina12.com.ar/diario/economia/2-287610-2015-12-05.html
p5
a.