(lp0
Vhttps://www.pagina12.com.ar/diario/sociedad/3-279333-2015-08-14.html
p1
aVhttps://www.pagina12.com.ar/diario/sociedad/3-279328-2015-08-14.html
p2
aVhttps://www.pagina12.com.ar/diario/sociedad/3-279326-2015-08-14.html
p3
aVhttps://www.pagina12.com.ar/diario/sociedad/3-279330-2015-08-14.html
p4
aVhttps://www.pagina12.com.ar/diario/sociedad/3-279325-2015-08-14.html
p5
aVhttps://www.pagina12.com.ar/diario/sociedad/3-279327-2015-08-14.html
p6
aVhttps://www.pagina12.com.ar/diario/sociedad/3-279329-2015-08-14.html
p7
aVhttps://www.pagina12.com.ar/diario/sociedad/3-279334-2015-08-14.html
p8
aVhttps://www.pagina12.com.ar/diario/sociedad/3-279335-2015-08-14.html
p9
aVhttps://www.pagina12.com.ar/diario/sociedad/3-279336-2015-08-14.html
p10
a.