(lp0
Vhttps://www.pagina12.com.ar/diario/sociedad/3-274916-2015-06-15.html
p1
aVhttps://www.pagina12.com.ar/diario/sociedad/3-274919-2015-06-15.html
p2
aVhttps://www.pagina12.com.ar/diario/sociedad/3-274923-2015-06-15.html
p3
aVhttps://www.pagina12.com.ar/diario/sociedad/3-274924-2015-06-15.html
p4
aVhttps://www.pagina12.com.ar/diario/sociedad/3-274906-2015-06-15.html
p5
aVhttps://www.pagina12.com.ar/diario/sociedad/3-274907-2015-06-15.html
p6
aVhttps://www.pagina12.com.ar/diario/sociedad/3-274930-2015-06-15.html
p7
a.