(lp0
Vhttps://www.pagina12.com.ar/diario/elpais/1-268934-2015-03-25.html
p1
aVhttps://www.pagina12.com.ar/diario/elpais/1-268935-2015-03-25.html
p2
aVhttps://www.pagina12.com.ar/diario/elpais/1-268922-2015-03-25.html
p3
aVhttps://www.pagina12.com.ar/diario/elpais/1-268923-2015-03-25.html
p4
aVhttps://www.pagina12.com.ar/diario/elpais/1-268918-2015-03-25.html
p5
aVhttps://www.pagina12.com.ar/diario/elpais/1-268919-2015-03-25.html
p6
aVhttps://www.pagina12.com.ar/diario/elpais/1-268916-2015-03-25.html
p7
aVhttps://www.pagina12.com.ar/diario/elpais/1-268917-2015-03-25.html
p8
aVhttps://www.pagina12.com.ar/diario/elpais/1-268924-2015-03-25.html
p9
aVhttps://www.pagina12.com.ar/diario/elpais/1-268925-2015-03-25.html
p10
aVhttps://www.pagina12.com.ar/diario/elpais/1-268926-2015-03-25.html
p11
aVhttps://www.pagina12.com.ar/diario/elpais/1-268927-2015-03-25.html
p12
aVhttps://www.pagina12.com.ar/diario/elpais/1-268928-2015-03-25.html
p13
aVhttps://www.pagina12.com.ar/diario/elpais/1-268920-2015-03-25.html
p14
aVhttps://www.pagina12.com.ar/diario/elpais/1-268921-2015-03-25.html
p15
aVhttps://www.pagina12.com.ar/diario/elpais/1-268896-2015-03-25.html
p16
aVhttps://www.pagina12.com.ar/diario/elpais/1-268897-2015-03-25.html
p17
aVhttps://www.pagina12.com.ar/diario/elpais/1-268913-2015-03-25.html
p18
aVhttps://www.pagina12.com.ar/diario/elpais/1-268914-2015-03-25.html
p19
aVhttps://www.pagina12.com.ar/diario/elpais/1-268929-2015-03-25.html
p20
aVhttps://www.pagina12.com.ar/diario/elpais/1-268930-2015-03-25.html
p21
aVhttps://www.pagina12.com.ar/diario/elpais/1-268931-2015-03-25.html
p22
aVhttps://www.pagina12.com.ar/diario/elpais/1-268932-2015-03-25.html
p23
aVhttps://www.pagina12.com.ar/diario/elpais/1-268933-2015-03-25.html
p24
a.