(lp0
Vhttps://www.pagina12.com.ar/diario/sociedad/3-277340-2015-07-18.html
p1
aVhttps://www.pagina12.com.ar/diario/sociedad/3-277335-2015-07-18.html
p2
aVhttps://www.pagina12.com.ar/diario/sociedad/3-277341-2015-07-18.html
p3
aVhttps://www.pagina12.com.ar/diario/sociedad/3-277332-2015-07-18.html
p4
aVhttps://www.pagina12.com.ar/diario/sociedad/3-277336-2015-07-18.html
p5
aVhttps://www.pagina12.com.ar/diario/sociedad/3-277333-2015-07-18.html
p6
aVhttps://www.pagina12.com.ar/diario/sociedad/3-277334-2015-07-18.html
p7
aVhttps://www.pagina12.com.ar/diario/sociedad/3-277337-2015-07-18.html
p8
aVhttps://www.pagina12.com.ar/diario/sociedad/3-277338-2015-07-18.html
p9
aVhttps://www.pagina12.com.ar/diario/sociedad/3-277339-2015-07-18.html
p10
aVhttps://www.pagina12.com.ar/diario/sociedad/3-277342-2015-07-18.html
p11
aVhttps://www.pagina12.com.ar/diario/sociedad/3-277343-2015-07-18.html
p12
a.