(lp0
Vhttps://www.pagina12.com.ar/diario/elpais/1-276389-2015-07-04.html
p1
aVhttps://www.pagina12.com.ar/diario/elpais/1-276390-2015-07-04.html
p2
aVhttps://www.pagina12.com.ar/diario/elpais/1-276357-2015-07-04.html
p3
aVhttps://www.pagina12.com.ar/diario/elpais/1-276358-2015-07-04.html
p4
aVhttps://www.pagina12.com.ar/diario/elpais/1-276377-2015-07-04.html
p5
aVhttps://www.pagina12.com.ar/diario/elpais/1-276378-2015-07-04.html
p6
aVhttps://www.pagina12.com.ar/diario/elpais/1-276379-2015-07-04.html
p7
aVhttps://www.pagina12.com.ar/diario/elpais/1-276380-2015-07-04.html
p8
aVhttps://www.pagina12.com.ar/diario/elpais/1-276381-2015-07-04.html
p9
aVhttps://www.pagina12.com.ar/diario/elpais/1-276382-2015-07-04.html
p10
aVhttps://www.pagina12.com.ar/diario/elpais/1-276354-2015-07-04.html
p11
aVhttps://www.pagina12.com.ar/diario/elpais/1-276356-2015-07-04.html
p12
aVhttps://www.pagina12.com.ar/diario/elpais/1-276355-2015-07-04.html
p13
a.