(lp0
Vhttps://www.pagina12.com.ar/diario/elpais/1-278100-2015-07-28.html
p1
aVhttps://www.pagina12.com.ar/diario/elpais/1-278101-2015-07-28.html
p2
aVhttps://www.pagina12.com.ar/diario/elpais/1-278102-2015-07-28.html
p3
aVhttps://www.pagina12.com.ar/diario/elpais/1-278097-2015-07-28.html
p4
aVhttps://www.pagina12.com.ar/diario/elpais/1-278098-2015-07-28.html
p5
aVhttps://www.pagina12.com.ar/diario/elpais/1-278099-2015-07-28.html
p6
aVhttps://www.pagina12.com.ar/diario/elpais/1-278090-2015-07-28.html
p7
aVhttps://www.pagina12.com.ar/diario/elpais/1-278091-2015-07-28.html
p8
aVhttps://www.pagina12.com.ar/diario/elpais/1-278092-2015-07-28.html
p9
aVhttps://www.pagina12.com.ar/diario/elpais/1-278093-2015-07-28.html
p10
aVhttps://www.pagina12.com.ar/diario/elpais/1-278094-2015-07-28.html
p11
aVhttps://www.pagina12.com.ar/diario/elpais/1-278095-2015-07-28.html
p12
aVhttps://www.pagina12.com.ar/diario/elpais/1-278096-2015-07-28.html
p13
aVhttps://www.pagina12.com.ar/diario/elpais/1-278087-2015-07-28.html
p14
aVhttps://www.pagina12.com.ar/diario/elpais/1-278088-2015-07-28.html
p15
aVhttps://www.pagina12.com.ar/diario/elpais/1-278089-2015-07-28.html
p16
aVhttps://www.pagina12.com.ar/diario/elpais/1-278085-2015-07-28.html
p17
aVhttps://www.pagina12.com.ar/diario/elpais/1-278086-2015-07-28.html
p18
aVhttps://www.pagina12.com.ar/diario/elpais/1-278082-2015-07-28.html
p19
aVhttps://www.pagina12.com.ar/diario/elpais/1-278083-2015-07-28.html
p20
aVhttps://www.pagina12.com.ar/diario/elpais/1-278084-2015-07-28.html
p21
a.