(lp0
Vhttps://www.pagina12.com.ar/diario/sociedad/3-269892-2015-04-07.html
p1
aVhttps://www.pagina12.com.ar/diario/sociedad/3-269893-2015-04-07.html
p2
aVhttps://www.pagina12.com.ar/diario/sociedad/3-269894-2015-04-07.html
p3
aVhttps://www.pagina12.com.ar/diario/sociedad/3-269890-2015-04-07.html
p4
aVhttps://www.pagina12.com.ar/diario/sociedad/3-269891-2015-04-07.html
p5
aVhttps://www.pagina12.com.ar/diario/sociedad/3-269883-2015-04-07.html
p6
aVhttps://www.pagina12.com.ar/diario/sociedad/3-269884-2015-04-07.html
p7
aVhttps://www.pagina12.com.ar/diario/sociedad/3-269885-2015-04-07.html
p8
aVhttps://www.pagina12.com.ar/diario/sociedad/3-269886-2015-04-07.html
p9
aVhttps://www.pagina12.com.ar/diario/sociedad/3-269887-2015-04-07.html
p10
aVhttps://www.pagina12.com.ar/diario/sociedad/3-269888-2015-04-07.html
p11
aVhttps://www.pagina12.com.ar/diario/sociedad/3-269889-2015-04-07.html
p12
aVhttps://www.pagina12.com.ar/diario/sociedad/3-269879-2015-04-07.html
p13
aVhttps://www.pagina12.com.ar/diario/sociedad/3-269881-2015-04-07.html
p14
aVhttps://www.pagina12.com.ar/diario/sociedad/3-269880-2015-04-07.html
p15
aVhttps://www.pagina12.com.ar/diario/sociedad/3-269882-2015-04-07.html
p16
a.