(lp0
Vhttps://www.pagina12.com.ar/diario/elpais/1-274275-2015-06-05.html
p1
aVhttps://www.pagina12.com.ar/diario/elpais/1-274276-2015-06-05.html
p2
aVhttps://www.pagina12.com.ar/diario/elpais/1-274268-2015-06-05.html
p3
aVhttps://www.pagina12.com.ar/diario/elpais/1-274269-2015-06-05.html
p4
aVhttps://www.pagina12.com.ar/diario/elpais/1-274279-2015-06-05.html
p5
aVhttps://www.pagina12.com.ar/diario/elpais/1-274272-2015-06-05.html
p6
aVhttps://www.pagina12.com.ar/diario/elpais/1-274280-2015-06-05.html
p7
aVhttps://www.pagina12.com.ar/diario/elpais/1-274273-2015-06-05.html
p8
aVhttps://www.pagina12.com.ar/diario/elpais/1-274274-2015-06-05.html
p9
aVhttps://www.pagina12.com.ar/diario/elpais/1-274277-2015-06-05.html
p10
aVhttps://www.pagina12.com.ar/diario/elpais/1-274278-2015-06-05.html
p11
aVhttps://www.pagina12.com.ar/diario/elpais/1-274251-2015-06-05.html
p12
aVhttps://www.pagina12.com.ar/diario/elpais/1-274243-2015-06-05.html
p13
aVhttps://www.pagina12.com.ar/diario/elpais/1-274253-2015-06-05.html
p14
aVhttps://www.pagina12.com.ar/diario/elpais/1-274265-2015-06-05.html
p15
aVhttps://www.pagina12.com.ar/diario/elpais/1-274266-2015-06-05.html
p16
aVhttps://www.pagina12.com.ar/diario/elpais/1-274257-2015-06-05.html
p17
aVhttps://www.pagina12.com.ar/diario/elpais/1-274270-2015-06-05.html
p18
aVhttps://www.pagina12.com.ar/diario/elpais/1-274258-2015-06-05.html
p19
aVhttps://www.pagina12.com.ar/diario/elpais/1-274271-2015-06-05.html
p20
aVhttps://www.pagina12.com.ar/diario/elpais/1-274267-2015-06-05.html
p21
aVhttps://www.pagina12.com.ar/diario/elpais/1-274252-2015-06-05.html
p22
aVhttps://www.pagina12.com.ar/diario/elpais/1-274254-2015-06-05.html
p23
aVhttps://www.pagina12.com.ar/diario/elpais/1-274255-2015-06-05.html
p24
aVhttps://www.pagina12.com.ar/diario/elpais/1-274256-2015-06-05.html
p25
a.