(lp0
Vhttps://www.pagina12.com.ar/diario/economia/2-287137-2015-11-28.html
p1
aVhttps://www.pagina12.com.ar/diario/economia/2-287138-2015-11-28.html
p2
aVhttps://www.pagina12.com.ar/diario/economia/2-287139-2015-11-28.html
p3
aVhttps://www.pagina12.com.ar/diario/economia/2-287131-2015-11-28.html
p4
aVhttps://www.pagina12.com.ar/diario/economia/2-287132-2015-11-28.html
p5
aVhttps://www.pagina12.com.ar/diario/economia/2-287133-2015-11-28.html
p6
aVhttps://www.pagina12.com.ar/diario/economia/2-287134-2015-11-28.html
p7
aVhttps://www.pagina12.com.ar/diario/economia/2-287120-2015-11-28.html
p8
aVhttps://www.pagina12.com.ar/diario/economia/2-287121-2015-11-28.html
p9
aVhttps://www.pagina12.com.ar/diario/economia/2-287135-2015-11-28.html
p10
aVhttps://www.pagina12.com.ar/diario/economia/2-287136-2015-11-28.html
p11
a.