(lp0
Vhttps://www.pagina12.com.ar/diario/elpais/1-274193-2015-06-04.html
p1
aVhttps://www.pagina12.com.ar/diario/elpais/1-274194-2015-06-04.html
p2
aVhttps://www.pagina12.com.ar/diario/elpais/1-274195-2015-06-04.html
p3
aVhttps://www.pagina12.com.ar/diario/elpais/1-274191-2015-06-04.html
p4
aVhttps://www.pagina12.com.ar/diario/elpais/1-274192-2015-06-04.html
p5
aVhttps://www.pagina12.com.ar/diario/elpais/1-274189-2015-06-04.html
p6
aVhttps://www.pagina12.com.ar/diario/elpais/1-274190-2015-06-04.html
p7
aVhttps://www.pagina12.com.ar/diario/elpais/1-274188-2015-06-04.html
p8
aVhttps://www.pagina12.com.ar/diario/elpais/1-274186-2015-06-04.html
p9
aVhttps://www.pagina12.com.ar/diario/elpais/1-274187-2015-06-04.html
p10
aVhttps://www.pagina12.com.ar/diario/elpais/1-274185-2015-06-04.html
p11
aVhttps://www.pagina12.com.ar/diario/elpais/1-274183-2015-06-04.html
p12
aVhttps://www.pagina12.com.ar/diario/elpais/1-274184-2015-06-04.html
p13
aVhttps://www.pagina12.com.ar/diario/elpais/1-274178-2015-06-04.html
p14
aVhttps://www.pagina12.com.ar/diario/elpais/1-274179-2015-06-04.html
p15
aVhttps://www.pagina12.com.ar/diario/elpais/1-274176-2015-06-04.html
p16
aVhttps://www.pagina12.com.ar/diario/elpais/1-274177-2015-06-04.html
p17
aVhttps://www.pagina12.com.ar/diario/elpais/1-274166-2015-06-04.html
p18
aVhttps://www.pagina12.com.ar/diario/elpais/1-274167-2015-06-04.html
p19
aVhttps://www.pagina12.com.ar/diario/elpais/1-274161-2015-06-04.html
p20
aVhttps://www.pagina12.com.ar/diario/elpais/1-274163-2015-06-04.html
p21
aVhttps://www.pagina12.com.ar/diario/elpais/1-274180-2015-06-04.html
p22
aVhttps://www.pagina12.com.ar/diario/elpais/1-274181-2015-06-04.html
p23
aVhttps://www.pagina12.com.ar/diario/elpais/1-274182-2015-06-04.html
p24
a.