(lp0
Vhttps://www.pagina12.com.ar/diario/elpais/1-268239-2015-03-16.html
p1
aVhttps://www.pagina12.com.ar/diario/elpais/1-268212-2015-03-16.html
p2
aVhttps://www.pagina12.com.ar/diario/elpais/1-268219-2015-03-16.html
p3
aVhttps://www.pagina12.com.ar/diario/elpais/1-268230-2015-03-16.html
p4
aVhttps://www.pagina12.com.ar/diario/elpais/1-268231-2015-03-16.html
p5
aVhttps://www.pagina12.com.ar/diario/elpais/1-268238-2015-03-16.html
p6
aVhttps://www.pagina12.com.ar/diario/elpais/1-268211-2015-03-16.html
p7
a.