(lp0
Vhttps://www.pagina12.com.ar/diario/sociedad/3-265039-2015-01-30.html
p1
aVhttps://www.pagina12.com.ar/diario/sociedad/3-265076-2015-01-30.html
p2
aVhttps://www.pagina12.com.ar/diario/sociedad/3-265040-2015-01-30.html
p3
aVhttps://www.pagina12.com.ar/diario/sociedad/3-265059-2015-01-30.html
p4
aVhttps://www.pagina12.com.ar/diario/sociedad/3-265077-2015-01-30.html
p5
aVhttps://www.pagina12.com.ar/diario/sociedad/3-265060-2015-01-30.html
p6
aVhttps://www.pagina12.com.ar/diario/sociedad/3-265064-2015-01-30.html
p7
aVhttps://www.pagina12.com.ar/diario/sociedad/3-265065-2015-01-30.html
p8
aVhttps://www.pagina12.com.ar/diario/sociedad/3-265061-2015-01-30.html
p9
aVhttps://www.pagina12.com.ar/diario/sociedad/3-265062-2015-01-30.html
p10
aVhttps://www.pagina12.com.ar/diario/sociedad/3-265063-2015-01-30.html
p11
aVhttps://www.pagina12.com.ar/diario/sociedad/3-265078-2015-01-30.html
p12
aVhttps://www.pagina12.com.ar/diario/sociedad/3-265079-2015-01-30.html
p13
aVhttps://www.pagina12.com.ar/diario/sociedad/3-265080-2015-01-30.html
p14
aVhttps://www.pagina12.com.ar/diario/sociedad/3-265041-2015-01-30.html
p15
aVhttps://www.pagina12.com.ar/diario/sociedad/3-265042-2015-01-30.html
p16
aVhttps://www.pagina12.com.ar/diario/sociedad/3-265043-2015-01-30.html
p17
a.