(lp0
Vhttps://www.pagina12.com.ar/diario/elpais/1-285154-2015-11-01.html
p1
aVhttps://www.pagina12.com.ar/diario/elpais/1-285142-2015-11-01.html
p2
aVhttps://www.pagina12.com.ar/diario/elpais/1-285143-2015-11-01.html
p3
aVhttps://www.pagina12.com.ar/diario/elpais/1-285151-2015-11-01.html
p4
aVhttps://www.pagina12.com.ar/diario/elpais/1-285140-2015-11-01.html
p5
aVhttps://www.pagina12.com.ar/diario/elpais/1-285141-2015-11-01.html
p6
aVhttps://www.pagina12.com.ar/diario/elpais/1-285138-2015-11-01.html
p7
aVhttps://www.pagina12.com.ar/diario/elpais/1-285139-2015-11-01.html
p8
aVhttps://www.pagina12.com.ar/diario/elpais/1-285135-2015-11-01.html
p9
aVhttps://www.pagina12.com.ar/diario/elpais/1-285152-2015-11-01.html
p10
a.