(lp0
Vhttps://www.pagina12.com.ar/diario/elpais/1-278866-2015-08-07.html
p1
aVhttps://www.pagina12.com.ar/diario/elpais/1-278869-2015-08-07.html
p2
aVhttps://www.pagina12.com.ar/diario/elpais/1-278870-2015-08-07.html
p3
aVhttps://www.pagina12.com.ar/diario/elpais/1-278871-2015-08-07.html
p4
aVhttps://www.pagina12.com.ar/diario/elpais/1-278823-2015-08-07.html
p5
aVhttps://www.pagina12.com.ar/diario/elpais/1-278824-2015-08-07.html
p6
aVhttps://www.pagina12.com.ar/diario/elpais/1-278868-2015-08-07.html
p7
aVhttps://www.pagina12.com.ar/diario/elpais/1-278862-2015-08-07.html
p8
aVhttps://www.pagina12.com.ar/diario/elpais/1-278858-2015-08-07.html
p9
aVhttps://www.pagina12.com.ar/diario/elpais/1-278859-2015-08-07.html
p10
aVhttps://www.pagina12.com.ar/diario/elpais/1-278860-2015-08-07.html
p11
aVhttps://www.pagina12.com.ar/diario/elpais/1-278861-2015-08-07.html
p12
aVhttps://www.pagina12.com.ar/diario/elpais/1-278819-2015-08-07.html
p13
aVhttps://www.pagina12.com.ar/diario/elpais/1-278820-2015-08-07.html
p14
aVhttps://www.pagina12.com.ar/diario/elpais/1-278821-2015-08-07.html
p15
aVhttps://www.pagina12.com.ar/diario/elpais/1-278822-2015-08-07.html
p16
aVhttps://www.pagina12.com.ar/diario/elpais/1-278857-2015-08-07.html
p17
aVhttps://www.pagina12.com.ar/diario/elpais/1-278874-2015-08-07.html
p18
aVhttps://www.pagina12.com.ar/diario/elpais/1-278875-2015-08-07.html
p19
aVhttps://www.pagina12.com.ar/diario/elpais/1-278863-2015-08-07.html
p20
aVhttps://www.pagina12.com.ar/diario/elpais/1-278864-2015-08-07.html
p21
aVhttps://www.pagina12.com.ar/diario/elpais/1-278865-2015-08-07.html
p22
aVhttps://www.pagina12.com.ar/diario/elpais/1-278872-2015-08-07.html
p23
aVhttps://www.pagina12.com.ar/diario/elpais/1-278876-2015-08-07.html
p24
aVhttps://www.pagina12.com.ar/diario/elpais/1-278877-2015-08-07.html
p25
a.