(lp0
Vhttps://www.pagina12.com.ar/diario/sociedad/3-278060-2015-07-28.html
p1
aVhttps://www.pagina12.com.ar/diario/sociedad/3-278061-2015-07-28.html
p2
aVhttps://www.pagina12.com.ar/diario/sociedad/3-278062-2015-07-28.html
p3
aVhttps://www.pagina12.com.ar/diario/sociedad/3-278063-2015-07-28.html
p4
aVhttps://www.pagina12.com.ar/diario/sociedad/3-278057-2015-07-28.html
p5
aVhttps://www.pagina12.com.ar/diario/sociedad/3-278058-2015-07-28.html
p6
aVhttps://www.pagina12.com.ar/diario/sociedad/3-278059-2015-07-28.html
p7
aVhttps://www.pagina12.com.ar/diario/sociedad/3-278053-2015-07-28.html
p8
aVhttps://www.pagina12.com.ar/diario/sociedad/3-278054-2015-07-28.html
p9
aVhttps://www.pagina12.com.ar/diario/sociedad/3-278055-2015-07-28.html
p10
aVhttps://www.pagina12.com.ar/diario/sociedad/3-278056-2015-07-28.html
p11
aVhttps://www.pagina12.com.ar/diario/sociedad/3-278049-2015-07-28.html
p12
aVhttps://www.pagina12.com.ar/diario/sociedad/3-278050-2015-07-28.html
p13
aVhttps://www.pagina12.com.ar/diario/sociedad/3-278051-2015-07-28.html
p14
aVhttps://www.pagina12.com.ar/diario/sociedad/3-278052-2015-07-28.html
p15
aVhttps://www.pagina12.com.ar/diario/sociedad/3-278048-2015-07-28.html
p16
a.