(lp0
Vhttps://www.pagina12.com.ar/diario/sociedad/3-288514-2015-12-18.html
p1
aVhttps://www.pagina12.com.ar/diario/sociedad/3-288515-2015-12-18.html
p2
aVhttps://www.pagina12.com.ar/diario/sociedad/3-288516-2015-12-18.html
p3
aVhttps://www.pagina12.com.ar/diario/sociedad/3-288517-2015-12-18.html
p4
aVhttps://www.pagina12.com.ar/diario/sociedad/3-288511-2015-12-18.html
p5
aVhttps://www.pagina12.com.ar/diario/sociedad/3-288512-2015-12-18.html
p6
aVhttps://www.pagina12.com.ar/diario/sociedad/3-288513-2015-12-18.html
p7
a.