(lp0
Vhttps://www.pagina12.com.ar/diario/economia/2-265128-2015-01-31.html
p1
aVhttps://www.pagina12.com.ar/diario/economia/2-265129-2015-01-31.html
p2
aVhttps://www.pagina12.com.ar/diario/economia/2-265130-2015-01-31.html
p3
aVhttps://www.pagina12.com.ar/diario/economia/2-265132-2015-01-31.html
p4
aVhttps://www.pagina12.com.ar/diario/economia/2-265164-2015-01-31.html
p5
aVhttps://www.pagina12.com.ar/diario/economia/2-265165-2015-01-31.html
p6
aVhttps://www.pagina12.com.ar/diario/economia/2-265123-2015-01-31.html
p7
aVhttps://www.pagina12.com.ar/diario/economia/2-265124-2015-01-31.html
p8
aVhttps://www.pagina12.com.ar/diario/economia/2-265133-2015-01-31.html
p9
aVhttps://www.pagina12.com.ar/diario/economia/2-265125-2015-01-31.html
p10
aVhttps://www.pagina12.com.ar/diario/economia/2-265126-2015-01-31.html
p11
aVhttps://www.pagina12.com.ar/diario/economia/2-265127-2015-01-31.html
p12
aVhttps://www.pagina12.com.ar/diario/economia/2-265131-2015-01-31.html
p13
a.