(lp0
Vhttps://www.pagina12.com.ar/diario/elpais/1-282711-2015-09-29.html
p1
aVhttps://www.pagina12.com.ar/diario/elpais/1-282712-2015-09-29.html
p2
aVhttps://www.pagina12.com.ar/diario/elpais/1-282713-2015-09-29.html
p3
aVhttps://www.pagina12.com.ar/diario/elpais/1-282707-2015-09-29.html
p4
aVhttps://www.pagina12.com.ar/diario/elpais/1-282708-2015-09-29.html
p5
aVhttps://www.pagina12.com.ar/diario/elpais/1-282709-2015-09-29.html
p6
aVhttps://www.pagina12.com.ar/diario/elpais/1-282710-2015-09-29.html
p7
aVhttps://www.pagina12.com.ar/diario/elpais/1-282703-2015-09-29.html
p8
aVhttps://www.pagina12.com.ar/diario/elpais/1-282704-2015-09-29.html
p9
aVhttps://www.pagina12.com.ar/diario/elpais/1-282705-2015-09-29.html
p10
aVhttps://www.pagina12.com.ar/diario/elpais/1-282706-2015-09-29.html
p11
aVhttps://www.pagina12.com.ar/diario/elpais/1-282699-2015-09-29.html
p12
aVhttps://www.pagina12.com.ar/diario/elpais/1-282700-2015-09-29.html
p13
aVhttps://www.pagina12.com.ar/diario/elpais/1-282701-2015-09-29.html
p14
aVhttps://www.pagina12.com.ar/diario/elpais/1-282702-2015-09-29.html
p15
aVhttps://www.pagina12.com.ar/diario/elpais/1-282697-2015-09-29.html
p16
aVhttps://www.pagina12.com.ar/diario/elpais/1-282698-2015-09-29.html
p17
aVhttps://www.pagina12.com.ar/diario/elpais/1-282692-2015-09-29.html
p18
aVhttps://www.pagina12.com.ar/diario/elpais/1-282693-2015-09-29.html
p19
aVhttps://www.pagina12.com.ar/diario/elpais/1-282694-2015-09-29.html
p20
aVhttps://www.pagina12.com.ar/diario/elpais/1-282695-2015-09-29.html
p21
aVhttps://www.pagina12.com.ar/diario/elpais/1-282696-2015-09-29.html
p22
aVhttps://www.pagina12.com.ar/diario/elpais/1-282679-2015-09-29.html
p23
a.