(lp0
Vhttps://www.pagina12.com.ar/diario/sociedad/3-275504-2015-06-23.html
p1
aVhttps://www.pagina12.com.ar/diario/sociedad/3-275505-2015-06-23.html
p2
aVhttps://www.pagina12.com.ar/diario/sociedad/3-275502-2015-06-23.html
p3
aVhttps://www.pagina12.com.ar/diario/sociedad/3-275503-2015-06-23.html
p4
aVhttps://www.pagina12.com.ar/diario/sociedad/3-275500-2015-06-23.html
p5
aVhttps://www.pagina12.com.ar/diario/sociedad/3-275501-2015-06-23.html
p6
aVhttps://www.pagina12.com.ar/diario/sociedad/3-275494-2015-06-23.html
p7
aVhttps://www.pagina12.com.ar/diario/sociedad/3-275495-2015-06-23.html
p8
aVhttps://www.pagina12.com.ar/diario/sociedad/3-275496-2015-06-23.html
p9
aVhttps://www.pagina12.com.ar/diario/sociedad/3-275497-2015-06-23.html
p10
aVhttps://www.pagina12.com.ar/diario/sociedad/3-275489-2015-06-23.html
p11
aVhttps://www.pagina12.com.ar/diario/sociedad/3-275490-2015-06-23.html
p12
aVhttps://www.pagina12.com.ar/diario/sociedad/3-275488-2015-06-23.html
p13
aVhttps://www.pagina12.com.ar/diario/sociedad/3-275539-2015-06-23.html
p14
aVhttps://www.pagina12.com.ar/diario/sociedad/3-275491-2015-06-23.html
p15
aVhttps://www.pagina12.com.ar/diario/sociedad/3-275492-2015-06-23.html
p16
aVhttps://www.pagina12.com.ar/diario/sociedad/3-275493-2015-06-23.html
p17
aVhttps://www.pagina12.com.ar/diario/sociedad/3-275498-2015-06-23.html
p18
aVhttps://www.pagina12.com.ar/diario/sociedad/3-275499-2015-06-23.html
p19
aVhttps://www.pagina12.com.ar/diario/sociedad/3-275506-2015-06-23.html
p20
aVhttps://www.pagina12.com.ar/diario/sociedad/3-275507-2015-06-23.html
p21
a.