(lp0
Vhttps://www.pagina12.com.ar/diario/elpais/1-281948-2015-09-18.html
p1
aVhttps://www.pagina12.com.ar/diario/elpais/1-281949-2015-09-18.html
p2
aVhttps://www.pagina12.com.ar/diario/elpais/1-281926-2015-09-18.html
p3
aVhttps://www.pagina12.com.ar/diario/elpais/1-281927-2015-09-18.html
p4
aVhttps://www.pagina12.com.ar/diario/elpais/1-281928-2015-09-18.html
p5
aVhttps://www.pagina12.com.ar/diario/elpais/1-281947-2015-09-18.html
p6
aVhttps://www.pagina12.com.ar/diario/elpais/1-281943-2015-09-18.html
p7
aVhttps://www.pagina12.com.ar/diario/elpais/1-281944-2015-09-18.html
p8
aVhttps://www.pagina12.com.ar/diario/elpais/1-281945-2015-09-18.html
p9
aVhttps://www.pagina12.com.ar/diario/elpais/1-281942-2015-09-18.html
p10
aVhttps://www.pagina12.com.ar/diario/elpais/1-281921-2015-09-18.html
p11
aVhttps://www.pagina12.com.ar/diario/elpais/1-281941-2015-09-18.html
p12
aVhttps://www.pagina12.com.ar/diario/elpais/1-281938-2015-09-18.html
p13
aVhttps://www.pagina12.com.ar/diario/elpais/1-281939-2015-09-18.html
p14
aVhttps://www.pagina12.com.ar/diario/elpais/1-281937-2015-09-18.html
p15
aVhttps://www.pagina12.com.ar/diario/elpais/1-281922-2015-09-18.html
p16
aVhttps://www.pagina12.com.ar/diario/elpais/1-281923-2015-09-18.html
p17
aVhttps://www.pagina12.com.ar/diario/elpais/1-281924-2015-09-18.html
p18
aVhttps://www.pagina12.com.ar/diario/elpais/1-281925-2015-09-18.html
p19
aVhttps://www.pagina12.com.ar/diario/elpais/1-281932-2015-09-18.html
p20
aVhttps://www.pagina12.com.ar/diario/elpais/1-281940-2015-09-18.html
p21
aVhttps://www.pagina12.com.ar/diario/elpais/1-281946-2015-09-18.html
p22
a.