(lp0
Vhttps://www.pagina12.com.ar/diario/sociedad/3-269991-2015-04-08.html
p1
aVhttps://www.pagina12.com.ar/diario/sociedad/3-269992-2015-04-08.html
p2
aVhttps://www.pagina12.com.ar/diario/sociedad/3-269996-2015-04-08.html
p3
aVhttps://www.pagina12.com.ar/diario/sociedad/3-269997-2015-04-08.html
p4
aVhttps://www.pagina12.com.ar/diario/sociedad/3-269990-2015-04-08.html
p5
aVhttps://www.pagina12.com.ar/diario/sociedad/3-269993-2015-04-08.html
p6
aVhttps://www.pagina12.com.ar/diario/sociedad/3-269994-2015-04-08.html
p7
aVhttps://www.pagina12.com.ar/diario/sociedad/3-269995-2015-04-08.html
p8
aVhttps://www.pagina12.com.ar/diario/sociedad/3-269998-2015-04-08.html
p9
aVhttps://www.pagina12.com.ar/diario/sociedad/3-269999-2015-04-08.html
p10
aVhttps://www.pagina12.com.ar/diario/sociedad/3-270000-2015-04-08.html
p11
a.