(lp0
Vhttps://www.pagina12.com.ar/diario/economia/2-269109-2015-03-27.html
p1
aVhttps://www.pagina12.com.ar/diario/economia/2-269104-2015-03-27.html
p2
aVhttps://www.pagina12.com.ar/diario/economia/2-269110-2015-03-27.html
p3
aVhttps://www.pagina12.com.ar/diario/economia/2-269089-2015-03-27.html
p4
aVhttps://www.pagina12.com.ar/diario/economia/2-269084-2015-03-27.html
p5
aVhttps://www.pagina12.com.ar/diario/economia/2-269090-2015-03-27.html
p6
aVhttps://www.pagina12.com.ar/diario/economia/2-269081-2015-03-27.html
p7
aVhttps://www.pagina12.com.ar/diario/economia/2-269085-2015-03-27.html
p8
aVhttps://www.pagina12.com.ar/diario/economia/2-269082-2015-03-27.html
p9
aVhttps://www.pagina12.com.ar/diario/economia/2-269083-2015-03-27.html
p10
aVhttps://www.pagina12.com.ar/diario/economia/2-269086-2015-03-27.html
p11
aVhttps://www.pagina12.com.ar/diario/economia/2-269087-2015-03-27.html
p12
aVhttps://www.pagina12.com.ar/diario/economia/2-269088-2015-03-27.html
p13
aVhttps://www.pagina12.com.ar/diario/economia/2-269105-2015-03-27.html
p14
aVhttps://www.pagina12.com.ar/diario/economia/2-269106-2015-03-27.html
p15
aVhttps://www.pagina12.com.ar/diario/economia/2-269107-2015-03-27.html
p16
a.