(lp0
Vhttps://www.pagina12.com.ar/diario/sociedad/3-282170-2015-09-22.html
p1
aVhttps://www.pagina12.com.ar/diario/sociedad/3-282171-2015-09-22.html
p2
aVhttps://www.pagina12.com.ar/diario/sociedad/3-282172-2015-09-22.html
p3
aVhttps://www.pagina12.com.ar/diario/sociedad/3-282173-2015-09-22.html
p4
aVhttps://www.pagina12.com.ar/diario/sociedad/3-282174-2015-09-22.html
p5
aVhttps://www.pagina12.com.ar/diario/sociedad/3-282175-2015-09-22.html
p6
aVhttps://www.pagina12.com.ar/diario/sociedad/3-282165-2015-09-22.html
p7
aVhttps://www.pagina12.com.ar/diario/sociedad/3-282166-2015-09-22.html
p8
aVhttps://www.pagina12.com.ar/diario/sociedad/3-282167-2015-09-22.html
p9
aVhttps://www.pagina12.com.ar/diario/sociedad/3-282168-2015-09-22.html
p10
aVhttps://www.pagina12.com.ar/diario/sociedad/3-282169-2015-09-22.html
p11
aVhttps://www.pagina12.com.ar/diario/sociedad/3-282161-2015-09-22.html
p12
aVhttps://www.pagina12.com.ar/diario/sociedad/3-282162-2015-09-22.html
p13
aVhttps://www.pagina12.com.ar/diario/sociedad/3-282163-2015-09-22.html
p14
aVhttps://www.pagina12.com.ar/diario/sociedad/3-282164-2015-09-22.html
p15
aVhttps://www.pagina12.com.ar/diario/sociedad/3-282151-2015-09-22.html
p16
aVhttps://www.pagina12.com.ar/diario/sociedad/3-282152-2015-09-22.html
p17
aVhttps://www.pagina12.com.ar/diario/sociedad/3-282153-2015-09-22.html
p18
aVhttps://www.pagina12.com.ar/diario/sociedad/3-282154-2015-09-22.html
p19
aVhttps://www.pagina12.com.ar/diario/sociedad/3-282155-2015-09-22.html
p20
a.