(lp0
Vhttps://www.pagina12.com.ar/diario/economia/2-282343-2015-09-24.html
p1
aVhttps://www.pagina12.com.ar/diario/economia/2-282344-2015-09-24.html
p2
aVhttps://www.pagina12.com.ar/diario/economia/2-282345-2015-09-24.html
p3
aVhttps://www.pagina12.com.ar/diario/economia/2-282346-2015-09-24.html
p4
aVhttps://www.pagina12.com.ar/diario/economia/2-282347-2015-09-24.html
p5
aVhttps://www.pagina12.com.ar/diario/economia/2-282356-2015-09-24.html
p6
a.