(lp0
Vhttps://www.pagina12.com.ar/diario/economia/2-286795-2015-11-24.html
p1
aVhttps://www.pagina12.com.ar/diario/economia/2-286796-2015-11-24.html
p2
aVhttps://www.pagina12.com.ar/diario/economia/2-286797-2015-11-24.html
p3
aVhttps://www.pagina12.com.ar/diario/economia/2-286790-2015-11-24.html
p4
aVhttps://www.pagina12.com.ar/diario/economia/2-286791-2015-11-24.html
p5
aVhttps://www.pagina12.com.ar/diario/economia/2-286792-2015-11-24.html
p6
aVhttps://www.pagina12.com.ar/diario/economia/2-286793-2015-11-24.html
p7
aVhttps://www.pagina12.com.ar/diario/economia/2-286794-2015-11-24.html
p8
aVhttps://www.pagina12.com.ar/diario/economia/2-286786-2015-11-24.html
p9
aVhttps://www.pagina12.com.ar/diario/economia/2-286787-2015-11-24.html
p10
aVhttps://www.pagina12.com.ar/diario/economia/2-286788-2015-11-24.html
p11
aVhttps://www.pagina12.com.ar/diario/economia/2-286789-2015-11-24.html
p12
a.