(lp0
Vhttps://www.pagina12.com.ar/diario/sociedad/3-264042-2015-01-16.html
p1
aVhttps://www.pagina12.com.ar/diario/sociedad/3-264037-2015-01-16.html
p2
aVhttps://www.pagina12.com.ar/diario/sociedad/3-264038-2015-01-16.html
p3
aVhttps://www.pagina12.com.ar/diario/sociedad/3-264018-2015-01-16.html
p4
aVhttps://www.pagina12.com.ar/diario/sociedad/3-264019-2015-01-16.html
p5
aVhttps://www.pagina12.com.ar/diario/sociedad/3-264032-2015-01-16.html
p6
aVhttps://www.pagina12.com.ar/diario/sociedad/3-264033-2015-01-16.html
p7
aVhttps://www.pagina12.com.ar/diario/sociedad/3-264034-2015-01-16.html
p8
aVhttps://www.pagina12.com.ar/diario/sociedad/3-264035-2015-01-16.html
p9
aVhttps://www.pagina12.com.ar/diario/sociedad/3-264036-2015-01-16.html
p10
aVhttps://www.pagina12.com.ar/diario/sociedad/3-264039-2015-01-16.html
p11
aVhttps://www.pagina12.com.ar/diario/sociedad/3-264040-2015-01-16.html
p12
aVhttps://www.pagina12.com.ar/diario/sociedad/3-264041-2015-01-16.html
p13
aVhttps://www.pagina12.com.ar/diario/sociedad/3-264043-2015-01-16.html
p14
aVhttps://www.pagina12.com.ar/diario/sociedad/3-264044-2015-01-16.html
p15
aVhttps://www.pagina12.com.ar/diario/sociedad/3-264045-2015-01-16.html
p16
aVhttps://www.pagina12.com.ar/diario/sociedad/3-264020-2015-01-16.html
p17
aVhttps://www.pagina12.com.ar/diario/sociedad/3-264021-2015-01-16.html
p18
aVhttps://www.pagina12.com.ar/diario/sociedad/3-264022-2015-01-16.html
p19
a.