(lp0
Vhttps://www.pagina12.com.ar/diario/elpais/1-289083-2015-12-27.html
p1
aVhttps://www.pagina12.com.ar/diario/elpais/1-289086-2015-12-27.html
p2
aVhttps://www.pagina12.com.ar/diario/elpais/1-289087-2015-12-27.html
p3
aVhttps://www.pagina12.com.ar/diario/elpais/1-289081-2015-12-27.html
p4
aVhttps://www.pagina12.com.ar/diario/elpais/1-289082-2015-12-27.html
p5
aVhttps://www.pagina12.com.ar/diario/elpais/1-289092-2015-12-27.html
p6
aVhttps://www.pagina12.com.ar/diario/elpais/1-289079-2015-12-27.html
p7
aVhttps://www.pagina12.com.ar/diario/elpais/1-289080-2015-12-27.html
p8
aVhttps://www.pagina12.com.ar/diario/elpais/1-289091-2015-12-27.html
p9
aVhttps://www.pagina12.com.ar/diario/elpais/1-289090-2015-12-27.html
p10
aVhttps://www.pagina12.com.ar/diario/elpais/1-289099-2015-12-27.html
p11
aVhttps://www.pagina12.com.ar/diario/elpais/1-289100-2015-12-27.html
p12
aVhttps://www.pagina12.com.ar/diario/elpais/1-289101-2015-12-27.html
p13
a.