(lp0
Vhttps://www.pagina12.com.ar/diario/elpais/1-278268-2015-07-30.html
p1
aVhttps://www.pagina12.com.ar/diario/elpais/1-278273-2015-07-30.html
p2
aVhttps://www.pagina12.com.ar/diario/elpais/1-278274-2015-07-30.html
p3
aVhttps://www.pagina12.com.ar/diario/elpais/1-278269-2015-07-30.html
p4
aVhttps://www.pagina12.com.ar/diario/elpais/1-278270-2015-07-30.html
p5
aVhttps://www.pagina12.com.ar/diario/elpais/1-278271-2015-07-30.html
p6
aVhttps://www.pagina12.com.ar/diario/elpais/1-278272-2015-07-30.html
p7
aVhttps://www.pagina12.com.ar/diario/elpais/1-278262-2015-07-30.html
p8
aVhttps://www.pagina12.com.ar/diario/elpais/1-278263-2015-07-30.html
p9
aVhttps://www.pagina12.com.ar/diario/elpais/1-278235-2015-07-30.html
p10
aVhttps://www.pagina12.com.ar/diario/elpais/1-278236-2015-07-30.html
p11
aVhttps://www.pagina12.com.ar/diario/elpais/1-278229-2015-07-30.html
p12
aVhttps://www.pagina12.com.ar/diario/elpais/1-278230-2015-07-30.html
p13
aVhttps://www.pagina12.com.ar/diario/elpais/1-278231-2015-07-30.html
p14
aVhttps://www.pagina12.com.ar/diario/elpais/1-278226-2015-07-30.html
p15
aVhttps://www.pagina12.com.ar/diario/elpais/1-278227-2015-07-30.html
p16
aVhttps://www.pagina12.com.ar/diario/elpais/1-278228-2015-07-30.html
p17
aVhttps://www.pagina12.com.ar/diario/elpais/1-278232-2015-07-30.html
p18
aVhttps://www.pagina12.com.ar/diario/elpais/1-278233-2015-07-30.html
p19
aVhttps://www.pagina12.com.ar/diario/elpais/1-278234-2015-07-30.html
p20
aVhttps://www.pagina12.com.ar/diario/elpais/1-278237-2015-07-30.html
p21
aVhttps://www.pagina12.com.ar/diario/elpais/1-278238-2015-07-30.html
p22
aVhttps://www.pagina12.com.ar/diario/elpais/1-278239-2015-07-30.html
p23
a.