(lp0
Vhttps://www.pagina12.com.ar/diario/sociedad/3-287221-2015-11-30.html
p1
aVhttps://www.pagina12.com.ar/diario/sociedad/3-287232-2015-11-30.html
p2
aVhttps://www.pagina12.com.ar/diario/sociedad/3-287233-2015-11-30.html
p3
aVhttps://www.pagina12.com.ar/diario/sociedad/3-287222-2015-11-30.html
p4
aVhttps://www.pagina12.com.ar/diario/sociedad/3-287223-2015-11-30.html
p5
a.