(lp0
Vhttps://www.pagina12.com.ar/diario/sociedad/3-273817-2015-05-30.html
p1
aVhttps://www.pagina12.com.ar/diario/sociedad/3-273815-2015-05-30.html
p2
aVhttps://www.pagina12.com.ar/diario/sociedad/3-273816-2015-05-30.html
p3
aVhttps://www.pagina12.com.ar/diario/sociedad/3-273824-2015-05-30.html
p4
aVhttps://www.pagina12.com.ar/diario/sociedad/3-273827-2015-05-30.html
p5
aVhttps://www.pagina12.com.ar/diario/sociedad/3-273825-2015-05-30.html
p6
aVhttps://www.pagina12.com.ar/diario/sociedad/3-273826-2015-05-30.html
p7
aVhttps://www.pagina12.com.ar/diario/sociedad/3-273818-2015-05-30.html
p8
aVhttps://www.pagina12.com.ar/diario/sociedad/3-273819-2015-05-30.html
p9
a.