(lp0
Vhttps://www.pagina12.com.ar/diario/elpais/1-285994-2015-11-12.html
p1
aVhttps://www.pagina12.com.ar/diario/elpais/1-285995-2015-11-12.html
p2
aVhttps://www.pagina12.com.ar/diario/elpais/1-285989-2015-11-12.html
p3
aVhttps://www.pagina12.com.ar/diario/elpais/1-285985-2015-11-12.html
p4
aVhttps://www.pagina12.com.ar/diario/elpais/1-285990-2015-11-12.html
p5
aVhttps://www.pagina12.com.ar/diario/elpais/1-285987-2015-11-12.html
p6
aVhttps://www.pagina12.com.ar/diario/elpais/1-285973-2015-11-12.html
p7
aVhttps://www.pagina12.com.ar/diario/elpais/1-285972-2015-11-12.html
p8
aVhttps://www.pagina12.com.ar/diario/elpais/1-285974-2015-11-12.html
p9
aVhttps://www.pagina12.com.ar/diario/elpais/1-285965-2015-11-12.html
p10
aVhttps://www.pagina12.com.ar/diario/elpais/1-285968-2015-11-12.html
p11
aVhttps://www.pagina12.com.ar/diario/elpais/1-285969-2015-11-12.html
p12
aVhttps://www.pagina12.com.ar/diario/elpais/1-285962-2015-11-12.html
p13
aVhttps://www.pagina12.com.ar/diario/elpais/1-285963-2015-11-12.html
p14
aVhttps://www.pagina12.com.ar/diario/elpais/1-285960-2015-11-12.html
p15
aVhttps://www.pagina12.com.ar/diario/elpais/1-285961-2015-11-12.html
p16
aVhttps://www.pagina12.com.ar/diario/elpais/1-285966-2015-11-12.html
p17
aVhttps://www.pagina12.com.ar/diario/elpais/1-285967-2015-11-12.html
p18
aVhttps://www.pagina12.com.ar/diario/elpais/1-285970-2015-11-12.html
p19
aVhttps://www.pagina12.com.ar/diario/elpais/1-285971-2015-11-12.html
p20
aVhttps://www.pagina12.com.ar/diario/elpais/1-285986-2015-11-12.html
p21
aVhttps://www.pagina12.com.ar/diario/elpais/1-285988-2015-11-12.html
p22
aVhttps://www.pagina12.com.ar/diario/elpais/1-285991-2015-11-12.html
p23
aVhttps://www.pagina12.com.ar/diario/elpais/1-285992-2015-11-12.html
p24
aVhttps://www.pagina12.com.ar/diario/elpais/1-285993-2015-11-12.html
p25
a.