(lp0
Vhttps://www.pagina12.com.ar/diario/elpais/1-274025-2015-06-02.html
p1
aVhttps://www.pagina12.com.ar/diario/elpais/1-274026-2015-06-02.html
p2
aVhttps://www.pagina12.com.ar/diario/elpais/1-274027-2015-06-02.html
p3
aVhttps://www.pagina12.com.ar/diario/elpais/1-274020-2015-06-02.html
p4
aVhttps://www.pagina12.com.ar/diario/elpais/1-274021-2015-06-02.html
p5
aVhttps://www.pagina12.com.ar/diario/elpais/1-274022-2015-06-02.html
p6
aVhttps://www.pagina12.com.ar/diario/elpais/1-274023-2015-06-02.html
p7
aVhttps://www.pagina12.com.ar/diario/elpais/1-274024-2015-06-02.html
p8
aVhttps://www.pagina12.com.ar/diario/elpais/1-274015-2015-06-02.html
p9
aVhttps://www.pagina12.com.ar/diario/elpais/1-274016-2015-06-02.html
p10
aVhttps://www.pagina12.com.ar/diario/elpais/1-274017-2015-06-02.html
p11
aVhttps://www.pagina12.com.ar/diario/elpais/1-274018-2015-06-02.html
p12
aVhttps://www.pagina12.com.ar/diario/elpais/1-274019-2015-06-02.html
p13
aVhttps://www.pagina12.com.ar/diario/elpais/1-274011-2015-06-02.html
p14
aVhttps://www.pagina12.com.ar/diario/elpais/1-274012-2015-06-02.html
p15
aVhttps://www.pagina12.com.ar/diario/elpais/1-274013-2015-06-02.html
p16
aVhttps://www.pagina12.com.ar/diario/elpais/1-274014-2015-06-02.html
p17
aVhttps://www.pagina12.com.ar/diario/elpais/1-274009-2015-06-02.html
p18
aVhttps://www.pagina12.com.ar/diario/elpais/1-274010-2015-06-02.html
p19
a.