(lp0
Vhttps://www.pagina12.com.ar/diario/elpais/1-285910-2015-11-11.html
p1
aVhttps://www.pagina12.com.ar/diario/elpais/1-285911-2015-11-11.html
p2
aVhttps://www.pagina12.com.ar/diario/elpais/1-285875-2015-11-11.html
p3
aVhttps://www.pagina12.com.ar/diario/elpais/1-285876-2015-11-11.html
p4
aVhttps://www.pagina12.com.ar/diario/elpais/1-285909-2015-11-11.html
p5
aVhttps://www.pagina12.com.ar/diario/elpais/1-285905-2015-11-11.html
p6
aVhttps://www.pagina12.com.ar/diario/elpais/1-285873-2015-11-11.html
p7
aVhttps://www.pagina12.com.ar/diario/elpais/1-285869-2015-11-11.html
p8
aVhttps://www.pagina12.com.ar/diario/elpais/1-285874-2015-11-11.html
p9
aVhttps://www.pagina12.com.ar/diario/elpais/1-285870-2015-11-11.html
p10
aVhttps://www.pagina12.com.ar/diario/elpais/1-285902-2015-11-11.html
p11
aVhttps://www.pagina12.com.ar/diario/elpais/1-285896-2015-11-11.html
p12
aVhttps://www.pagina12.com.ar/diario/elpais/1-285904-2015-11-11.html
p13
aVhttps://www.pagina12.com.ar/diario/elpais/1-285897-2015-11-11.html
p14
aVhttps://www.pagina12.com.ar/diario/elpais/1-285900-2015-11-11.html
p15
aVhttps://www.pagina12.com.ar/diario/elpais/1-285901-2015-11-11.html
p16
aVhttps://www.pagina12.com.ar/diario/elpais/1-285871-2015-11-11.html
p17
aVhttps://www.pagina12.com.ar/diario/elpais/1-285872-2015-11-11.html
p18
aVhttps://www.pagina12.com.ar/diario/elpais/1-285877-2015-11-11.html
p19
aVhttps://www.pagina12.com.ar/diario/elpais/1-285878-2015-11-11.html
p20
aVhttps://www.pagina12.com.ar/diario/elpais/1-285898-2015-11-11.html
p21
aVhttps://www.pagina12.com.ar/diario/elpais/1-285899-2015-11-11.html
p22
aVhttps://www.pagina12.com.ar/diario/elpais/1-285903-2015-11-11.html
p23
aVhttps://www.pagina12.com.ar/diario/elpais/1-285906-2015-11-11.html
p24
aVhttps://www.pagina12.com.ar/diario/elpais/1-285907-2015-11-11.html
p25
aVhttps://www.pagina12.com.ar/diario/elpais/1-285908-2015-11-11.html
p26
a.