(lp0
Vhttps://www.pagina12.com.ar/diario/sociedad/3-266379-2015-02-18.html
p1
aVhttps://www.pagina12.com.ar/diario/sociedad/3-266377-2015-02-18.html
p2
aVhttps://www.pagina12.com.ar/diario/sociedad/3-266378-2015-02-18.html
p3
aVhttps://www.pagina12.com.ar/diario/sociedad/3-266380-2015-02-18.html
p4
aVhttps://www.pagina12.com.ar/diario/sociedad/3-266381-2015-02-18.html
p5
aVhttps://www.pagina12.com.ar/diario/sociedad/3-266382-2015-02-18.html
p6
a.