(lp0
Vhttps://www.pagina12.com.ar/diario/sociedad/3-268599-2015-03-20.html
p1
aVhttps://www.pagina12.com.ar/diario/sociedad/3-268600-2015-03-20.html
p2
aVhttps://www.pagina12.com.ar/diario/sociedad/3-268535-2015-03-20.html
p3
aVhttps://www.pagina12.com.ar/diario/sociedad/3-268571-2015-03-20.html
p4
aVhttps://www.pagina12.com.ar/diario/sociedad/3-268536-2015-03-20.html
p5
aVhttps://www.pagina12.com.ar/diario/sociedad/3-268567-2015-03-20.html
p6
aVhttps://www.pagina12.com.ar/diario/sociedad/3-268572-2015-03-20.html
p7
aVhttps://www.pagina12.com.ar/diario/sociedad/3-268568-2015-03-20.html
p8
aVhttps://www.pagina12.com.ar/diario/sociedad/3-268578-2015-03-20.html
p9
aVhttps://www.pagina12.com.ar/diario/sociedad/3-268579-2015-03-20.html
p10
aVhttps://www.pagina12.com.ar/diario/sociedad/3-268583-2015-03-20.html
p11
aVhttps://www.pagina12.com.ar/diario/sociedad/3-268569-2015-03-20.html
p12
aVhttps://www.pagina12.com.ar/diario/sociedad/3-268570-2015-03-20.html
p13
aVhttps://www.pagina12.com.ar/diario/sociedad/3-268573-2015-03-20.html
p14
aVhttps://www.pagina12.com.ar/diario/sociedad/3-268574-2015-03-20.html
p15
aVhttps://www.pagina12.com.ar/diario/sociedad/3-268580-2015-03-20.html
p16
aVhttps://www.pagina12.com.ar/diario/sociedad/3-268581-2015-03-20.html
p17
aVhttps://www.pagina12.com.ar/diario/sociedad/3-268582-2015-03-20.html
p18
aVhttps://www.pagina12.com.ar/diario/sociedad/3-268537-2015-03-20.html
p19
aVhttps://www.pagina12.com.ar/diario/sociedad/3-268538-2015-03-20.html
p20
a.