(lp0
Vhttps://www.pagina12.com.ar/diario/elpais/1-264993-2015-01-29.html
p1
aVhttps://www.pagina12.com.ar/diario/elpais/1-264992-2015-01-29.html
p2
aVhttps://www.pagina12.com.ar/diario/elpais/1-264989-2015-01-29.html
p3
aVhttps://www.pagina12.com.ar/diario/elpais/1-264990-2015-01-29.html
p4
aVhttps://www.pagina12.com.ar/diario/elpais/1-264991-2015-01-29.html
p5
aVhttps://www.pagina12.com.ar/diario/elpais/1-264987-2015-01-29.html
p6
aVhttps://www.pagina12.com.ar/diario/elpais/1-264988-2015-01-29.html
p7
aVhttps://www.pagina12.com.ar/diario/elpais/1-264986-2015-01-29.html
p8
aVhttps://www.pagina12.com.ar/diario/elpais/1-264985-2015-01-29.html
p9
aVhttps://www.pagina12.com.ar/diario/elpais/1-264983-2015-01-29.html
p10
aVhttps://www.pagina12.com.ar/diario/elpais/1-264984-2015-01-29.html
p11
a.