(lp0
Vhttps://www.pagina12.com.ar/diario/elpais/1-287128-2015-11-28.html
p1
aVhttps://www.pagina12.com.ar/diario/elpais/1-287129-2015-11-28.html
p2
aVhttps://www.pagina12.com.ar/diario/elpais/1-287130-2015-11-28.html
p3
aVhttps://www.pagina12.com.ar/diario/elpais/1-287127-2015-11-28.html
p4
aVhttps://www.pagina12.com.ar/diario/elpais/1-287126-2015-11-28.html
p5
aVhttps://www.pagina12.com.ar/diario/elpais/1-287124-2015-11-28.html
p6
aVhttps://www.pagina12.com.ar/diario/elpais/1-287125-2015-11-28.html
p7
aVhttps://www.pagina12.com.ar/diario/elpais/1-287122-2015-11-28.html
p8
aVhttps://www.pagina12.com.ar/diario/elpais/1-287123-2015-11-28.html
p9
aVhttps://www.pagina12.com.ar/diario/elpais/1-287119-2015-11-28.html
p10
a.