(lp0
Vhttps://www.pagina12.com.ar/diario/sociedad/3-281040-2015-09-06.html
p1
aVhttps://www.pagina12.com.ar/diario/sociedad/3-281041-2015-09-06.html
p2
aVhttps://www.pagina12.com.ar/diario/sociedad/3-281028-2015-09-06.html
p3
aVhttps://www.pagina12.com.ar/diario/sociedad/3-281039-2015-09-06.html
p4
a.