(lp0
Vhttps://www.pagina12.com.ar/diario/sociedad/3-280561-2015-08-31.html
p1
aVhttps://www.pagina12.com.ar/diario/sociedad/3-280562-2015-08-31.html
p2
aVhttps://www.pagina12.com.ar/diario/sociedad/3-280549-2015-08-31.html
p3
aVhttps://www.pagina12.com.ar/diario/sociedad/3-280550-2015-08-31.html
p4
aVhttps://www.pagina12.com.ar/diario/sociedad/3-280559-2015-08-31.html
p5
aVhttps://www.pagina12.com.ar/diario/sociedad/3-280555-2015-08-31.html
p6
aVhttps://www.pagina12.com.ar/diario/sociedad/3-280542-2015-08-31.html
p7
aVhttps://www.pagina12.com.ar/diario/sociedad/3-280544-2015-08-31.html
p8
aVhttps://www.pagina12.com.ar/diario/sociedad/3-280560-2015-08-31.html
p9
aVhttps://www.pagina12.com.ar/diario/sociedad/3-280563-2015-08-31.html
p10
aVhttps://www.pagina12.com.ar/diario/sociedad/3-280564-2015-08-31.html
p11
aVhttps://www.pagina12.com.ar/diario/sociedad/3-280565-2015-08-31.html
p12
aVhttps://www.pagina12.com.ar/diario/sociedad/3-280543-2015-08-31.html
p13
aVhttps://www.pagina12.com.ar/diario/sociedad/3-280551-2015-08-31.html
p14
aVhttps://www.pagina12.com.ar/diario/sociedad/3-280552-2015-08-31.html
p15
aVhttps://www.pagina12.com.ar/diario/sociedad/3-280553-2015-08-31.html
p16
aVhttps://www.pagina12.com.ar/diario/sociedad/3-280556-2015-08-31.html
p17
aVhttps://www.pagina12.com.ar/diario/sociedad/3-280557-2015-08-31.html
p18
aVhttps://www.pagina12.com.ar/diario/sociedad/3-280558-2015-08-31.html
p19
a.