(lp0
Vhttps://www.pagina12.com.ar/diario/elpais/1-285382-2015-11-04.html
p1
aVhttps://www.pagina12.com.ar/diario/elpais/1-285384-2015-11-04.html
p2
aVhttps://www.pagina12.com.ar/diario/elpais/1-285385-2015-11-04.html
p3
aVhttps://www.pagina12.com.ar/diario/elpais/1-285365-2015-11-04.html
p4
aVhttps://www.pagina12.com.ar/diario/elpais/1-285367-2015-11-04.html
p5
aVhttps://www.pagina12.com.ar/diario/elpais/1-285376-2015-11-04.html
p6
aVhttps://www.pagina12.com.ar/diario/elpais/1-285366-2015-11-04.html
p7
aVhttps://www.pagina12.com.ar/diario/elpais/1-285370-2015-11-04.html
p8
aVhttps://www.pagina12.com.ar/diario/elpais/1-285364-2015-11-04.html
p9
aVhttps://www.pagina12.com.ar/diario/elpais/1-285393-2015-11-04.html
p10
aVhttps://www.pagina12.com.ar/diario/elpais/1-285394-2015-11-04.html
p11
aVhttps://www.pagina12.com.ar/diario/elpais/1-285387-2015-11-04.html
p12
aVhttps://www.pagina12.com.ar/diario/elpais/1-285391-2015-11-04.html
p13
aVhttps://www.pagina12.com.ar/diario/elpais/1-285392-2015-11-04.html
p14
aVhttps://www.pagina12.com.ar/diario/elpais/1-285388-2015-11-04.html
p15
aVhttps://www.pagina12.com.ar/diario/elpais/1-285389-2015-11-04.html
p16
aVhttps://www.pagina12.com.ar/diario/elpais/1-285368-2015-11-04.html
p17
aVhttps://www.pagina12.com.ar/diario/elpais/1-285369-2015-11-04.html
p18
aVhttps://www.pagina12.com.ar/diario/elpais/1-285371-2015-11-04.html
p19
aVhttps://www.pagina12.com.ar/diario/elpais/1-285377-2015-11-04.html
p20
a.