(lp0
Vhttps://www.pagina12.com.ar/diario/economia/2-275024-2015-06-16.html
p1
aVhttps://www.pagina12.com.ar/diario/economia/2-275025-2015-06-16.html
p2
aVhttps://www.pagina12.com.ar/diario/economia/2-275026-2015-06-16.html
p3
aVhttps://www.pagina12.com.ar/diario/economia/2-275027-2015-06-16.html
p4
aVhttps://www.pagina12.com.ar/diario/economia/2-274999-2015-06-16.html
p5
aVhttps://www.pagina12.com.ar/diario/economia/2-275001-2015-06-16.html
p6
aVhttps://www.pagina12.com.ar/diario/economia/2-275000-2015-06-16.html
p7
aVhttps://www.pagina12.com.ar/diario/economia/2-274997-2015-06-16.html
p8
aVhttps://www.pagina12.com.ar/diario/economia/2-274998-2015-06-16.html
p9
a.