(lp0
Vhttps://www.pagina12.com.ar/diario/sociedad/3-271048-2015-04-22.html
p1
aVhttps://www.pagina12.com.ar/diario/sociedad/3-271049-2015-04-22.html
p2
aVhttps://www.pagina12.com.ar/diario/sociedad/3-271061-2015-04-22.html
p3
aVhttps://www.pagina12.com.ar/diario/sociedad/3-271062-2015-04-22.html
p4
aVhttps://www.pagina12.com.ar/diario/sociedad/3-271055-2015-04-22.html
p5
aVhttps://www.pagina12.com.ar/diario/sociedad/3-271056-2015-04-22.html
p6
aVhttps://www.pagina12.com.ar/diario/sociedad/3-271057-2015-04-22.html
p7
aVhttps://www.pagina12.com.ar/diario/sociedad/3-271094-2015-04-22.html
p8
aVhttps://www.pagina12.com.ar/diario/sociedad/3-271050-2015-04-22.html
p9
aVhttps://www.pagina12.com.ar/diario/sociedad/3-271051-2015-04-22.html
p10
aVhttps://www.pagina12.com.ar/diario/sociedad/3-271052-2015-04-22.html
p11
aVhttps://www.pagina12.com.ar/diario/sociedad/3-271058-2015-04-22.html
p12
aVhttps://www.pagina12.com.ar/diario/sociedad/3-271059-2015-04-22.html
p13
aVhttps://www.pagina12.com.ar/diario/sociedad/3-271060-2015-04-22.html
p14
aVhttps://www.pagina12.com.ar/diario/sociedad/3-271063-2015-04-22.html
p15
aVhttps://www.pagina12.com.ar/diario/sociedad/3-271064-2015-04-22.html
p16
aVhttps://www.pagina12.com.ar/diario/sociedad/3-271065-2015-04-22.html
p17
a.