(lp0
Vhttps://www.pagina12.com.ar/diario/economia/2-263394-2015-01-07.html
p1
aVhttps://www.pagina12.com.ar/diario/economia/2-263396-2015-01-07.html
p2
aVhttps://www.pagina12.com.ar/diario/economia/2-263402-2015-01-07.html
p3
aVhttps://www.pagina12.com.ar/diario/economia/2-263403-2015-01-07.html
p4
aVhttps://www.pagina12.com.ar/diario/economia/2-263406-2015-01-07.html
p5
aVhttps://www.pagina12.com.ar/diario/economia/2-263404-2015-01-07.html
p6
aVhttps://www.pagina12.com.ar/diario/economia/2-263405-2015-01-07.html
p7
aVhttps://www.pagina12.com.ar/diario/economia/2-263410-2015-01-07.html
p8
aVhttps://www.pagina12.com.ar/diario/economia/2-263398-2015-01-07.html
p9
aVhttps://www.pagina12.com.ar/diario/economia/2-263399-2015-01-07.html
p10
aVhttps://www.pagina12.com.ar/diario/economia/2-263401-2015-01-07.html
p11
aVhttps://www.pagina12.com.ar/diario/economia/2-263407-2015-01-07.html
p12
aVhttps://www.pagina12.com.ar/diario/economia/2-263408-2015-01-07.html
p13
aVhttps://www.pagina12.com.ar/diario/economia/2-263411-2015-01-07.html
p14
a.