(lp0
Vhttps://www.pagina12.com.ar/diario/sociedad/3-277862-2015-07-25.html
p1
aVhttps://www.pagina12.com.ar/diario/sociedad/3-277860-2015-07-25.html
p2
aVhttps://www.pagina12.com.ar/diario/sociedad/3-277863-2015-07-25.html
p3
aVhttps://www.pagina12.com.ar/diario/sociedad/3-277855-2015-07-25.html
p4
aVhttps://www.pagina12.com.ar/diario/sociedad/3-277861-2015-07-25.html
p5
aVhttps://www.pagina12.com.ar/diario/sociedad/3-277850-2015-07-25.html
p6
aVhttps://www.pagina12.com.ar/diario/sociedad/3-277856-2015-07-25.html
p7
aVhttps://www.pagina12.com.ar/diario/sociedad/3-277851-2015-07-25.html
p8
aVhttps://www.pagina12.com.ar/diario/sociedad/3-277852-2015-07-25.html
p9
aVhttps://www.pagina12.com.ar/diario/sociedad/3-277853-2015-07-25.html
p10
aVhttps://www.pagina12.com.ar/diario/sociedad/3-277854-2015-07-25.html
p11
aVhttps://www.pagina12.com.ar/diario/sociedad/3-277857-2015-07-25.html
p12
aVhttps://www.pagina12.com.ar/diario/sociedad/3-277858-2015-07-25.html
p13
aVhttps://www.pagina12.com.ar/diario/sociedad/3-277859-2015-07-25.html
p14
aVhttps://www.pagina12.com.ar/diario/sociedad/3-277864-2015-07-25.html
p15
aVhttps://www.pagina12.com.ar/diario/sociedad/3-277865-2015-07-25.html
p16
aVhttps://www.pagina12.com.ar/diario/sociedad/3-277866-2015-07-25.html
p17
aVhttps://www.pagina12.com.ar/diario/sociedad/3-277867-2015-07-25.html
p18
a.