(lp0
Vhttps://www.pagina12.com.ar/diario/sociedad/3-269682-2015-04-04.html
p1
aVhttps://www.pagina12.com.ar/diario/sociedad/3-269683-2015-04-04.html
p2
aVhttps://www.pagina12.com.ar/diario/sociedad/3-269684-2015-04-04.html
p3
aVhttps://www.pagina12.com.ar/diario/sociedad/3-269681-2015-04-04.html
p4
aVhttps://www.pagina12.com.ar/diario/sociedad/3-269687-2015-04-04.html
p5
aVhttps://www.pagina12.com.ar/diario/sociedad/3-269688-2015-04-04.html
p6
aVhttps://www.pagina12.com.ar/diario/sociedad/3-269676-2015-04-04.html
p7
aVhttps://www.pagina12.com.ar/diario/sociedad/3-269677-2015-04-04.html
p8
aVhttps://www.pagina12.com.ar/diario/sociedad/3-269678-2015-04-04.html
p9
aVhttps://www.pagina12.com.ar/diario/sociedad/3-269679-2015-04-04.html
p10
aVhttps://www.pagina12.com.ar/diario/sociedad/3-269680-2015-04-04.html
p11
aVhttps://www.pagina12.com.ar/diario/sociedad/3-269689-2015-04-04.html
p12
aVhttps://www.pagina12.com.ar/diario/sociedad/3-269690-2015-04-04.html
p13
aVhttps://www.pagina12.com.ar/diario/sociedad/3-269691-2015-04-04.html
p14
a.