(lp0
Vhttps://www.pagina12.com.ar/diario/elpais/1-283465-2015-10-09.html
p1
aVhttps://www.pagina12.com.ar/diario/elpais/1-283452-2015-10-09.html
p2
aVhttps://www.pagina12.com.ar/diario/elpais/1-283451-2015-10-09.html
p3
aVhttps://www.pagina12.com.ar/diario/elpais/1-283456-2015-10-09.html
p4
aVhttps://www.pagina12.com.ar/diario/elpais/1-283457-2015-10-09.html
p5
aVhttps://www.pagina12.com.ar/diario/elpais/1-283458-2015-10-09.html
p6
aVhttps://www.pagina12.com.ar/diario/elpais/1-283445-2015-10-09.html
p7
aVhttps://www.pagina12.com.ar/diario/elpais/1-283446-2015-10-09.html
p8
aVhttps://www.pagina12.com.ar/diario/elpais/1-283447-2015-10-09.html
p9
aVhttps://www.pagina12.com.ar/diario/elpais/1-283444-2015-10-09.html
p10
aVhttps://www.pagina12.com.ar/diario/elpais/1-283433-2015-10-09.html
p11
aVhttps://www.pagina12.com.ar/diario/elpais/1-283432-2015-10-09.html
p12
aVhttps://www.pagina12.com.ar/diario/elpais/1-283453-2015-10-09.html
p13
aVhttps://www.pagina12.com.ar/diario/elpais/1-283454-2015-10-09.html
p14
aVhttps://www.pagina12.com.ar/diario/elpais/1-283455-2015-10-09.html
p15
aVhttps://www.pagina12.com.ar/diario/elpais/1-283459-2015-10-09.html
p16
a.