(lp0
Vhttps://www.pagina12.com.ar/diario/economia/2-268759-2015-03-23.html
p1
aVhttps://www.pagina12.com.ar/diario/economia/2-268764-2015-03-23.html
p2
aVhttps://www.pagina12.com.ar/diario/economia/2-268766-2015-03-23.html
p3
aVhttps://www.pagina12.com.ar/diario/economia/2-268767-2015-03-23.html
p4
aVhttps://www.pagina12.com.ar/diario/economia/2-268765-2015-03-23.html
p5
a.