(lp0
Vhttps://www.pagina12.com.ar/diario/elpais/1-268837-2015-03-24.html
p1
aVhttps://www.pagina12.com.ar/diario/elpais/1-268843-2015-03-24.html
p2
aVhttps://www.pagina12.com.ar/diario/elpais/1-268844-2015-03-24.html
p3
aVhttps://www.pagina12.com.ar/diario/elpais/1-268845-2015-03-24.html
p4
aVhttps://www.pagina12.com.ar/diario/elpais/1-268840-2015-03-24.html
p5
aVhttps://www.pagina12.com.ar/diario/elpais/1-268841-2015-03-24.html
p6
aVhttps://www.pagina12.com.ar/diario/elpais/1-268842-2015-03-24.html
p7
aVhttps://www.pagina12.com.ar/diario/elpais/1-268856-2015-03-24.html
p8
aVhttps://www.pagina12.com.ar/diario/elpais/1-268857-2015-03-24.html
p9
aVhttps://www.pagina12.com.ar/diario/elpais/1-268858-2015-03-24.html
p10
aVhttps://www.pagina12.com.ar/diario/elpais/1-268838-2015-03-24.html
p11
aVhttps://www.pagina12.com.ar/diario/elpais/1-268839-2015-03-24.html
p12
aVhttps://www.pagina12.com.ar/diario/elpais/1-268817-2015-03-24.html
p13
aVhttps://www.pagina12.com.ar/diario/elpais/1-268818-2015-03-24.html
p14
aVhttps://www.pagina12.com.ar/diario/elpais/1-268819-2015-03-24.html
p15
aVhttps://www.pagina12.com.ar/diario/elpais/1-268820-2015-03-24.html
p16
aVhttps://www.pagina12.com.ar/diario/elpais/1-268821-2015-03-24.html
p17
aVhttps://www.pagina12.com.ar/diario/elpais/1-268822-2015-03-24.html
p18
aVhttps://www.pagina12.com.ar/diario/elpais/1-268823-2015-03-24.html
p19
aVhttps://www.pagina12.com.ar/diario/elpais/1-268846-2015-03-24.html
p20
aVhttps://www.pagina12.com.ar/diario/elpais/1-268847-2015-03-24.html
p21
aVhttps://www.pagina12.com.ar/diario/elpais/1-268848-2015-03-24.html
p22
aVhttps://www.pagina12.com.ar/diario/elpais/1-268849-2015-03-24.html
p23
a.