(lp0
Vhttps://www.pagina12.com.ar/diario/sociedad/3-282008-2015-09-19.html
p1
aVhttps://www.pagina12.com.ar/diario/sociedad/3-282003-2015-09-19.html
p2
aVhttps://www.pagina12.com.ar/diario/sociedad/3-282001-2015-09-19.html
p3
aVhttps://www.pagina12.com.ar/diario/sociedad/3-282004-2015-09-19.html
p4
aVhttps://www.pagina12.com.ar/diario/sociedad/3-282011-2015-09-19.html
p5
aVhttps://www.pagina12.com.ar/diario/sociedad/3-281979-2015-09-19.html
p6
aVhttps://www.pagina12.com.ar/diario/sociedad/3-282012-2015-09-19.html
p7
aVhttps://www.pagina12.com.ar/diario/sociedad/3-281983-2015-09-19.html
p8
aVhttps://www.pagina12.com.ar/diario/sociedad/3-281984-2015-09-19.html
p9
aVhttps://www.pagina12.com.ar/diario/sociedad/3-281980-2015-09-19.html
p10
aVhttps://www.pagina12.com.ar/diario/sociedad/3-281981-2015-09-19.html
p11
aVhttps://www.pagina12.com.ar/diario/sociedad/3-281982-2015-09-19.html
p12
aVhttps://www.pagina12.com.ar/diario/sociedad/3-282002-2015-09-19.html
p13
aVhttps://www.pagina12.com.ar/diario/sociedad/3-282005-2015-09-19.html
p14
aVhttps://www.pagina12.com.ar/diario/sociedad/3-282006-2015-09-19.html
p15
aVhttps://www.pagina12.com.ar/diario/sociedad/3-282007-2015-09-19.html
p16
aVhttps://www.pagina12.com.ar/diario/sociedad/3-282009-2015-09-19.html
p17
aVhttps://www.pagina12.com.ar/diario/sociedad/3-282010-2015-09-19.html
p18
aVhttps://www.pagina12.com.ar/diario/sociedad/3-282013-2015-09-19.html
p19
aVhttps://www.pagina12.com.ar/diario/sociedad/3-282014-2015-09-19.html
p20
aVhttps://www.pagina12.com.ar/diario/sociedad/3-282015-2015-09-19.html
p21
a.