(lp0
Vhttps://www.pagina12.com.ar/diario/sociedad/3-273661-2015-05-28.html
p1
aVhttps://www.pagina12.com.ar/diario/sociedad/3-273662-2015-05-28.html
p2
aVhttps://www.pagina12.com.ar/diario/sociedad/3-273660-2015-05-28.html
p3
aVhttps://www.pagina12.com.ar/diario/sociedad/3-273655-2015-05-28.html
p4
aVhttps://www.pagina12.com.ar/diario/sociedad/3-273657-2015-05-28.html
p5
aVhttps://www.pagina12.com.ar/diario/sociedad/3-273658-2015-05-28.html
p6
a.