(lp0
Vhttps://www.pagina12.com.ar/diario/sociedad/3-281837-2015-09-17.html
p1
aVhttps://www.pagina12.com.ar/diario/sociedad/3-281844-2015-09-17.html
p2
aVhttps://www.pagina12.com.ar/diario/sociedad/3-281866-2015-09-17.html
p3
a.