(lp0
Vhttps://www.pagina12.com.ar/diario/sociedad/3-279513-2015-08-17.html
p1
aVhttps://www.pagina12.com.ar/diario/sociedad/3-279506-2015-08-17.html
p2
aVhttps://www.pagina12.com.ar/diario/sociedad/3-279514-2015-08-17.html
p3
aVhttps://www.pagina12.com.ar/diario/sociedad/3-279515-2015-08-17.html
p4
aVhttps://www.pagina12.com.ar/diario/sociedad/3-279516-2015-08-17.html
p5
a.