(lp0
Vhttps://www.pagina12.com.ar/diario/elpais/1-265429-2015-02-04.html
p1
aVhttps://www.pagina12.com.ar/diario/elpais/1-265428-2015-02-04.html
p2
aVhttps://www.pagina12.com.ar/diario/elpais/1-265427-2015-02-04.html
p3
aVhttps://www.pagina12.com.ar/diario/elpais/1-265422-2015-02-04.html
p4
aVhttps://www.pagina12.com.ar/diario/elpais/1-265423-2015-02-04.html
p5
aVhttps://www.pagina12.com.ar/diario/elpais/1-265420-2015-02-04.html
p6
aVhttps://www.pagina12.com.ar/diario/elpais/1-265421-2015-02-04.html
p7
aVhttps://www.pagina12.com.ar/diario/elpais/1-265419-2015-02-04.html
p8
aVhttps://www.pagina12.com.ar/diario/elpais/1-265424-2015-02-04.html
p9
aVhttps://www.pagina12.com.ar/diario/elpais/1-265425-2015-02-04.html
p10
aVhttps://www.pagina12.com.ar/diario/elpais/1-265426-2015-02-04.html
p11
a.