(lp0
Vhttps://www.pagina12.com.ar/diario/sociedad/3-263059-2015-01-02.html
p1
aVhttps://www.pagina12.com.ar/diario/sociedad/3-263060-2015-01-02.html
p2
aVhttps://www.pagina12.com.ar/diario/sociedad/3-263061-2015-01-02.html
p3
aVhttps://www.pagina12.com.ar/diario/sociedad/3-263056-2015-01-02.html
p4
aVhttps://www.pagina12.com.ar/diario/sociedad/3-263057-2015-01-02.html
p5
aVhttps://www.pagina12.com.ar/diario/sociedad/3-263058-2015-01-02.html
p6
aVhttps://www.pagina12.com.ar/diario/sociedad/3-263052-2015-01-02.html
p7
aVhttps://www.pagina12.com.ar/diario/sociedad/3-263053-2015-01-02.html
p8
aVhttps://www.pagina12.com.ar/diario/sociedad/3-263054-2015-01-02.html
p9
aVhttps://www.pagina12.com.ar/diario/sociedad/3-263055-2015-01-02.html
p10
aVhttps://www.pagina12.com.ar/diario/sociedad/3-263063-2015-01-02.html
p11
aVhttps://www.pagina12.com.ar/diario/sociedad/3-263064-2015-01-02.html
p12
a.