(lp0
Vhttps://www.pagina12.com.ar/diario/economia/2-286961-2015-11-26.html
p1
aVhttps://www.pagina12.com.ar/diario/economia/2-286962-2015-11-26.html
p2
aVhttps://www.pagina12.com.ar/diario/economia/2-286963-2015-11-26.html
p3
aVhttps://www.pagina12.com.ar/diario/economia/2-286964-2015-11-26.html
p4
aVhttps://www.pagina12.com.ar/diario/economia/2-286965-2015-11-26.html
p5
aVhttps://www.pagina12.com.ar/diario/economia/2-286958-2015-11-26.html
p6
aVhttps://www.pagina12.com.ar/diario/economia/2-286959-2015-11-26.html
p7
aVhttps://www.pagina12.com.ar/diario/economia/2-286960-2015-11-26.html
p8
aVhttps://www.pagina12.com.ar/diario/economia/2-286953-2015-11-26.html
p9
aVhttps://www.pagina12.com.ar/diario/economia/2-286954-2015-11-26.html
p10
aVhttps://www.pagina12.com.ar/diario/economia/2-286955-2015-11-26.html
p11
aVhttps://www.pagina12.com.ar/diario/economia/2-286956-2015-11-26.html
p12
a.