(lp0
Vhttps://www.pagina12.com.ar/diario/elpais/1-263476-2015-01-08.html
p1
aVhttps://www.pagina12.com.ar/diario/elpais/1-263477-2015-01-08.html
p2
aVhttps://www.pagina12.com.ar/diario/elpais/1-263471-2015-01-08.html
p3
aVhttps://www.pagina12.com.ar/diario/elpais/1-263472-2015-01-08.html
p4
aVhttps://www.pagina12.com.ar/diario/elpais/1-263468-2015-01-08.html
p5
aVhttps://www.pagina12.com.ar/diario/elpais/1-263473-2015-01-08.html
p6
aVhttps://www.pagina12.com.ar/diario/elpais/1-263474-2015-01-08.html
p7
aVhttps://www.pagina12.com.ar/diario/elpais/1-263475-2015-01-08.html
p8
a.