(lp0
Vhttps://www.pagina12.com.ar/diario/elpais/1-274356-2015-06-06.html
p1
aVhttps://www.pagina12.com.ar/diario/elpais/1-274357-2015-06-06.html
p2
aVhttps://www.pagina12.com.ar/diario/elpais/1-274335-2015-06-06.html
p3
aVhttps://www.pagina12.com.ar/diario/elpais/1-274353-2015-06-06.html
p4
aVhttps://www.pagina12.com.ar/diario/elpais/1-274336-2015-06-06.html
p5
aVhttps://www.pagina12.com.ar/diario/elpais/1-274354-2015-06-06.html
p6
aVhttps://www.pagina12.com.ar/diario/elpais/1-274323-2015-06-06.html
p7
aVhttps://www.pagina12.com.ar/diario/elpais/1-274324-2015-06-06.html
p8
aVhttps://www.pagina12.com.ar/diario/elpais/1-274346-2015-06-06.html
p9
aVhttps://www.pagina12.com.ar/diario/elpais/1-274315-2015-06-06.html
p10
aVhttps://www.pagina12.com.ar/diario/elpais/1-274316-2015-06-06.html
p11
aVhttps://www.pagina12.com.ar/diario/elpais/1-274347-2015-06-06.html
p12
aVhttps://www.pagina12.com.ar/diario/elpais/1-274348-2015-06-06.html
p13
aVhttps://www.pagina12.com.ar/diario/elpais/1-274349-2015-06-06.html
p14
aVhttps://www.pagina12.com.ar/diario/elpais/1-274350-2015-06-06.html
p15
aVhttps://www.pagina12.com.ar/diario/elpais/1-274355-2015-06-06.html
p16
aVhttps://www.pagina12.com.ar/diario/elpais/1-274325-2015-06-06.html
p17
aVhttps://www.pagina12.com.ar/diario/elpais/1-274326-2015-06-06.html
p18
aVhttps://www.pagina12.com.ar/diario/elpais/1-274327-2015-06-06.html
p19
aVhttps://www.pagina12.com.ar/diario/elpais/1-274337-2015-06-06.html
p20
a.