(lp0
Vhttps://www.pagina12.com.ar/diario/economia/2-266358-2015-02-18.html
p1
aVhttps://www.pagina12.com.ar/diario/economia/2-266359-2015-02-18.html
p2
aVhttps://www.pagina12.com.ar/diario/economia/2-266371-2015-02-18.html
p3
aVhttps://www.pagina12.com.ar/diario/economia/2-266372-2015-02-18.html
p4
aVhttps://www.pagina12.com.ar/diario/economia/2-266373-2015-02-18.html
p5
aVhttps://www.pagina12.com.ar/diario/economia/2-266374-2015-02-18.html
p6
a.