(lp0
Vhttps://www.pagina12.com.ar/diario/sociedad/3-276964-2015-07-13.html
p1
aVhttps://www.pagina12.com.ar/diario/sociedad/3-276965-2015-07-13.html
p2
aVhttps://www.pagina12.com.ar/diario/sociedad/3-276966-2015-07-13.html
p3
a.