(lp0
Vhttps://www.pagina12.com.ar/diario/economia/2-271372-2015-04-25.html
p1
aVhttps://www.pagina12.com.ar/diario/economia/2-271373-2015-04-25.html
p2
aVhttps://www.pagina12.com.ar/diario/economia/2-271347-2015-04-25.html
p3
aVhttps://www.pagina12.com.ar/diario/economia/2-271348-2015-04-25.html
p4
aVhttps://www.pagina12.com.ar/diario/economia/2-271349-2015-04-25.html
p5
aVhttps://www.pagina12.com.ar/diario/economia/2-271350-2015-04-25.html
p6
aVhttps://www.pagina12.com.ar/diario/economia/2-271330-2015-04-25.html
p7
aVhttps://www.pagina12.com.ar/diario/economia/2-271331-2015-04-25.html
p8
aVhttps://www.pagina12.com.ar/diario/economia/2-271332-2015-04-25.html
p9
aVhttps://www.pagina12.com.ar/diario/economia/2-271333-2015-04-25.html
p10
aVhttps://www.pagina12.com.ar/diario/economia/2-271334-2015-04-25.html
p11
a.