(lp0
Vhttps://www.pagina12.com.ar/diario/economia/2-265554-2015-02-06.html
p1
aVhttps://www.pagina12.com.ar/diario/economia/2-265557-2015-02-06.html
p2
aVhttps://www.pagina12.com.ar/diario/economia/2-265558-2015-02-06.html
p3
aVhttps://www.pagina12.com.ar/diario/economia/2-265525-2015-02-06.html
p4
aVhttps://www.pagina12.com.ar/diario/economia/2-265555-2015-02-06.html
p5
aVhttps://www.pagina12.com.ar/diario/economia/2-265556-2015-02-06.html
p6
aVhttps://www.pagina12.com.ar/diario/economia/2-265559-2015-02-06.html
p7
aVhttps://www.pagina12.com.ar/diario/economia/2-265560-2015-02-06.html
p8
aVhttps://www.pagina12.com.ar/diario/economia/2-265561-2015-02-06.html
p9
aVhttps://www.pagina12.com.ar/diario/economia/2-265562-2015-02-06.html
p10
a.