(lp0
Vhttps://www.pagina12.com.ar/diario/economia/2-275756-2015-06-26.html
p1
aVhttps://www.pagina12.com.ar/diario/economia/2-275774-2015-06-26.html
p2
aVhttps://www.pagina12.com.ar/diario/economia/2-275757-2015-06-26.html
p3
aVhttps://www.pagina12.com.ar/diario/economia/2-275776-2015-06-26.html
p4
aVhttps://www.pagina12.com.ar/diario/economia/2-275770-2015-06-26.html
p5
aVhttps://www.pagina12.com.ar/diario/economia/2-275754-2015-06-26.html
p6
aVhttps://www.pagina12.com.ar/diario/economia/2-275775-2015-06-26.html
p7
aVhttps://www.pagina12.com.ar/diario/economia/2-275755-2015-06-26.html
p8
aVhttps://www.pagina12.com.ar/diario/economia/2-275771-2015-06-26.html
p9
a.