(lp0
Vhttps://www.pagina12.com.ar/diario/economia/2-265196-2015-02-01.html
p1
aVhttps://www.pagina12.com.ar/diario/economia/2-265200-2015-02-01.html
p2
aVhttps://www.pagina12.com.ar/diario/economia/2-265197-2015-02-01.html
p3
aVhttps://www.pagina12.com.ar/diario/economia/2-265198-2015-02-01.html
p4
a.