(lp0
Vhttps://www.pagina12.com.ar/diario/economia/2-288305-2015-12-15.html
p1
aVhttps://www.pagina12.com.ar/diario/economia/2-288306-2015-12-15.html
p2
aVhttps://www.pagina12.com.ar/diario/economia/2-288307-2015-12-15.html
p3
aVhttps://www.pagina12.com.ar/diario/economia/2-288301-2015-12-15.html
p4
aVhttps://www.pagina12.com.ar/diario/economia/2-288304-2015-12-15.html
p5
aVhttps://www.pagina12.com.ar/diario/economia/2-288302-2015-12-15.html
p6
aVhttps://www.pagina12.com.ar/diario/economia/2-288303-2015-12-15.html
p7
aVhttps://www.pagina12.com.ar/diario/economia/2-288298-2015-12-15.html
p8
aVhttps://www.pagina12.com.ar/diario/economia/2-288300-2015-12-15.html
p9
aVhttps://www.pagina12.com.ar/diario/economia/2-288299-2015-12-15.html
p10
aVhttps://www.pagina12.com.ar/diario/economia/2-288294-2015-12-15.html
p11
aVhttps://www.pagina12.com.ar/diario/economia/2-288295-2015-12-15.html
p12
aVhttps://www.pagina12.com.ar/diario/economia/2-288296-2015-12-15.html
p13
aVhttps://www.pagina12.com.ar/diario/economia/2-288297-2015-12-15.html
p14
a.