(lp0
Vhttps://www.pagina12.com.ar/diario/elpais/1-267529-2015-03-06.html
p1
aVhttps://www.pagina12.com.ar/diario/elpais/1-267530-2015-03-06.html
p2
aVhttps://www.pagina12.com.ar/diario/elpais/1-267523-2015-03-06.html
p3
aVhttps://www.pagina12.com.ar/diario/elpais/1-267525-2015-03-06.html
p4
aVhttps://www.pagina12.com.ar/diario/elpais/1-267527-2015-03-06.html
p5
aVhttps://www.pagina12.com.ar/diario/elpais/1-267518-2015-03-06.html
p6
aVhttps://www.pagina12.com.ar/diario/elpais/1-267528-2015-03-06.html
p7
aVhttps://www.pagina12.com.ar/diario/elpais/1-267519-2015-03-06.html
p8
aVhttps://www.pagina12.com.ar/diario/elpais/1-267522-2015-03-06.html
p9
aVhttps://www.pagina12.com.ar/diario/elpais/1-267506-2015-03-06.html
p10
aVhttps://www.pagina12.com.ar/diario/elpais/1-267502-2015-03-06.html
p11
aVhttps://www.pagina12.com.ar/diario/elpais/1-267498-2015-03-06.html
p12
aVhttps://www.pagina12.com.ar/diario/elpais/1-267504-2015-03-06.html
p13
aVhttps://www.pagina12.com.ar/diario/elpais/1-267490-2015-03-06.html
p14
aVhttps://www.pagina12.com.ar/diario/elpais/1-267499-2015-03-06.html
p15
aVhttps://www.pagina12.com.ar/diario/elpais/1-267491-2015-03-06.html
p16
aVhttps://www.pagina12.com.ar/diario/elpais/1-267520-2015-03-06.html
p17
aVhttps://www.pagina12.com.ar/diario/elpais/1-267521-2015-03-06.html
p18
aVhttps://www.pagina12.com.ar/diario/elpais/1-267524-2015-03-06.html
p19
aVhttps://www.pagina12.com.ar/diario/elpais/1-267500-2015-03-06.html
p20
aVhttps://www.pagina12.com.ar/diario/elpais/1-267501-2015-03-06.html
p21
aVhttps://www.pagina12.com.ar/diario/elpais/1-267503-2015-03-06.html
p22
aVhttps://www.pagina12.com.ar/diario/elpais/1-267505-2015-03-06.html
p23
aVhttps://www.pagina12.com.ar/diario/elpais/1-267507-2015-03-06.html
p24
aVhttps://www.pagina12.com.ar/diario/elpais/1-267508-2015-03-06.html
p25
aVhttps://www.pagina12.com.ar/diario/elpais/1-267509-2015-03-06.html
p26
a.