(lp0
Vhttps://www.pagina12.com.ar/diario/economia/2-289157-2015-12-29.html
p1
aVhttps://www.pagina12.com.ar/diario/economia/2-289158-2015-12-29.html
p2
aVhttps://www.pagina12.com.ar/diario/economia/2-289198-2015-12-29.html
p3
aVhttps://www.pagina12.com.ar/diario/economia/2-289199-2015-12-29.html
p4
aVhttps://www.pagina12.com.ar/diario/economia/2-289192-2015-12-29.html
p5
aVhttps://www.pagina12.com.ar/diario/economia/2-289193-2015-12-29.html
p6
aVhttps://www.pagina12.com.ar/diario/economia/2-289194-2015-12-29.html
p7
aVhttps://www.pagina12.com.ar/diario/economia/2-289195-2015-12-29.html
p8
aVhttps://www.pagina12.com.ar/diario/economia/2-289196-2015-12-29.html
p9
aVhttps://www.pagina12.com.ar/diario/economia/2-289197-2015-12-29.html
p10
aVhttps://www.pagina12.com.ar/diario/economia/2-289187-2015-12-29.html
p11
aVhttps://www.pagina12.com.ar/diario/economia/2-289188-2015-12-29.html
p12
aVhttps://www.pagina12.com.ar/diario/economia/2-289189-2015-12-29.html
p13
aVhttps://www.pagina12.com.ar/diario/economia/2-289190-2015-12-29.html
p14
aVhttps://www.pagina12.com.ar/diario/economia/2-289191-2015-12-29.html
p15
a.