(lp0
Vhttps://www.pagina12.com.ar/diario/economia/2-278220-2015-07-30.html
p1
aVhttps://www.pagina12.com.ar/diario/economia/2-278221-2015-07-30.html
p2
aVhttps://www.pagina12.com.ar/diario/economia/2-278222-2015-07-30.html
p3
aVhttps://www.pagina12.com.ar/diario/economia/2-278217-2015-07-30.html
p4
aVhttps://www.pagina12.com.ar/diario/economia/2-278218-2015-07-30.html
p5
aVhttps://www.pagina12.com.ar/diario/economia/2-278219-2015-07-30.html
p6
aVhttps://www.pagina12.com.ar/diario/economia/2-278240-2015-07-30.html
p7
aVhttps://www.pagina12.com.ar/diario/economia/2-278241-2015-07-30.html
p8
aVhttps://www.pagina12.com.ar/diario/economia/2-278258-2015-07-30.html
p9
aVhttps://www.pagina12.com.ar/diario/economia/2-278259-2015-07-30.html
p10
aVhttps://www.pagina12.com.ar/diario/economia/2-278260-2015-07-30.html
p11
aVhttps://www.pagina12.com.ar/diario/economia/2-278261-2015-07-30.html
p12
aVhttps://www.pagina12.com.ar/diario/economia/2-278223-2015-07-30.html
p13
aVhttps://www.pagina12.com.ar/diario/economia/2-278224-2015-07-30.html
p14
aVhttps://www.pagina12.com.ar/diario/economia/2-278225-2015-07-30.html
p15
a.