(lp0
Vhttps://www.pagina12.com.ar/diario/economia/2-288798-2015-12-22.html
p1
aVhttps://www.pagina12.com.ar/diario/economia/2-288799-2015-12-22.html
p2
aVhttps://www.pagina12.com.ar/diario/economia/2-288800-2015-12-22.html
p3
aVhttps://www.pagina12.com.ar/diario/economia/2-288792-2015-12-22.html
p4
aVhttps://www.pagina12.com.ar/diario/economia/2-288793-2015-12-22.html
p5
aVhttps://www.pagina12.com.ar/diario/economia/2-288794-2015-12-22.html
p6
aVhttps://www.pagina12.com.ar/diario/economia/2-288795-2015-12-22.html
p7
aVhttps://www.pagina12.com.ar/diario/economia/2-288787-2015-12-22.html
p8
aVhttps://www.pagina12.com.ar/diario/economia/2-288788-2015-12-22.html
p9
aVhttps://www.pagina12.com.ar/diario/economia/2-288789-2015-12-22.html
p10
aVhttps://www.pagina12.com.ar/diario/economia/2-288790-2015-12-22.html
p11
aVhttps://www.pagina12.com.ar/diario/economia/2-288791-2015-12-22.html
p12
a.