(lp0
Vhttps://www.pagina12.com.ar/diario/sociedad/3-270695-2015-04-17.html
p1
aVhttps://www.pagina12.com.ar/diario/sociedad/3-270699-2015-04-17.html
p2
aVhttps://www.pagina12.com.ar/diario/sociedad/3-270687-2015-04-17.html
p3
aVhttps://www.pagina12.com.ar/diario/sociedad/3-270688-2015-04-17.html
p4
aVhttps://www.pagina12.com.ar/diario/sociedad/3-270689-2015-04-17.html
p5
aVhttps://www.pagina12.com.ar/diario/sociedad/3-270746-2015-04-17.html
p6
aVhttps://www.pagina12.com.ar/diario/sociedad/3-270750-2015-04-17.html
p7
aVhttps://www.pagina12.com.ar/diario/sociedad/3-270751-2015-04-17.html
p8
aVhttps://www.pagina12.com.ar/diario/sociedad/3-270747-2015-04-17.html
p9
aVhttps://www.pagina12.com.ar/diario/sociedad/3-270748-2015-04-17.html
p10
aVhttps://www.pagina12.com.ar/diario/sociedad/3-270749-2015-04-17.html
p11
aVhttps://www.pagina12.com.ar/diario/sociedad/3-270690-2015-04-17.html
p12
aVhttps://www.pagina12.com.ar/diario/sociedad/3-270691-2015-04-17.html
p13
aVhttps://www.pagina12.com.ar/diario/sociedad/3-270692-2015-04-17.html
p14
aVhttps://www.pagina12.com.ar/diario/sociedad/3-270693-2015-04-17.html
p15
aVhttps://www.pagina12.com.ar/diario/sociedad/3-270694-2015-04-17.html
p16
aVhttps://www.pagina12.com.ar/diario/sociedad/3-270696-2015-04-17.html
p17
aVhttps://www.pagina12.com.ar/diario/sociedad/3-270697-2015-04-17.html
p18
aVhttps://www.pagina12.com.ar/diario/sociedad/3-270698-2015-04-17.html
p19
a.