(lp0
Vhttps://www.pagina12.com.ar/diario/elpais/1-277897-2015-07-25.html
p1
aVhttps://www.pagina12.com.ar/diario/elpais/1-277898-2015-07-25.html
p2
aVhttps://www.pagina12.com.ar/diario/elpais/1-277893-2015-07-25.html
p3
aVhttps://www.pagina12.com.ar/diario/elpais/1-277891-2015-07-25.html
p4
aVhttps://www.pagina12.com.ar/diario/elpais/1-277896-2015-07-25.html
p5
aVhttps://www.pagina12.com.ar/diario/elpais/1-277884-2015-07-25.html
p6
aVhttps://www.pagina12.com.ar/diario/elpais/1-277892-2015-07-25.html
p7
aVhttps://www.pagina12.com.ar/diario/elpais/1-277882-2015-07-25.html
p8
aVhttps://www.pagina12.com.ar/diario/elpais/1-277885-2015-07-25.html
p9
aVhttps://www.pagina12.com.ar/diario/elpais/1-277886-2015-07-25.html
p10
aVhttps://www.pagina12.com.ar/diario/elpais/1-277887-2015-07-25.html
p11
aVhttps://www.pagina12.com.ar/diario/elpais/1-277883-2015-07-25.html
p12
aVhttps://www.pagina12.com.ar/diario/elpais/1-277868-2015-07-25.html
p13
aVhttps://www.pagina12.com.ar/diario/elpais/1-277869-2015-07-25.html
p14
aVhttps://www.pagina12.com.ar/diario/elpais/1-277870-2015-07-25.html
p15
aVhttps://www.pagina12.com.ar/diario/elpais/1-277871-2015-07-25.html
p16
aVhttps://www.pagina12.com.ar/diario/elpais/1-277888-2015-07-25.html
p17
aVhttps://www.pagina12.com.ar/diario/elpais/1-277889-2015-07-25.html
p18
aVhttps://www.pagina12.com.ar/diario/elpais/1-277890-2015-07-25.html
p19
aVhttps://www.pagina12.com.ar/diario/elpais/1-277894-2015-07-25.html
p20
aVhttps://www.pagina12.com.ar/diario/elpais/1-277895-2015-07-25.html
p21
a.