(lp0
Vhttps://www.pagina12.com.ar/diario/economia/2-275592-2015-06-24.html
p1
aVhttps://www.pagina12.com.ar/diario/economia/2-275593-2015-06-24.html
p2
aVhttps://www.pagina12.com.ar/diario/economia/2-275594-2015-06-24.html
p3
aVhttps://www.pagina12.com.ar/diario/economia/2-275595-2015-06-24.html
p4
aVhttps://www.pagina12.com.ar/diario/economia/2-275596-2015-06-24.html
p5
aVhttps://www.pagina12.com.ar/diario/economia/2-275581-2015-06-24.html
p6
aVhttps://www.pagina12.com.ar/diario/economia/2-275582-2015-06-24.html
p7
aVhttps://www.pagina12.com.ar/diario/economia/2-275597-2015-06-24.html
p8
aVhttps://www.pagina12.com.ar/diario/economia/2-275598-2015-06-24.html
p9
aVhttps://www.pagina12.com.ar/diario/economia/2-275599-2015-06-24.html
p10
a.