(lp0
Vhttps://www.pagina12.com.ar/diario/elpais/1-281627-2015-09-14.html
p1
aVhttps://www.pagina12.com.ar/diario/elpais/1-281616-2015-09-14.html
p2
aVhttps://www.pagina12.com.ar/diario/elpais/1-281601-2015-09-14.html
p3
aVhttps://www.pagina12.com.ar/diario/elpais/1-281618-2015-09-14.html
p4
aVhttps://www.pagina12.com.ar/diario/elpais/1-281628-2015-09-14.html
p5
aVhttps://www.pagina12.com.ar/diario/elpais/1-281629-2015-09-14.html
p6
aVhttps://www.pagina12.com.ar/diario/elpais/1-281619-2015-09-14.html
p7
aVhttps://www.pagina12.com.ar/diario/elpais/1-281620-2015-09-14.html
p8
aVhttps://www.pagina12.com.ar/diario/elpais/1-281621-2015-09-14.html
p9
aVhttps://www.pagina12.com.ar/diario/elpais/1-281622-2015-09-14.html
p10
a.