(lp0
Vhttps://www.pagina12.com.ar/diario/elpais/1-270870-2015-04-19.html
p1
aVhttps://www.pagina12.com.ar/diario/elpais/1-270906-2015-04-19.html
p2
aVhttps://www.pagina12.com.ar/diario/elpais/1-270907-2015-04-19.html
p3
aVhttps://www.pagina12.com.ar/diario/elpais/1-270868-2015-04-19.html
p4
aVhttps://www.pagina12.com.ar/diario/elpais/1-270869-2015-04-19.html
p5
aVhttps://www.pagina12.com.ar/diario/elpais/1-270879-2015-04-19.html
p6
aVhttps://www.pagina12.com.ar/diario/elpais/1-270877-2015-04-19.html
p7
aVhttps://www.pagina12.com.ar/diario/elpais/1-270878-2015-04-19.html
p8
aVhttps://www.pagina12.com.ar/diario/elpais/1-270897-2015-04-19.html
p9
aVhttps://www.pagina12.com.ar/diario/elpais/1-270891-2015-04-19.html
p10
aVhttps://www.pagina12.com.ar/diario/elpais/1-270896-2015-04-19.html
p11
aVhttps://www.pagina12.com.ar/diario/elpais/1-270882-2015-04-19.html
p12
aVhttps://www.pagina12.com.ar/diario/elpais/1-270884-2015-04-19.html
p13
aVhttps://www.pagina12.com.ar/diario/elpais/1-270892-2015-04-19.html
p14
aVhttps://www.pagina12.com.ar/diario/elpais/1-270893-2015-04-19.html
p15
aVhttps://www.pagina12.com.ar/diario/elpais/1-270894-2015-04-19.html
p16
aVhttps://www.pagina12.com.ar/diario/elpais/1-270895-2015-04-19.html
p17
aVhttps://www.pagina12.com.ar/diario/elpais/1-270898-2015-04-19.html
p18
aVhttps://www.pagina12.com.ar/diario/elpais/1-270899-2015-04-19.html
p19
aVhttps://www.pagina12.com.ar/diario/elpais/1-270900-2015-04-19.html
p20
aVhttps://www.pagina12.com.ar/diario/elpais/1-270901-2015-04-19.html
p21
aVhttps://www.pagina12.com.ar/diario/elpais/1-270902-2015-04-19.html
p22
aVhttps://www.pagina12.com.ar/diario/elpais/1-270903-2015-04-19.html
p23
aVhttps://www.pagina12.com.ar/diario/elpais/1-270904-2015-04-19.html
p24
aVhttps://www.pagina12.com.ar/diario/elpais/1-270905-2015-04-19.html
p25
aVhttps://www.pagina12.com.ar/diario/elpais/1-270908-2015-04-19.html
p26
aVhttps://www.pagina12.com.ar/diario/elpais/1-270883-2015-04-19.html
p27
a.