(lp0
Vhttps://www.pagina12.com.ar/diario/economia/2-267851-2015-03-11.html
p1
aVhttps://www.pagina12.com.ar/diario/economia/2-267852-2015-03-11.html
p2
aVhttps://www.pagina12.com.ar/diario/economia/2-267853-2015-03-11.html
p3
aVhttps://www.pagina12.com.ar/diario/economia/2-267854-2015-03-11.html
p4
aVhttps://www.pagina12.com.ar/diario/economia/2-267855-2015-03-11.html
p5
aVhttps://www.pagina12.com.ar/diario/economia/2-267847-2015-03-11.html
p6
aVhttps://www.pagina12.com.ar/diario/economia/2-267848-2015-03-11.html
p7
aVhttps://www.pagina12.com.ar/diario/economia/2-267844-2015-03-11.html
p8
aVhttps://www.pagina12.com.ar/diario/economia/2-267845-2015-03-11.html
p9
aVhttps://www.pagina12.com.ar/diario/economia/2-267846-2015-03-11.html
p10
aVhttps://www.pagina12.com.ar/diario/economia/2-267849-2015-03-11.html
p11
aVhttps://www.pagina12.com.ar/diario/economia/2-267850-2015-03-11.html
p12
aVhttps://www.pagina12.com.ar/diario/economia/2-267856-2015-03-11.html
p13
aVhttps://www.pagina12.com.ar/diario/economia/2-267857-2015-03-11.html
p14
a.