(lp0
Vhttps://www.pagina12.com.ar/diario/elpais/1-284244-2015-10-20.html
p1
aVhttps://www.pagina12.com.ar/diario/elpais/1-284245-2015-10-20.html
p2
aVhttps://www.pagina12.com.ar/diario/elpais/1-284246-2015-10-20.html
p3
aVhttps://www.pagina12.com.ar/diario/elpais/1-284233-2015-10-20.html
p4
aVhttps://www.pagina12.com.ar/diario/elpais/1-284234-2015-10-20.html
p5
aVhttps://www.pagina12.com.ar/diario/elpais/1-284235-2015-10-20.html
p6
aVhttps://www.pagina12.com.ar/diario/elpais/1-284236-2015-10-20.html
p7
aVhttps://www.pagina12.com.ar/diario/elpais/1-284237-2015-10-20.html
p8
aVhttps://www.pagina12.com.ar/diario/elpais/1-284238-2015-10-20.html
p9
aVhttps://www.pagina12.com.ar/diario/elpais/1-284239-2015-10-20.html
p10
aVhttps://www.pagina12.com.ar/diario/elpais/1-284240-2015-10-20.html
p11
aVhttps://www.pagina12.com.ar/diario/elpais/1-284241-2015-10-20.html
p12
aVhttps://www.pagina12.com.ar/diario/elpais/1-284242-2015-10-20.html
p13
aVhttps://www.pagina12.com.ar/diario/elpais/1-284226-2015-10-20.html
p14
aVhttps://www.pagina12.com.ar/diario/elpais/1-284227-2015-10-20.html
p15
aVhttps://www.pagina12.com.ar/diario/elpais/1-284228-2015-10-20.html
p16
aVhttps://www.pagina12.com.ar/diario/elpais/1-284229-2015-10-20.html
p17
aVhttps://www.pagina12.com.ar/diario/elpais/1-284230-2015-10-20.html
p18
aVhttps://www.pagina12.com.ar/diario/elpais/1-284231-2015-10-20.html
p19
aVhttps://www.pagina12.com.ar/diario/elpais/1-284232-2015-10-20.html
p20
aVhttps://www.pagina12.com.ar/diario/elpais/1-284219-2015-10-20.html
p21
aVhttps://www.pagina12.com.ar/diario/elpais/1-284220-2015-10-20.html
p22
aVhttps://www.pagina12.com.ar/diario/elpais/1-284221-2015-10-20.html
p23
aVhttps://www.pagina12.com.ar/diario/elpais/1-284223-2015-10-20.html
p24
a.