(lp0
Vhttps://www.pagina12.com.ar/diario/elpais/1-268144-2015-03-14.html
p1
aVhttps://www.pagina12.com.ar/diario/elpais/1-268145-2015-03-14.html
p2
aVhttps://www.pagina12.com.ar/diario/elpais/1-268146-2015-03-14.html
p3
aVhttps://www.pagina12.com.ar/diario/elpais/1-268137-2015-03-14.html
p4
aVhttps://www.pagina12.com.ar/diario/elpais/1-268138-2015-03-14.html
p5
aVhttps://www.pagina12.com.ar/diario/elpais/1-268139-2015-03-14.html
p6
aVhttps://www.pagina12.com.ar/diario/elpais/1-268120-2015-03-14.html
p7
aVhttps://www.pagina12.com.ar/diario/elpais/1-268121-2015-03-14.html
p8
aVhttps://www.pagina12.com.ar/diario/elpais/1-268112-2015-03-14.html
p9
aVhttps://www.pagina12.com.ar/diario/elpais/1-268113-2015-03-14.html
p10
aVhttps://www.pagina12.com.ar/diario/elpais/1-268114-2015-03-14.html
p11
aVhttps://www.pagina12.com.ar/diario/elpais/1-268147-2015-03-14.html
p12
aVhttps://www.pagina12.com.ar/diario/elpais/1-268122-2015-03-14.html
p13
aVhttps://www.pagina12.com.ar/diario/elpais/1-268123-2015-03-14.html
p14
aVhttps://www.pagina12.com.ar/diario/elpais/1-268124-2015-03-14.html
p15
a.