(lp0
Vhttps://www.pagina12.com.ar/diario/elpais/1-263333-2015-01-06.html
p1
aVhttps://www.pagina12.com.ar/diario/elpais/1-263334-2015-01-06.html
p2
aVhttps://www.pagina12.com.ar/diario/elpais/1-263335-2015-01-06.html
p3
aVhttps://www.pagina12.com.ar/diario/elpais/1-263336-2015-01-06.html
p4
aVhttps://www.pagina12.com.ar/diario/elpais/1-263331-2015-01-06.html
p5
aVhttps://www.pagina12.com.ar/diario/elpais/1-263332-2015-01-06.html
p6
aVhttps://www.pagina12.com.ar/diario/elpais/1-263325-2015-01-06.html
p7
aVhttps://www.pagina12.com.ar/diario/elpais/1-263326-2015-01-06.html
p8
aVhttps://www.pagina12.com.ar/diario/elpais/1-263327-2015-01-06.html
p9
aVhttps://www.pagina12.com.ar/diario/elpais/1-263328-2015-01-06.html
p10
aVhttps://www.pagina12.com.ar/diario/elpais/1-263329-2015-01-06.html
p11
aVhttps://www.pagina12.com.ar/diario/elpais/1-263330-2015-01-06.html
p12
aVhttps://www.pagina12.com.ar/diario/elpais/1-263308-2015-01-06.html
p13
aVhttps://www.pagina12.com.ar/diario/elpais/1-263309-2015-01-06.html
p14
aVhttps://www.pagina12.com.ar/diario/elpais/1-263310-2015-01-06.html
p15
aVhttps://www.pagina12.com.ar/diario/elpais/1-263311-2015-01-06.html
p16
aVhttps://www.pagina12.com.ar/diario/elpais/1-263306-2015-01-06.html
p17
aVhttps://www.pagina12.com.ar/diario/elpais/1-263307-2015-01-06.html
p18
a.