(lp0
Vhttps://www.pagina12.com.ar/diario/sociedad/3-266829-2015-02-25.html
p1
aVhttps://www.pagina12.com.ar/diario/sociedad/3-266864-2015-02-25.html
p2
aVhttps://www.pagina12.com.ar/diario/sociedad/3-266865-2015-02-25.html
p3
aVhttps://www.pagina12.com.ar/diario/sociedad/3-266838-2015-02-25.html
p4
aVhttps://www.pagina12.com.ar/diario/sociedad/3-266839-2015-02-25.html
p5
aVhttps://www.pagina12.com.ar/diario/sociedad/3-266866-2015-02-25.html
p6
aVhttps://www.pagina12.com.ar/diario/sociedad/3-266867-2015-02-25.html
p7
aVhttps://www.pagina12.com.ar/diario/sociedad/3-266830-2015-02-25.html
p8
a.