(lp0
Vhttps://www.pagina12.com.ar/diario/economia/2-287789-2015-12-08.html
p1
aVhttps://www.pagina12.com.ar/diario/economia/2-287790-2015-12-08.html
p2
aVhttps://www.pagina12.com.ar/diario/economia/2-287787-2015-12-08.html
p3
aVhttps://www.pagina12.com.ar/diario/economia/2-287788-2015-12-08.html
p4
aVhttps://www.pagina12.com.ar/diario/economia/2-287785-2015-12-08.html
p5
aVhttps://www.pagina12.com.ar/diario/economia/2-287786-2015-12-08.html
p6
aVhttps://www.pagina12.com.ar/diario/economia/2-287791-2015-12-08.html
p7
aVhttps://www.pagina12.com.ar/diario/economia/2-287792-2015-12-08.html
p8
a.