(lp0
Vhttps://www.pagina12.com.ar/diario/sociedad/3-308362-2016-09-02.html
p1
aVhttps://www.pagina12.com.ar/diario/sociedad/3-308390-2016-09-02.html
p2
aVhttps://www.pagina12.com.ar/diario/sociedad/3-308340-2016-09-02.html
p3
aVhttps://www.pagina12.com.ar/diario/sociedad/3-308338-2016-09-02.html
p4
aVhttps://www.pagina12.com.ar/diario/sociedad/3-308339-2016-09-02.html
p5
aVhttps://www.pagina12.com.ar/diario/sociedad/3-308364-2016-09-02.html
p6
aVhttps://www.pagina12.com.ar/diario/sociedad/3-308365-2016-09-02.html
p7
aVhttps://www.pagina12.com.ar/diario/sociedad/3-308366-2016-09-02.html
p8
aVhttps://www.pagina12.com.ar/diario/sociedad/3-308367-2016-09-02.html
p9
aVhttps://www.pagina12.com.ar/diario/sociedad/3-308391-2016-09-02.html
p10
aVhttps://www.pagina12.com.ar/diario/sociedad/3-308392-2016-09-02.html
p11
aVhttps://www.pagina12.com.ar/diario/sociedad/3-308393-2016-09-02.html
p12
aVhttps://www.pagina12.com.ar/diario/sociedad/3-308394-2016-09-02.html
p13
aVhttps://www.pagina12.com.ar/diario/sociedad/3-308341-2016-09-02.html
p14
aVhttps://www.pagina12.com.ar/diario/sociedad/3-308342-2016-09-02.html
p15
a.