(lp0
Vhttps://www.pagina12.com.ar/diario/elpais/1-305246-2016-07-26.html
p1
aVhttps://www.pagina12.com.ar/diario/elpais/1-305247-2016-07-26.html
p2
aVhttps://www.pagina12.com.ar/diario/elpais/1-305243-2016-07-26.html
p3
aVhttps://www.pagina12.com.ar/diario/elpais/1-305244-2016-07-26.html
p4
aVhttps://www.pagina12.com.ar/diario/elpais/1-305245-2016-07-26.html
p5
aVhttps://www.pagina12.com.ar/diario/elpais/1-305238-2016-07-26.html
p6
aVhttps://www.pagina12.com.ar/diario/elpais/1-305239-2016-07-26.html
p7
aVhttps://www.pagina12.com.ar/diario/elpais/1-305240-2016-07-26.html
p8
aVhttps://www.pagina12.com.ar/diario/elpais/1-305241-2016-07-26.html
p9
aVhttps://www.pagina12.com.ar/diario/elpais/1-305242-2016-07-26.html
p10
aVhttps://www.pagina12.com.ar/diario/elpais/1-305232-2016-07-26.html
p11
aVhttps://www.pagina12.com.ar/diario/elpais/1-305233-2016-07-26.html
p12
aVhttps://www.pagina12.com.ar/diario/elpais/1-305234-2016-07-26.html
p13
aVhttps://www.pagina12.com.ar/diario/elpais/1-305235-2016-07-26.html
p14
aVhttps://www.pagina12.com.ar/diario/elpais/1-305236-2016-07-26.html
p15
aVhttps://www.pagina12.com.ar/diario/elpais/1-305237-2016-07-26.html
p16
aVhttps://www.pagina12.com.ar/diario/elpais/1-305227-2016-07-26.html
p17
aVhttps://www.pagina12.com.ar/diario/elpais/1-305228-2016-07-26.html
p18
aVhttps://www.pagina12.com.ar/diario/elpais/1-305229-2016-07-26.html
p19
aVhttps://www.pagina12.com.ar/diario/elpais/1-305230-2016-07-26.html
p20
aVhttps://www.pagina12.com.ar/diario/elpais/1-305231-2016-07-26.html
p21
aVhttps://www.pagina12.com.ar/diario/elpais/1-305215-2016-07-26.html
p22
aVhttps://www.pagina12.com.ar/diario/elpais/1-305216-2016-07-26.html
p23
aVhttps://www.pagina12.com.ar/diario/elpais/1-305212-2016-07-26.html
p24
aVhttps://www.pagina12.com.ar/diario/elpais/1-305213-2016-07-26.html
p25
aVhttps://www.pagina12.com.ar/diario/elpais/1-305214-2016-07-26.html
p26
a.