(lp0
Vhttps://www.pagina12.com.ar/diario/economia/2-310650-2016-09-30.html
p1
aVhttps://www.pagina12.com.ar/diario/economia/2-310644-2016-09-30.html
p2
aVhttps://www.pagina12.com.ar/diario/economia/2-310645-2016-09-30.html
p3
aVhttps://www.pagina12.com.ar/diario/economia/2-310638-2016-09-30.html
p4
aVhttps://www.pagina12.com.ar/diario/economia/2-310642-2016-09-30.html
p5
aVhttps://www.pagina12.com.ar/diario/economia/2-310643-2016-09-30.html
p6
aVhttps://www.pagina12.com.ar/diario/economia/2-310639-2016-09-30.html
p7
aVhttps://www.pagina12.com.ar/diario/economia/2-310640-2016-09-30.html
p8
aVhttps://www.pagina12.com.ar/diario/economia/2-310641-2016-09-30.html
p9
a.