(lp0
Vhttps://www.pagina12.com.ar/diario/sociedad/3-299431-2016-05-16.html
p1
aVhttps://www.pagina12.com.ar/diario/sociedad/3-299427-2016-05-16.html
p2
aVhttps://www.pagina12.com.ar/diario/sociedad/3-299426-2016-05-16.html
p3
aVhttps://www.pagina12.com.ar/diario/sociedad/3-299424-2016-05-16.html
p4
aVhttps://www.pagina12.com.ar/diario/sociedad/3-299428-2016-05-16.html
p5
aVhttps://www.pagina12.com.ar/diario/sociedad/3-299429-2016-05-16.html
p6
aVhttps://www.pagina12.com.ar/diario/sociedad/3-299430-2016-05-16.html
p7
aVhttps://www.pagina12.com.ar/diario/sociedad/3-299432-2016-05-16.html
p8
aVhttps://www.pagina12.com.ar/diario/sociedad/3-299433-2016-05-16.html
p9
a.