(lp0
Vhttps://www.pagina12.com.ar/diario/sociedad/3-302101-2016-06-19.html
p1
aVhttps://www.pagina12.com.ar/diario/sociedad/3-302125-2016-06-19.html
p2
aVhttps://www.pagina12.com.ar/diario/sociedad/3-302126-2016-06-19.html
p3
aVhttps://www.pagina12.com.ar/diario/sociedad/3-302127-2016-06-19.html
p4
a.