(lp0
Vhttps://www.pagina12.com.ar/diario/elpais/1-294714-2016-03-16.html
p1
aVhttps://www.pagina12.com.ar/diario/elpais/1-294716-2016-03-16.html
p2
aVhttps://www.pagina12.com.ar/diario/elpais/1-294698-2016-03-16.html
p3
aVhttps://www.pagina12.com.ar/diario/elpais/1-294699-2016-03-16.html
p4
aVhttps://www.pagina12.com.ar/diario/elpais/1-294700-2016-03-16.html
p5
aVhttps://www.pagina12.com.ar/diario/elpais/1-294704-2016-03-16.html
p6
aVhttps://www.pagina12.com.ar/diario/elpais/1-294705-2016-03-16.html
p7
aVhttps://www.pagina12.com.ar/diario/elpais/1-294691-2016-03-16.html
p8
aVhttps://www.pagina12.com.ar/diario/elpais/1-294707-2016-03-16.html
p9
aVhttps://www.pagina12.com.ar/diario/elpais/1-294708-2016-03-16.html
p10
aVhttps://www.pagina12.com.ar/diario/elpais/1-294680-2016-03-16.html
p11
aVhttps://www.pagina12.com.ar/diario/elpais/1-294682-2016-03-16.html
p12
aVhttps://www.pagina12.com.ar/diario/elpais/1-294685-2016-03-16.html
p13
aVhttps://www.pagina12.com.ar/diario/elpais/1-294688-2016-03-16.html
p14
aVhttps://www.pagina12.com.ar/diario/elpais/1-294670-2016-03-16.html
p15
aVhttps://www.pagina12.com.ar/diario/elpais/1-294676-2016-03-16.html
p16
aVhttps://www.pagina12.com.ar/diario/elpais/1-294677-2016-03-16.html
p17
aVhttps://www.pagina12.com.ar/diario/elpais/1-294709-2016-03-16.html
p18
a.