(lp0
Vhttps://www.pagina12.com.ar/diario/elpais/1-291151-2016-01-26.html
p1
aVhttps://www.pagina12.com.ar/diario/elpais/1-291152-2016-01-26.html
p2
aVhttps://www.pagina12.com.ar/diario/elpais/1-291153-2016-01-26.html
p3
aVhttps://www.pagina12.com.ar/diario/elpais/1-291154-2016-01-26.html
p4
aVhttps://www.pagina12.com.ar/diario/elpais/1-291147-2016-01-26.html
p5
aVhttps://www.pagina12.com.ar/diario/elpais/1-291148-2016-01-26.html
p6
aVhttps://www.pagina12.com.ar/diario/elpais/1-291149-2016-01-26.html
p7
aVhttps://www.pagina12.com.ar/diario/elpais/1-291150-2016-01-26.html
p8
aVhttps://www.pagina12.com.ar/diario/elpais/1-291141-2016-01-26.html
p9
aVhttps://www.pagina12.com.ar/diario/elpais/1-291142-2016-01-26.html
p10
aVhttps://www.pagina12.com.ar/diario/elpais/1-291143-2016-01-26.html
p11
aVhttps://www.pagina12.com.ar/diario/elpais/1-291144-2016-01-26.html
p12
aVhttps://www.pagina12.com.ar/diario/elpais/1-291145-2016-01-26.html
p13
aVhttps://www.pagina12.com.ar/diario/elpais/1-291146-2016-01-26.html
p14
aVhttps://www.pagina12.com.ar/diario/elpais/1-291140-2016-01-26.html
p15
aVhttps://www.pagina12.com.ar/diario/elpais/1-291137-2016-01-26.html
p16
aVhttps://www.pagina12.com.ar/diario/elpais/1-291138-2016-01-26.html
p17
aVhttps://www.pagina12.com.ar/diario/elpais/1-291139-2016-01-26.html
p18
a.