(lp0
Vhttps://www.pagina12.com.ar/diario/sociedad/3-307622-2016-08-24.html
p1
aVhttps://www.pagina12.com.ar/diario/sociedad/3-307647-2016-08-24.html
p2
aVhttps://www.pagina12.com.ar/diario/sociedad/3-307648-2016-08-24.html
p3
aVhttps://www.pagina12.com.ar/diario/sociedad/3-307643-2016-08-24.html
p4
aVhttps://www.pagina12.com.ar/diario/sociedad/3-307644-2016-08-24.html
p5
aVhttps://www.pagina12.com.ar/diario/sociedad/3-307638-2016-08-24.html
p6
aVhttps://www.pagina12.com.ar/diario/sociedad/3-307639-2016-08-24.html
p7
aVhttps://www.pagina12.com.ar/diario/sociedad/3-307640-2016-08-24.html
p8
aVhttps://www.pagina12.com.ar/diario/sociedad/3-307649-2016-08-24.html
p9
aVhttps://www.pagina12.com.ar/diario/sociedad/3-307650-2016-08-24.html
p10
a.