(lp0
Vhttps://www.pagina12.com.ar/diario/elpais/1-304938-2016-07-22.html
p1
aVhttps://www.pagina12.com.ar/diario/elpais/1-304939-2016-07-22.html
p2
aVhttps://www.pagina12.com.ar/diario/elpais/1-304925-2016-07-22.html
p3
aVhttps://www.pagina12.com.ar/diario/elpais/1-304926-2016-07-22.html
p4
aVhttps://www.pagina12.com.ar/diario/elpais/1-304927-2016-07-22.html
p5
aVhttps://www.pagina12.com.ar/diario/elpais/1-304921-2016-07-22.html
p6
aVhttps://www.pagina12.com.ar/diario/elpais/1-304923-2016-07-22.html
p7
aVhttps://www.pagina12.com.ar/diario/elpais/1-304924-2016-07-22.html
p8
aVhttps://www.pagina12.com.ar/diario/elpais/1-304913-2016-07-22.html
p9
aVhttps://www.pagina12.com.ar/diario/elpais/1-304912-2016-07-22.html
p10
aVhttps://www.pagina12.com.ar/diario/elpais/1-304914-2016-07-22.html
p11
aVhttps://www.pagina12.com.ar/diario/elpais/1-304910-2016-07-22.html
p12
aVhttps://www.pagina12.com.ar/diario/elpais/1-304911-2016-07-22.html
p13
aVhttps://www.pagina12.com.ar/diario/elpais/1-304915-2016-07-22.html
p14
aVhttps://www.pagina12.com.ar/diario/elpais/1-304916-2016-07-22.html
p15
aVhttps://www.pagina12.com.ar/diario/elpais/1-304922-2016-07-22.html
p16
aVhttps://www.pagina12.com.ar/diario/elpais/1-304928-2016-07-22.html
p17
aVhttps://www.pagina12.com.ar/diario/elpais/1-304929-2016-07-22.html
p18
aVhttps://www.pagina12.com.ar/diario/elpais/1-304930-2016-07-22.html
p19
a.