(lp0
Vhttps://www.pagina12.com.ar/diario/elpais/1-294507-2016-03-14.html
p1
aVhttps://www.pagina12.com.ar/diario/elpais/1-294508-2016-03-14.html
p2
aVhttps://www.pagina12.com.ar/diario/elpais/1-294509-2016-03-14.html
p3
aVhttps://www.pagina12.com.ar/diario/elpais/1-294513-2016-03-14.html
p4
aVhttps://www.pagina12.com.ar/diario/elpais/1-294514-2016-03-14.html
p5
aVhttps://www.pagina12.com.ar/diario/elpais/1-294515-2016-03-14.html
p6
aVhttps://www.pagina12.com.ar/diario/elpais/1-294516-2016-03-14.html
p7
aVhttps://www.pagina12.com.ar/diario/elpais/1-294517-2016-03-14.html
p8
aVhttps://www.pagina12.com.ar/diario/elpais/1-294510-2016-03-14.html
p9
aVhttps://www.pagina12.com.ar/diario/elpais/1-294511-2016-03-14.html
p10
aVhttps://www.pagina12.com.ar/diario/elpais/1-294512-2016-03-14.html
p11
aVhttps://www.pagina12.com.ar/diario/elpais/1-294518-2016-03-14.html
p12
aVhttps://www.pagina12.com.ar/diario/elpais/1-294519-2016-03-14.html
p13
aVhttps://www.pagina12.com.ar/diario/elpais/1-294520-2016-03-14.html
p14
a.