(lp0
Vhttps://www.pagina12.com.ar/diario/elpais/1-296340-2016-04-06.html
p1
aVhttps://www.pagina12.com.ar/diario/elpais/1-296341-2016-04-06.html
p2
aVhttps://www.pagina12.com.ar/diario/elpais/1-296326-2016-04-06.html
p3
aVhttps://www.pagina12.com.ar/diario/elpais/1-296327-2016-04-06.html
p4
aVhttps://www.pagina12.com.ar/diario/elpais/1-296328-2016-04-06.html
p5
aVhttps://www.pagina12.com.ar/diario/elpais/1-296318-2016-04-06.html
p6
aVhttps://www.pagina12.com.ar/diario/elpais/1-296294-2016-04-06.html
p7
aVhttps://www.pagina12.com.ar/diario/elpais/1-296295-2016-04-06.html
p8
aVhttps://www.pagina12.com.ar/diario/elpais/1-296298-2016-04-06.html
p9
aVhttps://www.pagina12.com.ar/diario/elpais/1-296299-2016-04-06.html
p10
aVhttps://www.pagina12.com.ar/diario/elpais/1-296333-2016-04-06.html
p11
aVhttps://www.pagina12.com.ar/diario/elpais/1-296334-2016-04-06.html
p12
aVhttps://www.pagina12.com.ar/diario/elpais/1-296335-2016-04-06.html
p13
aVhttps://www.pagina12.com.ar/diario/elpais/1-296336-2016-04-06.html
p14
aVhttps://www.pagina12.com.ar/diario/elpais/1-296322-2016-04-06.html
p15
aVhttps://www.pagina12.com.ar/diario/elpais/1-296323-2016-04-06.html
p16
aVhttps://www.pagina12.com.ar/diario/elpais/1-296324-2016-04-06.html
p17
aVhttps://www.pagina12.com.ar/diario/elpais/1-296325-2016-04-06.html
p18
aVhttps://www.pagina12.com.ar/diario/elpais/1-296329-2016-04-06.html
p19
aVhttps://www.pagina12.com.ar/diario/elpais/1-296330-2016-04-06.html
p20
aVhttps://www.pagina12.com.ar/diario/elpais/1-296331-2016-04-06.html
p21
aVhttps://www.pagina12.com.ar/diario/elpais/1-296332-2016-04-06.html
p22
aVhttps://www.pagina12.com.ar/diario/elpais/1-296300-2016-04-06.html
p23
aVhttps://www.pagina12.com.ar/diario/elpais/1-296301-2016-04-06.html
p24
aVhttps://www.pagina12.com.ar/diario/elpais/1-296302-2016-04-06.html
p25
aVhttps://www.pagina12.com.ar/diario/elpais/1-296337-2016-04-06.html
p26
aVhttps://www.pagina12.com.ar/diario/elpais/1-296338-2016-04-06.html
p27
aVhttps://www.pagina12.com.ar/diario/elpais/1-296339-2016-04-06.html
p28
a.