(lp0
Vhttps://www.pagina12.com.ar/diario/economia/2-308013-2016-08-29.html
p1
aVhttps://www.pagina12.com.ar/diario/economia/2-308010-2016-08-29.html
p2
aVhttps://www.pagina12.com.ar/diario/economia/2-308009-2016-08-29.html
p3
aVhttps://www.pagina12.com.ar/diario/economia/2-308012-2016-08-29.html
p4
aVhttps://www.pagina12.com.ar/diario/economia/2-308011-2016-08-29.html
p5
a.