(lp0
Vhttps://www.pagina12.com.ar/diario/economia/2-309184-2016-09-12.html
p1
aVhttps://www.pagina12.com.ar/diario/economia/2-309183-2016-09-12.html
p2
aVhttps://www.pagina12.com.ar/diario/economia/2-309181-2016-09-12.html
p3
aVhttps://www.pagina12.com.ar/diario/economia/2-309182-2016-09-12.html
p4
a.