(lp0
Vhttps://www.pagina12.com.ar/diario/economia/2-313709-2016-11-08.html
p1
aVhttps://www.pagina12.com.ar/diario/economia/2-313710-2016-11-08.html
p2
aVhttps://www.pagina12.com.ar/diario/economia/2-313711-2016-11-08.html
p3
aVhttps://www.pagina12.com.ar/diario/economia/2-313708-2016-11-08.html
p4
aVhttps://www.pagina12.com.ar/diario/economia/2-313705-2016-11-08.html
p5
aVhttps://www.pagina12.com.ar/diario/economia/2-313706-2016-11-08.html
p6
aVhttps://www.pagina12.com.ar/diario/economia/2-313707-2016-11-08.html
p7
aVhttps://www.pagina12.com.ar/diario/economia/2-313702-2016-11-08.html
p8
aVhttps://www.pagina12.com.ar/diario/economia/2-313703-2016-11-08.html
p9
aVhttps://www.pagina12.com.ar/diario/economia/2-313704-2016-11-08.html
p10
a.