(lp0
Vhttps://www.pagina12.com.ar/diario/sociedad/3-304813-2016-07-21.html
p1
aVhttps://www.pagina12.com.ar/diario/sociedad/3-304814-2016-07-21.html
p2
aVhttps://www.pagina12.com.ar/diario/sociedad/3-304791-2016-07-21.html
p3
aVhttps://www.pagina12.com.ar/diario/sociedad/3-304792-2016-07-21.html
p4
aVhttps://www.pagina12.com.ar/diario/sociedad/3-304826-2016-07-21.html
p5
aVhttps://www.pagina12.com.ar/diario/sociedad/3-304827-2016-07-21.html
p6
aVhttps://www.pagina12.com.ar/diario/sociedad/3-304828-2016-07-21.html
p7
aVhttps://www.pagina12.com.ar/diario/sociedad/3-304815-2016-07-21.html
p8
aVhttps://www.pagina12.com.ar/diario/sociedad/3-304816-2016-07-21.html
p9
aVhttps://www.pagina12.com.ar/diario/sociedad/3-304817-2016-07-21.html
p10
aVhttps://www.pagina12.com.ar/diario/sociedad/3-304829-2016-07-21.html
p11
aVhttps://www.pagina12.com.ar/diario/sociedad/3-304830-2016-07-21.html
p12
aVhttps://www.pagina12.com.ar/diario/sociedad/3-304831-2016-07-21.html
p13
a.