(lp0
Vhttps://www.pagina12.com.ar/diario/economia/2-290774-2016-01-21.html
p1
aVhttps://www.pagina12.com.ar/diario/economia/2-290775-2016-01-21.html
p2
aVhttps://www.pagina12.com.ar/diario/economia/2-290771-2016-01-21.html
p3
aVhttps://www.pagina12.com.ar/diario/economia/2-290772-2016-01-21.html
p4
aVhttps://www.pagina12.com.ar/diario/economia/2-290773-2016-01-21.html
p5
aVhttps://www.pagina12.com.ar/diario/economia/2-290765-2016-01-21.html
p6
aVhttps://www.pagina12.com.ar/diario/economia/2-290767-2016-01-21.html
p7
aVhttps://www.pagina12.com.ar/diario/economia/2-290768-2016-01-21.html
p8
aVhttps://www.pagina12.com.ar/diario/economia/2-290769-2016-01-21.html
p9
aVhttps://www.pagina12.com.ar/diario/economia/2-290770-2016-01-21.html
p10
a.