(lp0
Vhttps://www.pagina12.com.ar/diario/economia/2-295715-2016-03-30.html
p1
aVhttps://www.pagina12.com.ar/diario/economia/2-295716-2016-03-30.html
p2
aVhttps://www.pagina12.com.ar/diario/economia/2-295717-2016-03-30.html
p3
aVhttps://www.pagina12.com.ar/diario/economia/2-295718-2016-03-30.html
p4
aVhttps://www.pagina12.com.ar/diario/economia/2-295713-2016-03-30.html
p5
aVhttps://www.pagina12.com.ar/diario/economia/2-295714-2016-03-30.html
p6
aVhttps://www.pagina12.com.ar/diario/economia/2-295711-2016-03-30.html
p7
aVhttps://www.pagina12.com.ar/diario/economia/2-295712-2016-03-30.html
p8
a.