(lp0
Vhttps://www.pagina12.com.ar/diario/elpais/1-312901-2016-10-28.html
p1
aVhttps://www.pagina12.com.ar/diario/elpais/1-312902-2016-10-28.html
p2
aVhttps://www.pagina12.com.ar/diario/elpais/1-312893-2016-10-28.html
p3
aVhttps://www.pagina12.com.ar/diario/elpais/1-312892-2016-10-28.html
p4
aVhttps://www.pagina12.com.ar/diario/elpais/1-312883-2016-10-28.html
p5
aVhttps://www.pagina12.com.ar/diario/elpais/1-312880-2016-10-28.html
p6
aVhttps://www.pagina12.com.ar/diario/elpais/1-312881-2016-10-28.html
p7
aVhttps://www.pagina12.com.ar/diario/elpais/1-312882-2016-10-28.html
p8
aVhttps://www.pagina12.com.ar/diario/elpais/1-312878-2016-10-28.html
p9
aVhttps://www.pagina12.com.ar/diario/elpais/1-312879-2016-10-28.html
p10
aVhttps://www.pagina12.com.ar/diario/elpais/1-312877-2016-10-28.html
p11
aVhttps://www.pagina12.com.ar/diario/elpais/1-312875-2016-10-28.html
p12
aVhttps://www.pagina12.com.ar/diario/elpais/1-312876-2016-10-28.html
p13
aVhttps://www.pagina12.com.ar/diario/elpais/1-312874-2016-10-28.html
p14
aVhttps://www.pagina12.com.ar/diario/elpais/1-312873-2016-10-28.html
p15
aVhttps://www.pagina12.com.ar/diario/elpais/1-312871-2016-10-28.html
p16
aVhttps://www.pagina12.com.ar/diario/elpais/1-312872-2016-10-28.html
p17
a.