(lp0
Vhttps://www.pagina12.com.ar/diario/elpais/1-290516-2016-01-17.html
p1
aVhttps://www.pagina12.com.ar/diario/elpais/1-290517-2016-01-17.html
p2
aVhttps://www.pagina12.com.ar/diario/elpais/1-290513-2016-01-17.html
p3
aVhttps://www.pagina12.com.ar/diario/elpais/1-290514-2016-01-17.html
p4
aVhttps://www.pagina12.com.ar/diario/elpais/1-290515-2016-01-17.html
p5
aVhttps://www.pagina12.com.ar/diario/elpais/1-290509-2016-01-17.html
p6
aVhttps://www.pagina12.com.ar/diario/elpais/1-290512-2016-01-17.html
p7
aVhttps://www.pagina12.com.ar/diario/elpais/1-290495-2016-01-17.html
p8
aVhttps://www.pagina12.com.ar/diario/elpais/1-290492-2016-01-17.html
p9
aVhttps://www.pagina12.com.ar/diario/elpais/1-290493-2016-01-17.html
p10
aVhttps://www.pagina12.com.ar/diario/elpais/1-290494-2016-01-17.html
p11
aVhttps://www.pagina12.com.ar/diario/elpais/1-290506-2016-01-17.html
p12
aVhttps://www.pagina12.com.ar/diario/elpais/1-290507-2016-01-17.html
p13
aVhttps://www.pagina12.com.ar/diario/elpais/1-290508-2016-01-17.html
p14
aVhttps://www.pagina12.com.ar/diario/elpais/1-290510-2016-01-17.html
p15
aVhttps://www.pagina12.com.ar/diario/elpais/1-290511-2016-01-17.html
p16
a.