(lp0
Vhttps://www.pagina12.com.ar/diario/sociedad/3-301973-2016-06-17.html
p1
aVhttps://www.pagina12.com.ar/diario/sociedad/3-302004-2016-06-17.html
p2
aVhttps://www.pagina12.com.ar/diario/sociedad/3-301974-2016-06-17.html
p3
aVhttps://www.pagina12.com.ar/diario/sociedad/3-302005-2016-06-17.html
p4
aVhttps://www.pagina12.com.ar/diario/sociedad/3-301969-2016-06-17.html
p5
aVhttps://www.pagina12.com.ar/diario/sociedad/3-301970-2016-06-17.html
p6
aVhttps://www.pagina12.com.ar/diario/sociedad/3-301994-2016-06-17.html
p7
aVhttps://www.pagina12.com.ar/diario/sociedad/3-301995-2016-06-17.html
p8
aVhttps://www.pagina12.com.ar/diario/sociedad/3-301996-2016-06-17.html
p9
aVhttps://www.pagina12.com.ar/diario/sociedad/3-301997-2016-06-17.html
p10
aVhttps://www.pagina12.com.ar/diario/sociedad/3-301998-2016-06-17.html
p11
aVhttps://www.pagina12.com.ar/diario/sociedad/3-301999-2016-06-17.html
p12
aVhttps://www.pagina12.com.ar/diario/sociedad/3-302000-2016-06-17.html
p13
aVhttps://www.pagina12.com.ar/diario/sociedad/3-301971-2016-06-17.html
p14
aVhttps://www.pagina12.com.ar/diario/sociedad/3-301972-2016-06-17.html
p15
a.