(lp0
Vhttps://www.pagina12.com.ar/diario/economia/2-292824-2016-02-19.html
p1
aVhttps://www.pagina12.com.ar/diario/economia/2-292825-2016-02-19.html
p2
aVhttps://www.pagina12.com.ar/diario/economia/2-292822-2016-02-19.html
p3
aVhttps://www.pagina12.com.ar/diario/economia/2-292819-2016-02-19.html
p4
aVhttps://www.pagina12.com.ar/diario/economia/2-292817-2016-02-19.html
p5
aVhttps://www.pagina12.com.ar/diario/economia/2-292820-2016-02-19.html
p6
aVhttps://www.pagina12.com.ar/diario/economia/2-292821-2016-02-19.html
p7
aVhttps://www.pagina12.com.ar/diario/economia/2-292815-2016-02-19.html
p8
aVhttps://www.pagina12.com.ar/diario/economia/2-292818-2016-02-19.html
p9
aVhttps://www.pagina12.com.ar/diario/economia/2-292816-2016-02-19.html
p10
aVhttps://www.pagina12.com.ar/diario/economia/2-292801-2016-02-19.html
p11
aVhttps://www.pagina12.com.ar/diario/economia/2-292799-2016-02-19.html
p12
aVhttps://www.pagina12.com.ar/diario/economia/2-292800-2016-02-19.html
p13
a.