(lp0
Vhttps://www.pagina12.com.ar/diario/sociedad/3-301757-2016-06-15.html
p1
aVhttps://www.pagina12.com.ar/diario/sociedad/3-301758-2016-06-15.html
p2
aVhttps://www.pagina12.com.ar/diario/sociedad/3-301772-2016-06-15.html
p3
aVhttps://www.pagina12.com.ar/diario/sociedad/3-301773-2016-06-15.html
p4
aVhttps://www.pagina12.com.ar/diario/sociedad/3-301759-2016-06-15.html
p5
aVhttps://www.pagina12.com.ar/diario/sociedad/3-301760-2016-06-15.html
p6
a.