(lp0
Vhttps://www.pagina12.com.ar/diario/economia/2-291551-2016-02-01.html
p1
aVhttps://www.pagina12.com.ar/diario/economia/2-291561-2016-02-01.html
p2
aVhttps://www.pagina12.com.ar/diario/economia/2-291552-2016-02-01.html
p3
aVhttps://www.pagina12.com.ar/diario/economia/2-291520-2016-02-01.html
p4
a.