(lp0
Vhttps://www.pagina12.com.ar/diario/economia/2-301761-2016-06-15.html
p1
aVhttps://www.pagina12.com.ar/diario/economia/2-301762-2016-06-15.html
p2
aVhttps://www.pagina12.com.ar/diario/economia/2-301787-2016-06-15.html
p3
aVhttps://www.pagina12.com.ar/diario/economia/2-301788-2016-06-15.html
p4
aVhttps://www.pagina12.com.ar/diario/economia/2-301789-2016-06-15.html
p5
aVhttps://www.pagina12.com.ar/diario/economia/2-301775-2016-06-15.html
p6
aVhttps://www.pagina12.com.ar/diario/economia/2-301776-2016-06-15.html
p7
aVhttps://www.pagina12.com.ar/diario/economia/2-301780-2016-06-15.html
p8
aVhttps://www.pagina12.com.ar/diario/economia/2-301781-2016-06-15.html
p9
aVhttps://www.pagina12.com.ar/diario/economia/2-301777-2016-06-15.html
p10
aVhttps://www.pagina12.com.ar/diario/economia/2-301778-2016-06-15.html
p11
aVhttps://www.pagina12.com.ar/diario/economia/2-301779-2016-06-15.html
p12
a.