(lp0
Vhttps://www.pagina12.com.ar/diario/elpais/1-298631-2016-05-06.html
p1
aVhttps://www.pagina12.com.ar/diario/elpais/1-298642-2016-05-06.html
p2
aVhttps://www.pagina12.com.ar/diario/elpais/1-298643-2016-05-06.html
p3
aVhttps://www.pagina12.com.ar/diario/elpais/1-298644-2016-05-06.html
p4
aVhttps://www.pagina12.com.ar/diario/elpais/1-298623-2016-05-06.html
p5
aVhttps://www.pagina12.com.ar/diario/elpais/1-298621-2016-05-06.html
p6
aVhttps://www.pagina12.com.ar/diario/elpais/1-298624-2016-05-06.html
p7
aVhttps://www.pagina12.com.ar/diario/elpais/1-298662-2016-05-06.html
p8
aVhttps://www.pagina12.com.ar/diario/elpais/1-298663-2016-05-06.html
p9
aVhttps://www.pagina12.com.ar/diario/elpais/1-298664-2016-05-06.html
p10
aVhttps://www.pagina12.com.ar/diario/elpais/1-298658-2016-05-06.html
p11
aVhttps://www.pagina12.com.ar/diario/elpais/1-298659-2016-05-06.html
p12
aVhttps://www.pagina12.com.ar/diario/elpais/1-298660-2016-05-06.html
p13
aVhttps://www.pagina12.com.ar/diario/elpais/1-298632-2016-05-06.html
p14
aVhttps://www.pagina12.com.ar/diario/elpais/1-298645-2016-05-06.html
p15
aVhttps://www.pagina12.com.ar/diario/elpais/1-298646-2016-05-06.html
p16
aVhttps://www.pagina12.com.ar/diario/elpais/1-298647-2016-05-06.html
p17
aVhttps://www.pagina12.com.ar/diario/elpais/1-298661-2016-05-06.html
p18
aVhttps://www.pagina12.com.ar/diario/elpais/1-298665-2016-05-06.html
p19
aVhttps://www.pagina12.com.ar/diario/elpais/1-298666-2016-05-06.html
p20
aVhttps://www.pagina12.com.ar/diario/elpais/1-298622-2016-05-06.html
p21
aVhttps://www.pagina12.com.ar/diario/elpais/1-298625-2016-05-06.html
p22
a.