(lp0
Vhttps://www.pagina12.com.ar/diario/elpais/1-295409-2016-03-25.html
p1
aVhttps://www.pagina12.com.ar/diario/elpais/1-295410-2016-03-25.html
p2
aVhttps://www.pagina12.com.ar/diario/elpais/1-295411-2016-03-25.html
p3
aVhttps://www.pagina12.com.ar/diario/elpais/1-295412-2016-03-25.html
p4
aVhttps://www.pagina12.com.ar/diario/elpais/1-295397-2016-03-25.html
p5
aVhttps://www.pagina12.com.ar/diario/elpais/1-295398-2016-03-25.html
p6
aVhttps://www.pagina12.com.ar/diario/elpais/1-295396-2016-03-25.html
p7
aVhttps://www.pagina12.com.ar/diario/elpais/1-295392-2016-03-25.html
p8
aVhttps://www.pagina12.com.ar/diario/elpais/1-295379-2016-03-25.html
p9
aVhttps://www.pagina12.com.ar/diario/elpais/1-295406-2016-03-25.html
p10
aVhttps://www.pagina12.com.ar/diario/elpais/1-295407-2016-03-25.html
p11
aVhttps://www.pagina12.com.ar/diario/elpais/1-295408-2016-03-25.html
p12
aVhttps://www.pagina12.com.ar/diario/elpais/1-295362-2016-03-25.html
p13
aVhttps://www.pagina12.com.ar/diario/elpais/1-295364-2016-03-25.html
p14
aVhttps://www.pagina12.com.ar/diario/elpais/1-295400-2016-03-25.html
p15
aVhttps://www.pagina12.com.ar/diario/elpais/1-295401-2016-03-25.html
p16
aVhttps://www.pagina12.com.ar/diario/elpais/1-295402-2016-03-25.html
p17
aVhttps://www.pagina12.com.ar/diario/elpais/1-295403-2016-03-25.html
p18
aVhttps://www.pagina12.com.ar/diario/elpais/1-295404-2016-03-25.html
p19
aVhttps://www.pagina12.com.ar/diario/elpais/1-295405-2016-03-25.html
p20
aVhttps://www.pagina12.com.ar/diario/elpais/1-295393-2016-03-25.html
p21
a.