(lp0
Vhttps://www.pagina12.com.ar/diario/elpais/1-312529-2016-10-24.html
p1
aVhttps://www.pagina12.com.ar/diario/elpais/1-312525-2016-10-24.html
p2
aVhttps://www.pagina12.com.ar/diario/elpais/1-312523-2016-10-24.html
p3
aVhttps://www.pagina12.com.ar/diario/elpais/1-312524-2016-10-24.html
p4
aVhttps://www.pagina12.com.ar/diario/elpais/1-312518-2016-10-24.html
p5
aVhttps://www.pagina12.com.ar/diario/elpais/1-312519-2016-10-24.html
p6
aVhttps://www.pagina12.com.ar/diario/elpais/1-312517-2016-10-24.html
p7
aVhttps://www.pagina12.com.ar/diario/elpais/1-312516-2016-10-24.html
p8
aVhttps://www.pagina12.com.ar/diario/elpais/1-312515-2016-10-24.html
p9
aVhttps://www.pagina12.com.ar/diario/elpais/1-312520-2016-10-24.html
p10
aVhttps://www.pagina12.com.ar/diario/elpais/1-312521-2016-10-24.html
p11
aVhttps://www.pagina12.com.ar/diario/elpais/1-312522-2016-10-24.html
p12
aVhttps://www.pagina12.com.ar/diario/elpais/1-312526-2016-10-24.html
p13
aVhttps://www.pagina12.com.ar/diario/elpais/1-312527-2016-10-24.html
p14
aVhttps://www.pagina12.com.ar/diario/elpais/1-312528-2016-10-24.html
p15
a.