(lp0
Vhttps://www.pagina12.com.ar/diario/sociedad/3-303408-2016-07-05.html
p1
aVhttps://www.pagina12.com.ar/diario/sociedad/3-303401-2016-07-05.html
p2
aVhttps://www.pagina12.com.ar/diario/sociedad/3-303397-2016-07-05.html
p3
aVhttps://www.pagina12.com.ar/diario/sociedad/3-303398-2016-07-05.html
p4
aVhttps://www.pagina12.com.ar/diario/sociedad/3-303399-2016-07-05.html
p5
aVhttps://www.pagina12.com.ar/diario/sociedad/3-303400-2016-07-05.html
p6
aVhttps://www.pagina12.com.ar/diario/sociedad/3-303395-2016-07-05.html
p7
aVhttps://www.pagina12.com.ar/diario/sociedad/3-303396-2016-07-05.html
p8
aVhttps://www.pagina12.com.ar/diario/sociedad/3-303393-2016-07-05.html
p9
aVhttps://www.pagina12.com.ar/diario/sociedad/3-303394-2016-07-05.html
p10
aVhttps://www.pagina12.com.ar/diario/sociedad/3-303391-2016-07-05.html
p11
aVhttps://www.pagina12.com.ar/diario/sociedad/3-303392-2016-07-05.html
p12
a.