(lp0
Vhttps://www.pagina12.com.ar/diario/elpais/1-292505-2016-02-15.html
p1
aVhttps://www.pagina12.com.ar/diario/elpais/1-292500-2016-02-15.html
p2
aVhttps://www.pagina12.com.ar/diario/elpais/1-292506-2016-02-15.html
p3
aVhttps://www.pagina12.com.ar/diario/elpais/1-292507-2016-02-15.html
p4
aVhttps://www.pagina12.com.ar/diario/elpais/1-292478-2016-02-15.html
p5
aVhttps://www.pagina12.com.ar/diario/elpais/1-292479-2016-02-15.html
p6
aVhttps://www.pagina12.com.ar/diario/elpais/1-292480-2016-02-15.html
p7
aVhttps://www.pagina12.com.ar/diario/elpais/1-292491-2016-02-15.html
p8
aVhttps://www.pagina12.com.ar/diario/elpais/1-292492-2016-02-15.html
p9
aVhttps://www.pagina12.com.ar/diario/elpais/1-292481-2016-02-15.html
p10
aVhttps://www.pagina12.com.ar/diario/elpais/1-292487-2016-02-15.html
p11
aVhttps://www.pagina12.com.ar/diario/elpais/1-292501-2016-02-15.html
p12
aVhttps://www.pagina12.com.ar/diario/elpais/1-292502-2016-02-15.html
p13
aVhttps://www.pagina12.com.ar/diario/elpais/1-292503-2016-02-15.html
p14
aVhttps://www.pagina12.com.ar/diario/elpais/1-292504-2016-02-15.html
p15
aVhttps://www.pagina12.com.ar/diario/elpais/1-292508-2016-02-15.html
p16
aVhttps://www.pagina12.com.ar/diario/elpais/1-292509-2016-02-15.html
p17
aVhttps://www.pagina12.com.ar/diario/elpais/1-292482-2016-02-15.html
p18
aVhttps://www.pagina12.com.ar/diario/elpais/1-292483-2016-02-15.html
p19
aVhttps://www.pagina12.com.ar/diario/elpais/1-292488-2016-02-15.html
p20
aVhttps://www.pagina12.com.ar/diario/elpais/1-292489-2016-02-15.html
p21
aVhttps://www.pagina12.com.ar/diario/elpais/1-292490-2016-02-15.html
p22
a.