(lp0
Vhttps://www.pagina12.com.ar/diario/economia/2-293079-2016-02-23.html
p1
aVhttps://www.pagina12.com.ar/diario/economia/2-293075-2016-02-23.html
p2
aVhttps://www.pagina12.com.ar/diario/economia/2-293073-2016-02-23.html
p3
aVhttps://www.pagina12.com.ar/diario/economia/2-293074-2016-02-23.html
p4
aVhttps://www.pagina12.com.ar/diario/economia/2-293071-2016-02-23.html
p5
aVhttps://www.pagina12.com.ar/diario/economia/2-293072-2016-02-23.html
p6
a.