(lp0
Vhttps://www.pagina12.com.ar/diario/elpais/1-305977-2016-08-04.html
p1
aVhttps://www.pagina12.com.ar/diario/elpais/1-305978-2016-08-04.html
p2
aVhttps://www.pagina12.com.ar/diario/elpais/1-306003-2016-08-04.html
p3
aVhttps://www.pagina12.com.ar/diario/elpais/1-306005-2016-08-04.html
p4
aVhttps://www.pagina12.com.ar/diario/elpais/1-305974-2016-08-04.html
p5
aVhttps://www.pagina12.com.ar/diario/elpais/1-305975-2016-08-04.html
p6
aVhttps://www.pagina12.com.ar/diario/elpais/1-305976-2016-08-04.html
p7
aVhttps://www.pagina12.com.ar/diario/elpais/1-305973-2016-08-04.html
p8
aVhttps://www.pagina12.com.ar/diario/elpais/1-305969-2016-08-04.html
p9
aVhttps://www.pagina12.com.ar/diario/elpais/1-305967-2016-08-04.html
p10
aVhttps://www.pagina12.com.ar/diario/elpais/1-305968-2016-08-04.html
p11
aVhttps://www.pagina12.com.ar/diario/elpais/1-305970-2016-08-04.html
p12
aVhttps://www.pagina12.com.ar/diario/elpais/1-305971-2016-08-04.html
p13
aVhttps://www.pagina12.com.ar/diario/elpais/1-305972-2016-08-04.html
p14
a.