(lp0
Vhttps://www.pagina12.com.ar/diario/sociedad/3-307904-2016-08-27.html
p1
aVhttps://www.pagina12.com.ar/diario/sociedad/3-307902-2016-08-27.html
p2
aVhttps://www.pagina12.com.ar/diario/sociedad/3-307905-2016-08-27.html
p3
aVhttps://www.pagina12.com.ar/diario/sociedad/3-307897-2016-08-27.html
p4
aVhttps://www.pagina12.com.ar/diario/sociedad/3-307903-2016-08-27.html
p5
aVhttps://www.pagina12.com.ar/diario/sociedad/3-307895-2016-08-27.html
p6
aVhttps://www.pagina12.com.ar/diario/sociedad/3-307898-2016-08-27.html
p7
aVhttps://www.pagina12.com.ar/diario/sociedad/3-307896-2016-08-27.html
p8
aVhttps://www.pagina12.com.ar/diario/sociedad/3-307899-2016-08-27.html
p9
aVhttps://www.pagina12.com.ar/diario/sociedad/3-307900-2016-08-27.html
p10
aVhttps://www.pagina12.com.ar/diario/sociedad/3-307901-2016-08-27.html
p11
a.