(lp0
Vhttps://www.pagina12.com.ar/diario/sociedad/3-302050-2016-06-18.html
p1
aVhttps://www.pagina12.com.ar/diario/sociedad/3-302072-2016-06-18.html
p2
aVhttps://www.pagina12.com.ar/diario/sociedad/3-302073-2016-06-18.html
p3
aVhttps://www.pagina12.com.ar/diario/sociedad/3-302056-2016-06-18.html
p4
aVhttps://www.pagina12.com.ar/diario/sociedad/3-302057-2016-06-18.html
p5
aVhttps://www.pagina12.com.ar/diario/sociedad/3-302058-2016-06-18.html
p6
aVhttps://www.pagina12.com.ar/diario/sociedad/3-302059-2016-06-18.html
p7
aVhttps://www.pagina12.com.ar/diario/sociedad/3-302060-2016-06-18.html
p8
aVhttps://www.pagina12.com.ar/diario/sociedad/3-302061-2016-06-18.html
p9
aVhttps://www.pagina12.com.ar/diario/sociedad/3-302062-2016-06-18.html
p10
a.