(lp0
Vhttps://www.pagina12.com.ar/diario/economia/2-308304-2016-09-01.html
p1
aVhttps://www.pagina12.com.ar/diario/economia/2-308305-2016-09-01.html
p2
aVhttps://www.pagina12.com.ar/diario/economia/2-308239-2016-09-01.html
p3
aVhttps://www.pagina12.com.ar/diario/economia/2-308240-2016-09-01.html
p4
aVhttps://www.pagina12.com.ar/diario/economia/2-308243-2016-09-01.html
p5
aVhttps://www.pagina12.com.ar/diario/economia/2-308244-2016-09-01.html
p6
aVhttps://www.pagina12.com.ar/diario/economia/2-308241-2016-09-01.html
p7
aVhttps://www.pagina12.com.ar/diario/economia/2-308242-2016-09-01.html
p8
a.