(lp0
Vhttps://www.pagina12.com.ar/diario/elpais/1-307176-2016-08-18.html
p1
aVhttps://www.pagina12.com.ar/diario/elpais/1-307177-2016-08-18.html
p2
aVhttps://www.pagina12.com.ar/diario/elpais/1-307178-2016-08-18.html
p3
aVhttps://www.pagina12.com.ar/diario/elpais/1-307172-2016-08-18.html
p4
aVhttps://www.pagina12.com.ar/diario/elpais/1-307173-2016-08-18.html
p5
aVhttps://www.pagina12.com.ar/diario/elpais/1-307171-2016-08-18.html
p6
aVhttps://www.pagina12.com.ar/diario/elpais/1-307164-2016-08-18.html
p7
aVhttps://www.pagina12.com.ar/diario/elpais/1-307165-2016-08-18.html
p8
aVhttps://www.pagina12.com.ar/diario/elpais/1-307166-2016-08-18.html
p9
aVhttps://www.pagina12.com.ar/diario/elpais/1-307161-2016-08-18.html
p10
aVhttps://www.pagina12.com.ar/diario/elpais/1-307162-2016-08-18.html
p11
aVhttps://www.pagina12.com.ar/diario/elpais/1-307163-2016-08-18.html
p12
aVhttps://www.pagina12.com.ar/diario/elpais/1-307167-2016-08-18.html
p13
aVhttps://www.pagina12.com.ar/diario/elpais/1-307168-2016-08-18.html
p14
aVhttps://www.pagina12.com.ar/diario/elpais/1-307169-2016-08-18.html
p15
aVhttps://www.pagina12.com.ar/diario/elpais/1-307170-2016-08-18.html
p16
a.