(lp0
Vhttps://www.pagina12.com.ar/diario/elpais/1-296081-2016-04-03.html
p1
aVhttps://www.pagina12.com.ar/diario/elpais/1-296082-2016-04-03.html
p2
aVhttps://www.pagina12.com.ar/diario/elpais/1-296079-2016-04-03.html
p3
aVhttps://www.pagina12.com.ar/diario/elpais/1-296080-2016-04-03.html
p4
aVhttps://www.pagina12.com.ar/diario/elpais/1-296102-2016-04-03.html
p5
aVhttps://www.pagina12.com.ar/diario/elpais/1-296116-2016-04-03.html
p6
aVhttps://www.pagina12.com.ar/diario/elpais/1-296101-2016-04-03.html
p7
aVhttps://www.pagina12.com.ar/diario/elpais/1-296078-2016-04-03.html
p8
aVhttps://www.pagina12.com.ar/diario/elpais/1-296100-2016-04-03.html
p9
aVhttps://www.pagina12.com.ar/diario/elpais/1-296114-2016-04-03.html
p10
aVhttps://www.pagina12.com.ar/diario/elpais/1-296115-2016-04-03.html
p11
aVhttps://www.pagina12.com.ar/diario/elpais/1-296096-2016-04-03.html
p12
aVhttps://www.pagina12.com.ar/diario/elpais/1-296097-2016-04-03.html
p13
aVhttps://www.pagina12.com.ar/diario/elpais/1-296077-2016-04-03.html
p14
aVhttps://www.pagina12.com.ar/diario/elpais/1-296103-2016-04-03.html
p15
aVhttps://www.pagina12.com.ar/diario/elpais/1-296104-2016-04-03.html
p16
aVhttps://www.pagina12.com.ar/diario/elpais/1-296105-2016-04-03.html
p17
aVhttps://www.pagina12.com.ar/diario/elpais/1-296098-2016-04-03.html
p18
aVhttps://www.pagina12.com.ar/diario/elpais/1-296099-2016-04-03.html
p19
a.