(lp0
Vhttps://www.pagina12.com.ar/diario/elpais/1-310808-2016-10-03.html
p1
aVhttps://www.pagina12.com.ar/diario/elpais/1-310812-2016-10-03.html
p2
aVhttps://www.pagina12.com.ar/diario/elpais/1-310813-2016-10-03.html
p3
aVhttps://www.pagina12.com.ar/diario/elpais/1-310818-2016-10-03.html
p4
aVhttps://www.pagina12.com.ar/diario/elpais/1-310822-2016-10-03.html
p5
aVhttps://www.pagina12.com.ar/diario/elpais/1-310824-2016-10-03.html
p6
aVhttps://www.pagina12.com.ar/diario/elpais/1-310828-2016-10-03.html
p7
aVhttps://www.pagina12.com.ar/diario/elpais/1-310809-2016-10-03.html
p8
aVhttps://www.pagina12.com.ar/diario/elpais/1-310810-2016-10-03.html
p9
aVhttps://www.pagina12.com.ar/diario/elpais/1-310811-2016-10-03.html
p10
aVhttps://www.pagina12.com.ar/diario/elpais/1-310814-2016-10-03.html
p11
aVhttps://www.pagina12.com.ar/diario/elpais/1-310815-2016-10-03.html
p12
aVhttps://www.pagina12.com.ar/diario/elpais/1-310816-2016-10-03.html
p13
a.