(lp0
Vhttps://www.pagina12.com.ar/diario/sociedad/3-292375-2016-02-13.html
p1
aVhttps://www.pagina12.com.ar/diario/sociedad/3-292362-2016-02-13.html
p2
aVhttps://www.pagina12.com.ar/diario/sociedad/3-292363-2016-02-13.html
p3
aVhttps://www.pagina12.com.ar/diario/sociedad/3-292370-2016-02-13.html
p4
aVhttps://www.pagina12.com.ar/diario/sociedad/3-292371-2016-02-13.html
p5
aVhttps://www.pagina12.com.ar/diario/sociedad/3-292372-2016-02-13.html
p6
aVhttps://www.pagina12.com.ar/diario/sociedad/3-292376-2016-02-13.html
p7
aVhttps://www.pagina12.com.ar/diario/sociedad/3-292377-2016-02-13.html
p8
aVhttps://www.pagina12.com.ar/diario/sociedad/3-292378-2016-02-13.html
p9
a.