(lp0
Vhttps://www.pagina12.com.ar/diario/sociedad/3-311630-2016-10-13.html
p1
aVhttps://www.pagina12.com.ar/diario/sociedad/3-311636-2016-10-13.html
p2
aVhttps://www.pagina12.com.ar/diario/sociedad/3-311639-2016-10-13.html
p3
aVhttps://www.pagina12.com.ar/diario/sociedad/3-311640-2016-10-13.html
p4
aVhttps://www.pagina12.com.ar/diario/sociedad/3-311642-2016-10-13.html
p5
aVhttps://www.pagina12.com.ar/diario/sociedad/3-311643-2016-10-13.html
p6
aVhttps://www.pagina12.com.ar/diario/sociedad/3-311632-2016-10-13.html
p7
a.