(lp0
Vhttps://www.pagina12.com.ar/diario/sociedad/3-291889-2016-02-06.html
p1
aVhttps://www.pagina12.com.ar/diario/sociedad/3-291912-2016-02-06.html
p2
aVhttps://www.pagina12.com.ar/diario/sociedad/3-291890-2016-02-06.html
p3
aVhttps://www.pagina12.com.ar/diario/sociedad/3-291913-2016-02-06.html
p4
aVhttps://www.pagina12.com.ar/diario/sociedad/3-291917-2016-02-06.html
p5
aVhttps://www.pagina12.com.ar/diario/sociedad/3-291918-2016-02-06.html
p6
aVhttps://www.pagina12.com.ar/diario/sociedad/3-291914-2016-02-06.html
p7
aVhttps://www.pagina12.com.ar/diario/sociedad/3-291915-2016-02-06.html
p8
aVhttps://www.pagina12.com.ar/diario/sociedad/3-291916-2016-02-06.html
p9
aVhttps://www.pagina12.com.ar/diario/sociedad/3-291891-2016-02-06.html
p10
aVhttps://www.pagina12.com.ar/diario/sociedad/3-291892-2016-02-06.html
p11
aVhttps://www.pagina12.com.ar/diario/sociedad/3-291893-2016-02-06.html
p12
aVhttps://www.pagina12.com.ar/diario/sociedad/3-291894-2016-02-06.html
p13
a.