(lp0
Vhttps://www.pagina12.com.ar/diario/sociedad/3-299748-2016-05-20.html
p1
aVhttps://www.pagina12.com.ar/diario/sociedad/3-299749-2016-05-20.html
p2
aVhttps://www.pagina12.com.ar/diario/sociedad/3-299775-2016-05-20.html
p3
aVhttps://www.pagina12.com.ar/diario/sociedad/3-299770-2016-05-20.html
p4
aVhttps://www.pagina12.com.ar/diario/sociedad/3-299776-2016-05-20.html
p5
aVhttps://www.pagina12.com.ar/diario/sociedad/3-299764-2016-05-20.html
p6
aVhttps://www.pagina12.com.ar/diario/sociedad/3-299771-2016-05-20.html
p7
aVhttps://www.pagina12.com.ar/diario/sociedad/3-299768-2016-05-20.html
p8
aVhttps://www.pagina12.com.ar/diario/sociedad/3-299769-2016-05-20.html
p9
aVhttps://www.pagina12.com.ar/diario/sociedad/3-299750-2016-05-20.html
p10
aVhttps://www.pagina12.com.ar/diario/sociedad/3-299751-2016-05-20.html
p11
aVhttps://www.pagina12.com.ar/diario/sociedad/3-299765-2016-05-20.html
p12
aVhttps://www.pagina12.com.ar/diario/sociedad/3-299766-2016-05-20.html
p13
aVhttps://www.pagina12.com.ar/diario/sociedad/3-299767-2016-05-20.html
p14
aVhttps://www.pagina12.com.ar/diario/sociedad/3-299772-2016-05-20.html
p15
aVhttps://www.pagina12.com.ar/diario/sociedad/3-299773-2016-05-20.html
p16
aVhttps://www.pagina12.com.ar/diario/sociedad/3-299774-2016-05-20.html
p17
aVhttps://www.pagina12.com.ar/diario/sociedad/3-299777-2016-05-20.html
p18
aVhttps://www.pagina12.com.ar/diario/sociedad/3-299778-2016-05-20.html
p19
a.