(lp0
Vhttps://www.pagina12.com.ar/diario/sociedad/3-289817-2016-01-08.html
p1
aVhttps://www.pagina12.com.ar/diario/sociedad/3-289815-2016-01-08.html
p2
aVhttps://www.pagina12.com.ar/diario/sociedad/3-289818-2016-01-08.html
p3
aVhttps://www.pagina12.com.ar/diario/sociedad/3-289842-2016-01-08.html
p4
aVhttps://www.pagina12.com.ar/diario/sociedad/3-289816-2016-01-08.html
p5
aVhttps://www.pagina12.com.ar/diario/sociedad/3-289843-2016-01-08.html
p6
aVhttps://www.pagina12.com.ar/diario/sociedad/3-289844-2016-01-08.html
p7
aVhttps://www.pagina12.com.ar/diario/sociedad/3-289845-2016-01-08.html
p8
aVhttps://www.pagina12.com.ar/diario/sociedad/3-289846-2016-01-08.html
p9
aVhttps://www.pagina12.com.ar/diario/sociedad/3-289847-2016-01-08.html
p10
aVhttps://www.pagina12.com.ar/diario/sociedad/3-289848-2016-01-08.html
p11
aVhttps://www.pagina12.com.ar/diario/sociedad/3-289849-2016-01-08.html
p12
aVhttps://www.pagina12.com.ar/diario/sociedad/3-289819-2016-01-08.html
p13
a.