(lp0
Vhttps://www.pagina12.com.ar/diario/elpais/1-292578-2016-02-16.html
p1
aVhttps://www.pagina12.com.ar/diario/elpais/1-292579-2016-02-16.html
p2
aVhttps://www.pagina12.com.ar/diario/elpais/1-292572-2016-02-16.html
p3
aVhttps://www.pagina12.com.ar/diario/elpais/1-292573-2016-02-16.html
p4
aVhttps://www.pagina12.com.ar/diario/elpais/1-292574-2016-02-16.html
p5
aVhttps://www.pagina12.com.ar/diario/elpais/1-292575-2016-02-16.html
p6
aVhttps://www.pagina12.com.ar/diario/elpais/1-292576-2016-02-16.html
p7
aVhttps://www.pagina12.com.ar/diario/elpais/1-292577-2016-02-16.html
p8
aVhttps://www.pagina12.com.ar/diario/elpais/1-292570-2016-02-16.html
p9
aVhttps://www.pagina12.com.ar/diario/elpais/1-292571-2016-02-16.html
p10
aVhttps://www.pagina12.com.ar/diario/elpais/1-292567-2016-02-16.html
p11
aVhttps://www.pagina12.com.ar/diario/elpais/1-292568-2016-02-16.html
p12
aVhttps://www.pagina12.com.ar/diario/elpais/1-292569-2016-02-16.html
p13
aVhttps://www.pagina12.com.ar/diario/elpais/1-292566-2016-02-16.html
p14
aVhttps://www.pagina12.com.ar/diario/elpais/1-292565-2016-02-16.html
p15
a.