(lp0
Vhttps://www.pagina12.com.ar/diario/economia/2-292053-2016-02-09.html
p1
aVhttps://www.pagina12.com.ar/diario/economia/2-292054-2016-02-09.html
p2
aVhttps://www.pagina12.com.ar/diario/economia/2-292055-2016-02-09.html
p3
aVhttps://www.pagina12.com.ar/diario/economia/2-292051-2016-02-09.html
p4
aVhttps://www.pagina12.com.ar/diario/economia/2-292052-2016-02-09.html
p5
aVhttps://www.pagina12.com.ar/diario/economia/2-292049-2016-02-09.html
p6
aVhttps://www.pagina12.com.ar/diario/economia/2-292050-2016-02-09.html
p7
a.