(lp0
Vhttps://www.pagina12.com.ar/diario/elpais/1-297323-2016-04-19.html
p1
aVhttps://www.pagina12.com.ar/diario/elpais/1-297324-2016-04-19.html
p2
aVhttps://www.pagina12.com.ar/diario/elpais/1-297325-2016-04-19.html
p3
aVhttps://www.pagina12.com.ar/diario/elpais/1-297322-2016-04-19.html
p4
aVhttps://www.pagina12.com.ar/diario/elpais/1-297320-2016-04-19.html
p5
aVhttps://www.pagina12.com.ar/diario/elpais/1-297321-2016-04-19.html
p6
aVhttps://www.pagina12.com.ar/diario/elpais/1-297305-2016-04-19.html
p7
aVhttps://www.pagina12.com.ar/diario/elpais/1-297306-2016-04-19.html
p8
aVhttps://www.pagina12.com.ar/diario/elpais/1-297307-2016-04-19.html
p9
aVhttps://www.pagina12.com.ar/diario/elpais/1-297303-2016-04-19.html
p10
aVhttps://www.pagina12.com.ar/diario/elpais/1-297304-2016-04-19.html
p11
aVhttps://www.pagina12.com.ar/diario/elpais/1-297297-2016-04-19.html
p12
aVhttps://www.pagina12.com.ar/diario/elpais/1-297298-2016-04-19.html
p13
aVhttps://www.pagina12.com.ar/diario/elpais/1-297299-2016-04-19.html
p14
aVhttps://www.pagina12.com.ar/diario/elpais/1-297300-2016-04-19.html
p15
aVhttps://www.pagina12.com.ar/diario/elpais/1-297301-2016-04-19.html
p16
aVhttps://www.pagina12.com.ar/diario/elpais/1-297302-2016-04-19.html
p17
aVhttps://www.pagina12.com.ar/diario/elpais/1-297294-2016-04-19.html
p18
aVhttps://www.pagina12.com.ar/diario/elpais/1-297295-2016-04-19.html
p19
aVhttps://www.pagina12.com.ar/diario/elpais/1-297296-2016-04-19.html
p20
aVhttps://www.pagina12.com.ar/diario/elpais/1-297288-2016-04-19.html
p21
aVhttps://www.pagina12.com.ar/diario/elpais/1-297289-2016-04-19.html
p22
aVhttps://www.pagina12.com.ar/diario/elpais/1-297290-2016-04-19.html
p23
aVhttps://www.pagina12.com.ar/diario/elpais/1-297291-2016-04-19.html
p24
aVhttps://www.pagina12.com.ar/diario/elpais/1-297292-2016-04-19.html
p25
aVhttps://www.pagina12.com.ar/diario/elpais/1-297293-2016-04-19.html
p26
a.