(lp0
Vhttps://www.pagina12.com.ar/diario/elpais/1-294412-2016-03-12.html
p1
aVhttps://www.pagina12.com.ar/diario/elpais/1-294413-2016-03-12.html
p2
aVhttps://www.pagina12.com.ar/diario/elpais/1-294414-2016-03-12.html
p3
aVhttps://www.pagina12.com.ar/diario/elpais/1-294392-2016-03-12.html
p4
aVhttps://www.pagina12.com.ar/diario/elpais/1-294393-2016-03-12.html
p5
aVhttps://www.pagina12.com.ar/diario/elpais/1-294407-2016-03-12.html
p6
aVhttps://www.pagina12.com.ar/diario/elpais/1-294408-2016-03-12.html
p7
aVhttps://www.pagina12.com.ar/diario/elpais/1-294375-2016-03-12.html
p8
aVhttps://www.pagina12.com.ar/diario/elpais/1-294376-2016-03-12.html
p9
aVhttps://www.pagina12.com.ar/diario/elpais/1-294377-2016-03-12.html
p10
aVhttps://www.pagina12.com.ar/diario/elpais/1-294378-2016-03-12.html
p11
aVhttps://www.pagina12.com.ar/diario/elpais/1-294415-2016-03-12.html
p12
aVhttps://www.pagina12.com.ar/diario/elpais/1-294416-2016-03-12.html
p13
aVhttps://www.pagina12.com.ar/diario/elpais/1-294394-2016-03-12.html
p14
aVhttps://www.pagina12.com.ar/diario/elpais/1-294395-2016-03-12.html
p15
a.