(lp0
Vhttps://www.pagina12.com.ar/diario/sociedad/3-304892-2016-07-22.html
p1
aVhttps://www.pagina12.com.ar/diario/sociedad/3-304893-2016-07-22.html
p2
aVhttps://www.pagina12.com.ar/diario/sociedad/3-304898-2016-07-22.html
p3
aVhttps://www.pagina12.com.ar/diario/sociedad/3-304897-2016-07-22.html
p4
aVhttps://www.pagina12.com.ar/diario/sociedad/3-304899-2016-07-22.html
p5
aVhttps://www.pagina12.com.ar/diario/sociedad/3-304934-2016-07-22.html
p6
aVhttps://www.pagina12.com.ar/diario/sociedad/3-304887-2016-07-22.html
p7
aVhttps://www.pagina12.com.ar/diario/sociedad/3-304935-2016-07-22.html
p8
aVhttps://www.pagina12.com.ar/diario/sociedad/3-304888-2016-07-22.html
p9
aVhttps://www.pagina12.com.ar/diario/sociedad/3-304889-2016-07-22.html
p10
aVhttps://www.pagina12.com.ar/diario/sociedad/3-304890-2016-07-22.html
p11
aVhttps://www.pagina12.com.ar/diario/sociedad/3-304891-2016-07-22.html
p12
aVhttps://www.pagina12.com.ar/diario/sociedad/3-304894-2016-07-22.html
p13
aVhttps://www.pagina12.com.ar/diario/sociedad/3-304895-2016-07-22.html
p14
aVhttps://www.pagina12.com.ar/diario/sociedad/3-304896-2016-07-22.html
p15
aVhttps://www.pagina12.com.ar/diario/sociedad/3-304932-2016-07-22.html
p16
aVhttps://www.pagina12.com.ar/diario/sociedad/3-304936-2016-07-22.html
p17
aVhttps://www.pagina12.com.ar/diario/sociedad/3-304937-2016-07-22.html
p18
a.