(lp0
Vhttps://www.pagina12.com.ar/diario/sociedad/3-294559-2016-03-15.html
p1
aVhttps://www.pagina12.com.ar/diario/sociedad/3-294560-2016-03-15.html
p2
aVhttps://www.pagina12.com.ar/diario/sociedad/3-294571-2016-03-15.html
p3
aVhttps://www.pagina12.com.ar/diario/sociedad/3-294572-2016-03-15.html
p4
aVhttps://www.pagina12.com.ar/diario/sociedad/3-294566-2016-03-15.html
p5
aVhttps://www.pagina12.com.ar/diario/sociedad/3-294590-2016-03-15.html
p6
aVhttps://www.pagina12.com.ar/diario/sociedad/3-294591-2016-03-15.html
p7
aVhttps://www.pagina12.com.ar/diario/sociedad/3-294592-2016-03-15.html
p8
aVhttps://www.pagina12.com.ar/diario/sociedad/3-294561-2016-03-15.html
p9
aVhttps://www.pagina12.com.ar/diario/sociedad/3-294562-2016-03-15.html
p10
aVhttps://www.pagina12.com.ar/diario/sociedad/3-294563-2016-03-15.html
p11
aVhttps://www.pagina12.com.ar/diario/sociedad/3-294567-2016-03-15.html
p12
aVhttps://www.pagina12.com.ar/diario/sociedad/3-294568-2016-03-15.html
p13
aVhttps://www.pagina12.com.ar/diario/sociedad/3-294569-2016-03-15.html
p14
aVhttps://www.pagina12.com.ar/diario/sociedad/3-294570-2016-03-15.html
p15
aVhttps://www.pagina12.com.ar/diario/sociedad/3-294573-2016-03-15.html
p16
aVhttps://www.pagina12.com.ar/diario/sociedad/3-294574-2016-03-15.html
p17
aVhttps://www.pagina12.com.ar/diario/sociedad/3-294593-2016-03-15.html
p18
aVhttps://www.pagina12.com.ar/diario/sociedad/3-294594-2016-03-15.html
p19
aVhttps://www.pagina12.com.ar/diario/sociedad/3-294595-2016-03-15.html
p20
aVhttps://www.pagina12.com.ar/diario/sociedad/3-294596-2016-03-15.html
p21
a.