(lp0
Vhttps://www.pagina12.com.ar/diario/economia/2-300506-2016-05-29.html
p1
aVhttps://www.pagina12.com.ar/diario/economia/2-300507-2016-05-29.html
p2
aVhttps://www.pagina12.com.ar/diario/economia/2-300502-2016-05-29.html
p3
aVhttps://www.pagina12.com.ar/diario/economia/2-300503-2016-05-29.html
p4
a.