(lp0
Vhttps://www.pagina12.com.ar/diario/sociedad/3-307539-2016-08-23.html
p1
aVhttps://www.pagina12.com.ar/diario/sociedad/3-307540-2016-08-23.html
p2
aVhttps://www.pagina12.com.ar/diario/sociedad/3-307537-2016-08-23.html
p3
aVhttps://www.pagina12.com.ar/diario/sociedad/3-307538-2016-08-23.html
p4
aVhttps://www.pagina12.com.ar/diario/sociedad/3-307532-2016-08-23.html
p5
aVhttps://www.pagina12.com.ar/diario/sociedad/3-307533-2016-08-23.html
p6
aVhttps://www.pagina12.com.ar/diario/sociedad/3-307528-2016-08-23.html
p7
aVhttps://www.pagina12.com.ar/diario/sociedad/3-307529-2016-08-23.html
p8
aVhttps://www.pagina12.com.ar/diario/sociedad/3-307530-2016-08-23.html
p9
aVhttps://www.pagina12.com.ar/diario/sociedad/3-307531-2016-08-23.html
p10
aVhttps://www.pagina12.com.ar/diario/sociedad/3-307534-2016-08-23.html
p11
aVhttps://www.pagina12.com.ar/diario/sociedad/3-307535-2016-08-23.html
p12
aVhttps://www.pagina12.com.ar/diario/sociedad/3-307536-2016-08-23.html
p13
aVhttps://www.pagina12.com.ar/diario/sociedad/3-307541-2016-08-23.html
p14
aVhttps://www.pagina12.com.ar/diario/sociedad/3-307542-2016-08-23.html
p15
a.