(lp0
Vhttps://www.pagina12.com.ar/diario/economia/2-307293-2016-08-19.html
p1
aVhttps://www.pagina12.com.ar/diario/economia/2-307289-2016-08-19.html
p2
aVhttps://www.pagina12.com.ar/diario/economia/2-307282-2016-08-19.html
p3
aVhttps://www.pagina12.com.ar/diario/economia/2-307291-2016-08-19.html
p4
aVhttps://www.pagina12.com.ar/diario/economia/2-307283-2016-08-19.html
p5
aVhttps://www.pagina12.com.ar/diario/economia/2-307284-2016-08-19.html
p6
aVhttps://www.pagina12.com.ar/diario/economia/2-307285-2016-08-19.html
p7
aVhttps://www.pagina12.com.ar/diario/economia/2-307278-2016-08-19.html
p8
aVhttps://www.pagina12.com.ar/diario/economia/2-307273-2016-08-19.html
p9
aVhttps://www.pagina12.com.ar/diario/economia/2-307274-2016-08-19.html
p10
aVhttps://www.pagina12.com.ar/diario/economia/2-307275-2016-08-19.html
p11
aVhttps://www.pagina12.com.ar/diario/economia/2-307276-2016-08-19.html
p12
aVhttps://www.pagina12.com.ar/diario/economia/2-307277-2016-08-19.html
p13
aVhttps://www.pagina12.com.ar/diario/economia/2-307290-2016-08-19.html
p14
a.