(lp0
Vhttps://www.pagina12.com.ar/diario/sociedad/3-308536-2016-09-04.html
p1
aVhttps://www.pagina12.com.ar/diario/sociedad/3-308533-2016-09-04.html
p2
aVhttps://www.pagina12.com.ar/diario/sociedad/3-308535-2016-09-04.html
p3
aVhttps://www.pagina12.com.ar/diario/sociedad/3-308534-2016-09-04.html
p4
a.