(lp0
Vhttps://www.pagina12.com.ar/diario/economia/2-301079-2016-06-06.html
p1
aVhttps://www.pagina12.com.ar/diario/economia/2-301080-2016-06-06.html
p2
aVhttps://www.pagina12.com.ar/diario/economia/2-301077-2016-06-06.html
p3
aVhttps://www.pagina12.com.ar/diario/economia/2-301078-2016-06-06.html
p4
aVhttps://www.pagina12.com.ar/diario/economia/2-301075-2016-06-06.html
p5
aVhttps://www.pagina12.com.ar/diario/economia/2-301081-2016-06-06.html
p6
aVhttps://www.pagina12.com.ar/diario/economia/2-301082-2016-06-06.html
p7
a.