(lp0
Vhttps://www.pagina12.com.ar/diario/sociedad/3-298530-2016-05-05.html
p1
aVhttps://www.pagina12.com.ar/diario/sociedad/3-298531-2016-05-05.html
p2
aVhttps://www.pagina12.com.ar/diario/sociedad/3-298568-2016-05-05.html
p3
aVhttps://www.pagina12.com.ar/diario/sociedad/3-298569-2016-05-05.html
p4
aVhttps://www.pagina12.com.ar/diario/sociedad/3-298552-2016-05-05.html
p5
aVhttps://www.pagina12.com.ar/diario/sociedad/3-298553-2016-05-05.html
p6
aVhttps://www.pagina12.com.ar/diario/sociedad/3-298547-2016-05-05.html
p7
aVhttps://www.pagina12.com.ar/diario/sociedad/3-298548-2016-05-05.html
p8
aVhttps://www.pagina12.com.ar/diario/sociedad/3-298549-2016-05-05.html
p9
aVhttps://www.pagina12.com.ar/diario/sociedad/3-298550-2016-05-05.html
p10
aVhttps://www.pagina12.com.ar/diario/sociedad/3-298551-2016-05-05.html
p11
aVhttps://www.pagina12.com.ar/diario/sociedad/3-298554-2016-05-05.html
p12
aVhttps://www.pagina12.com.ar/diario/sociedad/3-298555-2016-05-05.html
p13
aVhttps://www.pagina12.com.ar/diario/sociedad/3-298570-2016-05-05.html
p14
aVhttps://www.pagina12.com.ar/diario/sociedad/3-298532-2016-05-05.html
p15
aVhttps://www.pagina12.com.ar/diario/sociedad/3-298533-2016-05-05.html
p16
aVhttps://www.pagina12.com.ar/diario/sociedad/3-298534-2016-05-05.html
p17
a.