(lp0
Vhttps://www.pagina12.com.ar/diario/economia/2-295350-2016-03-25.html
p1
aVhttps://www.pagina12.com.ar/diario/economia/2-295351-2016-03-25.html
p2
aVhttps://www.pagina12.com.ar/diario/economia/2-295347-2016-03-25.html
p3
aVhttps://www.pagina12.com.ar/diario/economia/2-295349-2016-03-25.html
p4
aVhttps://www.pagina12.com.ar/diario/economia/2-295377-2016-03-25.html
p5
aVhttps://www.pagina12.com.ar/diario/economia/2-295378-2016-03-25.html
p6
a.