(lp0
Vhttps://www.pagina12.com.ar/diario/sociedad/3-290611-2016-01-19.html
p1
aVhttps://www.pagina12.com.ar/diario/sociedad/3-290612-2016-01-19.html
p2
aVhttps://www.pagina12.com.ar/diario/sociedad/3-290613-2016-01-19.html
p3
aVhttps://www.pagina12.com.ar/diario/sociedad/3-290614-2016-01-19.html
p4
aVhttps://www.pagina12.com.ar/diario/sociedad/3-290606-2016-01-19.html
p5
aVhttps://www.pagina12.com.ar/diario/sociedad/3-290607-2016-01-19.html
p6
aVhttps://www.pagina12.com.ar/diario/sociedad/3-290608-2016-01-19.html
p7
aVhttps://www.pagina12.com.ar/diario/sociedad/3-290609-2016-01-19.html
p8
aVhttps://www.pagina12.com.ar/diario/sociedad/3-290610-2016-01-19.html
p9
aVhttps://www.pagina12.com.ar/diario/sociedad/3-290600-2016-01-19.html
p10
aVhttps://www.pagina12.com.ar/diario/sociedad/3-290601-2016-01-19.html
p11
aVhttps://www.pagina12.com.ar/diario/sociedad/3-290602-2016-01-19.html
p12
aVhttps://www.pagina12.com.ar/diario/sociedad/3-290603-2016-01-19.html
p13
aVhttps://www.pagina12.com.ar/diario/sociedad/3-290604-2016-01-19.html
p14
aVhttps://www.pagina12.com.ar/diario/sociedad/3-290605-2016-01-19.html
p15
aVhttps://www.pagina12.com.ar/diario/sociedad/3-290595-2016-01-19.html
p16
aVhttps://www.pagina12.com.ar/diario/sociedad/3-290596-2016-01-19.html
p17
aVhttps://www.pagina12.com.ar/diario/sociedad/3-290597-2016-01-19.html
p18
aVhttps://www.pagina12.com.ar/diario/sociedad/3-290598-2016-01-19.html
p19
aVhttps://www.pagina12.com.ar/diario/sociedad/3-290599-2016-01-19.html
p20
a.