(lp0
Vhttps://www.pagina12.com.ar/diario/elpais/1-301805-2016-06-15.html
p1
aVhttps://www.pagina12.com.ar/diario/elpais/1-301802-2016-06-15.html
p2
aVhttps://www.pagina12.com.ar/diario/elpais/1-301803-2016-06-15.html
p3
aVhttps://www.pagina12.com.ar/diario/elpais/1-301797-2016-06-15.html
p4
aVhttps://www.pagina12.com.ar/diario/elpais/1-301798-2016-06-15.html
p5
aVhttps://www.pagina12.com.ar/diario/elpais/1-301799-2016-06-15.html
p6
aVhttps://www.pagina12.com.ar/diario/elpais/1-301800-2016-06-15.html
p7
aVhttps://www.pagina12.com.ar/diario/elpais/1-301791-2016-06-15.html
p8
aVhttps://www.pagina12.com.ar/diario/elpais/1-301792-2016-06-15.html
p9
aVhttps://www.pagina12.com.ar/diario/elpais/1-301790-2016-06-15.html
p10
aVhttps://www.pagina12.com.ar/diario/elpais/1-301782-2016-06-15.html
p11
aVhttps://www.pagina12.com.ar/diario/elpais/1-301783-2016-06-15.html
p12
aVhttps://www.pagina12.com.ar/diario/elpais/1-301770-2016-06-15.html
p13
aVhttps://www.pagina12.com.ar/diario/elpais/1-301771-2016-06-15.html
p14
aVhttps://www.pagina12.com.ar/diario/elpais/1-301793-2016-06-15.html
p15
aVhttps://www.pagina12.com.ar/diario/elpais/1-301794-2016-06-15.html
p16
aVhttps://www.pagina12.com.ar/diario/elpais/1-301795-2016-06-15.html
p17
aVhttps://www.pagina12.com.ar/diario/elpais/1-301796-2016-06-15.html
p18
a.