(lp0
Vhttps://www.pagina12.com.ar/diario/elpais/1-312977-2016-10-29.html
p1
aVhttps://www.pagina12.com.ar/diario/elpais/1-312978-2016-10-29.html
p2
aVhttps://www.pagina12.com.ar/diario/elpais/1-312976-2016-10-29.html
p3
aVhttps://www.pagina12.com.ar/diario/elpais/1-312965-2016-10-29.html
p4
aVhttps://www.pagina12.com.ar/diario/elpais/1-312967-2016-10-29.html
p5
aVhttps://www.pagina12.com.ar/diario/elpais/1-312962-2016-10-29.html
p6
aVhttps://www.pagina12.com.ar/diario/elpais/1-312963-2016-10-29.html
p7
aVhttps://www.pagina12.com.ar/diario/elpais/1-312959-2016-10-29.html
p8
aVhttps://www.pagina12.com.ar/diario/elpais/1-312961-2016-10-29.html
p9
aVhttps://www.pagina12.com.ar/diario/elpais/1-312960-2016-10-29.html
p10
aVhttps://www.pagina12.com.ar/diario/elpais/1-312964-2016-10-29.html
p11
aVhttps://www.pagina12.com.ar/diario/elpais/1-312966-2016-10-29.html
p12
a.