(lp0
Vhttps://www.pagina12.com.ar/diario/elpais/1-294061-2016-03-08.html
p1
aVhttps://www.pagina12.com.ar/diario/elpais/1-294062-2016-03-08.html
p2
aVhttps://www.pagina12.com.ar/diario/elpais/1-294063-2016-03-08.html
p3
aVhttps://www.pagina12.com.ar/diario/elpais/1-294058-2016-03-08.html
p4
aVhttps://www.pagina12.com.ar/diario/elpais/1-294059-2016-03-08.html
p5
aVhttps://www.pagina12.com.ar/diario/elpais/1-294060-2016-03-08.html
p6
aVhttps://www.pagina12.com.ar/diario/elpais/1-294053-2016-03-08.html
p7
aVhttps://www.pagina12.com.ar/diario/elpais/1-294054-2016-03-08.html
p8
aVhttps://www.pagina12.com.ar/diario/elpais/1-294055-2016-03-08.html
p9
aVhttps://www.pagina12.com.ar/diario/elpais/1-294056-2016-03-08.html
p10
aVhttps://www.pagina12.com.ar/diario/elpais/1-294057-2016-03-08.html
p11
aVhttps://www.pagina12.com.ar/diario/elpais/1-294041-2016-03-08.html
p12
aVhttps://www.pagina12.com.ar/diario/elpais/1-294042-2016-03-08.html
p13
aVhttps://www.pagina12.com.ar/diario/elpais/1-294039-2016-03-08.html
p14
aVhttps://www.pagina12.com.ar/diario/elpais/1-294040-2016-03-08.html
p15
aVhttps://www.pagina12.com.ar/diario/elpais/1-294037-2016-03-08.html
p16
aVhttps://www.pagina12.com.ar/diario/elpais/1-294038-2016-03-08.html
p17
aVhttps://www.pagina12.com.ar/diario/elpais/1-294035-2016-03-08.html
p18
aVhttps://www.pagina12.com.ar/diario/elpais/1-294036-2016-03-08.html
p19
a.