(lp0
Vhttps://www.pagina12.com.ar/diario/economia/2-297955-2016-04-27.html
p1
aVhttps://www.pagina12.com.ar/diario/economia/2-297952-2016-04-27.html
p2
aVhttps://www.pagina12.com.ar/diario/economia/2-297953-2016-04-27.html
p3
aVhttps://www.pagina12.com.ar/diario/economia/2-297954-2016-04-27.html
p4
aVhttps://www.pagina12.com.ar/diario/economia/2-297947-2016-04-27.html
p5
aVhttps://www.pagina12.com.ar/diario/economia/2-297948-2016-04-27.html
p6
aVhttps://www.pagina12.com.ar/diario/economia/2-297945-2016-04-27.html
p7
aVhttps://www.pagina12.com.ar/diario/economia/2-297946-2016-04-27.html
p8
aVhttps://www.pagina12.com.ar/diario/economia/2-297931-2016-04-27.html
p9
aVhttps://www.pagina12.com.ar/diario/economia/2-297932-2016-04-27.html
p10
aVhttps://www.pagina12.com.ar/diario/economia/2-297949-2016-04-27.html
p11
aVhttps://www.pagina12.com.ar/diario/economia/2-297950-2016-04-27.html
p12
aVhttps://www.pagina12.com.ar/diario/economia/2-297951-2016-04-27.html
p13
a.