(lp0
Vhttps://www.pagina12.com.ar/diario/sociedad/3-291286-2016-01-28.html
p1
aVhttps://www.pagina12.com.ar/diario/sociedad/3-291280-2016-01-28.html
p2
aVhttps://www.pagina12.com.ar/diario/sociedad/3-291281-2016-01-28.html
p3
aVhttps://www.pagina12.com.ar/diario/sociedad/3-291276-2016-01-28.html
p4
aVhttps://www.pagina12.com.ar/diario/sociedad/3-291277-2016-01-28.html
p5
aVhttps://www.pagina12.com.ar/diario/sociedad/3-291274-2016-01-28.html
p6
aVhttps://www.pagina12.com.ar/diario/sociedad/3-291275-2016-01-28.html
p7
aVhttps://www.pagina12.com.ar/diario/sociedad/3-291278-2016-01-28.html
p8
aVhttps://www.pagina12.com.ar/diario/sociedad/3-291279-2016-01-28.html
p9
aVhttps://www.pagina12.com.ar/diario/sociedad/3-291282-2016-01-28.html
p10
aVhttps://www.pagina12.com.ar/diario/sociedad/3-291283-2016-01-28.html
p11
aVhttps://www.pagina12.com.ar/diario/sociedad/3-291287-2016-01-28.html
p12
aVhttps://www.pagina12.com.ar/diario/sociedad/3-291288-2016-01-28.html
p13
aVhttps://www.pagina12.com.ar/diario/sociedad/3-291289-2016-01-28.html
p14
a.