(lp0
Vhttps://www.pagina12.com.ar/diario/elpais/1-312805-2016-10-27.html
p1
aVhttps://www.pagina12.com.ar/diario/elpais/1-312806-2016-10-27.html
p2
aVhttps://www.pagina12.com.ar/diario/elpais/1-312801-2016-10-27.html
p3
aVhttps://www.pagina12.com.ar/diario/elpais/1-312802-2016-10-27.html
p4
aVhttps://www.pagina12.com.ar/diario/elpais/1-312803-2016-10-27.html
p5
aVhttps://www.pagina12.com.ar/diario/elpais/1-312804-2016-10-27.html
p6
aVhttps://www.pagina12.com.ar/diario/elpais/1-312790-2016-10-27.html
p7
aVhttps://www.pagina12.com.ar/diario/elpais/1-312791-2016-10-27.html
p8
aVhttps://www.pagina12.com.ar/diario/elpais/1-312783-2016-10-27.html
p9
aVhttps://www.pagina12.com.ar/diario/elpais/1-312786-2016-10-27.html
p10
aVhttps://www.pagina12.com.ar/diario/elpais/1-312788-2016-10-27.html
p11
aVhttps://www.pagina12.com.ar/diario/elpais/1-312781-2016-10-27.html
p12
aVhttps://www.pagina12.com.ar/diario/elpais/1-312782-2016-10-27.html
p13
aVhttps://www.pagina12.com.ar/diario/elpais/1-312779-2016-10-27.html
p14
aVhttps://www.pagina12.com.ar/diario/elpais/1-312775-2016-10-27.html
p15
aVhttps://www.pagina12.com.ar/diario/elpais/1-312776-2016-10-27.html
p16
aVhttps://www.pagina12.com.ar/diario/elpais/1-312777-2016-10-27.html
p17
aVhttps://www.pagina12.com.ar/diario/elpais/1-312778-2016-10-27.html
p18
aVhttps://www.pagina12.com.ar/diario/elpais/1-312780-2016-10-27.html
p19
aVhttps://www.pagina12.com.ar/diario/elpais/1-312784-2016-10-27.html
p20
aVhttps://www.pagina12.com.ar/diario/elpais/1-312785-2016-10-27.html
p21
aVhttps://www.pagina12.com.ar/diario/elpais/1-312787-2016-10-27.html
p22
a.