(lp0
Vhttps://www.pagina12.com.ar/diario/elpais/1-313087-2016-10-31.html
p1
aVhttps://www.pagina12.com.ar/diario/elpais/1-313088-2016-10-31.html
p2
aVhttps://www.pagina12.com.ar/diario/elpais/1-313084-2016-10-31.html
p3
aVhttps://www.pagina12.com.ar/diario/elpais/1-313085-2016-10-31.html
p4
aVhttps://www.pagina12.com.ar/diario/elpais/1-313086-2016-10-31.html
p5
aVhttps://www.pagina12.com.ar/diario/elpais/1-313081-2016-10-31.html
p6
aVhttps://www.pagina12.com.ar/diario/elpais/1-313075-2016-10-31.html
p7
aVhttps://www.pagina12.com.ar/diario/elpais/1-313076-2016-10-31.html
p8
aVhttps://www.pagina12.com.ar/diario/elpais/1-313077-2016-10-31.html
p9
aVhttps://www.pagina12.com.ar/diario/elpais/1-313073-2016-10-31.html
p10
aVhttps://www.pagina12.com.ar/diario/elpais/1-313074-2016-10-31.html
p11
aVhttps://www.pagina12.com.ar/diario/elpais/1-313078-2016-10-31.html
p12
aVhttps://www.pagina12.com.ar/diario/elpais/1-313079-2016-10-31.html
p13
aVhttps://www.pagina12.com.ar/diario/elpais/1-313080-2016-10-31.html
p14
aVhttps://www.pagina12.com.ar/diario/elpais/1-313082-2016-10-31.html
p15
aVhttps://www.pagina12.com.ar/diario/elpais/1-313083-2016-10-31.html
p16
a.