(lp0
Vhttps://www.pagina12.com.ar/diario/sociedad/3-302450-2016-06-23.html
p1
aVhttps://www.pagina12.com.ar/diario/sociedad/3-302451-2016-06-23.html
p2
aVhttps://www.pagina12.com.ar/diario/sociedad/3-302400-2016-06-23.html
p3
aVhttps://www.pagina12.com.ar/diario/sociedad/3-302439-2016-06-23.html
p4
aVhttps://www.pagina12.com.ar/diario/sociedad/3-302440-2016-06-23.html
p5
aVhttps://www.pagina12.com.ar/diario/sociedad/3-302432-2016-06-23.html
p6
aVhttps://www.pagina12.com.ar/diario/sociedad/3-302433-2016-06-23.html
p7
aVhttps://www.pagina12.com.ar/diario/sociedad/3-302434-2016-06-23.html
p8
aVhttps://www.pagina12.com.ar/diario/sociedad/3-302435-2016-06-23.html
p9
aVhttps://www.pagina12.com.ar/diario/sociedad/3-302436-2016-06-23.html
p10
aVhttps://www.pagina12.com.ar/diario/sociedad/3-302437-2016-06-23.html
p11
aVhttps://www.pagina12.com.ar/diario/sociedad/3-302438-2016-06-23.html
p12
aVhttps://www.pagina12.com.ar/diario/sociedad/3-302441-2016-06-23.html
p13
aVhttps://www.pagina12.com.ar/diario/sociedad/3-302442-2016-06-23.html
p14
aVhttps://www.pagina12.com.ar/diario/sociedad/3-302443-2016-06-23.html
p15
aVhttps://www.pagina12.com.ar/diario/sociedad/3-302444-2016-06-23.html
p16
aVhttps://www.pagina12.com.ar/diario/sociedad/3-302452-2016-06-23.html
p17
aVhttps://www.pagina12.com.ar/diario/sociedad/3-302453-2016-06-23.html
p18
aVhttps://www.pagina12.com.ar/diario/sociedad/3-302401-2016-06-23.html
p19
aVhttps://www.pagina12.com.ar/diario/sociedad/3-302402-2016-06-23.html
p20
a.