(lp0
Vhttps://www.pagina12.com.ar/diario/elpais/1-311113-2016-10-06.html
p1
aVhttps://www.pagina12.com.ar/diario/elpais/1-311114-2016-10-06.html
p2
aVhttps://www.pagina12.com.ar/diario/elpais/1-311096-2016-10-06.html
p3
aVhttps://www.pagina12.com.ar/diario/elpais/1-311097-2016-10-06.html
p4
aVhttps://www.pagina12.com.ar/diario/elpais/1-311098-2016-10-06.html
p5
aVhttps://www.pagina12.com.ar/diario/elpais/1-311099-2016-10-06.html
p6
aVhttps://www.pagina12.com.ar/diario/elpais/1-311091-2016-10-06.html
p7
aVhttps://www.pagina12.com.ar/diario/elpais/1-311092-2016-10-06.html
p8
aVhttps://www.pagina12.com.ar/diario/elpais/1-311110-2016-10-06.html
p9
aVhttps://www.pagina12.com.ar/diario/elpais/1-311111-2016-10-06.html
p10
aVhttps://www.pagina12.com.ar/diario/elpais/1-311112-2016-10-06.html
p11
aVhttps://www.pagina12.com.ar/diario/elpais/1-311107-2016-10-06.html
p12
aVhttps://www.pagina12.com.ar/diario/elpais/1-311108-2016-10-06.html
p13
aVhttps://www.pagina12.com.ar/diario/elpais/1-311109-2016-10-06.html
p14
aVhttps://www.pagina12.com.ar/diario/elpais/1-311122-2016-10-06.html
p15
aVhttps://www.pagina12.com.ar/diario/elpais/1-311123-2016-10-06.html
p16
aVhttps://www.pagina12.com.ar/diario/elpais/1-311130-2016-10-06.html
p17
aVhttps://www.pagina12.com.ar/diario/elpais/1-311093-2016-10-06.html
p18
aVhttps://www.pagina12.com.ar/diario/elpais/1-311094-2016-10-06.html
p19
aVhttps://www.pagina12.com.ar/diario/elpais/1-311095-2016-10-06.html
p20
a.