(lp0
Vhttps://www.pagina12.com.ar/diario/economia/2-296137-2016-04-04.html
p1
aVhttps://www.pagina12.com.ar/diario/economia/2-296135-2016-04-04.html
p2
aVhttps://www.pagina12.com.ar/diario/economia/2-296136-2016-04-04.html
p3
a.