(lp0
Vhttps://www.pagina12.com.ar/diario/sociedad/3-293871-2016-03-05.html
p1
aVhttps://www.pagina12.com.ar/diario/sociedad/3-293866-2016-03-05.html
p2
aVhttps://www.pagina12.com.ar/diario/sociedad/3-293872-2016-03-05.html
p3
aVhttps://www.pagina12.com.ar/diario/sociedad/3-293855-2016-03-05.html
p4
aVhttps://www.pagina12.com.ar/diario/sociedad/3-293867-2016-03-05.html
p5
aVhttps://www.pagina12.com.ar/diario/sociedad/3-293856-2016-03-05.html
p6
aVhttps://www.pagina12.com.ar/diario/sociedad/3-293857-2016-03-05.html
p7
aVhttps://www.pagina12.com.ar/diario/sociedad/3-293858-2016-03-05.html
p8
aVhttps://www.pagina12.com.ar/diario/sociedad/3-293868-2016-03-05.html
p9
aVhttps://www.pagina12.com.ar/diario/sociedad/3-293869-2016-03-05.html
p10
aVhttps://www.pagina12.com.ar/diario/sociedad/3-293870-2016-03-05.html
p11
aVhttps://www.pagina12.com.ar/diario/sociedad/3-293873-2016-03-05.html
p12
aVhttps://www.pagina12.com.ar/diario/sociedad/3-293874-2016-03-05.html
p13
aVhttps://www.pagina12.com.ar/diario/sociedad/3-293875-2016-03-05.html
p14
a.