(lp0
Vhttps://www.pagina12.com.ar/diario/sociedad/3-308006-2016-08-29.html
p1
aVhttps://www.pagina12.com.ar/diario/sociedad/3-308005-2016-08-29.html
p2
aVhttps://www.pagina12.com.ar/diario/sociedad/3-308003-2016-08-29.html
p3
a.