(lp0
Vhttps://www.pagina12.com.ar/diario/sociedad/3-306767-2016-08-13.html
p1
aVhttps://www.pagina12.com.ar/diario/sociedad/3-306765-2016-08-13.html
p2
aVhttps://www.pagina12.com.ar/diario/sociedad/3-306768-2016-08-13.html
p3
aVhttps://www.pagina12.com.ar/diario/sociedad/3-306760-2016-08-13.html
p4
aVhttps://www.pagina12.com.ar/diario/sociedad/3-306766-2016-08-13.html
p5
aVhttps://www.pagina12.com.ar/diario/sociedad/3-306761-2016-08-13.html
p6
aVhttps://www.pagina12.com.ar/diario/sociedad/3-306754-2016-08-13.html
p7
aVhttps://www.pagina12.com.ar/diario/sociedad/3-306755-2016-08-13.html
p8
aVhttps://www.pagina12.com.ar/diario/sociedad/3-306756-2016-08-13.html
p9
aVhttps://www.pagina12.com.ar/diario/sociedad/3-306757-2016-08-13.html
p10
aVhttps://www.pagina12.com.ar/diario/sociedad/3-306758-2016-08-13.html
p11
aVhttps://www.pagina12.com.ar/diario/sociedad/3-306759-2016-08-13.html
p12
aVhttps://www.pagina12.com.ar/diario/sociedad/3-306762-2016-08-13.html
p13
aVhttps://www.pagina12.com.ar/diario/sociedad/3-306763-2016-08-13.html
p14
aVhttps://www.pagina12.com.ar/diario/sociedad/3-306764-2016-08-13.html
p15
aVhttps://www.pagina12.com.ar/diario/sociedad/3-306769-2016-08-13.html
p16
aVhttps://www.pagina12.com.ar/diario/sociedad/3-306770-2016-08-13.html
p17
aVhttps://www.pagina12.com.ar/diario/sociedad/3-306771-2016-08-13.html
p18
a.