(lp0
Vhttps://www.pagina12.com.ar/diario/sociedad/3-308467-2016-09-03.html
p1
aVhttps://www.pagina12.com.ar/diario/sociedad/3-308469-2016-09-03.html
p2
aVhttps://www.pagina12.com.ar/diario/sociedad/3-308461-2016-09-03.html
p3
aVhttps://www.pagina12.com.ar/diario/sociedad/3-308463-2016-09-03.html
p4
aVhttps://www.pagina12.com.ar/diario/sociedad/3-308464-2016-09-03.html
p5
aVhttps://www.pagina12.com.ar/diario/sociedad/3-308465-2016-09-03.html
p6
aVhttps://www.pagina12.com.ar/diario/sociedad/3-308466-2016-09-03.html
p7
aVhttps://www.pagina12.com.ar/diario/sociedad/3-308468-2016-09-03.html
p8
a.