(lp0
Vhttps://www.pagina12.com.ar/diario/elpais/1-298990-2016-05-10.html
p1
aVhttps://www.pagina12.com.ar/diario/elpais/1-298991-2016-05-10.html
p2
aVhttps://www.pagina12.com.ar/diario/elpais/1-298992-2016-05-10.html
p3
aVhttps://www.pagina12.com.ar/diario/elpais/1-298986-2016-05-10.html
p4
aVhttps://www.pagina12.com.ar/diario/elpais/1-298988-2016-05-10.html
p5
aVhttps://www.pagina12.com.ar/diario/elpais/1-298989-2016-05-10.html
p6
aVhttps://www.pagina12.com.ar/diario/elpais/1-298987-2016-05-10.html
p7
aVhttps://www.pagina12.com.ar/diario/elpais/1-298983-2016-05-10.html
p8
aVhttps://www.pagina12.com.ar/diario/elpais/1-298984-2016-05-10.html
p9
aVhttps://www.pagina12.com.ar/diario/elpais/1-298985-2016-05-10.html
p10
aVhttps://www.pagina12.com.ar/diario/elpais/1-298981-2016-05-10.html
p11
aVhttps://www.pagina12.com.ar/diario/elpais/1-298982-2016-05-10.html
p12
aVhttps://www.pagina12.com.ar/diario/elpais/1-298978-2016-05-10.html
p13
aVhttps://www.pagina12.com.ar/diario/elpais/1-298979-2016-05-10.html
p14
aVhttps://www.pagina12.com.ar/diario/elpais/1-298980-2016-05-10.html
p15
aVhttps://www.pagina12.com.ar/diario/elpais/1-298973-2016-05-10.html
p16
aVhttps://www.pagina12.com.ar/diario/elpais/1-298974-2016-05-10.html
p17
aVhttps://www.pagina12.com.ar/diario/elpais/1-298975-2016-05-10.html
p18
aVhttps://www.pagina12.com.ar/diario/elpais/1-298976-2016-05-10.html
p19
aVhttps://www.pagina12.com.ar/diario/elpais/1-298977-2016-05-10.html
p20
aVhttps://www.pagina12.com.ar/diario/elpais/1-298971-2016-05-10.html
p21
aVhttps://www.pagina12.com.ar/diario/elpais/1-298972-2016-05-10.html
p22
aVhttps://www.pagina12.com.ar/diario/elpais/1-298969-2016-05-10.html
p23
aVhttps://www.pagina12.com.ar/diario/elpais/1-298970-2016-05-10.html
p24
aVhttps://www.pagina12.com.ar/diario/elpais/1-298960-2016-05-10.html
p25
a.