(lp0
Vhttps://www.pagina12.com.ar/diario/economia/2-311067-2016-10-06.html
p1
aVhttps://www.pagina12.com.ar/diario/economia/2-311068-2016-10-06.html
p2
aVhttps://www.pagina12.com.ar/diario/economia/2-311069-2016-10-06.html
p3
aVhttps://www.pagina12.com.ar/diario/economia/2-311070-2016-10-06.html
p4
aVhttps://www.pagina12.com.ar/diario/economia/2-311071-2016-10-06.html
p5
aVhttps://www.pagina12.com.ar/diario/economia/2-311116-2016-10-06.html
p6
aVhttps://www.pagina12.com.ar/diario/economia/2-311117-2016-10-06.html
p7
aVhttps://www.pagina12.com.ar/diario/economia/2-311118-2016-10-06.html
p8
aVhttps://www.pagina12.com.ar/diario/economia/2-311119-2016-10-06.html
p9
aVhttps://www.pagina12.com.ar/diario/economia/2-311120-2016-10-06.html
p10
aVhttps://www.pagina12.com.ar/diario/economia/2-311121-2016-10-06.html
p11
a.