(lp0
Vhttps://www.pagina12.com.ar/diario/sociedad/3-307728-2016-08-25.html
p1
aVhttps://www.pagina12.com.ar/diario/sociedad/3-307723-2016-08-25.html
p2
aVhttps://www.pagina12.com.ar/diario/sociedad/3-307724-2016-08-25.html
p3
aVhttps://www.pagina12.com.ar/diario/sociedad/3-307719-2016-08-25.html
p4
aVhttps://www.pagina12.com.ar/diario/sociedad/3-307720-2016-08-25.html
p5
aVhttps://www.pagina12.com.ar/diario/sociedad/3-307718-2016-08-25.html
p6
aVhttps://www.pagina12.com.ar/diario/sociedad/3-307721-2016-08-25.html
p7
aVhttps://www.pagina12.com.ar/diario/sociedad/3-307722-2016-08-25.html
p8
aVhttps://www.pagina12.com.ar/diario/sociedad/3-307725-2016-08-25.html
p9
aVhttps://www.pagina12.com.ar/diario/sociedad/3-307726-2016-08-25.html
p10
a.