(lp0
S'http://www.clarin.com/archivo/pager.json?date=20140702&page=1'
p1
aS'http://www.clarin.com/archivo/pager.json?date=20140703&page=1'
p2
aS'http://www.clarin.com/archivo/pager.json?date=20140704&page=1'
p3
aS'http://www.clarin.com/archivo/pager.json?date=20140705&page=1'
p4
aS'http://www.clarin.com/archivo/pager.json?date=20140706&page=1'
p5
aS'http://www.clarin.com/archivo/pager.json?date=20140707&page=1'
p6
aS'http://www.clarin.com/archivo/pager.json?date=20140708&page=1'
p7
aS'http://www.clarin.com/archivo/pager.json?date=20140709&page=1'
p8
aS'http://www.clarin.com/archivo/pager.json?date=20140710&page=1'
p9
aS'http://www.clarin.com/archivo/pager.json?date=20140711&page=1'
p10
aS'http://www.clarin.com/archivo/pager.json?date=20140712&page=1'
p11
aS'http://www.clarin.com/archivo/pager.json?date=20140713&page=1'
p12
aS'http://www.clarin.com/archivo/pager.json?date=20140714&page=1'
p13
aS'http://www.clarin.com/archivo/pager.json?date=20140715&page=1'
p14
aS'http://www.clarin.com/archivo/pager.json?date=20140716&page=1'
p15
aS'http://www.clarin.com/archivo/pager.json?date=20140717&page=1'
p16
aS'http://www.clarin.com/archivo/pager.json?date=20140718&page=1'
p17
aS'http://www.clarin.com/archivo/pager.json?date=20140719&page=1'
p18
aS'http://www.clarin.com/archivo/pager.json?date=20140720&page=1'
p19
aS'http://www.clarin.com/archivo/pager.json?date=20140721&page=1'
p20
aS'http://www.clarin.com/archivo/pager.json?date=20140722&page=1'
p21
aS'http://www.clarin.com/archivo/pager.json?date=20140723&page=1'
p22
aS'http://www.clarin.com/archivo/pager.json?date=20140724&page=1'
p23
aS'http://www.clarin.com/archivo/pager.json?date=20140725&page=1'
p24
aS'http://www.clarin.com/archivo/pager.json?date=20140726&page=1'
p25
aS'http://www.clarin.com/archivo/pager.json?date=20140727&page=1'
p26
aS'http://www.clarin.com/archivo/pager.json?date=20140728&page=1'
p27
aS'http://www.clarin.com/archivo/pager.json?date=20140729&page=1'
p28
aS'http://www.clarin.com/archivo/pager.json?date=20140730&page=1'
p29
aS'http://www.clarin.com/archivo/pager.json?date=20140731&page=1'
p30
aS'http://www.clarin.com/archivo/pager.json?date=20140801&page=1'
p31
aS'http://www.clarin.com/archivo/pager.json?date=20140802&page=1'
p32
aS'http://www.clarin.com/archivo/pager.json?date=20140803&page=1'
p33
aS'http://www.clarin.com/archivo/pager.json?date=20140804&page=1'
p34
aS'http://www.clarin.com/archivo/pager.json?date=20140805&page=1'
p35
aS'http://www.clarin.com/archivo/pager.json?date=20140806&page=1'
p36
aS'http://www.clarin.com/archivo/pager.json?date=20140807&page=1'
p37
aS'http://www.clarin.com/archivo/pager.json?date=20140808&page=1'
p38
aS'http://www.clarin.com/archivo/pager.json?date=20140809&page=1'
p39
aS'http://www.clarin.com/archivo/pager.json?date=20140810&page=1'
p40
aS'http://www.clarin.com/archivo/pager.json?date=20140811&page=1'
p41
aS'http://www.clarin.com/archivo/pager.json?date=20140812&page=1'
p42
aS'http://www.clarin.com/archivo/pager.json?date=20140813&page=1'
p43
aS'http://www.clarin.com/archivo/pager.json?date=20140814&page=1'
p44
aS'http://www.clarin.com/archivo/pager.json?date=20140815&page=1'
p45
aS'http://www.clarin.com/archivo/pager.json?date=20140816&page=1'
p46
aS'http://www.clarin.com/archivo/pager.json?date=20140817&page=1'
p47
aS'http://www.clarin.com/archivo/pager.json?date=20140818&page=1'
p48
aS'http://www.clarin.com/archivo/pager.json?date=20140819&page=1'
p49
aS'http://www.clarin.com/archivo/pager.json?date=20140820&page=1'
p50
aS'http://www.clarin.com/archivo/pager.json?date=20140821&page=1'
p51
aS'http://www.clarin.com/archivo/pager.json?date=20140822&page=1'
p52
aS'http://www.clarin.com/archivo/pager.json?date=20140823&page=1'
p53
aS'http://www.clarin.com/archivo/pager.json?date=20140824&page=1'
p54
aS'http://www.clarin.com/archivo/pager.json?date=20140825&page=1'
p55
aS'http://www.clarin.com/archivo/pager.json?date=20140826&page=1'
p56
aS'http://www.clarin.com/archivo/pager.json?date=20140827&page=1'
p57
aS'http://www.clarin.com/archivo/pager.json?date=20140828&page=1'
p58
aS'http://www.clarin.com/archivo/pager.json?date=20140829&page=1'
p59
aS'http://www.clarin.com/archivo/pager.json?date=20140830&page=1'
p60
aS'http://www.clarin.com/archivo/pager.json?date=20140831&page=1'
p61
aS'http://www.clarin.com/archivo/pager.json?date=20140901&page=1'
p62
aS'http://www.clarin.com/archivo/pager.json?date=20140902&page=1'
p63
aS'http://www.clarin.com/archivo/pager.json?date=20140903&page=1'
p64
aS'http://www.clarin.com/archivo/pager.json?date=20140904&page=1'
p65
aS'http://www.clarin.com/archivo/pager.json?date=20140905&page=1'
p66
aS'http://www.clarin.com/archivo/pager.json?date=20140906&page=1'
p67
aS'http://www.clarin.com/archivo/pager.json?date=20140907&page=1'
p68
aS'http://www.clarin.com/archivo/pager.json?date=20140908&page=1'
p69
aS'http://www.clarin.com/archivo/pager.json?date=20140909&page=1'
p70
aS'http://www.clarin.com/archivo/pager.json?date=20140910&page=1'
p71
aS'http://www.clarin.com/archivo/pager.json?date=20140911&page=1'
p72
aS'http://www.clarin.com/archivo/pager.json?date=20140912&page=1'
p73
aS'http://www.clarin.com/archivo/pager.json?date=20140913&page=1'
p74
aS'http://www.clarin.com/archivo/pager.json?date=20140914&page=1'
p75
aS'http://www.clarin.com/archivo/pager.json?date=20140915&page=1'
p76
aS'http://www.clarin.com/archivo/pager.json?date=20140916&page=1'
p77
aS'http://www.clarin.com/archivo/pager.json?date=20140917&page=1'
p78
aS'http://www.clarin.com/archivo/pager.json?date=20140918&page=1'
p79
aS'http://www.clarin.com/archivo/pager.json?date=20140919&page=1'
p80
aS'http://www.clarin.com/archivo/pager.json?date=20140920&page=1'
p81
aS'http://www.clarin.com/archivo/pager.json?date=20140921&page=1'
p82
aS'http://www.clarin.com/archivo/pager.json?date=20140922&page=1'
p83
aS'http://www.clarin.com/archivo/pager.json?date=20140923&page=1'
p84
aS'http://www.clarin.com/archivo/pager.json?date=20140924&page=1'
p85
aS'http://www.clarin.com/archivo/pager.json?date=20140925&page=1'
p86
aS'http://www.clarin.com/archivo/pager.json?date=20140926&page=1'
p87
aS'http://www.clarin.com/archivo/pager.json?date=20140927&page=1'
p88
aS'http://www.clarin.com/archivo/pager.json?date=20140928&page=1'
p89
aS'http://www.clarin.com/archivo/pager.json?date=20140929&page=1'
p90
aS'http://www.clarin.com/archivo/pager.json?date=20140930&page=1'
p91
aS'http://www.clarin.com/archivo/pager.json?date=20140931&page=1'
p92
aS'http://www.clarin.com/archivo/pager.json?date=20141001&page=1'
p93
aS'http://www.clarin.com/archivo/pager.json?date=20141002&page=1'
p94
aS'http://www.clarin.com/archivo/pager.json?date=20141003&page=1'
p95
aS'http://www.clarin.com/archivo/pager.json?date=20141004&page=1'
p96
aS'http://www.clarin.com/archivo/pager.json?date=20141005&page=1'
p97
aS'http://www.clarin.com/archivo/pager.json?date=20141006&page=1'
p98
aS'http://www.clarin.com/archivo/pager.json?date=20141007&page=1'
p99
aS'http://www.clarin.com/archivo/pager.json?date=20141008&page=1'
p100
aS'http://www.clarin.com/archivo/pager.json?date=20141009&page=1'
p101
aS'http://www.clarin.com/archivo/pager.json?date=20141010&page=1'
p102
aS'http://www.clarin.com/archivo/pager.json?date=20141011&page=1'
p103
aS'http://www.clarin.com/archivo/pager.json?date=20141012&page=1'
p104
aS'http://www.clarin.com/archivo/pager.json?date=20141013&page=1'
p105
aS'http://www.clarin.com/archivo/pager.json?date=20141014&page=1'
p106
aS'http://www.clarin.com/archivo/pager.json?date=20141015&page=1'
p107
aS'http://www.clarin.com/archivo/pager.json?date=20141016&page=1'
p108
aS'http://www.clarin.com/archivo/pager.json?date=20141017&page=1'
p109
aS'http://www.clarin.com/archivo/pager.json?date=20141018&page=1'
p110
aS'http://www.clarin.com/archivo/pager.json?date=20141019&page=1'
p111
aS'http://www.clarin.com/archivo/pager.json?date=20141020&page=1'
p112
aS'http://www.clarin.com/archivo/pager.json?date=20141021&page=1'
p113
aS'http://www.clarin.com/archivo/pager.json?date=20141022&page=1'
p114
aS'http://www.clarin.com/archivo/pager.json?date=20141023&page=1'
p115
aS'http://www.clarin.com/archivo/pager.json?date=20141024&page=1'
p116
aS'http://www.clarin.com/archivo/pager.json?date=20141025&page=1'
p117
aS'http://www.clarin.com/archivo/pager.json?date=20141026&page=1'
p118
aS'http://www.clarin.com/archivo/pager.json?date=20141027&page=1'
p119
aS'http://www.clarin.com/archivo/pager.json?date=20141028&page=1'
p120
aS'http://www.clarin.com/archivo/pager.json?date=20141029&page=1'
p121
aS'http://www.clarin.com/archivo/pager.json?date=20141030&page=1'
p122
aS'http://www.clarin.com/archivo/pager.json?date=20141031&page=1'
p123
aS'http://www.clarin.com/archivo/pager.json?date=20141101&page=1'
p124
aS'http://www.clarin.com/archivo/pager.json?date=20141102&page=1'
p125
aS'http://www.clarin.com/archivo/pager.json?date=20141103&page=1'
p126
aS'http://www.clarin.com/archivo/pager.json?date=20141104&page=1'
p127
aS'http://www.clarin.com/archivo/pager.json?date=20141105&page=1'
p128
aS'http://www.clarin.com/archivo/pager.json?date=20141106&page=1'
p129
aS'http://www.clarin.com/archivo/pager.json?date=20141107&page=1'
p130
aS'http://www.clarin.com/archivo/pager.json?date=20141108&page=1'
p131
aS'http://www.clarin.com/archivo/pager.json?date=20141109&page=1'
p132
aS'http://www.clarin.com/archivo/pager.json?date=20141110&page=1'
p133
aS'http://www.clarin.com/archivo/pager.json?date=20141111&page=1'
p134
aS'http://www.clarin.com/archivo/pager.json?date=20141112&page=1'
p135
aS'http://www.clarin.com/archivo/pager.json?date=20141113&page=1'
p136
aS'http://www.clarin.com/archivo/pager.json?date=20141114&page=1'
p137
aS'http://www.clarin.com/archivo/pager.json?date=20141115&page=1'
p138
aS'http://www.clarin.com/archivo/pager.json?date=20141116&page=1'
p139
aS'http://www.clarin.com/archivo/pager.json?date=20141117&page=1'
p140
aS'http://www.clarin.com/archivo/pager.json?date=20141118&page=1'
p141
aS'http://www.clarin.com/archivo/pager.json?date=20141119&page=1'
p142
aS'http://www.clarin.com/archivo/pager.json?date=20141120&page=1'
p143
aS'http://www.clarin.com/archivo/pager.json?date=20141121&page=1'
p144
aS'http://www.clarin.com/archivo/pager.json?date=20141122&page=1'
p145
aS'http://www.clarin.com/archivo/pager.json?date=20141123&page=1'
p146
aS'http://www.clarin.com/archivo/pager.json?date=20141124&page=1'
p147
aS'http://www.clarin.com/archivo/pager.json?date=20141125&page=1'
p148
aS'http://www.clarin.com/archivo/pager.json?date=20141126&page=1'
p149
aS'http://www.clarin.com/archivo/pager.json?date=20141127&page=1'
p150
aS'http://www.clarin.com/archivo/pager.json?date=20141128&page=1'
p151
aS'http://www.clarin.com/archivo/pager.json?date=20141129&page=1'
p152
aS'http://www.clarin.com/archivo/pager.json?date=20141130&page=1'
p153
aS'http://www.clarin.com/archivo/pager.json?date=20141131&page=1'
p154
aS'http://www.clarin.com/archivo/pager.json?date=20141201&page=1'
p155
aS'http://www.clarin.com/archivo/pager.json?date=20141202&page=1'
p156
aS'http://www.clarin.com/archivo/pager.json?date=20141203&page=1'
p157
aS'http://www.clarin.com/archivo/pager.json?date=20141204&page=1'
p158
aS'http://www.clarin.com/archivo/pager.json?date=20141205&page=1'
p159
aS'http://www.clarin.com/archivo/pager.json?date=20141206&page=1'
p160
aS'http://www.clarin.com/archivo/pager.json?date=20141207&page=1'
p161
aS'http://www.clarin.com/archivo/pager.json?date=20141208&page=1'
p162
aS'http://www.clarin.com/archivo/pager.json?date=20141209&page=1'
p163
aS'http://www.clarin.com/archivo/pager.json?date=20141210&page=1'
p164
aS'http://www.clarin.com/archivo/pager.json?date=20141211&page=1'
p165
aS'http://www.clarin.com/archivo/pager.json?date=20141212&page=1'
p166
aS'http://www.clarin.com/archivo/pager.json?date=20141213&page=1'
p167
aS'http://www.clarin.com/archivo/pager.json?date=20141214&page=1'
p168
aS'http://www.clarin.com/archivo/pager.json?date=20141215&page=1'
p169
aS'http://www.clarin.com/archivo/pager.json?date=20141216&page=1'
p170
aS'http://www.clarin.com/archivo/pager.json?date=20141217&page=1'
p171
aS'http://www.clarin.com/archivo/pager.json?date=20141218&page=1'
p172
aS'http://www.clarin.com/archivo/pager.json?date=20141219&page=1'
p173
aS'http://www.clarin.com/archivo/pager.json?date=20141220&page=1'
p174
aS'http://www.clarin.com/archivo/pager.json?date=20141221&page=1'
p175
aS'http://www.clarin.com/archivo/pager.json?date=20141222&page=1'
p176
aS'http://www.clarin.com/archivo/pager.json?date=20141223&page=1'
p177
aS'http://www.clarin.com/archivo/pager.json?date=20141224&page=1'
p178
aS'http://www.clarin.com/archivo/pager.json?date=20141225&page=1'
p179
aS'http://www.clarin.com/archivo/pager.json?date=20141226&page=1'
p180
aS'http://www.clarin.com/archivo/pager.json?date=20141227&page=1'
p181
aS'http://www.clarin.com/archivo/pager.json?date=20141228&page=1'
p182
aS'http://www.clarin.com/archivo/pager.json?date=20141229&page=1'
p183
aS'http://www.clarin.com/archivo/pager.json?date=20141230&page=1'
p184
aS'http://www.clarin.com/archivo/pager.json?date=20141231&page=1'
p185
aS'http://www.clarin.com/archivo/pager.json?date=20150101&page=1'
p186
aS'http://www.clarin.com/archivo/pager.json?date=20150102&page=1'
p187
aS'http://www.clarin.com/archivo/pager.json?date=20150103&page=1'
p188
aS'http://www.clarin.com/archivo/pager.json?date=20150104&page=1'
p189
aS'http://www.clarin.com/archivo/pager.json?date=20150105&page=1'
p190
aS'http://www.clarin.com/archivo/pager.json?date=20150106&page=1'
p191
aS'http://www.clarin.com/archivo/pager.json?date=20150107&page=1'
p192
aS'http://www.clarin.com/archivo/pager.json?date=20150108&page=1'
p193
aS'http://www.clarin.com/archivo/pager.json?date=20150109&page=1'
p194
aS'http://www.clarin.com/archivo/pager.json?date=20150110&page=1'
p195
aS'http://www.clarin.com/archivo/pager.json?date=20150111&page=1'
p196
aS'http://www.clarin.com/archivo/pager.json?date=20150112&page=1'
p197
aS'http://www.clarin.com/archivo/pager.json?date=20150113&page=1'
p198
aS'http://www.clarin.com/archivo/pager.json?date=20150114&page=1'
p199
aS'http://www.clarin.com/archivo/pager.json?date=20150115&page=1'
p200
aS'http://www.clarin.com/archivo/pager.json?date=20150116&page=1'
p201
aS'http://www.clarin.com/archivo/pager.json?date=20150117&page=1'
p202
aS'http://www.clarin.com/archivo/pager.json?date=20150118&page=1'
p203
aS'http://www.clarin.com/archivo/pager.json?date=20150119&page=1'
p204
aS'http://www.clarin.com/archivo/pager.json?date=20150120&page=1'
p205
aS'http://www.clarin.com/archivo/pager.json?date=20150121&page=1'
p206
aS'http://www.clarin.com/archivo/pager.json?date=20150122&page=1'
p207
aS'http://www.clarin.com/archivo/pager.json?date=20150123&page=1'
p208
aS'http://www.clarin.com/archivo/pager.json?date=20150124&page=1'
p209
aS'http://www.clarin.com/archivo/pager.json?date=20150125&page=1'
p210
aS'http://www.clarin.com/archivo/pager.json?date=20150126&page=1'
p211
aS'http://www.clarin.com/archivo/pager.json?date=20150127&page=1'
p212
aS'http://www.clarin.com/archivo/pager.json?date=20150128&page=1'
p213
aS'http://www.clarin.com/archivo/pager.json?date=20150129&page=1'
p214
aS'http://www.clarin.com/archivo/pager.json?date=20150130&page=1'
p215
aS'http://www.clarin.com/archivo/pager.json?date=20150131&page=1'
p216
aS'http://www.clarin.com/archivo/pager.json?date=20150201&page=1'
p217
aS'http://www.clarin.com/archivo/pager.json?date=20150202&page=1'
p218
aS'http://www.clarin.com/archivo/pager.json?date=20150203&page=1'
p219
aS'http://www.clarin.com/archivo/pager.json?date=20150204&page=1'
p220
aS'http://www.clarin.com/archivo/pager.json?date=20150205&page=1'
p221
aS'http://www.clarin.com/archivo/pager.json?date=20150206&page=1'
p222
aS'http://www.clarin.com/archivo/pager.json?date=20150207&page=1'
p223
aS'http://www.clarin.com/archivo/pager.json?date=20150208&page=1'
p224
aS'http://www.clarin.com/archivo/pager.json?date=20150209&page=1'
p225
aS'http://www.clarin.com/archivo/pager.json?date=20150210&page=1'
p226
aS'http://www.clarin.com/archivo/pager.json?date=20150211&page=1'
p227
aS'http://www.clarin.com/archivo/pager.json?date=20150212&page=1'
p228
aS'http://www.clarin.com/archivo/pager.json?date=20150213&page=1'
p229
aS'http://www.clarin.com/archivo/pager.json?date=20150214&page=1'
p230
aS'http://www.clarin.com/archivo/pager.json?date=20150215&page=1'
p231
aS'http://www.clarin.com/archivo/pager.json?date=20150216&page=1'
p232
aS'http://www.clarin.com/archivo/pager.json?date=20150217&page=1'
p233
aS'http://www.clarin.com/archivo/pager.json?date=20150218&page=1'
p234
aS'http://www.clarin.com/archivo/pager.json?date=20150219&page=1'
p235
aS'http://www.clarin.com/archivo/pager.json?date=20150220&page=1'
p236
aS'http://www.clarin.com/archivo/pager.json?date=20150221&page=1'
p237
aS'http://www.clarin.com/archivo/pager.json?date=20150222&page=1'
p238
aS'http://www.clarin.com/archivo/pager.json?date=20150223&page=1'
p239
aS'http://www.clarin.com/archivo/pager.json?date=20150224&page=1'
p240
aS'http://www.clarin.com/archivo/pager.json?date=20150225&page=1'
p241
aS'http://www.clarin.com/archivo/pager.json?date=20150226&page=1'
p242
aS'http://www.clarin.com/archivo/pager.json?date=20150227&page=1'
p243
aS'http://www.clarin.com/archivo/pager.json?date=20150228&page=1'
p244
aS'http://www.clarin.com/archivo/pager.json?date=20150229&page=1'
p245
aS'http://www.clarin.com/archivo/pager.json?date=20150230&page=1'
p246
aS'http://www.clarin.com/archivo/pager.json?date=20150231&page=1'
p247
aS'http://www.clarin.com/archivo/pager.json?date=20150301&page=1'
p248
aS'http://www.clarin.com/archivo/pager.json?date=20150302&page=1'
p249
aS'http://www.clarin.com/archivo/pager.json?date=20150303&page=1'
p250
aS'http://www.clarin.com/archivo/pager.json?date=20150304&page=1'
p251
aS'http://www.clarin.com/archivo/pager.json?date=20150305&page=1'
p252
aS'http://www.clarin.com/archivo/pager.json?date=20150306&page=1'
p253
aS'http://www.clarin.com/archivo/pager.json?date=20150307&page=1'
p254
aS'http://www.clarin.com/archivo/pager.json?date=20150308&page=1'
p255
aS'http://www.clarin.com/archivo/pager.json?date=20150309&page=1'
p256
aS'http://www.clarin.com/archivo/pager.json?date=20150310&page=1'
p257
aS'http://www.clarin.com/archivo/pager.json?date=20150311&page=1'
p258
aS'http://www.clarin.com/archivo/pager.json?date=20150312&page=1'
p259
aS'http://www.clarin.com/archivo/pager.json?date=20150313&page=1'
p260
aS'http://www.clarin.com/archivo/pager.json?date=20150314&page=1'
p261
aS'http://www.clarin.com/archivo/pager.json?date=20150315&page=1'
p262
aS'http://www.clarin.com/archivo/pager.json?date=20150316&page=1'
p263
aS'http://www.clarin.com/archivo/pager.json?date=20150317&page=1'
p264
aS'http://www.clarin.com/archivo/pager.json?date=20150318&page=1'
p265
aS'http://www.clarin.com/archivo/pager.json?date=20150319&page=1'
p266
aS'http://www.clarin.com/archivo/pager.json?date=20150320&page=1'
p267
aS'http://www.clarin.com/archivo/pager.json?date=20150321&page=1'
p268
aS'http://www.clarin.com/archivo/pager.json?date=20150322&page=1'
p269
aS'http://www.clarin.com/archivo/pager.json?date=20150323&page=1'
p270
aS'http://www.clarin.com/archivo/pager.json?date=20150324&page=1'
p271
aS'http://www.clarin.com/archivo/pager.json?date=20150325&page=1'
p272
aS'http://www.clarin.com/archivo/pager.json?date=20150326&page=1'
p273
aS'http://www.clarin.com/archivo/pager.json?date=20150327&page=1'
p274
aS'http://www.clarin.com/archivo/pager.json?date=20150328&page=1'
p275
aS'http://www.clarin.com/archivo/pager.json?date=20150329&page=1'
p276
aS'http://www.clarin.com/archivo/pager.json?date=20150330&page=1'
p277
aS'http://www.clarin.com/archivo/pager.json?date=20150331&page=1'
p278
aS'http://www.clarin.com/archivo/pager.json?date=20150401&page=1'
p279
aS'http://www.clarin.com/archivo/pager.json?date=20150402&page=1'
p280
aS'http://www.clarin.com/archivo/pager.json?date=20150403&page=1'
p281
aS'http://www.clarin.com/archivo/pager.json?date=20150404&page=1'
p282
aS'http://www.clarin.com/archivo/pager.json?date=20150405&page=1'
p283
aS'http://www.clarin.com/archivo/pager.json?date=20150406&page=1'
p284
aS'http://www.clarin.com/archivo/pager.json?date=20150407&page=1'
p285
aS'http://www.clarin.com/archivo/pager.json?date=20150408&page=1'
p286
aS'http://www.clarin.com/archivo/pager.json?date=20150409&page=1'
p287
aS'http://www.clarin.com/archivo/pager.json?date=20150410&page=1'
p288
aS'http://www.clarin.com/archivo/pager.json?date=20150411&page=1'
p289
aS'http://www.clarin.com/archivo/pager.json?date=20150412&page=1'
p290
aS'http://www.clarin.com/archivo/pager.json?date=20150413&page=1'
p291
aS'http://www.clarin.com/archivo/pager.json?date=20150414&page=1'
p292
aS'http://www.clarin.com/archivo/pager.json?date=20150415&page=1'
p293
aS'http://www.clarin.com/archivo/pager.json?date=20150416&page=1'
p294
aS'http://www.clarin.com/archivo/pager.json?date=20150417&page=1'
p295
aS'http://www.clarin.com/archivo/pager.json?date=20150418&page=1'
p296
aS'http://www.clarin.com/archivo/pager.json?date=20150419&page=1'
p297
aS'http://www.clarin.com/archivo/pager.json?date=20150420&page=1'
p298
aS'http://www.clarin.com/archivo/pager.json?date=20150421&page=1'
p299
aS'http://www.clarin.com/archivo/pager.json?date=20150422&page=1'
p300
aS'http://www.clarin.com/archivo/pager.json?date=20150423&page=1'
p301
aS'http://www.clarin.com/archivo/pager.json?date=20150424&page=1'
p302
aS'http://www.clarin.com/archivo/pager.json?date=20150425&page=1'
p303
aS'http://www.clarin.com/archivo/pager.json?date=20150426&page=1'
p304
aS'http://www.clarin.com/archivo/pager.json?date=20150427&page=1'
p305
aS'http://www.clarin.com/archivo/pager.json?date=20150428&page=1'
p306
aS'http://www.clarin.com/archivo/pager.json?date=20150429&page=1'
p307
aS'http://www.clarin.com/archivo/pager.json?date=20150430&page=1'
p308
aS'http://www.clarin.com/archivo/pager.json?date=20150431&page=1'
p309
aS'http://www.clarin.com/archivo/pager.json?date=20150501&page=1'
p310
aS'http://www.clarin.com/archivo/pager.json?date=20150502&page=1'
p311
aS'http://www.clarin.com/archivo/pager.json?date=20150503&page=1'
p312
aS'http://www.clarin.com/archivo/pager.json?date=20150504&page=1'
p313
aS'http://www.clarin.com/archivo/pager.json?date=20150505&page=1'
p314
aS'http://www.clarin.com/archivo/pager.json?date=20150506&page=1'
p315
aS'http://www.clarin.com/archivo/pager.json?date=20150507&page=1'
p316
aS'http://www.clarin.com/archivo/pager.json?date=20150508&page=1'
p317
aS'http://www.clarin.com/archivo/pager.json?date=20150509&page=1'
p318
aS'http://www.clarin.com/archivo/pager.json?date=20150510&page=1'
p319
aS'http://www.clarin.com/archivo/pager.json?date=20150511&page=1'
p320
aS'http://www.clarin.com/archivo/pager.json?date=20150512&page=1'
p321
aS'http://www.clarin.com/archivo/pager.json?date=20150513&page=1'
p322
aS'http://www.clarin.com/archivo/pager.json?date=20150514&page=1'
p323
aS'http://www.clarin.com/archivo/pager.json?date=20150515&page=1'
p324
aS'http://www.clarin.com/archivo/pager.json?date=20150516&page=1'
p325
aS'http://www.clarin.com/archivo/pager.json?date=20150517&page=1'
p326
aS'http://www.clarin.com/archivo/pager.json?date=20150518&page=1'
p327
aS'http://www.clarin.com/archivo/pager.json?date=20150519&page=1'
p328
aS'http://www.clarin.com/archivo/pager.json?date=20150520&page=1'
p329
aS'http://www.clarin.com/archivo/pager.json?date=20150521&page=1'
p330
aS'http://www.clarin.com/archivo/pager.json?date=20150522&page=1'
p331
aS'http://www.clarin.com/archivo/pager.json?date=20150523&page=1'
p332
aS'http://www.clarin.com/archivo/pager.json?date=20150524&page=1'
p333
aS'http://www.clarin.com/archivo/pager.json?date=20150525&page=1'
p334
aS'http://www.clarin.com/archivo/pager.json?date=20150526&page=1'
p335
aS'http://www.clarin.com/archivo/pager.json?date=20150527&page=1'
p336
aS'http://www.clarin.com/archivo/pager.json?date=20150528&page=1'
p337
aS'http://www.clarin.com/archivo/pager.json?date=20150529&page=1'
p338
aS'http://www.clarin.com/archivo/pager.json?date=20150530&page=1'
p339
aS'http://www.clarin.com/archivo/pager.json?date=20150531&page=1'
p340
aS'http://www.clarin.com/archivo/pager.json?date=20150601&page=1'
p341
aS'http://www.clarin.com/archivo/pager.json?date=20150602&page=1'
p342
aS'http://www.clarin.com/archivo/pager.json?date=20150603&page=1'
p343
aS'http://www.clarin.com/archivo/pager.json?date=20150604&page=1'
p344
aS'http://www.clarin.com/archivo/pager.json?date=20150605&page=1'
p345
aS'http://www.clarin.com/archivo/pager.json?date=20150606&page=1'
p346
aS'http://www.clarin.com/archivo/pager.json?date=20150607&page=1'
p347
aS'http://www.clarin.com/archivo/pager.json?date=20150608&page=1'
p348
aS'http://www.clarin.com/archivo/pager.json?date=20150609&page=1'
p349
aS'http://www.clarin.com/archivo/pager.json?date=20150610&page=1'
p350
aS'http://www.clarin.com/archivo/pager.json?date=20150611&page=1'
p351
aS'http://www.clarin.com/archivo/pager.json?date=20150612&page=1'
p352
aS'http://www.clarin.com/archivo/pager.json?date=20150613&page=1'
p353
aS'http://www.clarin.com/archivo/pager.json?date=20150614&page=1'
p354
aS'http://www.clarin.com/archivo/pager.json?date=20150615&page=1'
p355
aS'http://www.clarin.com/archivo/pager.json?date=20150616&page=1'
p356
aS'http://www.clarin.com/archivo/pager.json?date=20150617&page=1'
p357
aS'http://www.clarin.com/archivo/pager.json?date=20150618&page=1'
p358
aS'http://www.clarin.com/archivo/pager.json?date=20150619&page=1'
p359
aS'http://www.clarin.com/archivo/pager.json?date=20150620&page=1'
p360
aS'http://www.clarin.com/archivo/pager.json?date=20150621&page=1'
p361
aS'http://www.clarin.com/archivo/pager.json?date=20150622&page=1'
p362
aS'http://www.clarin.com/archivo/pager.json?date=20150623&page=1'
p363
aS'http://www.clarin.com/archivo/pager.json?date=20150624&page=1'
p364
aS'http://www.clarin.com/archivo/pager.json?date=20150625&page=1'
p365
aS'http://www.clarin.com/archivo/pager.json?date=20150626&page=1'
p366
aS'http://www.clarin.com/archivo/pager.json?date=20150627&page=1'
p367
aS'http://www.clarin.com/archivo/pager.json?date=20150628&page=1'
p368
aS'http://www.clarin.com/archivo/pager.json?date=20150629&page=1'
p369
aS'http://www.clarin.com/archivo/pager.json?date=20150630&page=1'
p370
aS'http://www.clarin.com/archivo/pager.json?date=20150631&page=1'
p371
aS'http://www.clarin.com/archivo/pager.json?date=20150701&page=1'
p372
aS'http://www.clarin.com/archivo/pager.json?date=20150702&page=1'
p373
aS'http://www.clarin.com/archivo/pager.json?date=20150703&page=1'
p374
aS'http://www.clarin.com/archivo/pager.json?date=20150704&page=1'
p375
aS'http://www.clarin.com/archivo/pager.json?date=20150705&page=1'
p376
aS'http://www.clarin.com/archivo/pager.json?date=20150706&page=1'
p377
aS'http://www.clarin.com/archivo/pager.json?date=20150707&page=1'
p378
aS'http://www.clarin.com/archivo/pager.json?date=20150708&page=1'
p379
aS'http://www.clarin.com/archivo/pager.json?date=20150709&page=1'
p380
aS'http://www.clarin.com/archivo/pager.json?date=20150710&page=1'
p381
aS'http://www.clarin.com/archivo/pager.json?date=20150711&page=1'
p382
aS'http://www.clarin.com/archivo/pager.json?date=20150712&page=1'
p383
aS'http://www.clarin.com/archivo/pager.json?date=20150713&page=1'
p384
aS'http://www.clarin.com/archivo/pager.json?date=20150714&page=1'
p385
aS'http://www.clarin.com/archivo/pager.json?date=20150715&page=1'
p386
aS'http://www.clarin.com/archivo/pager.json?date=20150716&page=1'
p387
aS'http://www.clarin.com/archivo/pager.json?date=20150717&page=1'
p388
aS'http://www.clarin.com/archivo/pager.json?date=20150718&page=1'
p389
aS'http://www.clarin.com/archivo/pager.json?date=20150719&page=1'
p390
aS'http://www.clarin.com/archivo/pager.json?date=20150720&page=1'
p391
aS'http://www.clarin.com/archivo/pager.json?date=20150721&page=1'
p392
aS'http://www.clarin.com/archivo/pager.json?date=20150722&page=1'
p393
aS'http://www.clarin.com/archivo/pager.json?date=20150723&page=1'
p394
aS'http://www.clarin.com/archivo/pager.json?date=20150724&page=1'
p395
aS'http://www.clarin.com/archivo/pager.json?date=20150725&page=1'
p396
aS'http://www.clarin.com/archivo/pager.json?date=20150726&page=1'
p397
aS'http://www.clarin.com/archivo/pager.json?date=20150727&page=1'
p398
aS'http://www.clarin.com/archivo/pager.json?date=20150728&page=1'
p399
aS'http://www.clarin.com/archivo/pager.json?date=20150729&page=1'
p400
aS'http://www.clarin.com/archivo/pager.json?date=20150730&page=1'
p401
aS'http://www.clarin.com/archivo/pager.json?date=20150731&page=1'
p402
aS'http://www.clarin.com/archivo/pager.json?date=20150801&page=1'
p403
aS'http://www.clarin.com/archivo/pager.json?date=20150802&page=1'
p404
aS'http://www.clarin.com/archivo/pager.json?date=20150803&page=1'
p405
aS'http://www.clarin.com/archivo/pager.json?date=20150804&page=1'
p406
aS'http://www.clarin.com/archivo/pager.json?date=20150805&page=1'
p407
aS'http://www.clarin.com/archivo/pager.json?date=20150806&page=1'
p408
aS'http://www.clarin.com/archivo/pager.json?date=20150807&page=1'
p409
aS'http://www.clarin.com/archivo/pager.json?date=20150808&page=1'
p410
aS'http://www.clarin.com/archivo/pager.json?date=20150809&page=1'
p411
aS'http://www.clarin.com/archivo/pager.json?date=20150810&page=1'
p412
aS'http://www.clarin.com/archivo/pager.json?date=20150811&page=1'
p413
aS'http://www.clarin.com/archivo/pager.json?date=20150812&page=1'
p414
aS'http://www.clarin.com/archivo/pager.json?date=20150813&page=1'
p415
aS'http://www.clarin.com/archivo/pager.json?date=20150814&page=1'
p416
aS'http://www.clarin.com/archivo/pager.json?date=20150815&page=1'
p417
aS'http://www.clarin.com/archivo/pager.json?date=20150816&page=1'
p418
aS'http://www.clarin.com/archivo/pager.json?date=20150817&page=1'
p419
aS'http://www.clarin.com/archivo/pager.json?date=20150818&page=1'
p420
aS'http://www.clarin.com/archivo/pager.json?date=20150819&page=1'
p421
aS'http://www.clarin.com/archivo/pager.json?date=20150820&page=1'
p422
aS'http://www.clarin.com/archivo/pager.json?date=20150821&page=1'
p423
aS'http://www.clarin.com/archivo/pager.json?date=20150822&page=1'
p424
aS'http://www.clarin.com/archivo/pager.json?date=20150823&page=1'
p425
aS'http://www.clarin.com/archivo/pager.json?date=20150824&page=1'
p426
aS'http://www.clarin.com/archivo/pager.json?date=20150825&page=1'
p427
aS'http://www.clarin.com/archivo/pager.json?date=20150826&page=1'
p428
aS'http://www.clarin.com/archivo/pager.json?date=20150827&page=1'
p429
aS'http://www.clarin.com/archivo/pager.json?date=20150828&page=1'
p430
aS'http://www.clarin.com/archivo/pager.json?date=20150829&page=1'
p431
aS'http://www.clarin.com/archivo/pager.json?date=20150830&page=1'
p432
aS'http://www.clarin.com/archivo/pager.json?date=20150831&page=1'
p433
aS'http://www.clarin.com/archivo/pager.json?date=20150901&page=1'
p434
aS'http://www.clarin.com/archivo/pager.json?date=20150902&page=1'
p435
aS'http://www.clarin.com/archivo/pager.json?date=20150903&page=1'
p436
aS'http://www.clarin.com/archivo/pager.json?date=20150904&page=1'
p437
aS'http://www.clarin.com/archivo/pager.json?date=20150905&page=1'
p438
aS'http://www.clarin.com/archivo/pager.json?date=20150906&page=1'
p439
aS'http://www.clarin.com/archivo/pager.json?date=20150907&page=1'
p440
aS'http://www.clarin.com/archivo/pager.json?date=20150908&page=1'
p441
aS'http://www.clarin.com/archivo/pager.json?date=20150909&page=1'
p442
aS'http://www.clarin.com/archivo/pager.json?date=20150910&page=1'
p443
aS'http://www.clarin.com/archivo/pager.json?date=20150911&page=1'
p444
aS'http://www.clarin.com/archivo/pager.json?date=20150912&page=1'
p445
aS'http://www.clarin.com/archivo/pager.json?date=20150913&page=1'
p446
aS'http://www.clarin.com/archivo/pager.json?date=20150914&page=1'
p447
aS'http://www.clarin.com/archivo/pager.json?date=20150915&page=1'
p448
aS'http://www.clarin.com/archivo/pager.json?date=20150916&page=1'
p449
aS'http://www.clarin.com/archivo/pager.json?date=20150917&page=1'
p450
aS'http://www.clarin.com/archivo/pager.json?date=20150918&page=1'
p451
aS'http://www.clarin.com/archivo/pager.json?date=20150919&page=1'
p452
aS'http://www.clarin.com/archivo/pager.json?date=20150920&page=1'
p453
aS'http://www.clarin.com/archivo/pager.json?date=20150921&page=1'
p454
aS'http://www.clarin.com/archivo/pager.json?date=20150922&page=1'
p455
aS'http://www.clarin.com/archivo/pager.json?date=20150923&page=1'
p456
aS'http://www.clarin.com/archivo/pager.json?date=20150924&page=1'
p457
aS'http://www.clarin.com/archivo/pager.json?date=20150925&page=1'
p458
aS'http://www.clarin.com/archivo/pager.json?date=20150926&page=1'
p459
aS'http://www.clarin.com/archivo/pager.json?date=20150927&page=1'
p460
aS'http://www.clarin.com/archivo/pager.json?date=20150928&page=1'
p461
aS'http://www.clarin.com/archivo/pager.json?date=20150929&page=1'
p462
aS'http://www.clarin.com/archivo/pager.json?date=20150930&page=1'
p463
aS'http://www.clarin.com/archivo/pager.json?date=20150931&page=1'
p464
aS'http://www.clarin.com/archivo/pager.json?date=20151001&page=1'
p465
aS'http://www.clarin.com/archivo/pager.json?date=20151002&page=1'
p466
aS'http://www.clarin.com/archivo/pager.json?date=20151003&page=1'
p467
aS'http://www.clarin.com/archivo/pager.json?date=20151004&page=1'
p468
aS'http://www.clarin.com/archivo/pager.json?date=20151005&page=1'
p469
aS'http://www.clarin.com/archivo/pager.json?date=20151006&page=1'
p470
aS'http://www.clarin.com/archivo/pager.json?date=20151007&page=1'
p471
aS'http://www.clarin.com/archivo/pager.json?date=20151008&page=1'
p472
aS'http://www.clarin.com/archivo/pager.json?date=20151009&page=1'
p473
aS'http://www.clarin.com/archivo/pager.json?date=20151010&page=1'
p474
aS'http://www.clarin.com/archivo/pager.json?date=20151011&page=1'
p475
aS'http://www.clarin.com/archivo/pager.json?date=20151012&page=1'
p476
aS'http://www.clarin.com/archivo/pager.json?date=20151013&page=1'
p477
aS'http://www.clarin.com/archivo/pager.json?date=20151014&page=1'
p478
aS'http://www.clarin.com/archivo/pager.json?date=20151015&page=1'
p479
aS'http://www.clarin.com/archivo/pager.json?date=20151016&page=1'
p480
aS'http://www.clarin.com/archivo/pager.json?date=20151017&page=1'
p481
aS'http://www.clarin.com/archivo/pager.json?date=20151018&page=1'
p482
aS'http://www.clarin.com/archivo/pager.json?date=20151019&page=1'
p483
aS'http://www.clarin.com/archivo/pager.json?date=20151020&page=1'
p484
aS'http://www.clarin.com/archivo/pager.json?date=20151021&page=1'
p485
aS'http://www.clarin.com/archivo/pager.json?date=20151022&page=1'
p486
aS'http://www.clarin.com/archivo/pager.json?date=20151023&page=1'
p487
aS'http://www.clarin.com/archivo/pager.json?date=20151024&page=1'
p488
aS'http://www.clarin.com/archivo/pager.json?date=20151025&page=1'
p489
aS'http://www.clarin.com/archivo/pager.json?date=20151026&page=1'
p490
aS'http://www.clarin.com/archivo/pager.json?date=20151027&page=1'
p491
aS'http://www.clarin.com/archivo/pager.json?date=20151028&page=1'
p492
aS'http://www.clarin.com/archivo/pager.json?date=20151029&page=1'
p493
aS'http://www.clarin.com/archivo/pager.json?date=20151030&page=1'
p494
aS'http://www.clarin.com/archivo/pager.json?date=20151031&page=1'
p495
aS'http://www.clarin.com/archivo/pager.json?date=20151101&page=1'
p496
aS'http://www.clarin.com/archivo/pager.json?date=20151102&page=1'
p497
aS'http://www.clarin.com/archivo/pager.json?date=20151103&page=1'
p498
aS'http://www.clarin.com/archivo/pager.json?date=20151104&page=1'
p499
aS'http://www.clarin.com/archivo/pager.json?date=20151105&page=1'
p500
aS'http://www.clarin.com/archivo/pager.json?date=20151106&page=1'
p501
aS'http://www.clarin.com/archivo/pager.json?date=20151107&page=1'
p502
aS'http://www.clarin.com/archivo/pager.json?date=20151108&page=1'
p503
aS'http://www.clarin.com/archivo/pager.json?date=20151109&page=1'
p504
aS'http://www.clarin.com/archivo/pager.json?date=20151110&page=1'
p505
aS'http://www.clarin.com/archivo/pager.json?date=20151111&page=1'
p506
aS'http://www.clarin.com/archivo/pager.json?date=20151112&page=1'
p507
aS'http://www.clarin.com/archivo/pager.json?date=20151113&page=1'
p508
aS'http://www.clarin.com/archivo/pager.json?date=20151114&page=1'
p509
aS'http://www.clarin.com/archivo/pager.json?date=20151115&page=1'
p510
aS'http://www.clarin.com/archivo/pager.json?date=20151116&page=1'
p511
aS'http://www.clarin.com/archivo/pager.json?date=20151117&page=1'
p512
aS'http://www.clarin.com/archivo/pager.json?date=20151118&page=1'
p513
aS'http://www.clarin.com/archivo/pager.json?date=20151119&page=1'
p514
aS'http://www.clarin.com/archivo/pager.json?date=20151120&page=1'
p515
aS'http://www.clarin.com/archivo/pager.json?date=20151121&page=1'
p516
aS'http://www.clarin.com/archivo/pager.json?date=20151122&page=1'
p517
aS'http://www.clarin.com/archivo/pager.json?date=20151123&page=1'
p518
aS'http://www.clarin.com/archivo/pager.json?date=20151124&page=1'
p519
aS'http://www.clarin.com/archivo/pager.json?date=20151125&page=1'
p520
aS'http://www.clarin.com/archivo/pager.json?date=20151126&page=1'
p521
aS'http://www.clarin.com/archivo/pager.json?date=20151127&page=1'
p522
aS'http://www.clarin.com/archivo/pager.json?date=20151128&page=1'
p523
aS'http://www.clarin.com/archivo/pager.json?date=20151129&page=1'
p524
aS'http://www.clarin.com/archivo/pager.json?date=20151130&page=1'
p525
aS'http://www.clarin.com/archivo/pager.json?date=20151131&page=1'
p526
aS'http://www.clarin.com/archivo/pager.json?date=20151201&page=1'
p527
aS'http://www.clarin.com/archivo/pager.json?date=20151202&page=1'
p528
aS'http://www.clarin.com/archivo/pager.json?date=20151203&page=1'
p529
aS'http://www.clarin.com/archivo/pager.json?date=20151204&page=1'
p530
aS'http://www.clarin.com/archivo/pager.json?date=20151205&page=1'
p531
aS'http://www.clarin.com/archivo/pager.json?date=20151206&page=1'
p532
aS'http://www.clarin.com/archivo/pager.json?date=20151207&page=1'
p533
aS'http://www.clarin.com/archivo/pager.json?date=20151208&page=1'
p534
aS'http://www.clarin.com/archivo/pager.json?date=20151209&page=1'
p535
aS'http://www.clarin.com/archivo/pager.json?date=20151210&page=1'
p536
aS'http://www.clarin.com/archivo/pager.json?date=20151211&page=1'
p537
aS'http://www.clarin.com/archivo/pager.json?date=20151212&page=1'
p538
aS'http://www.clarin.com/archivo/pager.json?date=20151213&page=1'
p539
aS'http://www.clarin.com/archivo/pager.json?date=20151214&page=1'
p540
aS'http://www.clarin.com/archivo/pager.json?date=20151215&page=1'
p541
aS'http://www.clarin.com/archivo/pager.json?date=20151216&page=1'
p542
aS'http://www.clarin.com/archivo/pager.json?date=20151217&page=1'
p543
aS'http://www.clarin.com/archivo/pager.json?date=20151218&page=1'
p544
aS'http://www.clarin.com/archivo/pager.json?date=20151219&page=1'
p545
aS'http://www.clarin.com/archivo/pager.json?date=20151220&page=1'
p546
aS'http://www.clarin.com/archivo/pager.json?date=20151221&page=1'
p547
aS'http://www.clarin.com/archivo/pager.json?date=20151222&page=1'
p548
aS'http://www.clarin.com/archivo/pager.json?date=20151223&page=1'
p549
aS'http://www.clarin.com/archivo/pager.json?date=20151224&page=1'
p550
aS'http://www.clarin.com/archivo/pager.json?date=20151225&page=1'
p551
aS'http://www.clarin.com/archivo/pager.json?date=20151226&page=1'
p552
aS'http://www.clarin.com/archivo/pager.json?date=20151227&page=1'
p553
aS'http://www.clarin.com/archivo/pager.json?date=20151228&page=1'
p554
aS'http://www.clarin.com/archivo/pager.json?date=20151229&page=1'
p555
aS'http://www.clarin.com/archivo/pager.json?date=20151230&page=1'
p556
aS'http://www.clarin.com/archivo/pager.json?date=20151231&page=1'
p557
aS'http://www.clarin.com/archivo/pager.json?date=20160101&page=1'
p558
aS'http://www.clarin.com/archivo/pager.json?date=20160102&page=1'
p559
aS'http://www.clarin.com/archivo/pager.json?date=20160103&page=1'
p560
aS'http://www.clarin.com/archivo/pager.json?date=20160104&page=1'
p561
aS'http://www.clarin.com/archivo/pager.json?date=20160105&page=1'
p562
aS'http://www.clarin.com/archivo/pager.json?date=20160106&page=1'
p563
aS'http://www.clarin.com/archivo/pager.json?date=20160107&page=1'
p564
aS'http://www.clarin.com/archivo/pager.json?date=20160108&page=1'
p565
aS'http://www.clarin.com/archivo/pager.json?date=20160109&page=1'
p566
aS'http://www.clarin.com/archivo/pager.json?date=20160110&page=1'
p567
aS'http://www.clarin.com/archivo/pager.json?date=20160111&page=1'
p568
aS'http://www.clarin.com/archivo/pager.json?date=20160112&page=1'
p569
aS'http://www.clarin.com/archivo/pager.json?date=20160113&page=1'
p570
aS'http://www.clarin.com/archivo/pager.json?date=20160114&page=1'
p571
aS'http://www.clarin.com/archivo/pager.json?date=20160115&page=1'
p572
aS'http://www.clarin.com/archivo/pager.json?date=20160116&page=1'
p573
aS'http://www.clarin.com/archivo/pager.json?date=20160117&page=1'
p574
aS'http://www.clarin.com/archivo/pager.json?date=20160118&page=1'
p575
aS'http://www.clarin.com/archivo/pager.json?date=20160119&page=1'
p576
aS'http://www.clarin.com/archivo/pager.json?date=20160120&page=1'
p577
aS'http://www.clarin.com/archivo/pager.json?date=20160121&page=1'
p578
aS'http://www.clarin.com/archivo/pager.json?date=20160122&page=1'
p579
aS'http://www.clarin.com/archivo/pager.json?date=20160123&page=1'
p580
aS'http://www.clarin.com/archivo/pager.json?date=20160124&page=1'
p581
aS'http://www.clarin.com/archivo/pager.json?date=20160125&page=1'
p582
aS'http://www.clarin.com/archivo/pager.json?date=20160126&page=1'
p583
aS'http://www.clarin.com/archivo/pager.json?date=20160127&page=1'
p584
aS'http://www.clarin.com/archivo/pager.json?date=20160128&page=1'
p585
aS'http://www.clarin.com/archivo/pager.json?date=20160129&page=1'
p586
aS'http://www.clarin.com/archivo/pager.json?date=20160130&page=1'
p587
aS'http://www.clarin.com/archivo/pager.json?date=20160131&page=1'
p588
aS'http://www.clarin.com/archivo/pager.json?date=20160201&page=1'
p589
aS'http://www.clarin.com/archivo/pager.json?date=20160202&page=1'
p590
aS'http://www.clarin.com/archivo/pager.json?date=20160203&page=1'
p591
aS'http://www.clarin.com/archivo/pager.json?date=20160204&page=1'
p592
aS'http://www.clarin.com/archivo/pager.json?date=20160205&page=1'
p593
aS'http://www.clarin.com/archivo/pager.json?date=20160206&page=1'
p594
aS'http://www.clarin.com/archivo/pager.json?date=20160207&page=1'
p595
aS'http://www.clarin.com/archivo/pager.json?date=20160208&page=1'
p596
aS'http://www.clarin.com/archivo/pager.json?date=20160209&page=1'
p597
aS'http://www.clarin.com/archivo/pager.json?date=20160210&page=1'
p598
aS'http://www.clarin.com/archivo/pager.json?date=20160211&page=1'
p599
aS'http://www.clarin.com/archivo/pager.json?date=20160212&page=1'
p600
aS'http://www.clarin.com/archivo/pager.json?date=20160213&page=1'
p601
aS'http://www.clarin.com/archivo/pager.json?date=20160214&page=1'
p602
aS'http://www.clarin.com/archivo/pager.json?date=20160215&page=1'
p603
aS'http://www.clarin.com/archivo/pager.json?date=20160216&page=1'
p604
aS'http://www.clarin.com/archivo/pager.json?date=20160217&page=1'
p605
aS'http://www.clarin.com/archivo/pager.json?date=20160218&page=1'
p606
aS'http://www.clarin.com/archivo/pager.json?date=20160219&page=1'
p607
aS'http://www.clarin.com/archivo/pager.json?date=20160220&page=1'
p608
aS'http://www.clarin.com/archivo/pager.json?date=20160221&page=1'
p609
aS'http://www.clarin.com/archivo/pager.json?date=20160222&page=1'
p610
aS'http://www.clarin.com/archivo/pager.json?date=20160223&page=1'
p611
aS'http://www.clarin.com/archivo/pager.json?date=20160224&page=1'
p612
aS'http://www.clarin.com/archivo/pager.json?date=20160225&page=1'
p613
aS'http://www.clarin.com/archivo/pager.json?date=20160226&page=1'
p614
aS'http://www.clarin.com/archivo/pager.json?date=20160227&page=1'
p615
aS'http://www.clarin.com/archivo/pager.json?date=20160228&page=1'
p616
aS'http://www.clarin.com/archivo/pager.json?date=20160229&page=1'
p617
aS'http://www.clarin.com/archivo/pager.json?date=20160230&page=1'
p618
aS'http://www.clarin.com/archivo/pager.json?date=20160231&page=1'
p619
aS'http://www.clarin.com/archivo/pager.json?date=20160301&page=1'
p620
aS'http://www.clarin.com/archivo/pager.json?date=20160302&page=1'
p621
aS'http://www.clarin.com/archivo/pager.json?date=20160303&page=1'
p622
aS'http://www.clarin.com/archivo/pager.json?date=20160304&page=1'
p623
aS'http://www.clarin.com/archivo/pager.json?date=20160305&page=1'
p624
aS'http://www.clarin.com/archivo/pager.json?date=20160306&page=1'
p625
aS'http://www.clarin.com/archivo/pager.json?date=20160307&page=1'
p626
aS'http://www.clarin.com/archivo/pager.json?date=20160308&page=1'
p627
aS'http://www.clarin.com/archivo/pager.json?date=20160309&page=1'
p628
aS'http://www.clarin.com/archivo/pager.json?date=20160310&page=1'
p629
aS'http://www.clarin.com/archivo/pager.json?date=20160311&page=1'
p630
aS'http://www.clarin.com/archivo/pager.json?date=20160312&page=1'
p631
aS'http://www.clarin.com/archivo/pager.json?date=20160313&page=1'
p632
aS'http://www.clarin.com/archivo/pager.json?date=20160314&page=1'
p633
aS'http://www.clarin.com/archivo/pager.json?date=20160315&page=1'
p634
aS'http://www.clarin.com/archivo/pager.json?date=20160316&page=1'
p635
aS'http://www.clarin.com/archivo/pager.json?date=20160317&page=1'
p636
aS'http://www.clarin.com/archivo/pager.json?date=20160318&page=1'
p637
aS'http://www.clarin.com/archivo/pager.json?date=20160319&page=1'
p638
aS'http://www.clarin.com/archivo/pager.json?date=20160320&page=1'
p639
aS'http://www.clarin.com/archivo/pager.json?date=20160321&page=1'
p640
aS'http://www.clarin.com/archivo/pager.json?date=20160322&page=1'
p641
aS'http://www.clarin.com/archivo/pager.json?date=20160323&page=1'
p642
aS'http://www.clarin.com/archivo/pager.json?date=20160324&page=1'
p643
aS'http://www.clarin.com/archivo/pager.json?date=20160325&page=1'
p644
aS'http://www.clarin.com/archivo/pager.json?date=20160326&page=1'
p645
aS'http://www.clarin.com/archivo/pager.json?date=20160327&page=1'
p646
aS'http://www.clarin.com/archivo/pager.json?date=20160328&page=1'
p647
aS'http://www.clarin.com/archivo/pager.json?date=20160329&page=1'
p648
aS'http://www.clarin.com/archivo/pager.json?date=20160330&page=1'
p649
aS'http://www.clarin.com/archivo/pager.json?date=20160331&page=1'
p650
aS'http://www.clarin.com/archivo/pager.json?date=20160401&page=1'
p651
aS'http://www.clarin.com/archivo/pager.json?date=20160402&page=1'
p652
aS'http://www.clarin.com/archivo/pager.json?date=20160403&page=1'
p653
aS'http://www.clarin.com/archivo/pager.json?date=20160404&page=1'
p654
aS'http://www.clarin.com/archivo/pager.json?date=20160405&page=1'
p655
aS'http://www.clarin.com/archivo/pager.json?date=20160406&page=1'
p656
aS'http://www.clarin.com/archivo/pager.json?date=20160407&page=1'
p657
aS'http://www.clarin.com/archivo/pager.json?date=20160408&page=1'
p658
aS'http://www.clarin.com/archivo/pager.json?date=20160409&page=1'
p659
aS'http://www.clarin.com/archivo/pager.json?date=20160410&page=1'
p660
aS'http://www.clarin.com/archivo/pager.json?date=20160411&page=1'
p661
aS'http://www.clarin.com/archivo/pager.json?date=20160412&page=1'
p662
aS'http://www.clarin.com/archivo/pager.json?date=20160413&page=1'
p663
aS'http://www.clarin.com/archivo/pager.json?date=20160414&page=1'
p664
aS'http://www.clarin.com/archivo/pager.json?date=20160415&page=1'
p665
aS'http://www.clarin.com/archivo/pager.json?date=20160416&page=1'
p666
aS'http://www.clarin.com/archivo/pager.json?date=20160417&page=1'
p667
aS'http://www.clarin.com/archivo/pager.json?date=20160418&page=1'
p668
aS'http://www.clarin.com/archivo/pager.json?date=20160419&page=1'
p669
aS'http://www.clarin.com/archivo/pager.json?date=20160420&page=1'
p670
aS'http://www.clarin.com/archivo/pager.json?date=20160421&page=1'
p671
aS'http://www.clarin.com/archivo/pager.json?date=20160422&page=1'
p672
aS'http://www.clarin.com/archivo/pager.json?date=20160423&page=1'
p673
aS'http://www.clarin.com/archivo/pager.json?date=20160424&page=1'
p674
aS'http://www.clarin.com/archivo/pager.json?date=20160425&page=1'
p675
aS'http://www.clarin.com/archivo/pager.json?date=20160426&page=1'
p676
aS'http://www.clarin.com/archivo/pager.json?date=20160427&page=1'
p677
aS'http://www.clarin.com/archivo/pager.json?date=20160428&page=1'
p678
aS'http://www.clarin.com/archivo/pager.json?date=20160429&page=1'
p679
aS'http://www.clarin.com/archivo/pager.json?date=20160430&page=1'
p680
aS'http://www.clarin.com/archivo/pager.json?date=20160431&page=1'
p681
aS'http://www.clarin.com/archivo/pager.json?date=20160501&page=1'
p682
aS'http://www.clarin.com/archivo/pager.json?date=20160502&page=1'
p683
aS'http://www.clarin.com/archivo/pager.json?date=20160503&page=1'
p684
aS'http://www.clarin.com/archivo/pager.json?date=20160504&page=1'
p685
aS'http://www.clarin.com/archivo/pager.json?date=20160505&page=1'
p686
aS'http://www.clarin.com/archivo/pager.json?date=20160506&page=1'
p687
aS'http://www.clarin.com/archivo/pager.json?date=20160507&page=1'
p688
aS'http://www.clarin.com/archivo/pager.json?date=20160508&page=1'
p689
aS'http://www.clarin.com/archivo/pager.json?date=20160509&page=1'
p690
aS'http://www.clarin.com/archivo/pager.json?date=20160510&page=1'
p691
aS'http://www.clarin.com/archivo/pager.json?date=20160511&page=1'
p692
aS'http://www.clarin.com/archivo/pager.json?date=20160512&page=1'
p693
aS'http://www.clarin.com/archivo/pager.json?date=20160513&page=1'
p694
aS'http://www.clarin.com/archivo/pager.json?date=20160514&page=1'
p695
aS'http://www.clarin.com/archivo/pager.json?date=20160515&page=1'
p696
aS'http://www.clarin.com/archivo/pager.json?date=20160516&page=1'
p697
aS'http://www.clarin.com/archivo/pager.json?date=20160517&page=1'
p698
aS'http://www.clarin.com/archivo/pager.json?date=20160518&page=1'
p699
aS'http://www.clarin.com/archivo/pager.json?date=20160519&page=1'
p700
aS'http://www.clarin.com/archivo/pager.json?date=20160520&page=1'
p701
aS'http://www.clarin.com/archivo/pager.json?date=20160521&page=1'
p702
aS'http://www.clarin.com/archivo/pager.json?date=20160522&page=1'
p703
aS'http://www.clarin.com/archivo/pager.json?date=20160523&page=1'
p704
aS'http://www.clarin.com/archivo/pager.json?date=20160524&page=1'
p705
aS'http://www.clarin.com/archivo/pager.json?date=20160525&page=1'
p706
aS'http://www.clarin.com/archivo/pager.json?date=20160526&page=1'
p707
aS'http://www.clarin.com/archivo/pager.json?date=20160527&page=1'
p708
aS'http://www.clarin.com/archivo/pager.json?date=20160528&page=1'
p709
aS'http://www.clarin.com/archivo/pager.json?date=20160529&page=1'
p710
aS'http://www.clarin.com/archivo/pager.json?date=20160530&page=1'
p711
aS'http://www.clarin.com/archivo/pager.json?date=20160531&page=1'
p712
aS'http://www.clarin.com/archivo/pager.json?date=20160601&page=1'
p713
aS'http://www.clarin.com/archivo/pager.json?date=20160602&page=1'
p714
aS'http://www.clarin.com/archivo/pager.json?date=20160603&page=1'
p715
aS'http://www.clarin.com/archivo/pager.json?date=20160604&page=1'
p716
aS'http://www.clarin.com/archivo/pager.json?date=20160605&page=1'
p717
aS'http://www.clarin.com/archivo/pager.json?date=20160606&page=1'
p718
aS'http://www.clarin.com/archivo/pager.json?date=20160607&page=1'
p719
aS'http://www.clarin.com/archivo/pager.json?date=20160608&page=1'
p720
aS'http://www.clarin.com/archivo/pager.json?date=20160609&page=1'
p721
aS'http://www.clarin.com/archivo/pager.json?date=20160610&page=1'
p722
aS'http://www.clarin.com/archivo/pager.json?date=20160611&page=1'
p723
aS'http://www.clarin.com/archivo/pager.json?date=20160612&page=1'
p724
aS'http://www.clarin.com/archivo/pager.json?date=20160613&page=1'
p725
aS'http://www.clarin.com/archivo/pager.json?date=20160614&page=1'
p726
aS'http://www.clarin.com/archivo/pager.json?date=20160615&page=1'
p727
aS'http://www.clarin.com/archivo/pager.json?date=20160616&page=1'
p728
aS'http://www.clarin.com/archivo/pager.json?date=20160617&page=1'
p729
aS'http://www.clarin.com/archivo/pager.json?date=20160618&page=1'
p730
aS'http://www.clarin.com/archivo/pager.json?date=20160619&page=1'
p731
aS'http://www.clarin.com/archivo/pager.json?date=20160620&page=1'
p732
aS'http://www.clarin.com/archivo/pager.json?date=20160621&page=1'
p733
aS'http://www.clarin.com/archivo/pager.json?date=20160622&page=1'
p734
aS'http://www.clarin.com/archivo/pager.json?date=20160623&page=1'
p735
aS'http://www.clarin.com/archivo/pager.json?date=20160624&page=1'
p736
aS'http://www.clarin.com/archivo/pager.json?date=20160625&page=1'
p737
aS'http://www.clarin.com/archivo/pager.json?date=20160626&page=1'
p738
aS'http://www.clarin.com/archivo/pager.json?date=20160627&page=1'
p739
aS'http://www.clarin.com/archivo/pager.json?date=20160628&page=1'
p740
aS'http://www.clarin.com/archivo/pager.json?date=20160629&page=1'
p741
aS'http://www.clarin.com/archivo/pager.json?date=20160630&page=1'
p742
aS'http://www.clarin.com/archivo/pager.json?date=20160631&page=1'
p743
aS'http://www.clarin.com/archivo/pager.json?date=20160701&page=1'
p744
aS'http://www.clarin.com/archivo/pager.json?date=20160702&page=1'
p745
aS'http://www.clarin.com/archivo/pager.json?date=20160703&page=1'
p746
aS'http://www.clarin.com/archivo/pager.json?date=20160704&page=1'
p747
aS'http://www.clarin.com/archivo/pager.json?date=20160705&page=1'
p748
aS'http://www.clarin.com/archivo/pager.json?date=20160706&page=1'
p749
aS'http://www.clarin.com/archivo/pager.json?date=20160707&page=1'
p750
aS'http://www.clarin.com/archivo/pager.json?date=20160708&page=1'
p751
aS'http://www.clarin.com/archivo/pager.json?date=20160709&page=1'
p752
aS'http://www.clarin.com/archivo/pager.json?date=20160710&page=1'
p753
aS'http://www.clarin.com/archivo/pager.json?date=20160711&page=1'
p754
aS'http://www.clarin.com/archivo/pager.json?date=20160712&page=1'
p755
aS'http://www.clarin.com/archivo/pager.json?date=20160713&page=1'
p756
aS'http://www.clarin.com/archivo/pager.json?date=20160714&page=1'
p757
aS'http://www.clarin.com/archivo/pager.json?date=20160715&page=1'
p758
aS'http://www.clarin.com/archivo/pager.json?date=20160716&page=1'
p759
aS'http://www.clarin.com/archivo/pager.json?date=20160717&page=1'
p760
aS'http://www.clarin.com/archivo/pager.json?date=20160718&page=1'
p761
aS'http://www.clarin.com/archivo/pager.json?date=20160719&page=1'
p762
aS'http://www.clarin.com/archivo/pager.json?date=20160720&page=1'
p763
aS'http://www.clarin.com/archivo/pager.json?date=20160721&page=1'
p764
aS'http://www.clarin.com/archivo/pager.json?date=20160722&page=1'
p765
aS'http://www.clarin.com/archivo/pager.json?date=20160723&page=1'
p766
aS'http://www.clarin.com/archivo/pager.json?date=20160724&page=1'
p767
aS'http://www.clarin.com/archivo/pager.json?date=20160725&page=1'
p768
aS'http://www.clarin.com/archivo/pager.json?date=20160726&page=1'
p769
aS'http://www.clarin.com/archivo/pager.json?date=20160727&page=1'
p770
aS'http://www.clarin.com/archivo/pager.json?date=20160728&page=1'
p771
aS'http://www.clarin.com/archivo/pager.json?date=20160729&page=1'
p772
aS'http://www.clarin.com/archivo/pager.json?date=20160730&page=1'
p773
aS'http://www.clarin.com/archivo/pager.json?date=20160731&page=1'
p774
aS'http://www.clarin.com/archivo/pager.json?date=20160801&page=1'
p775
aS'http://www.clarin.com/archivo/pager.json?date=20160802&page=1'
p776
aS'http://www.clarin.com/archivo/pager.json?date=20160803&page=1'
p777
aS'http://www.clarin.com/archivo/pager.json?date=20160804&page=1'
p778
aS'http://www.clarin.com/archivo/pager.json?date=20160805&page=1'
p779
aS'http://www.clarin.com/archivo/pager.json?date=20160806&page=1'
p780
aS'http://www.clarin.com/archivo/pager.json?date=20160807&page=1'
p781
aS'http://www.clarin.com/archivo/pager.json?date=20160808&page=1'
p782
aS'http://www.clarin.com/archivo/pager.json?date=20160809&page=1'
p783
aS'http://www.clarin.com/archivo/pager.json?date=20160810&page=1'
p784
aS'http://www.clarin.com/archivo/pager.json?date=20160811&page=1'
p785
aS'http://www.clarin.com/archivo/pager.json?date=20160812&page=1'
p786
aS'http://www.clarin.com/archivo/pager.json?date=20160813&page=1'
p787
aS'http://www.clarin.com/archivo/pager.json?date=20160814&page=1'
p788
aS'http://www.clarin.com/archivo/pager.json?date=20160815&page=1'
p789
aS'http://www.clarin.com/archivo/pager.json?date=20160816&page=1'
p790
aS'http://www.clarin.com/archivo/pager.json?date=20160817&page=1'
p791
aS'http://www.clarin.com/archivo/pager.json?date=20160818&page=1'
p792
aS'http://www.clarin.com/archivo/pager.json?date=20160819&page=1'
p793
aS'http://www.clarin.com/archivo/pager.json?date=20160820&page=1'
p794
aS'http://www.clarin.com/archivo/pager.json?date=20160821&page=1'
p795
aS'http://www.clarin.com/archivo/pager.json?date=20160822&page=1'
p796
aS'http://www.clarin.com/archivo/pager.json?date=20160823&page=1'
p797
aS'http://www.clarin.com/archivo/pager.json?date=20160824&page=1'
p798
aS'http://www.clarin.com/archivo/pager.json?date=20160825&page=1'
p799
aS'http://www.clarin.com/archivo/pager.json?date=20160826&page=1'
p800
aS'http://www.clarin.com/archivo/pager.json?date=20160827&page=1'
p801
aS'http://www.clarin.com/archivo/pager.json?date=20160828&page=1'
p802
aS'http://www.clarin.com/archivo/pager.json?date=20160829&page=1'
p803
aS'http://www.clarin.com/archivo/pager.json?date=20160830&page=1'
p804
aS'http://www.clarin.com/archivo/pager.json?date=20160831&page=1'
p805
aS'http://www.clarin.com/archivo/pager.json?date=20160901&page=1'
p806
aS'http://www.clarin.com/archivo/pager.json?date=20160902&page=1'
p807
aS'http://www.clarin.com/archivo/pager.json?date=20160903&page=1'
p808
aS'http://www.clarin.com/archivo/pager.json?date=20160904&page=1'
p809
aS'http://www.clarin.com/archivo/pager.json?date=20160905&page=1'
p810
aS'http://www.clarin.com/archivo/pager.json?date=20160906&page=1'
p811
aS'http://www.clarin.com/archivo/pager.json?date=20160907&page=1'
p812
aS'http://www.clarin.com/archivo/pager.json?date=20160908&page=1'
p813
aS'http://www.clarin.com/archivo/pager.json?date=20160909&page=1'
p814
aS'http://www.clarin.com/archivo/pager.json?date=20160910&page=1'
p815
aS'http://www.clarin.com/archivo/pager.json?date=20160911&page=1'
p816
aS'http://www.clarin.com/archivo/pager.json?date=20160912&page=1'
p817
aS'http://www.clarin.com/archivo/pager.json?date=20160913&page=1'
p818
aS'http://www.clarin.com/archivo/pager.json?date=20160914&page=1'
p819
aS'http://www.clarin.com/archivo/pager.json?date=20160915&page=1'
p820
aS'http://www.clarin.com/archivo/pager.json?date=20160916&page=1'
p821
aS'http://www.clarin.com/archivo/pager.json?date=20160917&page=1'
p822
aS'http://www.clarin.com/archivo/pager.json?date=20160918&page=1'
p823
aS'http://www.clarin.com/archivo/pager.json?date=20160919&page=1'
p824
aS'http://www.clarin.com/archivo/pager.json?date=20160920&page=1'
p825
aS'http://www.clarin.com/archivo/pager.json?date=20160921&page=1'
p826
aS'http://www.clarin.com/archivo/pager.json?date=20160922&page=1'
p827
aS'http://www.clarin.com/archivo/pager.json?date=20160923&page=1'
p828
aS'http://www.clarin.com/archivo/pager.json?date=20160924&page=1'
p829
aS'http://www.clarin.com/archivo/pager.json?date=20160925&page=1'
p830
aS'http://www.clarin.com/archivo/pager.json?date=20160926&page=1'
p831
aS'http://www.clarin.com/archivo/pager.json?date=20160927&page=1'
p832
aS'http://www.clarin.com/archivo/pager.json?date=20160928&page=1'
p833
aS'http://www.clarin.com/archivo/pager.json?date=20160929&page=1'
p834
aS'http://www.clarin.com/archivo/pager.json?date=20160930&page=1'
p835
aS'http://www.clarin.com/archivo/pager.json?date=20160931&page=1'
p836
aS'http://www.clarin.com/archivo/pager.json?date=20161001&page=1'
p837
aS'http://www.clarin.com/archivo/pager.json?date=20161002&page=1'
p838
aS'http://www.clarin.com/archivo/pager.json?date=20161003&page=1'
p839
aS'http://www.clarin.com/archivo/pager.json?date=20161004&page=1'
p840
aS'http://www.clarin.com/archivo/pager.json?date=20161005&page=1'
p841
aS'http://www.clarin.com/archivo/pager.json?date=20161006&page=1'
p842
aS'http://www.clarin.com/archivo/pager.json?date=20161007&page=1'
p843
aS'http://www.clarin.com/archivo/pager.json?date=20161008&page=1'
p844
aS'http://www.clarin.com/archivo/pager.json?date=20161009&page=1'
p845
aS'http://www.clarin.com/archivo/pager.json?date=20161010&page=1'
p846
aS'http://www.clarin.com/archivo/pager.json?date=20161011&page=1'
p847
aS'http://www.clarin.com/archivo/pager.json?date=20161012&page=1'
p848
aS'http://www.clarin.com/archivo/pager.json?date=20161013&page=1'
p849
aS'http://www.clarin.com/archivo/pager.json?date=20161014&page=1'
p850
aS'http://www.clarin.com/archivo/pager.json?date=20161015&page=1'
p851
aS'http://www.clarin.com/archivo/pager.json?date=20161016&page=1'
p852
aS'http://www.clarin.com/archivo/pager.json?date=20161017&page=1'
p853
aS'http://www.clarin.com/archivo/pager.json?date=20161018&page=1'
p854
aS'http://www.clarin.com/archivo/pager.json?date=20161019&page=1'
p855
aS'http://www.clarin.com/archivo/pager.json?date=20161020&page=1'
p856
aS'http://www.clarin.com/archivo/pager.json?date=20161021&page=1'
p857
aS'http://www.clarin.com/archivo/pager.json?date=20161022&page=1'
p858
aS'http://www.clarin.com/archivo/pager.json?date=20161023&page=1'
p859
aS'http://www.clarin.com/archivo/pager.json?date=20161024&page=1'
p860
aS'http://www.clarin.com/archivo/pager.json?date=20161025&page=1'
p861
aS'http://www.clarin.com/archivo/pager.json?date=20161026&page=1'
p862
aS'http://www.clarin.com/archivo/pager.json?date=20161027&page=1'
p863
aS'http://www.clarin.com/archivo/pager.json?date=20161028&page=1'
p864
aS'http://www.clarin.com/archivo/pager.json?date=20161029&page=1'
p865
aS'http://www.clarin.com/archivo/pager.json?date=20161030&page=1'
p866
aS'http://www.clarin.com/archivo/pager.json?date=20161031&page=1'
p867
aS'http://www.clarin.com/archivo/pager.json?date=20161101&page=1'
p868
aS'http://www.clarin.com/archivo/pager.json?date=20161102&page=1'
p869
aS'http://www.clarin.com/archivo/pager.json?date=20161103&page=1'
p870
aS'http://www.clarin.com/archivo/pager.json?date=20161104&page=1'
p871
aS'http://www.clarin.com/archivo/pager.json?date=20161105&page=1'
p872
aS'http://www.clarin.com/archivo/pager.json?date=20161106&page=1'
p873
aS'http://www.clarin.com/archivo/pager.json?date=20161107&page=1'
p874
aS'http://www.clarin.com/archivo/pager.json?date=20161108&page=1'
p875
aS'http://www.clarin.com/archivo/pager.json?date=20161109&page=1'
p876
aS'http://www.clarin.com/archivo/pager.json?date=20161110&page=1'
p877
aS'http://www.clarin.com/archivo/pager.json?date=20161111&page=1'
p878
aS'http://www.clarin.com/archivo/pager.json?date=20161112&page=1'
p879
aS'http://www.clarin.com/archivo/pager.json?date=20161113&page=1'
p880
aS'http://www.clarin.com/archivo/pager.json?date=20161114&page=1'
p881
aS'http://www.clarin.com/archivo/pager.json?date=20161115&page=1'
p882
aS'http://www.clarin.com/archivo/pager.json?date=20161116&page=1'
p883
aS'http://www.clarin.com/archivo/pager.json?date=20161117&page=1'
p884
aS'http://www.clarin.com/archivo/pager.json?date=20161118&page=1'
p885
aS'http://www.clarin.com/archivo/pager.json?date=20161119&page=1'
p886
aS'http://www.clarin.com/archivo/pager.json?date=20161120&page=1'
p887
a.