(lp0
S'https://www.clarin.com/sociedad/Impresionante-piton-comio-canguro-entero_0_1276072572.html'
p1
aS'https://www.clarin.com/sociedad/Impresionante-piton-comio-canguro-entero_0_1276072572.html'
p2
a.