(lp0
Vhttps://www.clarin.com/sociedad/Cancer_de_piel-cama_solar-mostro-selfie-impactante-Tawny_Willoughby-Facebook_0_1356464557.html
p1
aVhttps://www.clarin.com/sociedad/Cancer_de_piel-cama_solar-mostro-selfie-impactante-Tawny_Willoughby-Facebook_0_1356464557.html
p2
a.