(lp0
Vhttps://www.clarin.com/sociedad/maquina-afeitar-laser-financiamiento-cortes-irritaciones-2016_0_1439856380.html
p1
aVhttps://www.clarin.com/sociedad/maquina-afeitar-laser-financiamiento-cortes-irritaciones-2016_0_1439856380.html
p2
a.