(lp0
S'https://www.clarin.com/sociedad/Mundos_intimos-Lucia_Valladolid-bisexualidad_0_1484251710.html'
p1
aS'https://www.clarin.com/sociedad/Mundos_intimos-Lucia_Valladolid-bisexualidad_0_1484251710.html'
p2
aS'https://www.clarin.com/sociedad/Millas-club-viajar-milleros-gratis_0_1484251653.html'
p3
aS'https://www.clarin.com/sociedad/Millas-club-viajar-milleros-gratis_0_1484251653.html'
p4
a.