(lp0
S'https://www.clarin.com/sociedad/video-chica-brutalmente-golpeada-companeros_0_1420058321.html'
p1
aS'https://www.clarin.com/sociedad/video-chica-brutalmente-golpeada-companeros_0_1420058321.html'
p2
aS'https://www.clarin.com/sociedad/chica-anos-agredida-escuela-companeros_0_1420058183.html'
p3
aS'https://www.clarin.com/sociedad/chica-anos-agredida-escuela-companeros_0_1420058183.html'
p4
a.