(lp0
S'https://www.clarin.com/sociedad/dura-campana-accidentes-transito-Uruguay_0_1452454906.html'
p1
aS'https://www.clarin.com/sociedad/dura-campana-accidentes-transito-Uruguay_0_1452454906.html'
p2
aS'https://www.clarin.com/sociedad/Dio-avion-quieren-cobrar-parto_0_1452454917.html'
p3
aS'https://www.clarin.com/sociedad/Dio-avion-quieren-cobrar-parto_0_1452454917.html'
p4
a.