(lp0
Vhttps://www.clarin.com/sociedad/Cromanon-Camara-Casacion-condena-Callejeros_0_1435056706.html
p1
aVhttps://www.clarin.com/sociedad/Cromanon-Camara-Casacion-condena-Callejeros_0_1435056706.html
p2
aVhttps://www.clarin.com/sociedad/historia-judicial-sigue-final-abierto_0_1435056620.html
p3
aVhttps://www.clarin.com/sociedad/historia-judicial-sigue-final-abierto_0_1435056620.html
p4
a.