(lp0
Vhttps://www.clarin.com/sociedad/hombre-sobrevivio-desierto-comiendo-hormigas_0_1448255425.html
p1
aVhttps://www.clarin.com/sociedad/hombre-sobrevivio-desierto-comiendo-hormigas_0_1448255425.html
p2
aVhttps://www.clarin.com/sociedad/leon_cecil-Zimbabwe-walter_palmer-cazador-dentista-justicia-muerte-caza_0_1448255376.html
p3
aVhttps://www.clarin.com/sociedad/leon_cecil-Zimbabwe-walter_palmer-cazador-dentista-justicia-muerte-caza_0_1448255376.html
p4
aVhttps://www.clarin.com/sociedad/enfermedad-piel-tabu-mal-diagnostica-hidradenitis-supurativa_0_1448255165.html
p5
aVhttps://www.clarin.com/sociedad/enfermedad-piel-tabu-mal-diagnostica-hidradenitis-supurativa_0_1448255165.html
p6
a.