(lp0
S'https://www.clarin.com/ieco/cortes_de_luz-subsidios-tarifas_0_1493851036.html'
p1
aS'https://www.clarin.com/politica/Lanata-fuga-personaje-vinculado-Morsa_0_1493851028.html'
p2
aS'https://www.clarin.com/politica/Lanata-fuga-personaje-vinculado-Morsa_0_1493851028.html'
p3
aS'https://www.clarin.com/politica/Carrio-amplia-impugnacion-Echegaray-AGN_0_1493850953.html'
p4
aS'https://www.clarin.com/politica/Carrio-amplia-impugnacion-Echegaray-AGN_0_1493850953.html'
p5
a.