(lp0
Vhttps://www.clarin.com/politica/lugar-profugos-tirotearon-policias_0_1495650616.html
p1
aVhttps://www.clarin.com/politica/lugar-profugos-tirotearon-policias_0_1495650616.html
p2
aVhttps://www.clarin.com/politica/Cristian-Ritondo-Lanatta-importa-morir_0_1495650573.html
p3
aVhttps://www.clarin.com/politica/Cristian-Ritondo-Lanatta-importa-morir_0_1495650573.html
p4
a.