(lp0
S'https://www.clarin.com/sociedad/drama-inundacion-bichos-brote-enfermedades_0_1493851049.html'
p1
aS'https://www.clarin.com/sociedad/Eligieron-descubrimientos-cientificos-destacados_0_1493851031.html'
p2
a.