(lp0
Vhttps://www.clarin.com/sociedad/messi-tatuaje-tatuador-secreto-viaje-espana_0_1381661835.html
p1
aVhttps://www.clarin.com/sociedad/messi-tatuaje-tatuador-secreto-viaje-espana_0_1381661835.html
p2
a.