(lp0
Vhttps://www.clarin.com/ieco/economia/economista-antidesigualdad-maravilla-izquierda-europea_0_1427257525.html
p1
aVhttps://www.clarin.com/politica/efedrina_lanatta_anibal_fernandez_0_1427257314.html
p2
aVhttps://www.clarin.com/politica/efedrina_lanatta_anibal_fernandez_0_1427257314.html
p3
a.