(lp0
Vhttps://www.clarin.com/sociedad/zika-mosquito-dengue-brasil-muertos-casos-alerta_0_1477652242.html
p1
aVhttps://www.clarin.com/sociedad/zika-mosquito-dengue-brasil-muertos-casos-alerta_0_1477652242.html
p2
a.