(lp0
Vhttps://www.clarin.com/sociedad/pareja-homosexual-adopcion-legal-hermanos_0_1310869246.html
p1
aVhttps://www.clarin.com/sociedad/pareja-homosexual-adopcion-legal-hermanos_0_1310869246.html
p2
a.