(lp0
Vhttps://www.clarin.com/sociedad/Facebook-negocia-noticias-contenido-siempre_0_1326467669.html
p1
aVhttps://www.clarin.com/sociedad/Facebook-negocia-noticias-contenido-siempre_0_1326467669.html
p2
a.