(lp0
S'https://www.clarin.com/sociedad/tenor-Paolo_Fanale-tatuado-musculoso-Facebook-viral-furor-web-video-redes_sociales_0_1447655382.html'
p1
aS'https://www.clarin.com/sociedad/colon-aniversario-acampe-qom_0_1447655245.html'
p2
a.