(lp0
Vhttps://www.clarin.com/sociedad/Hernan-Casciari-infarto-Uruguay_0_1481252122.html
p1
aVhttps://www.clarin.com/sociedad/Hernan-Casciari-infarto-Uruguay_0_1481252122.html
p2
aVhttps://www.clarin.com/politica/Peronismo-FpV-Sergio_Massa-Diego_Bossio-Jose_Luis_Gioja-Juan_Manuel_Urtubey_0_1481251892.html
p3
a.