(lp0
Vhttps://www.clarin.com/sociedad/desmonte-deforestacion-crecida-inundacion-desastre-litoral-noreste_0_1493251052.html
p1
aVhttps://www.clarin.com/sociedad/desmonte-deforestacion-crecida-inundacion-desastre-litoral-noreste_0_1493251052.html
p2
aVhttps://www.clarin.com/politica/Carrio-hablo-Lanatta-investigar-Casal_0_1493251005.html
p3
aVhttps://www.clarin.com/politica/Carrio-hablo-Lanatta-investigar-Casal_0_1493251005.html
p4
aVhttps://www.clarin.com/sociedad/32-edad_ideal-apostar-a-ser-madre_0_1493250788.html
p5
aVhttps://www.clarin.com/sociedad/32-edad_ideal-apostar-a-ser-madre_0_1493250788.html
p6
aVhttps://www.clarin.com/politica/gobierno-regimen_0_1493250751.html
p7
aVhttps://www.clarin.com/politica/gobierno-regimen_0_1493250751.html
p8
aVhttps://www.clarin.com/ieco/economia/Gobierno-obligado-nuevo-endeudamiento_0_1493250671.html
p9
aVhttps://www.clarin.com/ieco/economia/Gobierno-obligado-nuevo-endeudamiento_0_1493250671.html
p10
a.