(lp0
S'https://www.clarin.com/sociedad/Mundos_intimos-Santiago_Olagaray-miedo_a_ser_padre_0_1492650871.html'
p1
aS'https://www.clarin.com/sociedad/Mundos_intimos-Santiago_Olagaray-miedo_a_ser_padre_0_1492650871.html'
p2
aS'https://www.clarin.com/sociedad/balance-ano_0_1492650795.html'
p3
aS'https://www.clarin.com/sociedad/balance-ano_0_1492650795.html'
p4
a.