(lp0
Vhttps://www.clarin.com/sociedad/Mundos_intimos-Mariana_Komiseroff-embarazo_adolescente_0_1446455492.html
p1
aVhttps://www.clarin.com/sociedad/Mundos_intimos-Mariana_Komiseroff-embarazo_adolescente_0_1446455492.html
p2
a.