(lp0
S'https://www.clarin.com/sociedad/zika-mosquito-dengue-brasil-muertos-casos-alerta_0_1477652242.html'
p1
aS'https://www.clarin.com/sociedad/zika-mosquito-dengue-brasil-muertos-casos-alerta_0_1477652242.html'
p2
a.