(lp0
S'https://www.clarin.com/sociedad/Vivieron-vuelo-pesadilla-quieren-indemnizar_0_1494450987.html'
p1
aS'https://www.clarin.com/sociedad/Encontraron-fosil-gliptodonte-gigante-Ezeiza_0_1494450843.html'
p2
a.