(lp0
Vhttps://www.clarin.com/ieco/empresas-y-negocios/sismos-terremotos-Canada-fracking-rocas-mineria-empresa-Progress_Energy_0_1420658292.html
p1
aVhttps://www.clarin.com/ieco/empresas-y-negocios/sismos-terremotos-Canada-fracking-rocas-mineria-empresa-Progress_Energy_0_1420658292.html
p2
aVhttps://www.clarin.com/politica/Lanatta-efedrina-Anibal_Fernandez_0_1420658201.html
p3
a.