(lp0
Vhttps://www.clarin.com/sociedad/Mundos_intimos-Gabriela_Margall-burlas_en_el_colegio-bullying_0_1459054226.html
p1
aVhttps://www.clarin.com/sociedad/Mundos_intimos-Gabriela_Margall-burlas_en_el_colegio-bullying_0_1459054226.html
p2
a.