(lp0
S'https://www.clarin.com/sociedad/Snapchat-preferida-adolescentes-pelea-Facebook_0_1327067415.html'
p1
aS'https://www.clarin.com/sociedad/Snapchat-preferida-adolescentes-pelea-Facebook_0_1327067415.html'
p2
a.