(lp0
Vhttps://www.clarin.com/sociedad/Envenenaron-elefantes-Zimbabue_0_1456654586.html
p1
aVhttps://www.clarin.com/sociedad/Envenenaron-elefantes-Zimbabue_0_1456654586.html
p2
aVhttps://www.clarin.com/ieco/campus-ieco/premio-MIT-jovenes-innovadores-Argentina-Uruguay_0_1456654617.html
p3
aVhttps://www.clarin.com/ieco/campus-ieco/premio-MIT-jovenes-innovadores-Argentina-Uruguay_0_1456654617.html
p4
aVhttps://www.clarin.com/ieco/Volkswagen-Toyota_0_1456654548.html
p5
a.