(lp0
Vhttps://www.clarin.com/sociedad/receta-para-mejorar-sexo-juguetes-meditacion-menos-pastillas_0_1442855730.html
p1
aVhttps://www.clarin.com/sociedad/receta-para-mejorar-sexo-juguetes-meditacion-menos-pastillas_0_1442855730.html
p2
aVhttps://www.clarin.com/ieco/economia/Integracion-empresas-suman-aulas-universitarias_0_1442855969.html
p3
aVhttps://www.clarin.com/ieco/economia/Integracion-empresas-suman-aulas-universitarias_0_1442855969.html
p4
a.