(lp0
Vhttps://www.clarin.com/politica/AMIA-Alberto-Nisman-Mario-Cimadevilla-Macri_0_1486051631.html
p1
aVhttps://www.clarin.com/politica/AMIA-Alberto-Nisman-Mario-Cimadevilla-Macri_0_1486051631.html
p2
a.