(lp0
S'https://www.clarin.com/politica/President-Pinedo-hicieron-estallar-Twitter_0_1483051919.html'
p1
aS'https://www.clarin.com/politica/President-Pinedo-hicieron-estallar-Twitter_0_1483051919.html'
p2
a.