(lp0
Vhttps://www.clarin.com/sociedad/Crece-Parana-Santa-Fe-evacuaciones_0_1495050677.html
p1
aVhttps://www.clarin.com/sociedad/Crece-Parana-Santa-Fe-evacuaciones_0_1495050677.html
p2
aVhttps://www.clarin.com/sociedad/Nasa-diseno-argentino-viajar-Marte_0_1495050656.html
p3
aVhttps://www.clarin.com/sociedad/Nasa-diseno-argentino-viajar-Marte_0_1495050656.html
p4
a.