(lp0
S'https://www.clarin.com/sociedad/salta-terremoto-sismo-muerto_0_1451254945.html'
p1
aS'https://www.clarin.com/sociedad/salta-terremoto-sismo-muerto_0_1451254945.html'
p2
aS'https://www.clarin.com/ieco/economia/tema-desigualdad-llego-Premio-Nobel_0_1451255064.html'
p3
aS'https://www.clarin.com/ieco/economia/tema-desigualdad-llego-Premio-Nobel_0_1451255064.html'
p4
a.