(lp0
S'https://www.clarin.com/sociedad/Hablo-restituidas-quise-renunciar-lucha_0_1345065716.html'
p1
aS'https://www.clarin.com/sociedad/Hablo-restituidas-quise-renunciar-lucha_0_1345065716.html'
p2
a.