(lp0
Vhttps://www.clarin.com/politica/vamos-negociar-profugos-advirtio-Ritondo_0_1495650743.html
p1
aVhttps://www.clarin.com/politica/vamos-negociar-profugos-advirtio-Ritondo_0_1495650743.html
p2
aVhttps://www.clarin.com/politica/medico-vinculado-Triple-Crimen-trama_0_1495650709.html
p3
aVhttps://www.clarin.com/politica/medico-vinculado-Triple-Crimen-trama_0_1495650709.html
p4
aVhttps://www.clarin.com/politica/tiraron-mataran-marido-policia-baleada_0_1495650658.html
p5
aVhttps://www.clarin.com/politica/tiraron-mataran-marido-policia-baleada_0_1495650658.html
p6
aVhttps://www.clarin.com/politica/Hablo-fiscal-tiroteo-principio-hombres_0_1495650626.html
p7
aVhttps://www.clarin.com/politica/Hablo-fiscal-tiroteo-principio-hombres_0_1495650626.html
p8
aVhttps://www.clarin.com/ieco/economia/Todesca-INDEC-va-normalizado_0_1495650621.html
p9
a.