(lp0
S'https://www.clarin.com/sociedad/historia-judicial-sigue-final-abierto_0_1435056620.html'
p1
aS'https://www.clarin.com/sociedad/Cromanon-Camara-Casacion-condena-Callejeros_0_1435056706.html'
p2
a.