(lp0
Vhttps://www.clarin.com/ieco/economia/Oficializan-cepo-cambiario-detalles-medida_0_1487251438.html
p1
aVhttps://www.clarin.com/sociedad/educacion-argentinas-docentes-mejores-mundo_0_1487251324.html
p2
a.