(lp0
Vhttps://www.clarin.com/sociedad/tompkins-millonario-muerte-ambientalista-accidente-chile-kayak_0_1481852303.html
p1
aVhttps://www.clarin.com/sociedad/tompkins-millonario-muerte-ambientalista-accidente-chile-kayak_0_1481852303.html
p2
aVhttps://www.clarin.com/sociedad/Envenenaron-leones-famosa-manada_0_1481852125.html
p3
aVhttps://www.clarin.com/sociedad/Envenenaron-leones-famosa-manada_0_1481852125.html
p4
aVhttps://www.clarin.com/politica/Cristina_Kirchner-hoteles_0_1481852108.html
p5
aVhttps://www.clarin.com/politica/Cristina_Kirchner-hoteles_0_1481852108.html
p6
a.