(lp0
S'https://www.clarin.com/sociedad/padre-padrastro-foto-boda-fotografia-viral-casamiento-imagen_0_1441056034.html'
p1
aS'https://www.clarin.com/sociedad/padre-padrastro-foto-boda-fotografia-viral-casamiento-imagen_0_1441056034.html'
p2
a.