(lp0
Vhttps://www.clarin.com/ieco/tecnologia/videjuegos-industria-tecnologia-mercado-facturacion_0_1344465931.html
p1
aVhttps://www.clarin.com/ieco/tecnologia/videjuegos-industria-tecnologia-mercado-facturacion_0_1344465931.html
p2
a.