(lp0
Vhttps://www.clarin.com/ieco/economia/educacion-competencias-crece-aulas-universitarias_0_1392460989.html
p1
aVhttps://www.clarin.com/ieco/economia/educacion-competencias-crece-aulas-universitarias_0_1392460989.html
p2
a.