(lp0
Vhttps://www.clarin.com/sociedad/Mundos_intimos-Lucia_Valladolid-bisexualidad_0_1484251710.html
p1
aVhttps://www.clarin.com/sociedad/Mundos_intimos-Lucia_Valladolid-bisexualidad_0_1484251710.html
p2
aVhttps://www.clarin.com/sociedad/Millas-club-viajar-milleros-gratis_0_1484251653.html
p3
aVhttps://www.clarin.com/sociedad/Millas-club-viajar-milleros-gratis_0_1484251653.html
p4
a.