(lp0
S'https://www.clarin.com/sociedad/receta-para-mejorar-sexo-juguetes-meditacion-menos-pastillas_0_1442855730.html'
p1
aS'https://www.clarin.com/ieco/economia/Integracion-empresas-suman-aulas-universitarias_0_1442855969.html'
p2
a.