(lp0
Vhttps://www.clarin.com/sociedad/problemas-motrices-deslumbra-acrobacias-Tinelli_0_1363663792.html
p1
aVhttps://www.clarin.com/sociedad/problemas-motrices-deslumbra-acrobacias-Tinelli_0_1363663792.html
p2
a.