(lp0
S'https://www.clarin.com/sociedad/Twitter-Terremoto-sismo-Estados_Unidos-detectar-sensores-tuits_0_1445855698.html'
p1
aS'https://www.clarin.com/sociedad/Twitter-Terremoto-sismo-Estados_Unidos-detectar-sensores-tuits_0_1445855698.html'
p2
aS'https://www.clarin.com/sociedad/olvido-contracciones-hip-hop-inducir-parto_0_1445855599.html'
p3
aS'https://www.clarin.com/sociedad/olvido-contracciones-hip-hop-inducir-parto_0_1445855599.html'
p4
a.