(lp0
Vhttps://www.clarin.com/sociedad/tenor-Paolo_Fanale-tatuado-musculoso-Facebook-viral-furor-web-video-redes_sociales_0_1447655382.html
p1
aVhttps://www.clarin.com/sociedad/tenor-Paolo_Fanale-tatuado-musculoso-Facebook-viral-furor-web-video-redes_sociales_0_1447655382.html
p2
aVhttps://www.clarin.com/sociedad/colon-aniversario-acampe-qom_0_1447655245.html
p3
a.