(lp0
Vhttps://www.clarin.com/sociedad/McDonalds-atendera-restaurante-tradicional_0_1435656645.html
p1
aVhttps://www.clarin.com/sociedad/McDonalds-atendera-restaurante-tradicional_0_1435656645.html
p2
a.