(lp0
Vhttps://www.clarin.com/ieco/economia/AFIP-habilita-facturas-emitidas-celular_0_1470453242.html
p1
aVhttps://www.clarin.com/sociedad/Tener-semana-suficiente-bienestar-pareja_0_1470453158.html
p2
aVhttps://www.clarin.com/sociedad/Tener-semana-suficiente-bienestar-pareja_0_1470453158.html
p3
aVhttps://www.clarin.com/sociedad/educacion-sedentarismo-recreos-escuelas-juegos_0_1470453034.html
p4
aVhttps://www.clarin.com/sociedad/educacion-sedentarismo-recreos-escuelas-juegos_0_1470453034.html
p5
aVhttps://www.clarin.com/sociedad/bares-restaurantes-deben-tener-menu-para-celiacos_0_1470453013.html
p6
aVhttps://www.clarin.com/sociedad/bares-restaurantes-deben-tener-menu-para-celiacos_0_1470453013.html
p7
aVhttps://www.clarin.com/sociedad/detenido-denunciado-por-presunto-abuso_0_1470452975.html
p8
aVhttps://www.clarin.com/sociedad/detenido-denunciado-por-presunto-abuso_0_1470452975.html
p9
a.