(lp0
Vhttps://www.clarin.com/sociedad/Mundial-barbas-bigotes-hombres-austria-fotos-modelos_0_1444055892.html
p1
aVhttps://www.clarin.com/sociedad/Mundial-barbas-bigotes-hombres-austria-fotos-modelos_0_1444055892.html
p2
a.