(lp0
S'https://www.clarin.com/sociedad/conmovedora-foto-canguro-abraza-peluche_0_1407459442.html'
p1
aS'https://www.clarin.com/sociedad/conmovedora-foto-canguro-abraza-peluche_0_1407459442.html'
p2
a.