(lp0
Vhttps://www.clarin.com/sociedad/atias_Ale-Violencia_De_Genero-Detenido-Internado-graciela_alfano_0_1460854263.html
p1
aVhttps://www.clarin.com/sociedad/atias_Ale-Violencia_De_Genero-Detenido-Internado-graciela_alfano_0_1460854263.html
p2
a.