(lp0
S'https://www.clarin.com/sociedad/protector_solar-cancer_de_piel-dermatologia_0_1486651653.html'
p1
aS'https://www.clarin.com/sociedad/protector_solar-cancer_de_piel-dermatologia_0_1486651653.html'
p2
a.