(lp0
S'https://www.clarin.com/sociedad/Australia-drones-vigilan-detectar-tiburones-dron-ataques_0_1474652756.html'
p1
aS'https://www.clarin.com/sociedad/Australia-drones-vigilan-detectar-tiburones-dron-ataques_0_1474652756.html'
p2
a.