(lp0
Vhttps://www.clarin.com/politica/Maria-Eugenia-Vidal-domadora-barones_0_1456654635.html
p1
aVhttps://www.clarin.com/politica/Maria-Eugenia-Vidal-domadora-barones_0_1456654635.html
p2
aVhttps://www.clarin.com/sociedad/sonda-Rosetta-encontro-oxigeno-cometa_0_1457854367.html
p3
aVhttps://www.clarin.com/sociedad/sonda-Rosetta-encontro-oxigeno-cometa_0_1457854367.html
p4
a.