(lp0
Vhttps://www.clarin.com/sociedad/Vende-sandwiches-terminal-recibirse-ingeniero-la-rioja-leonardo-zarate_0_1490251215.html
p1
aVhttps://www.clarin.com/sociedad/Vende-sandwiches-terminal-recibirse-ingeniero-la-rioja-leonardo-zarate_0_1490251215.html
p2
a.