(lp0
Vhttps://www.clarin.com/sociedad/Eligieron-descubrimientos-cientificos-destacados_0_1493851031.html
p1
aVhttps://www.clarin.com/sociedad/Eligieron-descubrimientos-cientificos-destacados_0_1493851031.html
p2
aVhttps://www.clarin.com/sociedad/drama-inundacion-bichos-brote-enfermedades_0_1493851049.html
p3
aVhttps://www.clarin.com/sociedad/drama-inundacion-bichos-brote-enfermedades_0_1493851049.html
p4
a.