(lp0
Vhttps://www.clarin.com/sociedad/carne_roja-fiambres-cancer-oms-intestino-carne_procesada-bife_0_1460254178.html
p1
aVhttps://www.clarin.com/sociedad/carne_roja-fiambres-cancer-oms-intestino-carne_procesada-bife_0_1460254178.html
p2
a.