(lp0
Vhttps://www.clarin.com/ieco/economia/Melconian-Asociacion-Privados-Republica-Argentina_0_1495050862.html
p1
aVhttps://www.clarin.com/politica/Caso-efedrina-caminos-llevan-Quilmes_0_1495050849.html
p2
aVhttps://www.clarin.com/politica/Caso-efedrina-caminos-llevan-Quilmes_0_1495050849.html
p3
aVhttps://www.clarin.com/politica/Mauricio_Macri-Villa_La_Angostura-ambulancias_0_1495050805.html
p4
aVhttps://www.clarin.com/politica/Mauricio_Macri-Villa_La_Angostura-ambulancias_0_1495050805.html
p5
a.