(lp0
S'https://www.clarin.com/sociedad/disponen-gays-puedan-donar-sangre-polemica_0_1432056787.html'
p1
aS'https://www.clarin.com/sociedad/disponen-gays-puedan-donar-sangre-polemica_0_1432056787.html'
p2
a.