(lp0
Vhttps://www.clarin.com/ieco/economia/Jovenes-compiten-creando-videojuegos-horas_0_1283271854.html
p1
aVhttps://www.clarin.com/ieco/economia/Jovenes-compiten-creando-videojuegos-horas_0_1283271854.html
p2
a.