(lp0
Vhttps://www.clarin.com/ieco/campus-ieco/Foro_Global_de_Educacion-premio-educacion_de_calidad_0_1321068040.html
p1
aVhttps://www.clarin.com/ieco/campus-ieco/Foro_Global_de_Educacion-premio-educacion_de_calidad_0_1321068040.html
p2
a.