(lp0
Vhttps://www.clarin.com/ieco/campus-ieco/universidades-nube-innovacion_educativa_0_1336666963.html
p1
aVhttps://www.clarin.com/ieco/campus-ieco/universidades-nube-innovacion_educativa_0_1336666963.html
p2
a.