(lp0
S'https://www.clarin.com/ieco/campus-ieco/premio-un_millon_de_dolares-mejor_docente_0_1406859631.html'
p1
aS'https://www.clarin.com/ieco/campus-ieco/premio-un_millon_de_dolares-mejor_docente_0_1406859631.html'
p2
a.