(lp0
S'https://www.clarin.com/politica/Milagro-Sala-gobernador-Gerardo-Morales_0_1485451648.html'
p1
aS'https://www.clarin.com/politica/Milagro-Sala-gobernador-Gerardo-Morales_0_1485451648.html'
p2
a.