(lp0
Vhttps://www.clarin.com/politica/President-Pinedo-hicieron-estallar-Twitter_0_1483051919.html
p1
aVhttps://www.clarin.com/politica/President-Pinedo-hicieron-estallar-Twitter_0_1483051919.html
p2
a.