(lp0
S'https://www.clarin.com/ieco/emprendedores/error-companero-vida_0_1487851543.html'
p1
aS'https://www.clarin.com/ieco/emprendedores/error-companero-vida_0_1487851543.html'
p2
aS'https://www.clarin.com/sociedad/Aerolineas_Argentinas-vuelo-aviones-problemas-ezeiza-barcelona_0_1487851500.html'
p3
aS'https://www.clarin.com/sociedad/Aerolineas_Argentinas-vuelo-aviones-problemas-ezeiza-barcelona_0_1487851500.html'
p4
aS'https://www.clarin.com/sociedad/lucas-cesio-auto-plaza-primaria_0_1487851503.html'
p5
aS'https://www.clarin.com/sociedad/lucas-cesio-auto-plaza-primaria_0_1487851503.html'
p6
aS'https://www.clarin.com/sociedad/tortuga-Madagascar-animales-peligro_de_extincion-especie-linda-bonita_0_1487851386.html'
p7
aS'https://www.clarin.com/sociedad/tortuga-Madagascar-animales-peligro_de_extincion-especie-linda-bonita_0_1487851386.html'
p8
aS'https://www.clarin.com/sociedad/rostro-evoluciono-par-cerebro_0_1487851410.html'
p9
aS'https://www.clarin.com/sociedad/rostro-evoluciono-par-cerebro_0_1487851410.html'
p10
a.