(lp0
S'https://www.clarin.com/politica/Mariano-Recalde-anuncio-Aerolineas-Argentinas_0_1483652097.html'
p1
aS'https://www.clarin.com/politica/Mariano-Recalde-anuncio-Aerolineas-Argentinas_0_1483652097.html'
p2
a.