(lp0
S'https://www.clarin.com/ieco/economia/Moreno-insolito-INDEC-intervenido_0_1494450743.html'
p1
aS'https://www.clarin.com/ieco/economia/Moreno-insolito-INDEC-intervenido_0_1494450743.html'
p2
aS'https://www.clarin.com/ieco/Prat-Gay-Fondos_Buitre-Cleary-Gottlieb_Steen_-_Hamilton_0_1493850982.html'
p3
aS'https://www.clarin.com/ieco/Prat-Gay-Fondos_Buitre-Cleary-Gottlieb_Steen_-_Hamilton_0_1493850982.html'
p4
a.