(lp0
S'https://www.clarin.com/ieco/economia/fallaron-compras-YPF_0_1480652227.html'
p1
aS'https://www.clarin.com/ieco/economia/fallaron-compras-YPF_0_1480652227.html'
p2
aS'https://www.clarin.com/ieco/economia/Proyecciones-positivas-construccion_0_1480652217.html'
p3
aS'https://www.clarin.com/ieco/economia/Proyecciones-positivas-construccion_0_1480652217.html'
p4
a.