(lp0
S'https://www.clarin.com/politica/sospechoso-gobernadora-Vidal-vivienda-Gabinete_0_1600040046.html'
p1
aS'https://www.clarin.com/politica/sospechoso-gobernadora-Vidal-vivienda-Gabinete_0_1600040046.html'
p2
aS'https://www.clarin.com/sociedad/Puro-vertigo-pareja-borde-rascacielos_0_1600040039.html'
p3
aS'https://www.clarin.com/sociedad/Puro-vertigo-pareja-borde-rascacielos_0_1600040039.html'
p4
aS'https://www.clarin.com/politica/Ranking-honestidad-dirigente-social-Papa_0_1600040037.html'
p5
aS'https://www.clarin.com/politica/Ranking-honestidad-dirigente-social-Papa_0_1600040037.html'
p6
aS'https://www.clarin.com/ieco/economia/dolar-sube-centavos_0_1600040036.html'
p7
aS'https://www.clarin.com/ieco/economia/dolar-sube-centavos_0_1600040036.html'
p8
aS'https://www.clarin.com/sociedad/Escucho-historia-infidelidad-subio-Facebook_0_1600040028.html'
p9
aS'https://www.clarin.com/sociedad/Escucho-historia-infidelidad-subio-Facebook_0_1600040028.html'
p10
a.