(lp0
Vhttps://www.clarin.com/sociedad/tuneo-cuesta-vehiculo-ronda-pesos_0_1641436029.html
p1
aVhttps://www.clarin.com/sociedad/tuneo-cuesta-vehiculo-ronda-pesos_0_1641436029.html
p2
aVhttps://www.clarin.com/politica/Bullrich-Necesitamos-coordinacion-inteligente-provincias_0_1641436030.html
p3
aVhttps://www.clarin.com/politica/Bullrich-Necesitamos-coordinacion-inteligente-provincias_0_1641436030.html
p4
aVhttps://www.clarin.com/politica/Macri-Gomez-Centurion-desplazo-Aduana_0_1641436027.html
p5
a.