(lp0
Vhttps://www.clarin.com/ieco/economia/Aguinaldo-Bienes-Personales-tramites-cumplidores_0_1622837809.html
p1
aVhttps://www.clarin.com/ieco/economia/Aguinaldo-Bienes-Personales-tramites-cumplidores_0_1622837809.html
p2
aVhttps://www.clarin.com/sociedad/Recibi-diario-vivo-mensaje_0_1622837808.html
p3
aVhttps://www.clarin.com/sociedad/Recibi-diario-vivo-mensaje_0_1622837808.html
p4
aVhttps://www.clarin.com/sociedad/Criticas-mama-jovenes-amenazo-presidente_0_1622837796.html
p5
a.