(lp0
Vhttps://www.clarin.com/politica/Ahora-Imputaron-Echegaray-abuso-autoridad_0_1594640673.html
p1
aVhttps://www.clarin.com/politica/Ahora-Imputaron-Echegaray-abuso-autoridad_0_1594640673.html
p2
aVhttps://www.clarin.com/sociedad/Malvinas-tunel-record-quiere-volver_0_1594640667.html
p3
aVhttps://www.clarin.com/sociedad/Malvinas-tunel-record-quiere-volver_0_1594640667.html
p4
aVhttps://www.clarin.com/politica/Dolar-aceptan-Cristina-querellante-Bonadio_0_1594640666.html
p5
aVhttps://www.clarin.com/politica/Dolar-aceptan-Cristina-querellante-Bonadio_0_1594640666.html
p6
aVhttps://www.clarin.com/politica/ministro-Trabajo-reclamo-trabajo-infantil_0_1594640661.html
p7
aVhttps://www.clarin.com/politica/ministro-Trabajo-reclamo-trabajo-infantil_0_1594640661.html
p8
aVhttps://www.clarin.com/politica/Massa-tarifazo-grave-error-suspenderlo_0_1594640657.html
p9
aVhttps://www.clarin.com/politica/Massa-tarifazo-grave-error-suspenderlo_0_1594640657.html
p10
aVhttps://www.clarin.com/politica/pancheria-Guillermo-Moreno-Cesar-Milani_0_1594640652.html
p11
aVhttps://www.clarin.com/politica/pancheria-Guillermo-Moreno-Cesar-Milani_0_1594640652.html
p12
a.