(lp0
S'https://www.clarin.com/opinion/Energia-problema-solo-tarifas_0_1624037729.html'
p1
aS'https://www.clarin.com/politica/Murio-Ongaro-dirigente-marco-sindicalismo_0_1624637528.html'
p2
aS'https://www.clarin.com/politica/AMIA-reabrir-denuncia-Nisman-Cristina_0_1624037754.html'
p3
aS'https://www.clarin.com/opinion/rescate-paciencia-perdida_0_1624637530.html'
p4
aS'https://www.clarin.com/opinion/Marche-Nobel-Cristina_0_1624637526.html'
p5
aS'https://www.clarin.com/ieco/economia/Aerolineas-recibe-prestamo-comprar-aviones_0_1624037765.html'
p6
aS'https://www.clarin.com/politica/obras-publicas-camara-lenta_0_1624637529.html'
p7
aS'https://www.clarin.com/opinion/Lecciones-Atlantico-Sur_0_1624037696.html'
p8
aS'https://www.clarin.com/sociedad/maestra-alumno-sindrome-Down-huerfano_0_1624037742.html'
p9
aS'https://www.clarin.com/politica/Indagaron-tuiteros-amenazaron-Macri_0_1624037733.html'
p10
aS'https://www.clarin.com/opinion/Brasil-tregua-olimpica_0_1624037694.html'
p11
aS'https://www.clarin.com/politica/Macri-anuncia-millonario-reintegro-sociales_0_1624037741.html'
p12
a.