(lp0
Vhttps://www.clarin.com/politica/oficialismo-consiguio-jubilados-PJ-disidente_0_1592240937.html
p1
aVhttps://www.clarin.com/politica/oficialismo-consiguio-jubilados-PJ-disidente_0_1592240937.html
p2
aVhttps://www.clarin.com/politica/Gobierno-recomposicion-salarial-Fuerzas-Armadas_0_1592240932.html
p3
aVhttps://www.clarin.com/sociedad/aviones-podria-afectar-manana-vuelos_0_1592240923.html
p4
a.