(lp0
S'https://www.clarin.com/sociedad/cumpleanos-termino-intoxicados-monoxido-carbono_0_1619838087.html'
p1
aS'https://www.clarin.com/sociedad/dia-malla-piletas-Madrid_0_1619838093.html'
p2
aS'https://www.clarin.com/sociedad/cantante-Rafaela-reclama-proteccion-denunciar_0_1619838094.html'
p3
aS'https://www.clarin.com/ieco/Macri-visito-sede-INTA-Castelar_0_1619838096.html'
p4
aS'https://www.clarin.com/ieco/management/Vaquitas-generan-negocios_0_1619838101.html'
p5
aS'https://www.clarin.com/ieco/Debate-climatico-Rural-comercio-agricola_0_1619838089.html'
p6
a.