(lp0
S'https://www.clarin.com/sociedad/picadas-secuestraron-autos-siguen-quejas_0_1641436026.html'
p1
aS'https://www.clarin.com/sociedad/picadas-secuestraron-autos-siguen-quejas_0_1641436026.html'
p2
aS'https://www.clarin.com/politica/militantes-macristas-SIDE-Precursores-Quimicos_0_1641436024.html'
p3
aS'https://www.clarin.com/politica/militantes-macristas-SIDE-Precursores-Quimicos_0_1641436024.html'
p4
aS'https://www.clarin.com/politica/oposicion-busca-unificar-posiciones-Presupuesto_0_1641436023.html'
p5
aS'https://www.clarin.com/politica/oposicion-busca-unificar-posiciones-Presupuesto_0_1641436023.html'
p6
aS'https://www.clarin.com/politica/Discuten-seguridad-integral-Santa-Fe_0_1641436021.html'
p7
aS'https://www.clarin.com/politica/Discuten-seguridad-integral-Santa-Fe_0_1641436021.html'
p8
aS'https://www.clarin.com/sociedad/Pettinato-trato-Tevez-debera-pagarle_0_1641436020.html'
p9
aS'https://www.clarin.com/sociedad/jornada-escuela-portena-pedido-padres_0_1641436017.html'
p10
aS'https://www.clarin.com/politica/Stolbizer-visito-Macri-pidio-corrupcion_0_1641436014.html'
p11
aS'https://www.clarin.com/politica/Stolbizer-visito-Macri-pidio-corrupcion_0_1641436014.html'
p12
a.