(lp0
S'https://www.clarin.com/politica/Graciela-Ocana-imagino-Cristina-presa_0_1615038500.html'
p1
aS'https://www.clarin.com/politica/Graciela-Ocana-imagino-Cristina-presa_0_1615038500.html'
p2
aS'https://www.clarin.com/sociedad/Kim-Kardashian-Pakistan-estrangulada-hermano_0_1615038498.html'
p3
aS'https://www.clarin.com/sociedad/Kim-Kardashian-Pakistan-estrangulada-hermano_0_1615038498.html'
p4
aS'https://www.clarin.com/sociedad/modelo-Playboy-problemas-burlarse-desnuda_0_1615038497.html'
p5
aS'https://www.clarin.com/sociedad/modelo-Playboy-problemas-burlarse-desnuda_0_1615038497.html'
p6
aS'https://www.clarin.com/politica/Imputaron-sobreseer-Milagro-Sala-penales_0_1615038493.html'
p7
aS'https://www.clarin.com/politica/Imputaron-sobreseer-Milagro-Sala-penales_0_1615038493.html'
p8
a.