(lp0
Vhttps://www.clarin.com/politica/Petroleras-Despidos-Chubut-Das_Neves-Aranguren_0_1508849139.html
p1
aVhttps://www.clarin.com/ieco/Austral_Construcciones-Lazaro_Baez-Despidos-Santa_Cruz_0_1508849138.html
p2
aVhttps://www.clarin.com/sociedad/cirugia-inedita-salvo-vientre-mama_0_1508249608.html
p3
aVhttps://www.clarin.com/sociedad/cirugia-inedita-salvo-vientre-mama_0_1508249608.html
p4
aVhttps://www.clarin.com/politica/Senado-Corte_Suprema-PRO-Mauricio_Macri_0_1508849134.html
p5
aVhttps://www.clarin.com/politica/Foro_Economico_Mundial-Mauricio_Macri-Davos-Sergio_Massa_0_1508849133.html
p6
aVhttps://www.clarin.com/politica/Davos-Macri-Biden-Cameron-diplomacia_0_1508849132.html
p7
aVhttps://www.clarin.com/politica/Davos-Macri-Biden-Cameron-diplomacia_0_1508849132.html
p8
aVhttps://www.clarin.com/ieco/Tarifas-Subsidios-Gas-Luz-Aranguren_0_1508849131.html
p9
aVhttps://www.clarin.com/sociedad/trucos-cargar-nafta-pagar_0_1508249620.html
p10
aVhttps://www.clarin.com/sociedad/trucos-cargar-nafta-pagar_0_1508249620.html
p11
a.