(lp0
Vhttps://www.clarin.com/politica/Macri-Twitter-division-argentinos_0_1546045719.html
p1
aVhttps://www.clarin.com/politica/Macri-Twitter-division-argentinos_0_1546045719.html
p2
aVhttps://www.clarin.com/politica/Anibal-Fernandez-Moreno-Hebe-Abuelas_0_1546045717.html
p3
aVhttps://www.clarin.com/politica/Anibal-Fernandez-Moreno-Hebe-Abuelas_0_1546045717.html
p4
aVhttps://www.clarin.com/politica/Carlotto-nuevamente-convocados-defender-democracia_0_1546045714.html
p5
aVhttps://www.clarin.com/politica/Carlotto-nuevamente-convocados-defender-democracia_0_1546045714.html
p6
aVhttps://www.clarin.com/politica/Perez-Esquivel-memoria-quedarnos-pasado_0_1546045703.html
p7
aVhttps://www.clarin.com/politica/Perez-Esquivel-memoria-quedarnos-pasado_0_1546045703.html
p8
aVhttps://www.clarin.com/politica/Macri-visitara-Obama-Llao_0_1546045706.html
p9
aVhttps://www.clarin.com/politica/Macri-visitara-Obama-Llao_0_1546045706.html
p10
aVhttps://www.clarin.com/politica/Obama-Pinedo-religioso-Carrio-CCK_0_1546045684.html
p11
aVhttps://www.clarin.com/politica/Obama-Pinedo-religioso-Carrio-CCK_0_1546045684.html
p12
aVhttps://www.clarin.com/politica/Obama-Circuito-Chico-Nahuel-Huapi_0_1546045697.html
p13
aVhttps://www.clarin.com/politica/Obama-Circuito-Chico-Nahuel-Huapi_0_1546045697.html
p14
aVhttps://www.clarin.com/politica/Cristina-Carta-Abierta-Rodolfo-Walsh_0_1546045682.html
p15
aVhttps://www.clarin.com/politica/Cristina-Carta-Abierta-Rodolfo-Walsh_0_1546045682.html
p16
a.