(lp0
S'https://www.clarin.com/sociedad/Declara-Stinfale-control-estatal-victimas_0_1570643064.html'
p1
aS'https://www.clarin.com/sociedad/Declara-Stinfale-control-estatal-victimas_0_1570643064.html'
p2
aS'https://www.clarin.com/sociedad/brutal-ataque-pitbull-desfiguro-bebe_0_1570643059.html'
p3
aS'https://www.clarin.com/sociedad/supuesto-secretaria-Stinfale-Time-Warp_0_1570643058.html'
p4
aS'https://www.clarin.com/sociedad/supuesto-secretaria-Stinfale-Time-Warp_0_1570643058.html'
p5
aS'https://www.clarin.com/ieco/economia/Eurozona-emitira-billetes-euros_0_1570643052.html'
p6
aS'https://www.clarin.com/sociedad/Denuncio-violencia-genero-ahora-desaparecida_0_1570643055.html'
p7
aS'https://www.clarin.com/sociedad/Denuncio-violencia-genero-ahora-desaparecida_0_1570643055.html'
p8
a.