(lp0
Vhttps://www.clarin.com/politica/Ritondo-inseguridad-Provincia-sensacion-realidad_0_1577842405.html
p1
aVhttps://www.clarin.com/politica/Ritondo-inseguridad-Provincia-sensacion-realidad_0_1577842405.html
p2
aVhttps://www.clarin.com/sociedad/conocia-triste-ahora-construir-digna_0_1577842363.html
p3
aVhttps://www.clarin.com/sociedad/conocia-triste-ahora-construir-digna_0_1577842363.html
p4
aVhttps://www.clarin.com/ieco/Prometen-pagarles-US-millones-petroleras_0_1577842400.html
p5
aVhttps://www.clarin.com/politica/Relanzan-relaciones-Pentagono_0_1577842398.html
p6
aVhttps://www.clarin.com/politica/Relanzan-relaciones-Pentagono_0_1577842398.html
p7
aVhttps://www.clarin.com/politica/Vidal-preventivo-atender-urgencias-sociales_0_1577842395.html
p8
aVhttps://www.clarin.com/politica/Vidal-preventivo-atender-urgencias-sociales_0_1577842395.html
p9
aVhttps://www.clarin.com/politica/Avanzan-acuerdos-provincias-presion-antidespidos_0_1577842396.html
p10
aVhttps://www.clarin.com/politica/Avanzan-acuerdos-provincias-presion-antidespidos_0_1577842396.html
p11
a.