(lp0
Vhttps://www.clarin.com/ieco/finanzas/Gobierno-nuevas-Letras-US-millones_0_1595840441.html
p1
aVhttps://www.clarin.com/ieco/finanzas/Gobierno-nuevas-Letras-US-millones_0_1595840441.html
p2
aVhttps://www.clarin.com/politica/catarsis-aire-periodista-Novaresio-chorros_0_1595840439.html
p3
aVhttps://www.clarin.com/politica/kirchneristas-despegar-escandalo-Nestor-Cristina_0_1595840435.html
p4
aVhttps://www.clarin.com/politica/kirchneristas-despegar-escandalo-Nestor-Cristina_0_1595840435.html
p5
aVhttps://www.clarin.com/sociedad/Web-estallaron-detencion-Jose-Lopez_0_1595840436.html
p6
aVhttps://www.clarin.com/sociedad/Web-estallaron-detencion-Jose-Lopez_0_1595840436.html
p7
aVhttps://www.clarin.com/politica/Macri-Colombia-Santos-Alianza-Pacifico_0_1595840433.html
p8
aVhttps://www.clarin.com/politica/Macri-Colombia-Santos-Alianza-Pacifico_0_1595840433.html
p9
aVhttps://www.clarin.com/ieco/economia/Mendoza-volvio-medir-inflacion-registro_0_1595840431.html
p10
aVhttps://www.clarin.com/ieco/economia/Mendoza-volvio-medir-inflacion-registro_0_1595840431.html
p11
aVhttps://www.clarin.com/politica/autocritica-fiscal-Justicia-choca-casos_0_1595840430.html
p12
aVhttps://www.clarin.com/politica/autocritica-fiscal-Justicia-choca-casos_0_1595840430.html
p13
a.