(lp0
Vhttps://www.clarin.com/politica/Macri-intendentes-peronistas-Presente-DNI_0_1660034069.html
p1
aVhttps://www.clarin.com/politica/Macri-intendentes-peronistas-Presente-DNI_0_1660034069.html
p2
aVhttps://www.clarin.com/sociedad/Hablo-conductores-control-choferes-coquean_0_1660034062.html
p3
aVhttps://www.clarin.com/sociedad/Hablo-conductores-control-choferes-coquean_0_1660034062.html
p4
aVhttps://www.clarin.com/politica/razones-ocultas-viene-Papa_0_1660034060.html
p5
aVhttps://www.clarin.com/politica/razones-ocultas-viene-Papa_0_1660034060.html
p6
aVhttps://www.clarin.com/opinion/Espiar-espejo-memoria_0_1660034059.html
p7
aVhttps://www.clarin.com/ieco/empresarios-optimistas-demandas-integracion-competitividad_0_1660034054.html
p8
aVhttps://www.clarin.com/ieco/empresarios-optimistas-demandas-integracion-competitividad_0_1660034054.html
p9
aVhttps://www.clarin.com/ieco/Argentina-retrocedio-ranking-exportadores-alimentos_0_1660034053.html
p10
aVhttps://www.clarin.com/ieco/Argentina-retrocedio-ranking-exportadores-alimentos_0_1660034053.html
p11
a.