(lp0
S'https://www.clarin.com/politica/Macri-Santiago-Estero-jubilados-Gabinete_0_1586841316.html'
p1
aS'https://www.clarin.com/politica/Macri-Santiago-Estero-jubilados-Gabinete_0_1586841316.html'
p2
aS'https://www.clarin.com/ieco/Prat-Gay-Espana-estatizacion-YPF_0_1586241404.html'
p3
aS'https://www.clarin.com/ieco/Prat-Gay-Espana-estatizacion-YPF_0_1586241404.html'
p4
aS'https://www.clarin.com/politica/Argentina-quedo-cerca-aceptada-OCDE_0_1586241566.html'
p5
aS'https://www.clarin.com/politica/Argentina-quedo-cerca-aceptada-OCDE_0_1586241566.html'
p6
aS'https://www.clarin.com/politica/gobernadores-patagonicos-vuelven-Rosada-tarifas_0_1586241531.html'
p7
aS'https://www.clarin.com/politica/gobernadores-patagonicos-vuelven-Rosada-tarifas_0_1586241531.html'
p8
aS'https://www.clarin.com/ieco/economia/Cayo-empleo-construccion-marzo_0_1586241426.html'
p9
aS'https://www.clarin.com/politica/Destinan-millones-mejorar-comunicaciones_0_1586241546.html'
p10
aS'https://www.clarin.com/ieco/Havanna-Bolsa-espera-recaudar-millones_0_1586241444.html'
p11
aS'https://www.clarin.com/ieco/Havanna-Bolsa-espera-recaudar-millones_0_1586241444.html'
p12
aS'https://www.clarin.com/politica/Allanaron-inmuebles-Baez-Rio-Gallegos_0_1586241558.html'
p13
aS'https://www.clarin.com/politica/Allanaron-inmuebles-Baez-Rio-Gallegos_0_1586241558.html'
p14
a.