(lp0
S'https://www.clarin.com/sociedad/Afirma-mujer-secuestrada-familia-desconfia_0_1678632231.html'
p1
aS'https://www.clarin.com/sociedad/Afirma-mujer-secuestrada-familia-desconfia_0_1678632231.html'
p2
aS'https://www.clarin.com/ieco/Cayeron-fuerte-septiembre-industria-construccion_0_1678632227.html'
p3
aS'https://www.clarin.com/ieco/Cayeron-fuerte-septiembre-industria-construccion_0_1678632227.html'
p4
a.