(lp0
Vhttps://www.clarin.com/sociedad/Detuvieron-femicida-Pilar-volvio-madrugada_0_1528047319.html
p1
aVhttps://www.clarin.com/sociedad/Detuvieron-femicida-Pilar-volvio-madrugada_0_1528047319.html
p2
aVhttps://www.clarin.com/politica/Oficializan-Ganancias-pagaran-excluidos-ganaban_0_1528047304.html
p3
aVhttps://www.clarin.com/politica/Oficializan-Ganancias-pagaran-excluidos-ganaban_0_1528047304.html
p4
aVhttps://www.clarin.com/sociedad/incendia-fabrica-aceite-Burzaco_0_1528047302.html
p5
aVhttps://www.clarin.com/sociedad/incendia-fabrica-aceite-Burzaco_0_1528047302.html
p6
a.