(lp0
S'https://www.clarin.com/politica/faccion-ATE-provoco-disturbios-congreso_0_1675632612.html'
p1
aS'https://www.clarin.com/politica/Mafia-Aduana-carearon-detenidos-Vido_0_1675632613.html'
p2
aS'https://www.clarin.com/politica/Lejos-gordos-operaron-Gomez-Centurion_0_1675632611.html'
p3
aS'https://www.clarin.com/ieco/economia/fondos-necesitan-invertir-estrategia-Itau_0_1675632605.html'
p4
aS'https://www.clarin.com/sociedad/Ordenan-secundario-alumno-sindrome-Down_0_1675632604.html'
p5
aS'https://www.clarin.com/politica/interna-Gils-Carbo-lanzan-Cambiemos_0_1675632615.html'
p6
aS'https://www.clarin.com/politica/Aceptan-cambios-retomar-ofensiva-procuradora_0_1675632616.html'
p7
aS'https://www.clarin.com/sociedad/Prevenir-adicciones-obligatoria-escuela-primaria_0_1675632607.html'
p8
a.