(lp0
Vhttps://www.clarin.com/ieco/economia/Productores-buscan-aumentar-exportacion-China_0_1571842943.html
p1
aVhttps://www.clarin.com/ieco/economia/Productores-buscan-aumentar-exportacion-China_0_1571842943.html
p2
a.