(lp0
Vhttps://www.clarin.com/sociedad/Aclaran-prohibira-profilacticos-farmacias-bonaerenses_0_1517248527.html
p1
aVhttps://www.clarin.com/sociedad/Aclaran-prohibira-profilacticos-farmacias-bonaerenses_0_1517248527.html
p2
aVhttps://www.clarin.com/politica/Agencia_Federal_de_Inteligencia-AFI-espia_K-robo_de_datos-extorsion_0_1517248521.html
p3
aVhttps://www.clarin.com/ieco/economia/LAN-EEUU-posibles-coimas-Argentina_0_1517248502.html
p4
aVhttps://www.clarin.com/ieco/economia/LAN-EEUU-posibles-coimas-Argentina_0_1517248502.html
p5
aVhttps://www.clarin.com/ieco/economia/Luego-escandalo-Volkswagen-presentacion-balances_0_1517248517.html
p6
aVhttps://www.clarin.com/ieco/economia/Luego-escandalo-Volkswagen-presentacion-balances_0_1517248517.html
p7
aVhttps://www.clarin.com/politica/Frigerio-Monzo-Urtubey-voltaje-politico_0_1517248498.html
p8
aVhttps://www.clarin.com/politica/Frigerio-Monzo-Urtubey-voltaje-politico_0_1517248498.html
p9
a.