(lp0
S'https://www.clarin.com/politica/Morsa-valiosa-ayuda-Vidal_0_1505849442.html'
p1
aS'https://www.clarin.com/politica/Morsa-valiosa-ayuda-Vidal_0_1505849442.html'
p2
aS'https://www.clarin.com/politica/viene-pelicula-buitres_0_1505849440.html'
p3
aS'https://www.clarin.com/politica/Peronismo-modelo-armar_0_1505849438.html'
p4
aS'https://www.clarin.com/opinion/Consultorio-clinica_psicoanalitica-Lacan-terapia_0_1505849434.html'
p5
aS'https://www.clarin.com/opinion/Depresion-terapia_psicoanalitica-adicciones-OMS_0_1505849433.html'
p6
aS'https://www.clarin.com/opinion/Grobocopatel-federalismo-desarrollo_regional-Carlos_Casares-agro_0_1505849432.html'
p7
aS'https://www.clarin.com/opinion/Grobocopatel-federalismo-desarrollo_regional-Carlos_Casares-agro_0_1505849432.html'
p8
aS'https://www.clarin.com/sociedad/jovenes-investigan-redes-salir-caceria_0_1505249770.html'
p9
aS'https://www.clarin.com/sociedad/jovenes-investigan-redes-salir-caceria_0_1505249770.html'
p10
aS'https://www.clarin.com/opinion/Marcelo_Gomez-tenis-Tandil-Del_Potro-CeNARD-AAT_0_1505849431.html'
p11
aS'https://www.clarin.com/opinion/Marcelo_Gomez-tenis-Tandil-Del_Potro-CeNARD-AAT_0_1505849431.html'
p12
aS'https://www.clarin.com/opinion/Gauchito_Gil-Corrientes-religiosidad_popular-peregrinacion_8_de_enero_0_1505849430.html'
p13
aS'https://www.clarin.com/opinion/Gauchito_Gil-Corrientes-religiosidad_popular-peregrinacion_8_de_enero_0_1505849430.html'
p14
aS'https://www.clarin.com/opinion/Bicentenario-1916-Desafios_2016-Unesco_0_1505849429.html'
p15
aS'https://www.clarin.com/politica/Carta-editor-columna-Roa_0_1505849428.html'
p16
a.