(lp0
Vhttps://www.clarin.com/ieco/Efecto-blanqueo-emitirian-deuda-dolares_0_1670832926.html
p1
aVhttps://www.clarin.com/ieco/Efecto-blanqueo-emitirian-deuda-dolares_0_1670832926.html
p2
aVhttps://www.clarin.com/politica/carisimo-precio-parar-inflacion_0_1670832907.html
p3
aVhttps://www.clarin.com/ieco/economia/aseguradora-Meridional-cambia-manos_0_1670832981.html
p4
aVhttps://www.clarin.com/ieco/economia/aseguradora-Meridional-cambia-manos_0_1670832981.html
p5
aVhttps://www.clarin.com/ieco/economia/Sturzenegger-inflacion-nivel-inferior-anual_0_1670833021.html
p6
aVhttps://www.clarin.com/ieco/economia/Sturzenegger-inflacion-nivel-inferior-anual_0_1670833021.html
p7
aVhttps://www.clarin.com/ieco/pymes-podran-diferir-dias-IVA_0_1670833037.html
p8
aVhttps://www.clarin.com/opinion/mitos-ingreso-irrestricto_0_1671432845.html
p9
aVhttps://www.clarin.com/opinion/Dados-timba-poesia-cruel_0_1671432844.html
p10
aVhttps://www.clarin.com/opinion/pasito-barroso-campo-judicial_0_1671432843.html
p11
aVhttps://www.clarin.com/opinion/Miedo-educacion_0_1671432842.html
p12
aVhttps://www.clarin.com/ieco/Logistica-terrestre-manos-profesionales_0_1670233066.html
p13
aVhttps://www.clarin.com/ieco/Logistica-terrestre-manos-profesionales_0_1670233066.html
p14
aVhttps://www.clarin.com/sociedad/Paso-Diputados-autorizacion-medicinal-marihuana_0_1670833087.html
p15
aVhttps://www.clarin.com/sociedad/Paso-Diputados-autorizacion-medicinal-marihuana_0_1670833087.html
p16
aVhttps://www.clarin.com/politica/intendente-catamarqueno-dirigente-gremial-programa_0_1670833086.html
p17
aVhttps://www.clarin.com/sociedad/Evaluacion-educativa-Gobierno-ausencias-protestas_0_1670833085.html
p18
aVhttps://www.clarin.com/sociedad/Evaluacion-educativa-Gobierno-ausencias-protestas_0_1670833085.html
p19
a.