(lp0
S'https://www.clarin.com/ieco/economia/Salta-demora-emision-US-millones_0_1597040311.html'
p1
aS'https://www.clarin.com/ieco/economia/Newsan-Vamos-crecer-importacion_0_1596440463.html'
p2
aS'https://www.clarin.com/sociedad/Moreno-profesor-gimnasia-abusar-chicos_0_1597040309.html'
p3
aS'https://www.clarin.com/politica/Delgado-Lopez-investigan-Cristina-declarar_0_1597040308.html'
p4
aS'https://www.clarin.com/politica/Blanqueo-final-excluyeron-familiares-funcionarios_0_1596440562.html'
p5
a.