(lp0
Vhttps://www.clarin.com/ieco/economia/Pollack-abogados-holdouts-confidencialidad-deliberaciones_0_1528647610.html
p1
aVhttps://www.clarin.com/politica/Hollande-Macri-Francia-ayudara-Gobierno_0_1528647605.html
p2
aVhttps://www.clarin.com/politica/Ordenaron-Faraon-Melnyk-Lanatta-Schillaci_0_1528647577.html
p3
aVhttps://www.clarin.com/politica/Ordenaron-Faraon-Melnyk-Lanatta-Schillaci_0_1528647577.html
p4
a.