(lp0
S'https://www.clarin.com/politica/Video-Alfonso-Prat-Forum-CCIFA_0_1655234530.html'
p1
aS'https://www.clarin.com/politica/Video-Alfonso-Prat-Forum-CCIFA_0_1655234530.html'
p2
aS'https://www.clarin.com/ieco/economia/Gobierno-quiere-tarifas-normales-proximos_0_1655234529.html'
p3
aS'https://www.clarin.com/ieco/economia/Gobierno-quiere-tarifas-normales-proximos_0_1655234529.html'
p4
aS'https://www.clarin.com/politica/advertencias-Iglesia-Pena-visitaron-Arancedo_0_1655234527.html'
p5
aS'https://www.clarin.com/politica/advertencias-Iglesia-Pena-visitaron-Arancedo_0_1655234527.html'
p6
aS'https://www.clarin.com/ieco/empleo-construccion-cayo-enero-julio_0_1655234525.html'
p7
aS'https://www.clarin.com/ieco/empleo-construccion-cayo-enero-julio_0_1655234525.html'
p8
aS'https://www.clarin.com/sociedad/Denuncio-musico-Trulala-ciberacoso-calvario_0_1655234522.html'
p9
aS'https://www.clarin.com/sociedad/Denuncio-musico-Trulala-ciberacoso-calvario_0_1655234522.html'
p10
a.