(lp0
Vhttps://www.clarin.com/politica/Michetti-defender-Macri-ilegal-antietico_0_1552644983.html
p1
aVhttps://www.clarin.com/politica/Carrio-Macri-presente-pruebas-Angelici_0_1552644988.html
p2
aVhttps://www.clarin.com/politica/Carrio-Macri-presente-pruebas-Angelici_0_1552644988.html
p3
aVhttps://www.clarin.com/ieco/Interior-nafta-cara-supera_0_1552644986.html
p4
aVhttps://www.clarin.com/ieco/Interior-nafta-cara-supera_0_1552644986.html
p5
aVhttps://www.clarin.com/sociedad/directora-Matrix-mostro-publico-cambio_0_1552644975.html
p6
aVhttps://www.clarin.com/sociedad/directora-Matrix-mostro-publico-cambio_0_1552644975.html
p7
aVhttps://www.clarin.com/ieco/agroquimicos-deberan-declararse-Internet_0_1552644965.html
p8
aVhttps://www.clarin.com/ieco/agroquimicos-deberan-declararse-Internet_0_1552644965.html
p9
a.