(lp0
S'https://www.clarin.com/politica/Vido-primo-Kirchner-involucrados-denuncia_0_1650434959.html'
p1
aS'https://www.clarin.com/politica/Malvinas-seguridad-Argentina-Gran-Bretana_0_1650434958.html'
p2
aS'https://www.clarin.com/sociedad/Suspendieron-rugbiers-San-Cirano-atacaron_0_1650434956.html'
p3
aS'https://www.clarin.com/politica/Justicia-arquitecto-Mausoleo-Nestor-Kirchner_0_1650434953.html'
p4
a.