(lp0
Vhttps://www.clarin.com/ieco/empresas-y-negocios/Preven-caida-ventas-iPhone_0_1511849054.html
p1
aVhttps://www.clarin.com/politica/Martin_Insaurralde-Fernando_Espinoza-PJ_bonaerense_0_1511849050.html
p2
aVhttps://www.clarin.com/politica/Martin_Insaurralde-Fernando_Espinoza-PJ_bonaerense_0_1511849050.html
p3
aVhttps://www.clarin.com/sociedad/Miss-Mundo-admitio-hizo-trampa_0_1511849045.html
p4
aVhttps://www.clarin.com/sociedad/Miss-Mundo-admitio-hizo-trampa_0_1511849045.html
p5
aVhttps://www.clarin.com/sociedad/Putin-Ahora-porqueria-America-Latina_0_1511849039.html
p6
aVhttps://www.clarin.com/sociedad/Putin-Ahora-porqueria-America-Latina_0_1511849039.html
p7
aVhttps://www.clarin.com/ieco/tarifas-energia_electrica-luz-desarrollo_social-tarifa_social_0_1511849036.html
p8
aVhttps://www.clarin.com/ieco/tarifas-energia_electrica-luz-desarrollo_social-tarifa_social_0_1511849036.html
p9
aVhttps://www.clarin.com/politica/gobernadores-PJ-Casa_Rosada-coparticipacion-obras_0_1511849030.html
p10
aVhttps://www.clarin.com/politica/gobernadores-PJ-Casa_Rosada-coparticipacion-obras_0_1511849030.html
p11
a.