(lp0
Vhttps://www.clarin.com/ieco/Declaran-emergencia-agropecuaria-municipios-bonaerense_0_1681031959.html
p1
aVhttps://www.clarin.com/ieco/Declaran-emergencia-agropecuaria-municipios-bonaerense_0_1681031959.html
p2
aVhttps://www.clarin.com/sociedad/cancer-infantil-infrecuente-buen-pronostico_0_1681031958.html
p3
aVhttps://www.clarin.com/sociedad/cancer-infantil-infrecuente-buen-pronostico_0_1681031958.html
p4
aVhttps://www.clarin.com/ieco/economia/estatizacion-fondo-demanda-Argentina-YPF_0_1681031957.html
p5
aVhttps://www.clarin.com/ieco/economia/estatizacion-fondo-demanda-Argentina-YPF_0_1681031957.html
p6
aVhttps://www.clarin.com/sociedad/Difunden-Marte-estrello-modulo-Schiaparelli_0_1681031951.html
p7
aVhttps://www.clarin.com/sociedad/Difunden-Marte-estrello-modulo-Schiaparelli_0_1681031951.html
p8
aVhttps://www.clarin.com/politica/ministro-Scioli-despegarse-acusaciones-corrupcion_0_1681031948.html
p9
aVhttps://www.clarin.com/politica/ministro-Scioli-despegarse-acusaciones-corrupcion_0_1681031948.html
p10
a.