(lp0
S'https://www.clarin.com/sociedad/centenario-Nueva-anuncio-version-impresa_0_1600639957.html'
p1
aS'https://www.clarin.com/politica/operacion-Macri-presento-electoral-CCK_0_1600639961.html'
p2
aS'https://www.clarin.com/ieco/economia/mercados-optimistas-Brexit_0_1600639958.html'
p3
aS'https://www.clarin.com/sociedad/Descubren-sonido-mar-llega-espacio_0_1600639963.html'
p4
aS'https://www.clarin.com/politica/Cobos-Justicia-investigue-alguien-consecuencias_0_1600639969.html'
p5
aS'https://www.clarin.com/ieco/economia/actividad-industrial-cayo-mayo_0_1600639966.html'
p6
aS'https://www.clarin.com/politica/Boudou-banquillo-elevacion-juicio-Ciccone_0_1600639956.html'
p7
a.