(lp0
Vhttps://www.clarin.com/politica/Maximo-Cristina-Kirchner-persecucion-notoria_0_1543645811.html
p1
aVhttps://www.clarin.com/politica/Maximo-Cristina-Kirchner-persecucion-notoria_0_1543645811.html
p2
aVhttps://www.clarin.com/politica/Guillermo-Moreno-Lazaro-Baez-conozco_0_1543645809.html
p3
aVhttps://www.clarin.com/politica/Guillermo-Moreno-Lazaro-Baez-conozco_0_1543645809.html
p4
aVhttps://www.clarin.com/politica/ultimo-militar-Iglesia-sanar-pasado_0_1543645806.html
p5
aVhttps://www.clarin.com/politica/ultimo-militar-Iglesia-sanar-pasado_0_1543645806.html
p6
a.