(lp0
Vhttps://www.clarin.com/politica/derogar-tarifazo-diputados-improvisaron-Congreso_0_1629437175.html
p1
aVhttps://www.clarin.com/politica/derogar-tarifazo-diputados-improvisaron-Congreso_0_1629437175.html
p2
aVhttps://www.clarin.com/sociedad/UNICEF-Tete-Coustarot-ayudar-chicos_0_1629437165.html
p3
aVhttps://www.clarin.com/sociedad/UNICEF-Tete-Coustarot-ayudar-chicos_0_1629437165.html
p4
aVhttps://www.clarin.com/ieco/Once-sectores-Gobierno-cree-monopolios_0_1629437157.html
p5
aVhttps://www.clarin.com/ieco/Once-sectores-Gobierno-cree-monopolios_0_1629437157.html
p6
a.