(lp0
Vhttps://www.clarin.com/ieco/bancos-prestaran-US-millones_0_1504649682.html
p1
aVhttps://www.clarin.com/sociedad/economico-Aerolineas-Sol-cancelo-vuelos_0_1504649666.html
p2
aVhttps://www.clarin.com/sociedad/economico-Aerolineas-Sol-cancelo-vuelos_0_1504649666.html
p3
a.