(lp0
Vhttps://www.clarin.com/sociedad/Detuvieron-penitenciario-cazado-puma-reserva_0_1499850207.html
p1
aVhttps://www.clarin.com/sociedad/Detuvieron-penitenciario-cazado-puma-reserva_0_1499850207.html
p2
aVhttps://www.clarin.com/ieco/economia/Estiman-campo-liquidara-ano-divisas_0_1499850211.html
p3
aVhttps://www.clarin.com/ieco/economia/Estiman-campo-liquidara-ano-divisas_0_1499850211.html
p4
aVhttps://www.clarin.com/sociedad/calvario-rosarina-anos-pesa-kilos_0_1499850196.html
p5
aVhttps://www.clarin.com/sociedad/calvario-rosarina-anos-pesa-kilos_0_1499850196.html
p6
aVhttps://www.clarin.com/politica/Relacionan-jefe-Inteligencia-polemico-Calleri_0_1499850200.html
p7
aVhttps://www.clarin.com/politica/Relacionan-jefe-Inteligencia-polemico-Calleri_0_1499850200.html
p8
aVhttps://www.clarin.com/ieco/economia/temblores-chinas-arrastran-mercados-europeos_0_1499850193.html
p9
aVhttps://www.clarin.com/ieco/economia/temblores-chinas-arrastran-mercados-europeos_0_1499850193.html
p10
aVhttps://www.clarin.com/ieco/economia/abren-mercados-EEUU-caida-China_0_1499850190.html
p11
aVhttps://www.clarin.com/ieco/economia/abren-mercados-EEUU-caida-China_0_1499850190.html
p12
a.