(lp0
S'https://www.clarin.com/politica/Malcorra-explica-acuerdo-Malvinas_0_1663033714.html'
p1
aS'https://www.clarin.com/politica/Yasky-presiona-CGT-negociar-migajas_0_1663033711.html'
p2
aS'https://www.clarin.com/politica/Malbec-Randazzo-intendentes-jugando-misterio_0_1663033708.html'
p3
aS'https://www.clarin.com/ieco/verde-riesgo-volvieron-despachos-cemento_0_1663033722.html'
p4
aS'https://www.clarin.com/sociedad/sirven-maquinas-moleculares_0_1663033720.html'
p5
a.