(lp0
Vhttps://www.clarin.com/sociedad/mate-unico-rito-sobrevive-intacto_0_1606039439.html
p1
aVhttps://www.clarin.com/sociedad/mate-unico-rito-sobrevive-intacto_0_1606039439.html
p2
aVhttps://www.clarin.com/politica/Gobierno-queda-tiempo-carrera-inflacion_0_1605439606.html
p3
aVhttps://www.clarin.com/sociedad/detras-aparente_0_1605439587.html
p4
a.