(lp0
S'https://www.clarin.com/politica/Analizan-Mar-Plata-vinculos-dictadura_0_1684631586.html'
p1
aS'https://www.clarin.com/politica/Analizan-Mar-Plata-vinculos-dictadura_0_1684631586.html'
p2
aS'https://www.clarin.com/politica/relacion-Macri-Trump-videos_0_1684631580.html'
p3
aS'https://www.clarin.com/politica/relacion-Macri-Trump-videos_0_1684631580.html'
p4
aS'https://www.clarin.com/ieco/finanzas/Wall-Street-niveles-eleccion-Trump_0_1684631579.html'
p5
aS'https://www.clarin.com/ieco/finanzas/Wall-Street-niveles-eleccion-Trump_0_1684631579.html'
p6
aS'https://www.clarin.com/sociedad/abogado-penalista-atropello-agentes-querian_0_1684631577.html'
p7
aS'https://www.clarin.com/sociedad/abogado-penalista-atropello-agentes-querian_0_1684631577.html'
p8
aS'https://www.clarin.com/ieco/economia/inflacion-portena-octubre_0_1684631576.html'
p9
aS'https://www.clarin.com/ieco/economia/inflacion-portena-octubre_0_1684631576.html'
p10
a.