(lp0
Vhttps://www.clarin.com/sociedad/genes-relojeros-cambios-conducta_0_1528047656.html
p1
aVhttps://www.clarin.com/sociedad/Descubren-dormir-mal-afecta-animo_0_1528047658.html
p2
aVhttps://www.clarin.com/sociedad/Ahora-apoyo-cabeza-morsa_0_1528047654.html
p3
aVhttps://www.clarin.com/ieco/economia/ganancias-claves_0_1528047690.html
p4
aVhttps://www.clarin.com/ieco/economia/giustiniani-contrato_0_1528047689.html
p5
aVhttps://www.clarin.com/ieco/economia/conflicto_docente-paritarias-nacion_0_1528047665.html
p6
a.