(lp0
Vhttps://www.clarin.com/ieco/Nissan-anuncio-compra-Mitsubishi-Motors_0_1575442492.html
p1
aVhttps://www.clarin.com/ieco/Nissan-anuncio-compra-Mitsubishi-Motors_0_1575442492.html
p2
aVhttps://www.clarin.com/sociedad/Time-Warp-declarar-Sergio-Massa_0_1575442490.html
p3
aVhttps://www.clarin.com/sociedad/Time-Warp-declarar-Sergio-Massa_0_1575442490.html
p4
aVhttps://www.clarin.com/politica/Corrupcion-Argentina-comprometio-asegurar-transparencia_0_1575442489.html
p5
aVhttps://www.clarin.com/politica/Corrupcion-Argentina-comprometio-asegurar-transparencia_0_1575442489.html
p6
aVhttps://www.clarin.com/politica/democracia-plena-inclusion-advirtio-Iglesia_0_1575442486.html
p7
aVhttps://www.clarin.com/politica/democracia-plena-inclusion-advirtio-Iglesia_0_1575442486.html
p8
aVhttps://www.clarin.com/ieco/economia/Prat-Gay-puntos-inflacion-tarifas_0_1575442484.html
p9
aVhttps://www.clarin.com/ieco/economia/Prat-Gay-puntos-inflacion-tarifas_0_1575442484.html
p10
a.