(lp0
Vhttps://www.clarin.com/politica/Cristina-defenderia-Lopez-Boudou-inconveniente_0_1616838314.html
p1
aVhttps://www.clarin.com/politica/Cristina-defenderia-Lopez-Boudou-inconveniente_0_1616838314.html
p2
aVhttps://www.clarin.com/sociedad/Condenan-mujer-matar-recien-nacidos_0_1616838312.html
p3
aVhttps://www.clarin.com/sociedad/Condenan-mujer-matar-recien-nacidos_0_1616838312.html
p4
aVhttps://www.clarin.com/sociedad/Santi-capitan-muletas-famoso-viral_0_1616838309.html
p5
aVhttps://www.clarin.com/sociedad/Santi-capitan-muletas-famoso-viral_0_1616838309.html
p6
aVhttps://www.clarin.com/politica/Semana-crucial-candidatura-Malcorra-ONU_0_1616238509.html
p7
aVhttps://www.clarin.com/politica/Semana-crucial-candidatura-Malcorra-ONU_0_1616238509.html
p8
aVhttps://www.clarin.com/ieco/economia/lebacs_0_1616238527.html
p9
aVhttps://www.clarin.com/ieco/economia/lebacs_0_1616238527.html
p10
a.