(lp0
S'https://www.clarin.com/opinion/Persecuciones-religiosas-cruel-realidad_0_1565843584.html'
p1
aS'https://www.clarin.com/sociedad/fuerte-sismo-sacudio-San-Juan_0_1566443347.html'
p2
aS'https://www.clarin.com/politica/Santa-Cruz-tierra-hostil-investigar_0_1566443345.html'
p3
aS'https://www.clarin.com/politica/Triaca-gobierno-despidos-gestion-anterior_0_1566443342.html'
p4
aS'https://www.clarin.com/politica/Massa-pide-limitar-grandes-empresas_0_1565843621.html'
p5
aS'https://www.clarin.com/opinion/tesoro-vista_0_1566443344.html'
p6
aS'https://www.clarin.com/opinion/gran-politica-populismos_0_1565843576.html'
p7
aS'https://www.clarin.com/sociedad/fuerte-sismo-sacudio-San-Juan_0_1566443346.html'
p8
aS'https://www.clarin.com/ieco/economia/Galuccio-lagrimas-empleados-Vaca-Muerta_0_1565843449.html'
p9
aS'https://www.clarin.com/politica/Cristina-expreso-voluntad-conducir-PJ_0_1565843582.html'
p10
aS'https://www.clarin.com/opinion/Argentina-Rusia-relacion-necesitados_0_1565843579.html'
p11
a.