(lp0
S'https://www.clarin.com/politica/Denuncian-empresas-medios-evasion-millonaria_0_1611439012.html'
p1
aS'https://www.clarin.com/opinion/Estacionar-sufrimiento_0_1611438973.html'
p2
aS'https://www.clarin.com/politica/Millones-ruidos-dentro-blanqueo_0_1611439030.html'
p3
aS'https://www.clarin.com/politica/SanCor-Seguros-compra-Cristobal-Lopez_0_1611439007.html'
p4
aS'https://www.clarin.com/ieco/economia/SanCor-Seguros-compra-Cristobal-Lopez_0_1611438999.html'
p5
aS'https://www.clarin.com/opinion/Patria-emocion-Malvinas_0_1611439029.html'
p6
a.