(lp0
Vhttps://www.clarin.com/ieco/economia/Prat-Gay-cambios-economia-seguiran-graduales_0_1625237595.html
p1
aVhttps://www.clarin.com/ieco/economia/Prat-Gay-cambios-economia-seguiran-graduales_0_1625237595.html
p2
aVhttps://www.clarin.com/ieco/economia/baja-tasas-lebacs-dolar-centavos_0_1625237586.html
p3
aVhttps://www.clarin.com/ieco/economia/baja-tasas-lebacs-dolar-centavos_0_1625237586.html
p4
aVhttps://www.clarin.com/sociedad/primera-empresa-privada-viajara-Luna_0_1625237589.html
p5
aVhttps://www.clarin.com/sociedad/primera-empresa-privada-viajara-Luna_0_1625237589.html
p6
a.