(lp0
Vhttps://www.clarin.com/sociedad/mejores-imagenes-cientificas-ano_0_1537646515.html
p1
aVhttps://www.clarin.com/sociedad/mejores-imagenes-cientificas-ano_0_1537646515.html
p2
aVhttps://www.clarin.com/sociedad/custodia-hijo-Madonna-vez-Justicia_0_1537646510.html
p3
aVhttps://www.clarin.com/sociedad/custodia-hijo-Madonna-vez-Justicia_0_1537646510.html
p4
aVhttps://www.clarin.com/ieco/economia/deficit-fiscal-rozo-millones-pesos_0_1537646505.html
p5
aVhttps://www.clarin.com/ieco/economia/deficit-fiscal-rozo-millones-pesos_0_1537646505.html
p6
aVhttps://www.clarin.com/sociedad/Video-pinguino-recorre-kilometros-hombre_0_1537646501.html
p7
aVhttps://www.clarin.com/sociedad/Video-pinguino-recorre-kilometros-hombre_0_1537646501.html
p8
aVhttps://www.clarin.com/sociedad/dentista-horror-destrozo-bocas-Francia_0_1537646499.html
p9
aVhttps://www.clarin.com/sociedad/dentista-horror-destrozo-bocas-Francia_0_1537646499.html
p10
aVhttps://www.clarin.com/ieco/economia/Monsanto-Gobierno-tomado-medidas-positivas_0_1537646493.html
p11
aVhttps://www.clarin.com/ieco/economia/Monsanto-Gobierno-tomado-medidas-positivas_0_1537646493.html
p12
aVhttps://www.clarin.com/politica/Gobierno-ofrecio-acelerar-devolucion-provincias_0_1537646496.html
p13
aVhttps://www.clarin.com/politica/Gobierno-ofrecio-acelerar-devolucion-provincias_0_1537646496.html
p14
a.