(lp0
Vhttps://www.clarin.com/sociedad/sindicalista-detenido-imponer-fueros-quedar_0_1631836892.html
p1
aVhttps://www.clarin.com/sociedad/Vecinos-rescate-viejos-buzones-portenos_0_1631836890.html
p2
aVhttps://www.clarin.com/sociedad/Vecinos-rescate-viejos-buzones-portenos_0_1631836890.html
p3
aVhttps://www.clarin.com/politica/Vido-calento-encuentro-Aranguren-Diputados_0_1631836887.html
p4
aVhttps://www.clarin.com/politica/Vido-calento-encuentro-Aranguren-Diputados_0_1631836887.html
p5
aVhttps://www.clarin.com/sociedad/Llena-Isla-Maciel-romper-estigmas_0_1631836884.html
p6
aVhttps://www.clarin.com/sociedad/Llena-Isla-Maciel-romper-estigmas_0_1631836884.html
p7
a.