(lp0
S'https://www.clarin.com/politica/prepara-Maria-Eugenia-Vidal-campana_0_1681631940.html'
p1
aS'https://www.clarin.com/politica/debate-videos-chicanas-promesas-Macri_0_1687631303.html'
p2
aS'https://www.clarin.com/sociedad/pareja-encerro-prendio-fuego-salvo_0_1687631305.html'
p3
aS'https://www.clarin.com/sociedad/hacer-lampara-hilo-papel_0_1687631299.html'
p4
aS'https://www.clarin.com/ieco/economia/JP-Morgan-US-millones-argentina_0_1687631302.html'
p5
a.