(lp0
S'https://www.clarin.com/politica/Macri-deja-sindrome-Rua_0_1673232817.html'
p1
aS'https://www.clarin.com/politica/Macri-deja-sindrome-Rua_0_1673232817.html'
p2
aS'https://www.clarin.com/sociedad/Llegan-expertos-region-debatir-educacion_0_1673232816.html'
p3
aS'https://www.clarin.com/politica/Cambiemos-negocia-pase-intendentes-interior_0_1673232803.html'
p4
aS'https://www.clarin.com/sociedad/Encuentra-formula-consuman-calorias_0_1672632862.html'
p5
aS'https://www.clarin.com/sociedad/Encuentra-formula-consuman-calorias_0_1672632862.html'
p6
aS'https://www.clarin.com/politica/posibilidad-conflcito-social-fin-ano_0_1673232814.html'
p7
aS'https://www.clarin.com/politica/posibilidad-conflcito-social-fin-ano_0_1673232814.html'
p8
aS'https://www.clarin.com/politica/Macri-lanza-juventud-Cambiemos_0_1673232776.html'
p9
a.