(lp0
Vhttps://www.clarin.com/ieco/economia/tasas-tactica-cambiaria_0_1501650063.html
p1
aVhttps://www.clarin.com/ieco/campus-ieco/Estudiantes-Harvard-hacen-trabajo-Argentina_0_1501650060.html
p2
aVhttps://www.clarin.com/ieco/campus-ieco/Estudiantes-Harvard-hacen-trabajo-Argentina_0_1501650060.html
p3
aVhttps://www.clarin.com/ieco/economia/Bosch-trader-energias-verdes_0_1501650058.html
p4
aVhttps://www.clarin.com/politica/Fuerte-Helvecia-capturaron-Martin-Lanatta_0_1501650055.html
p5
aVhttps://www.clarin.com/politica/Fuerte-Helvecia-capturaron-Martin-Lanatta_0_1501650055.html
p6
aVhttps://www.clarin.com/ieco/economia/autos-inteligentes-ultimo-industria-tecnologica_0_1501650050.html
p7
aVhttps://www.clarin.com/ieco/economia/hacen-multimillonarios-EEUU-pagar-impuestos_0_1501650048.html
p8
aVhttps://www.clarin.com/ieco/economia/comercio-Brasil-Argentina-cayo-mitad_0_1501650046.html
p9
aVhttps://www.clarin.com/ieco/economia/inflacion-real-acumulada_0_1501650045.html
p10
aVhttps://www.clarin.com/politica/Lanatta-Ezeiza-espera-indagado-trasladado_0_1501649992.html
p11
aVhttps://www.clarin.com/politica/Lanatta-Ezeiza-espera-indagado-trasladado_0_1501649992.html
p12
aVhttps://www.clarin.com/politica/hermano-victima-crimen-piedras-camino_0_1501650024.html
p13
aVhttps://www.clarin.com/politica/Sigue-Santa-Fe-desgaste-psicologico_0_1501650009.html
p14
aVhttps://www.clarin.com/politica/Sigue-Santa-Fe-desgaste-psicologico_0_1501650009.html
p15
a.