(lp0
S'https://www.clarin.com/politica/Pichetto-repudio-amenaza-Esteche-Gobierno_0_1605439583.html'
p1
aS'https://www.clarin.com/ieco/center-quieren-frenar-importacion-servicios_0_1605439595.html'
p2
aS'https://www.clarin.com/ieco/economia/super-obligacion-cerrar-domingos-arbitraria_0_1605439584.html'
p3
aS'https://www.clarin.com/politica/Stolbizer-cruzo-Carrio-costumbre-descalificar_0_1605439588.html'
p4
aS'https://www.clarin.com/politica/Perez-Corradi-aportara-Justicia-argentina_0_1605439589.html'
p5
aS'https://www.clarin.com/ieco/economia/ventas-autos-cayeron-junio_0_1605439590.html'
p6
a.