(lp0
S'https://www.clarin.com/sociedad/preso-finalmente-consiguio-trabajo-modelo_0_1595840486.html'
p1
aS'https://www.clarin.com/sociedad/preso-finalmente-consiguio-trabajo-modelo_0_1595840486.html'
p2
aS'https://www.clarin.com/politica/Camioneros-protestan-Callao-prometen-companeros_0_1595840495.html'
p3
aS'https://www.clarin.com/politica/Camioneros-protestan-Callao-prometen-companeros_0_1595840495.html'
p4
aS'https://www.clarin.com/sociedad/Disney-playas-resorts-ataque-cocodrilo_0_1595840491.html'
p5
aS'https://www.clarin.com/sociedad/Disney-playas-resorts-ataque-cocodrilo_0_1595840491.html'
p6
aS'https://www.clarin.com/politica/Carrio-telefonos-Jose-Lopez-operativos_0_1595840490.html'
p7
aS'https://www.clarin.com/politica/Carrio-telefonos-Jose-Lopez-operativos_0_1595840490.html'
p8
a.