(lp0
S'https://www.clarin.com/sociedad/capas-maquillaje-ultimo-viral-YouTube_0_1621637897.html'
p1
aS'https://www.clarin.com/sociedad/Mega-operativo-Interpol-rescatan-victimas_0_1621637902.html'
p2
aS'https://www.clarin.com/ieco/Jubilados-amplian-limites-acceder-social_0_1621637904.html'
p3
aS'https://www.clarin.com/ieco/Jubilaciones-consultar-corresponde-recibir-reajuste_0_1621637906.html'
p4
a.