(lp0
S'https://www.clarin.com/sociedad/Nacio-prematuro-transformo-guarda-luchan_0_1686431435.html'
p1
aS'https://www.clarin.com/sociedad/Nacio-prematuro-transformo-guarda-luchan_0_1686431435.html'
p2
aS'https://www.clarin.com/sociedad/historias-silencio-cambian-realidad-pais_0_1686431434.html'
p3
aS'https://www.clarin.com/sociedad/muerte-bebe-zika-piden-prevencion_0_1686431432.html'
p4
aS'https://www.clarin.com/sociedad/muerte-bebe-zika-piden-prevencion_0_1686431432.html'
p5
a.