(lp0
S'https://www.clarin.com/ieco/economia/petroleros-pedir-paritarias-libres-techo_0_1549645227.html'
p1
aS'https://www.clarin.com/politica/temeraria-intendentes-explota-Conurbano-Presidente_0_1549645218.html'
p2
aS'https://www.clarin.com/sociedad/Justicia-empresas-privadas-limpien-escuelas_0_1549645233.html'
p3
aS'https://www.clarin.com/ieco/Fuerte-descenso-presion-fiscal-agricola_0_1549645177.html'
p4
aS'https://www.clarin.com/ieco/economia/sistema-control-precios-online-arrancara_0_1549645224.html'
p5
aS'https://www.clarin.com/ieco/Tramontina-amenazar-fabricas-locales-cubiertos_0_1549645214.html'
p6
aS'https://www.clarin.com/ieco/UE-Argentina-convirtio-acuerdo-Mercosur_0_1549645240.html'
p7
a.