(lp0
Vhttps://www.clarin.com/ieco/economia/Todesca-inflacion-mes-caera-mitad_0_1596440378.html
p1
aVhttps://www.clarin.com/ieco/economia/Todesca-inflacion-mes-caera-mitad_0_1596440378.html
p2
aVhttps://www.clarin.com/politica/Garavano-Gobierno-impulsar-ampliacion-Corte_0_1596440377.html
p3
aVhttps://www.clarin.com/politica/Garavano-Gobierno-impulsar-ampliacion-Corte_0_1596440377.html
p4
aVhttps://www.clarin.com/sociedad/Regazzoni-farmaceuticos-poner-hombro_0_1596440376.html
p5
aVhttps://www.clarin.com/sociedad/Regazzoni-farmaceuticos-poner-hombro_0_1596440376.html
p6
aVhttps://www.clarin.com/politica/nuevo-abordaje-genocidios-siglo-XX_0_1596440374.html
p7
aVhttps://www.clarin.com/politica/nuevo-abordaje-genocidios-siglo-XX_0_1596440374.html
p8
aVhttps://www.clarin.com/politica/Papa-Scholas-Temo-puedan-corrupcion_0_1596440371.html
p9
aVhttps://www.clarin.com/politica/Papa-Scholas-Temo-puedan-corrupcion_0_1596440371.html
p10
aVhttps://www.clarin.com/sociedad/Demoras-Aeroparque-agresion-empleado-Aerolineas_0_1596440370.html
p11
aVhttps://www.clarin.com/sociedad/Demoras-Aeroparque-agresion-empleado-Aerolineas_0_1596440370.html
p12
a.