(lp0
Vhttps://www.clarin.com/politica/Denuncias-negociados-sombra-Jaime-Stiuso_0_1538246641.html
p1
aVhttps://www.clarin.com/politica/Denuncias-negociados-sombra-Jaime-Stiuso_0_1538246641.html
p2
aVhttps://www.clarin.com/politica/gobierno-apuesta-acordar-buitres-desierto_0_1538246620.html
p3
aVhttps://www.clarin.com/politica/Coparticipacion-Gobierno-negocia-provincia_0_1538246648.html
p4
aVhttps://www.clarin.com/opinion/Modas-incomodan_0_1538246616.html
p5
aVhttps://www.clarin.com/politica/Nestor-Roncaglia-Federal-asumiria-martes_0_1538246635.html
p6
aVhttps://www.clarin.com/politica/Nestor-Roncaglia-Federal-asumiria-martes_0_1538246635.html
p7
aVhttps://www.clarin.com/ieco/economia/Quintana-desplazo-Lopetegui-coordinador-Transporte_0_1538246579.html
p8
aVhttps://www.clarin.com/ieco/economia/Quintana-desplazo-Lopetegui-coordinador-Transporte_0_1538246579.html
p9
aVhttps://www.clarin.com/ieco/economia/Whirlpool-espera-repunte-consumo_0_1538246598.html
p10
aVhttps://www.clarin.com/ieco/economia/Whirlpool-espera-repunte-consumo_0_1538246598.html
p11
aVhttps://www.clarin.com/politica/Cristobal-Lopez-distancia-medios-despejar_0_1538246704.html
p12
aVhttps://www.clarin.com/politica/Escandalo-AGN-revisaran-anuncio-Echegaray_0_1538246701.html
p13
aVhttps://www.clarin.com/politica/Escandalo-AGN-revisaran-anuncio-Echegaray_0_1538246701.html
p14
a.