(lp0
S'https://www.clarin.com/ieco/economia/Fondos-negociacion-Nueva-York-Congreso_0_1527447370.html'
p1
aS'https://www.clarin.com/ieco/economia/lider-pragmatico-ahora-salpicado-escandalo_0_1527447417.html'
p2
aS'https://www.clarin.com/politica/negociacion-salarial-Baradel-denuncio-amenazas_0_1527447353.html'
p3
aS'https://www.clarin.com/politica/Macri-anuncia-proyecto-modernizacion_0_1527447360.html'
p4
aS'https://www.clarin.com/politica/provincias-mas-grandes-sin-cerrar-acuerdo-docente-paritarias-ciclo-lectivo-2016_0_1527447272.html'
p5
aS'https://www.clarin.com/politica/Politicos-rolingas-Agente-criollo_0_1527447345.html'
p6
aS'https://www.clarin.com/ieco/economia/represas-riesgo_ambiental_0_1526847753.html'
p7
aS'https://www.clarin.com/ieco/economia/jubilados-ganancias_0_1526847752.html'
p8
aS'https://www.clarin.com/politica/Protestan-Patricia-Bullrich-protocolo-piquetes_0_1527447366.html'
p9
aS'https://www.clarin.com/ieco/economia/fondos-virus_inteligente_0_1526847749.html'
p10
a.