(lp0
Vhttps://www.clarin.com/politica/Firmenich-gobierno-queria-controlar-decia_0_1548445335.html
p1
aVhttps://www.clarin.com/politica/Firmenich-gobierno-queria-controlar-decia_0_1548445335.html
p2
aVhttps://www.clarin.com/ieco/Fondos-formalizan-contratacion-estudio-abogados_0_1548445333.html
p3
aVhttps://www.clarin.com/sociedad/adolescente-secuestrada-anos-logro-escaparse_0_1548445304.html
p4
aVhttps://www.clarin.com/sociedad/adolescente-secuestrada-anos-logro-escaparse_0_1548445304.html
p5
aVhttps://www.clarin.com/sociedad/Chau-contrasenas-reemplazaran-latidos-corazon_0_1548445329.html
p6
aVhttps://www.clarin.com/sociedad/Chau-contrasenas-reemplazaran-latidos-corazon_0_1548445329.html
p7
aVhttps://www.clarin.com/ieco/economia/Santander-Rio-invertira-US-Argentina_0_1547845571.html
p8
aVhttps://www.clarin.com/ieco/economia/Santander-Rio-invertira-US-Argentina_0_1547845571.html
p9
aVhttps://www.clarin.com/ieco/economia/Guelar-programa-ambicioso-inversiones-Argentina_0_1548445320.html
p10
aVhttps://www.clarin.com/ieco/Argentina-aprobo-transgenicos-mayoria-siembran_0_1548445314.html
p11
aVhttps://www.clarin.com/ieco/Argentina-aprobo-transgenicos-mayoria-siembran_0_1548445314.html
p12
aVhttps://www.clarin.com/politica/socio-Cristobal-Lopez-caballos-sangre_0_1546045663.html
p13
aVhttps://www.clarin.com/politica/socio-Cristobal-Lopez-caballos-sangre_0_1546045663.html
p14
aVhttps://www.clarin.com/ieco/Fundacion-Exportar-promocion-inversiones-comercio_0_1548445310.html
p15
a.