(lp0
S'https://www.clarin.com/politica/represion-anos-prision-Enrique-Mathov_0_1582041935.html'
p1
aS'https://www.clarin.com/sociedad/Crece-demanda-antigripal-aconsejan-aplicarla_0_1582041955.html'
p2
aS'https://www.clarin.com/politica/Postergan-indagatoria-Boudou-falsos-DNI_0_1582041942.html'
p3
aS'https://www.clarin.com/sociedad/anos-hace-dias-desaparecida_0_1582041938.html'
p4
a.