(lp0
Vhttps://www.clarin.com/sociedad/Quiero-chicas-coparon-shopping-casting_0_1557444631.html
p1
aVhttps://www.clarin.com/sociedad/Quiero-chicas-coparon-shopping-casting_0_1557444631.html
p2
aVhttps://www.clarin.com/politica/oposicion-apura-ley-emergencia-ocupacional_0_1557444711.html
p3
aVhttps://www.clarin.com/sociedad/pueblo-cordobes-parte-lado-agua_0_1557444707.html
p4
aVhttps://www.clarin.com/sociedad/Provincia-anos-subio-mortalidad-materna_0_1557444682.html
p5
aVhttps://www.clarin.com/politica/CGT-visitan-Macri-reclamos-despidos_0_1557444725.html
p6
aVhttps://www.clarin.com/politica/CGT-visitan-Macri-reclamos-despidos_0_1557444725.html
p7
aVhttps://www.clarin.com/sociedad/sueno-queremos-acompanar_0_1557444650.html
p8
aVhttps://www.clarin.com/sociedad/sueno-queremos-acompanar_0_1557444650.html
p9
aVhttps://www.clarin.com/politica/Camara-confirmo-Bonadio-indaga-Cristina_0_1557444647.html
p10
aVhttps://www.clarin.com/politica/Camara-confirmo-Bonadio-indaga-Cristina_0_1557444647.html
p11
aVhttps://www.clarin.com/sociedad/Generacion-creen-expertos-computacion-saben_0_1557444691.html
p12
a.