(lp0
S'https://www.clarin.com/ieco/economia/hogares-aparatos-conectarse-Web_0_1618638222.html'
p1
aS'https://www.clarin.com/sociedad/evento-comics-mundo-miles-fanaticos_0_1618638221.html'
p2
aS'https://www.clarin.com/sociedad/evento-comics-mundo-miles-fanaticos_0_1618638221.html'
p3
aS'https://www.clarin.com/politica/Luis-DElia-difundio-fotos-Estonia_0_1618638217.html'
p4
aS'https://www.clarin.com/politica/Luis-DElia-difundio-fotos-Estonia_0_1618638217.html'
p5
aS'https://www.clarin.com/politica/kirchnerismo-Cambiemos-Jose-Lopez-Parlasur_0_1618638216.html'
p6
aS'https://www.clarin.com/politica/kirchnerismo-Cambiemos-Jose-Lopez-Parlasur_0_1618638216.html'
p7
aS'https://www.clarin.com/sociedad/efecto-Charlotte-lolas-panza-chata_0_1618638192.html'
p8
aS'https://www.clarin.com/sociedad/efecto-Charlotte-lolas-panza-chata_0_1618638192.html'
p9
aS'https://www.clarin.com/politica/agresiva-revista-Miami-dedico-Flor_0_1618638212.html'
p10
aS'https://www.clarin.com/politica/agresiva-revista-Miami-dedico-Flor_0_1618638212.html'
p11
aS'https://www.clarin.com/politica/Gobierno-vuelve-convocar-gobernadores_0_1618638210.html'
p12
aS'https://www.clarin.com/politica/Gobierno-vuelve-convocar-gobernadores_0_1618638210.html'
p13
a.