(lp0
Vhttps://www.clarin.com/politica/Macri-Vicente-Lopez-refuerzan-seguridad_0_1633036730.html
p1
aVhttps://www.clarin.com/politica/Macri-Vicente-Lopez-refuerzan-seguridad_0_1633036730.html
p2
aVhttps://www.clarin.com/politica/Kirchner-Baez-disenaron-enriquecerse-publica_0_1633036727.html
p3
aVhttps://www.clarin.com/politica/Kirchner-Baez-disenaron-enriquecerse-publica_0_1633036727.html
p4
aVhttps://www.clarin.com/ieco/subsidios-energeticos-aumentaron-ultima-decada_0_1633036726.html
p5
aVhttps://www.clarin.com/ieco/subsidios-energeticos-aumentaron-ultima-decada_0_1633036726.html
p6
aVhttps://www.clarin.com/sociedad/Arma-cubo-magico-rapido-Bolt_0_1633036723.html
p7
aVhttps://www.clarin.com/sociedad/Arma-cubo-magico-rapido-Bolt_0_1633036723.html
p8
aVhttps://www.clarin.com/politica/convencido-Nisman-decision-quitarse-Moldes_0_1633036720.html
p9
aVhttps://www.clarin.com/politica/convencido-Nisman-decision-quitarse-Moldes_0_1633036720.html
p10
a.