(lp0
Vhttps://www.clarin.com/politica/diputado-dijo-pidieron-terreno-pesos_0_1587441310.html
p1
aVhttps://www.clarin.com/ieco/economia/Pension-universal-vejez-podran-solicitarla_0_1587441309.html
p2
aVhttps://www.clarin.com/ieco/economia/Pension-universal-vejez-podran-solicitarla_0_1587441309.html
p3
aVhttps://www.clarin.com/politica/fiscal-Lazaro-Baez-charla-cordial_0_1587441306.html
p4
aVhttps://www.clarin.com/politica/fiscal-Lazaro-Baez-charla-cordial_0_1587441306.html
p5
aVhttps://www.clarin.com/politica/polemica-Macri-Bahamas-The-Times_0_1587441307.html
p6
aVhttps://www.clarin.com/politica/polemica-Macri-Bahamas-The-Times_0_1587441307.html
p7
aVhttps://www.clarin.com/sociedad/causa-Time-Warp_0_1587441295.html
p8
aVhttps://www.clarin.com/sociedad/causa-Time-Warp_0_1587441295.html
p9
aVhttps://www.clarin.com/sociedad/Cormillot-gobierno-nacional-luchar-obesidad_0_1587441304.html
p10
aVhttps://www.clarin.com/sociedad/Cormillot-gobierno-nacional-luchar-obesidad_0_1587441304.html
p11
a.