(lp0
Vhttps://www.clarin.com/politica/Walter_Festa-Jose_Ottavis-Fernando_Espinoza-PJ_bonaerense_0_1511848932.html
p1
aVhttps://www.clarin.com/politica/Walter_Festa-Jose_Ottavis-Fernando_Espinoza-PJ_bonaerense_0_1511848932.html
p2
aVhttps://www.clarin.com/politica/gobernadores-Rosada-Gobierno-millones-provincias_0_1511848922.html
p3
aVhttps://www.clarin.com/politica/gobernadores-Rosada-Gobierno-millones-provincias_0_1511848922.html
p4
aVhttps://www.clarin.com/politica/Gobierno-promete-provincias-piden-coparticipacion_0_1511848902.html
p5
aVhttps://www.clarin.com/politica/corrupcion-cristina_kirchner-transparencia_internacional_0_1511848838.html
p6
aVhttps://www.clarin.com/politica/corrupcion-cristina_kirchner-transparencia_internacional_0_1511848838.html
p7
aVhttps://www.clarin.com/politica/caida-muro-Teheran_0_1511848835.html
p8
aVhttps://www.clarin.com/politica/mal-enfrentamos-dengue_0_1511848833.html
p9
aVhttps://www.clarin.com/opinion/inseguridad-narcotrafico-emergencia_de_seguridad_publica_0_1511848828.html
p10
aVhttps://www.clarin.com/opinion/inseguridad-narcotrafico-emergencia_de_seguridad_publica_0_1511848828.html
p11
a.