(lp0
Vhttps://www.clarin.com/sociedad/raices-esfuman_0_1534047084.html
p1
aVhttps://www.clarin.com/sociedad/avion-pasajeros-choca-drone_0_1534047130.html
p2
aVhttps://www.clarin.com/politica/pago-buitres-abre-grietas-peronismo_0_1534646611.html
p3
aVhttps://www.clarin.com/politica/DElia-Esteche-afirman-miedo-presos_0_1534646597.html
p4
aVhttps://www.clarin.com/politica/Oyarbide-sobreseyo-Echegaray-peligrar-Baez_0_1534047161.html
p5
aVhttps://www.clarin.com/politica/Stiuso-Anibal-citaron-Scioli-SIDE_0_1534047155.html
p6
aVhttps://www.clarin.com/politica/Stiuso-Anibal-citaron-Scioli-SIDE_0_1534047155.html
p7
a.