(lp0
Vhttps://www.clarin.com/politica/Indice-optimismo-numeros-Gobierno-Macri_0_1665433530.html
p1
aVhttps://www.clarin.com/politica/Indice-optimismo-numeros-Gobierno-Macri_0_1665433530.html
p2
aVhttps://www.clarin.com/sociedad/Desmienten-mensaje-viral-matanza-perritos_0_1665433531.html
p3
aVhttps://www.clarin.com/sociedad/Desmienten-mensaje-viral-matanza-perritos_0_1665433531.html
p4
aVhttps://www.clarin.com/politica/Sergio-Goycochea-jugar-politica-Zarate_0_1665433522.html
p5
aVhttps://www.clarin.com/politica/Sergio-Goycochea-jugar-politica-Zarate_0_1665433522.html
p6
aVhttps://www.clarin.com/politica/Barrionuevo-ideal-Presidente-decreto-bono_0_1665433518.html
p7
aVhttps://www.clarin.com/politica/Barrionuevo-ideal-Presidente-decreto-bono_0_1665433518.html
p8
aVhttps://www.clarin.com/politica/Macri-sumo-ahijado-dirigente-AMIA_0_1665433513.html
p9
aVhttps://www.clarin.com/politica/Macri-sumo-ahijado-dirigente-AMIA_0_1665433513.html
p10
a.