(lp0
Vhttps://www.clarin.com/ieco/Salario_Familiar-Anses-Basavilbaso-Ganancias_0_1510648946.html
p1
aVhttps://www.clarin.com/ieco/Galuccio-YPF-Chevron-Sueldo-Folgar_0_1510648944.html
p2
aVhttps://www.clarin.com/ieco/Galuccio-YPF-Chevron-Sueldo-Folgar_0_1510648944.html
p3
aVhttps://www.clarin.com/sociedad/Accion-aventura-viajes-espaciales-videojuegos_0_1510049409.html
p4
aVhttps://www.clarin.com/sociedad/Accion-aventura-viajes-espaciales-videojuegos_0_1510049409.html
p5
aVhttps://www.clarin.com/sociedad/Mar-Plata-kayacs-guardavidas-quejan_0_1510049401.html
p6
aVhttps://www.clarin.com/sociedad/decena-aludes-dejo-varadas-personas_0_1510049412.html
p7
aVhttps://www.clarin.com/sociedad/decena-aludes-dejo-varadas-personas_0_1510049412.html
p8
aVhttps://www.clarin.com/politica/La_Matanza-Debora_Giorgi-Roberto_Feletti-Alejandro_Collia-Veronica_Magario_0_1510648940.html
p9
aVhttps://www.clarin.com/politica/La_Matanza-Debora_Giorgi-Roberto_Feletti-Alejandro_Collia-Veronica_Magario_0_1510648940.html
p10
aVhttps://www.clarin.com/politica/PJ-interna-Juan_Manuel_Urtubey-Jose_Luis_Gioja-Jorge_Capitanich_0_1510648939.html
p11
aVhttps://www.clarin.com/politica/Universidad-Febrero-detalla-actividad-cultural_0_1510648934.html
p12
aVhttps://www.clarin.com/politica/aclaren-oscurece_0_1510648929.html
p13
aVhttps://www.clarin.com/politica/Morales-impulsara-narcotrafico-involucran-Sala_0_1510049411.html
p14
aVhttps://www.clarin.com/opinion/Jujuy-quiere-dejar-Milagro-Sala_0_1510648925.html
p15
aVhttps://www.clarin.com/ieco/economia/Ganancias-idilio-clase-media_0_1510648923.html
p16
a.