(lp0
Vhttps://www.clarin.com/opinion/mirando-jueces_0_1571842816.html
p1
aVhttps://www.clarin.com/opinion/eficaz-mecanismo-cultural_0_1571842815.html
p2
aVhttps://www.clarin.com/opinion/encubrian-Baez-AFIP-Echegaray_0_1571243022.html
p3
aVhttps://www.clarin.com/opinion/Uber-Metrobus-futuro_0_1571243016.html
p4
aVhttps://www.clarin.com/opinion/cultura-viejo-reflejo-seguir-argentinos_0_1571242978.html
p5
aVhttps://www.clarin.com/politica/Reves-Cristobal-Lopez-Oil-Chubut_0_1571243027.html
p6
a.