(lp0
S'https://www.clarin.com/politica/Jaunarena-sentido-FFAA-lucha-antinarco_0_1542446183.html'
p1
aS'https://www.clarin.com/sociedad/peligroso-olvidar-aventrura_0_1542446171.html'
p2
aS'https://www.clarin.com/sociedad/argentina-plantar-bandera-Polo-Norte_0_1541846072.html'
p3
aS'https://www.clarin.com/politica/Macri-Obama-desclasificar-documentos-AMIA_0_1542446225.html'
p4
a.