(lp0
S'https://www.clarin.com/sociedad/Chubut-hospitales-garanticen-marihuana-medicinal_0_1655834490.html'
p1
aS'https://www.clarin.com/sociedad/Chubut-hospitales-garanticen-marihuana-medicinal_0_1655834490.html'
p2
aS'https://www.clarin.com/sociedad/Perlan-II-Calafate-intentara-estratosfera_0_1655834488.html'
p3
aS'https://www.clarin.com/sociedad/Perlan-II-Calafate-intentara-estratosfera_0_1655834488.html'
p4
aS'https://www.clarin.com/sociedad/Video-piton-gustan-selfies-claro_0_1655834473.html'
p5
aS'https://www.clarin.com/sociedad/Video-piton-gustan-selfies-claro_0_1655834473.html'
p6
a.