(lp0
S'https://www.clarin.com/politica/Impulsan-acuerdo-vecinos-division-Matanza_0_1649835230.html'
p1
aS'https://www.clarin.com/ieco/Duncan-Argentina-Reino-Unido-negocios_0_1649835220.html'
p2
aS'https://www.clarin.com/sociedad/Motoqueras-compran-motos-venden-pais_0_1649835232.html'
p3
aS'https://www.clarin.com/sociedad/Instagram-copia-redes-popular_0_1649835228.html'
p4
a.