(lp0
Vhttps://www.clarin.com/politica/Perez-Corradi-campana-Cristina-contando_0_1606639336.html
p1
aVhttps://www.clarin.com/politica/Perez-Corradi-campana-Cristina-contando_0_1606639336.html
p2
aVhttps://www.clarin.com/politica/Macri-considera-grande-jubilados-estafa_0_1606639331.html
p3
aVhttps://www.clarin.com/politica/Macri-considera-grande-jubilados-estafa_0_1606639331.html
p4
aVhttps://www.clarin.com/politica/Norberto-Oyarbide-Cristina-investigar-cosas_0_1606639330.html
p5
aVhttps://www.clarin.com/politica/Norberto-Oyarbide-Cristina-investigar-cosas_0_1606639330.html
p6
aVhttps://www.clarin.com/politica/Lazaro-Baez-Ezeiza-demasiada-extrana_0_1606639329.html
p7
aVhttps://www.clarin.com/politica/Lazaro-Baez-Ezeiza-demasiada-extrana_0_1606639329.html
p8
aVhttps://www.clarin.com/politica/Papa-Francisco-problema-Macri-persona_0_1606639327.html
p9
aVhttps://www.clarin.com/politica/Papa-Francisco-problema-Macri-persona_0_1606639327.html
p10
aVhttps://www.clarin.com/sociedad/increible-historia-Basilica-Lujan-silencio_0_1606039505.html
p11
aVhttps://www.clarin.com/sociedad/increible-historia-Basilica-Lujan-silencio_0_1606039505.html
p12
aVhttps://www.clarin.com/politica/ambulancia-Matias-Terron_0_1606639325.html
p13
aVhttps://www.clarin.com/politica/ambulancia-Matias-Terron_0_1606639325.html
p14
a.