(lp0
S'https://www.clarin.com/politica/grieta-Gobierno-ilustres-internacionales-testimonio_0_1661833816.html'
p1
aS'https://www.clarin.com/politica/Contrapunto-empresarios-gremialistas-bono-ano_0_1661833815.html'
p2
aS'https://www.clarin.com/politica/Michetti-Stolbizer-Canada-hablaron-Carrio_0_1661833818.html'
p3
aS'https://www.clarin.com/politica/Llego-Temer-reune-Macri-Olivos_0_1661833822.html'
p4
aS'https://www.clarin.com/sociedad/Juzgan-medicos-muerte-nene_0_1661833819.html'
p5
aS'https://www.clarin.com/sociedad/Grooming-detienen-hombre-acosar-chica_0_1661833812.html'
p6
aS'https://www.clarin.com/sociedad/autofagia-sistema-reciclaje-celular_0_1661833813.html'
p7
aS'https://www.clarin.com/sociedad/Nobel-Medicina-Yoshinori-Ohsumi-descubrir_0_1661833805.html'
p8
a.