(lp0
Vhttps://www.clarin.com/ieco/Gobierno-empresarios-pensando-adelantar-despidos_0_1567643286.html
p1
aVhttps://www.clarin.com/ieco/Gobierno-empresarios-pensando-adelantar-despidos_0_1567643286.html
p2
aVhttps://www.clarin.com/sociedad/emocionante-reaccion-glaucoma-madre-primera_0_1567643275.html
p3
aVhttps://www.clarin.com/sociedad/emocionante-reaccion-glaucoma-madre-primera_0_1567643275.html
p4
aVhttps://www.clarin.com/sociedad/detras-fiestas-electronicas-contado-conoce_0_1562843870.html
p5
aVhttps://www.clarin.com/sociedad/detras-fiestas-electronicas-contado-conoce_0_1562843870.html
p6
aVhttps://www.clarin.com/politica/Allanaron-Austral-Construcciones-Lazaro-Baez_0_1567643285.html
p7
aVhttps://www.clarin.com/politica/Allanaron-Austral-Construcciones-Lazaro-Baez_0_1567643285.html
p8
aVhttps://www.clarin.com/politica/Macri-Bajar-inflacion-generar-inversiones_0_1567643284.html
p9
aVhttps://www.clarin.com/politica/Macri-Bajar-inflacion-generar-inversiones_0_1567643284.html
p10
aVhttps://www.clarin.com/ieco/Ley-antidespidos-dicen-proyectos_0_1567643282.html
p11
aVhttps://www.clarin.com/sociedad/Bahia-Blanca-marcha-aparicion-falta_0_1567643273.html
p12
aVhttps://www.clarin.com/sociedad/Bahia-Blanca-marcha-aparicion-falta_0_1567643273.html
p13
aVhttps://www.clarin.com/sociedad/Prohiben-fiestas-Ciudad-Buenos-Aires_0_1567643271.html
p14
aVhttps://www.clarin.com/sociedad/Prohiben-fiestas-Ciudad-Buenos-Aires_0_1567643271.html
p15
a.