(lp0
S'https://www.clarin.com/sociedad/Misterio-supuesta-herencia-perdida-millones_0_1681032001.html'
p1
aS'https://www.clarin.com/sociedad/Misterio-supuesta-herencia-perdida-millones_0_1681032001.html'
p2
aS'https://www.clarin.com/ieco/Blanqueo-hablan-entraran-US-millones_0_1681031996.html'
p3
aS'https://www.clarin.com/ieco/Blanqueo-hablan-entraran-US-millones_0_1681031996.html'
p4
aS'https://www.clarin.com/politica/Fuerte-Gran-Bretana-inversiones-Argentina_0_1681031969.html'
p5
aS'https://www.clarin.com/politica/Fuerte-Gran-Bretana-inversiones-Argentina_0_1681031969.html'
p6
aS'https://www.clarin.com/sociedad/Mendoza-Justicia-considero-derechos-traslado_0_1681031980.html'
p7
aS'https://www.clarin.com/sociedad/Mendoza-Justicia-considero-derechos-traslado_0_1681031980.html'
p8
a.