(lp0
S'https://www.clarin.com/politica/Nacion-cede-mil-millones-provincias_0_1619838173.html'
p1
aS'https://www.clarin.com/politica/regalos-Negro-Tata-Aduana-coimas_0_1619238144.html'
p2
aS'https://www.clarin.com/politica/Ahora-Justicia-Legitima-presiones-macristas_0_1619838142.html'
p3
aS'https://www.clarin.com/politica/Ahora-Justicia-Legitima-presiones-macristas_0_1619838142.html'
p4
aS'https://www.clarin.com/sociedad/Uruguay-provocaria-vientos-Buenos-Aires_0_1620437948.html'
p5
aS'https://www.clarin.com/sociedad/Uruguay-provocaria-vientos-Buenos-Aires_0_1620437948.html'
p6
aS'https://www.clarin.com/politica/Gobierno-busca-Gils-Carbo-Oyarbide_0_1619838143.html'
p7
aS'https://www.clarin.com/politica/Gobierno-busca-Gils-Carbo-Oyarbide_0_1619838143.html'
p8
aS'https://www.clarin.com/opinion/Philip-Morris-Uruguay-gano-salud_0_1619838115.html'
p9
aS'https://www.clarin.com/opinion/Brexit-Califato-arcadias-regresivas_0_1619838134.html'
p10
aS'https://www.clarin.com/opinion/Brexit-Califato-arcadias-regresivas_0_1619838134.html'
p11
aS'https://www.clarin.com/opinion/busca-lider-ONU-firme-pacificador_0_1619838114.html'
p12
a.