(lp0
Vhttps://www.clarin.com/sociedad/particulares-looks-Ottavis-xipolitakis_0_1500450205.html
p1
aVhttps://www.clarin.com/sociedad/particulares-looks-Ottavis-xipolitakis_0_1500450205.html
p2
aVhttps://www.clarin.com/sociedad/Gaston-guardavidas-sindrome-Down-Cordoba_0_1500450175.html
p3
aVhttps://www.clarin.com/sociedad/Gaston-guardavidas-sindrome-Down-Cordoba_0_1500450175.html
p4
aVhttps://www.clarin.com/politica/Malcorra-encuentro-Macri-Tabare-vuelta-naturalidad_0_1500450204.html
p5
aVhttps://www.clarin.com/politica/Malcorra-encuentro-Macri-Tabare-vuelta-naturalidad_0_1500450204.html
p6
aVhttps://www.clarin.com/sociedad/Lamborghini-termino-convertido-submarino_0_1500450135.html
p7
aVhttps://www.clarin.com/sociedad/Lamborghini-termino-convertido-submarino_0_1500450135.html
p8
aVhttps://www.clarin.com/sociedad/muerte-nene-cuatriciclo-Carilo-chico-pinamar-autopsia-aplastado_0_1500450179.html
p9
aVhttps://www.clarin.com/sociedad/muerte-nene-cuatriciclo-Carilo-chico-pinamar-autopsia-aplastado_0_1500450179.html
p10
aVhttps://www.clarin.com/sociedad/Tristeza-flogger-Fotolog-dejo-existir_0_1500450174.html
p11
aVhttps://www.clarin.com/sociedad/Tristeza-flogger-Fotolog-dejo-existir_0_1500450174.html
p12
a.