(lp0
S'https://www.clarin.com/sociedad/titular-FUBA-contesto-Lanata-ortografia_0_1670233026.html'
p1
aS'https://www.clarin.com/politica/documento-grupo-anti-Macri-entregara-Papa_0_1670233019.html'
p2
aS'https://www.clarin.com/politica/Madonna-Quiroz-CGT-San-Vicente_0_1669633175.html'
p3
aS'https://www.clarin.com/sociedad/Mueren-pilotos-escalofriante-accidente-lancha_0_1670233027.html'
p4
aS'https://www.clarin.com/sociedad/Murio-panda-cautiverio-viejo-mundo_0_1670233018.html'
p5
aS'https://www.clarin.com/ieco/meses-sumaron-pobres-Ciudad_0_1670233023.html'
p6
a.