(lp0
Vhttps://www.clarin.com/politica/debe-bancar-militancia_0_1501649954.html
p1
aVhttps://www.clarin.com/politica/debe-bancar-militancia_0_1501649954.html
p2
aVhttps://www.clarin.com/politica/Investigan-llamadas-descubrir-complices_0_1501649889.html
p3
aVhttps://www.clarin.com/politica/Investigan-llamadas-descubrir-complices_0_1501649889.html
p4
aVhttps://www.clarin.com/sociedad/Chile-argentinos-verano-turismo-compras-colas-aduana_0_1501649875.html
p5
aVhttps://www.clarin.com/sociedad/Fiesta-Mar_del_Plata-jovenes-playa-boliches_0_1501649874.html
p6
aVhttps://www.clarin.com/sociedad/Fiesta-Mar_del_Plata-jovenes-playa-boliches_0_1501649874.html
p7
aVhttps://www.clarin.com/sociedad/Pinamar-verano-fiesta-jovenes_0_1501649873.html
p8
aVhttps://www.clarin.com/sociedad/Pinamar-verano-fiesta-jovenes_0_1501649873.html
p9
aVhttps://www.clarin.com/sociedad/Brasil-Floria-fiestas-musica-playa_0_1501649871.html
p10
aVhttps://www.clarin.com/sociedad/Brasil-Floria-fiestas-musica-playa_0_1501649871.html
p11
aVhttps://www.clarin.com/sociedad/Pampita-famosos-verano-Punta_del_Este_0_1501649870.html
p12
aVhttps://www.clarin.com/sociedad/Pampita-famosos-verano-Punta_del_Este_0_1501649870.html
p13
a.