(lp0
Vhttps://www.clarin.com/politica/Alfonso-Prat-Gay-tomaron-semestre-cumplimos_0_1650435171.html
p1
aVhttps://www.clarin.com/politica/Alfonso-Prat-Gay-tomaron-semestre-cumplimos_0_1650435171.html
p2
aVhttps://www.clarin.com/sociedad/escuela-puerta-premian-docentes-alumnos_0_1650435168.html
p3
aVhttps://www.clarin.com/sociedad/escuela-puerta-premian-docentes-alumnos_0_1650435168.html
p4
aVhttps://www.clarin.com/sociedad/Argentina-paises-sufren-desercion_0_1650435167.html
p5
aVhttps://www.clarin.com/politica/Gobierno-CCK-piensa-freno-oposicion_0_1650435165.html
p6
aVhttps://www.clarin.com/politica/Gobierno-CCK-piensa-freno-oposicion_0_1650435165.html
p7
aVhttps://www.clarin.com/politica/Iglesia-pidio-CGT-agotar-dialogo_0_1650435163.html
p8
aVhttps://www.clarin.com/politica/Iglesia-pidio-CGT-agotar-dialogo_0_1650435163.html
p9
aVhttps://www.clarin.com/politica/Marcos-Pena-pidio-empresarios-inviertan_0_1650435158.html
p10
aVhttps://www.clarin.com/politica/Marcos-Pena-pidio-empresarios-inviertan_0_1650435158.html
p11
a.