(lp0
Vhttps://www.clarin.com/sociedad/honor-hombres-Julio_0_1610239112.html
p1
aVhttps://www.clarin.com/sociedad/veteranos-Malvinas-emocionaron-desfile-Bicentenario_0_1610239109.html
p2
aVhttps://www.clarin.com/sociedad/veteranos-Malvinas-emocionaron-desfile-Bicentenario_0_1610239109.html
p3
aVhttps://www.clarin.com/sociedad/Lorenzo-abanderado-descalzo-escuela-zapatillas_0_1610239103.html
p4
aVhttps://www.clarin.com/sociedad/Lorenzo-abanderado-descalzo-escuela-zapatillas_0_1610239103.html
p5
aVhttps://www.clarin.com/ieco/economia/transportadoras-salieron-defender-subas_0_1610239102.html
p6
aVhttps://www.clarin.com/ieco/economia/transportadoras-salieron-defender-subas_0_1610239102.html
p7
aVhttps://www.clarin.com/sociedad/Descubren-planeta-amaneceres-atardeceres-dia_0_1610239098.html
p8
aVhttps://www.clarin.com/sociedad/Descubren-planeta-amaneceres-atardeceres-dia_0_1610239098.html
p9
aVhttps://www.clarin.com/politica/Francisco-Macri-senales-recomponer-relacion_0_1610239097.html
p10
aVhttps://www.clarin.com/politica/Francisco-Macri-senales-recomponer-relacion_0_1610239097.html
p11
aVhttps://www.clarin.com/politica/Bicentenario-Macri-defendio-herencia-corrupcion_0_1610239093.html
p12
aVhttps://www.clarin.com/politica/Bicentenario-Macri-defendio-herencia-corrupcion_0_1610239093.html
p13
a.