(lp0
Vhttps://www.clarin.com/politica/Pena-voceros-respondio-criticas-subestimacion_0_1655834500.html
p1
aVhttps://www.clarin.com/politica/Pena-voceros-respondio-criticas-subestimacion_0_1655834500.html
p2
aVhttps://www.clarin.com/politica/Macri-foto-Cardoso-visita-Temer_0_1655834497.html
p3
aVhttps://www.clarin.com/politica/Macri-foto-Cardoso-visita-Temer_0_1655834497.html
p4
aVhttps://www.clarin.com/sociedad/zapatillas-Volver-Futuro-salen-noviembre_0_1655834474.html
p5
aVhttps://www.clarin.com/sociedad/zapatillas-Volver-Futuro-salen-noviembre_0_1655834474.html
p6
aVhttps://www.clarin.com/ieco/Marriott-completo-compra-propietario-Sheraton_0_1655834491.html
p7
aVhttps://www.clarin.com/ieco/Marriott-completo-compra-propietario-Sheraton_0_1655834491.html
p8
a.