(lp0
Vhttps://www.clarin.com/sociedad/elefante-rechazado-destrozos-panico-conductores_0_1523247959.html
p1
aVhttps://www.clarin.com/sociedad/elefante-rechazado-destrozos-panico-conductores_0_1523247959.html
p2
aVhttps://www.clarin.com/sociedad/Nombran-gato-controlador-plagas-senior_0_1523247953.html
p3
aVhttps://www.clarin.com/sociedad/Nombran-gato-controlador-plagas-senior_0_1523247953.html
p4
aVhttps://www.clarin.com/ieco/economia/Bolsas-mundo-recuperan-bajas_0_1523247904.html
p5
aVhttps://www.clarin.com/politica/Pablo_Tonelli-Consejo_de_la_Magistratura_0_1523247942.html
p6
aVhttps://www.clarin.com/politica/Pablo_Tonelli-Consejo_de_la_Magistratura_0_1523247942.html
p7
a.