(lp0
Vhttps://www.clarin.com/sociedad/Internaron-urgencia-Gasalla_0_1535846551.html
p1
aVhttps://www.clarin.com/sociedad/Internaron-urgencia-Gasalla_0_1535846551.html
p2
aVhttps://www.clarin.com/ieco/economia/Volwswagen-justifico-motores-cumplir-objetivos_0_1535846542.html
p3
aVhttps://www.clarin.com/ieco/economia/Aseguran-suba-canasta-basica-supera_0_1535846538.html
p4
aVhttps://www.clarin.com/politica/Nisman-Lagomarsino-causa-fuero-federal_0_1535846536.html
p5
aVhttps://www.clarin.com/politica/Nisman-Lagomarsino-causa-fuero-federal_0_1535846536.html
p6
aVhttps://www.clarin.com/sociedad/china-fallece-ascensor-quedo-encerrada_0_1535846534.html
p7
aVhttps://www.clarin.com/sociedad/china-fallece-ascensor-quedo-encerrada_0_1535846534.html
p8
aVhttps://www.clarin.com/sociedad/fantasma-nueva-especie-descubierta-Pacifico_0_1535846528.html
p9
aVhttps://www.clarin.com/sociedad/fantasma-nueva-especie-descubierta-Pacifico_0_1535846528.html
p10
a.