(lp0
S'https://www.clarin.com/politica/Monsenor-Casaretto-Bonafini-Papa-Argentina_0_1585641500.html'
p1
aS'https://www.clarin.com/politica/Monsenor-Casaretto-Bonafini-Papa-Argentina_0_1585641500.html'
p2
aS'https://www.clarin.com/politica/Rebelion-CTA-Micheli_0_1585641499.html'
p3
aS'https://www.clarin.com/politica/Rebelion-CTA-Micheli_0_1585641499.html'
p4
aS'https://www.clarin.com/ieco/economia/Lanzan-oficial-MBA-modalidad-distancia_0_1585641463.html'
p5
aS'https://www.clarin.com/ieco/economia/Lanzan-oficial-MBA-modalidad-distancia_0_1585641463.html'
p6
aS'https://www.clarin.com/politica/Indice-expectativas-economicas-mantienen-politicas_0_1585641496.html'
p7
aS'https://www.clarin.com/politica/Indice-expectativas-economicas-mantienen-politicas_0_1585641496.html'
p8
aS'https://www.clarin.com/politica/Mirtha-perlitas-almuerzo-Macri-Rosada_0_1585641495.html'
p9
aS'https://www.clarin.com/politica/Mirtha-perlitas-almuerzo-Macri-Rosada_0_1585641495.html'
p10
aS'https://www.clarin.com/sociedad/Quemaron-casa-acusado-crimen-Micaela_0_1585641493.html'
p11
aS'https://www.clarin.com/sociedad/Quemaron-casa-acusado-crimen-Micaela_0_1585641493.html'
p12
aS'https://www.clarin.com/politica/Duran-Barba-funcionario-Gobierno-vocero_0_1585641450.html'
p13
aS'https://www.clarin.com/politica/Duran-Barba-funcionario-Gobierno-vocero_0_1585641450.html'
p14
aS'https://www.clarin.com/sociedad/Detuvieron-automovilista-atropello-mujer-huyo_0_1585641449.html'
p15
aS'https://www.clarin.com/sociedad/Detuvieron-automovilista-atropello-mujer-huyo_0_1585641449.html'
p16
aS'https://www.clarin.com/politica/intendente-Avellaneda-edificio-Cristina-millones_0_1585641448.html'
p17
aS'https://www.clarin.com/politica/intendente-Avellaneda-edificio-Cristina-millones_0_1585641448.html'
p18
a.