(lp0
Vhttps://www.clarin.com/politica/Cristina-pension-presidenta-bloquearon-cuenta_0_1616238467.html
p1
aVhttps://www.clarin.com/politica/Cristina-pension-presidenta-bloquearon-cuenta_0_1616238467.html
p2
aVhttps://www.clarin.com/politica/arzobispado-Lujan-investigara-convento-Lopez_0_1616238463.html
p3
aVhttps://www.clarin.com/politica/arzobispado-Lujan-investigara-convento-Lopez_0_1616238463.html
p4
a.