(lp0
S'https://www.clarin.com/ieco/gremio-trabajadores-gas-apoya-subas_0_1612038882.html'
p1
aS'https://www.clarin.com/sociedad/Gobierno-impulsa-debates-mejorar-educacion_0_1612038879.html'
p2
aS'https://www.clarin.com/sociedad/Gobierno-impulsa-debates-mejorar-educacion_0_1612038879.html'
p3
aS'https://www.clarin.com/sociedad/argentinos-quedaron-Chile-Cristo-Redentor_0_1612038873.html'
p4
aS'https://www.clarin.com/sociedad/argentinos-quedaron-Chile-Cristo-Redentor_0_1612038873.html'
p5
aS'https://www.clarin.com/sociedad/Quieren-restaurantes-sumen-menus-veganos_0_1612038872.html'
p6
aS'https://www.clarin.com/sociedad/Quieren-restaurantes-sumen-menus-veganos_0_1612038872.html'
p7
aS'https://www.clarin.com/sociedad/Quiere-record-mundial-vuelta-globo_0_1612038864.html'
p8
aS'https://www.clarin.com/sociedad/Quiere-record-mundial-vuelta-globo_0_1612038864.html'
p9
aS'https://www.clarin.com/sociedad/hacer-donar-Sol-Chicos_0_1612038868.html'
p10
aS'https://www.clarin.com/sociedad/hacer-donar-Sol-Chicos_0_1612038868.html'
p11
a.