(lp0
S'https://www.clarin.com/politica/Massa-aumento-tarifas-quirofano-motosierra_0_1550845156.html'
p1
aS'https://www.clarin.com/politica/Massa-aumento-tarifas-quirofano-motosierra_0_1550845156.html'
p2
aS'https://www.clarin.com/politica/Mendoza-intendente-renuncio-carcel_0_1550845145.html'
p3
aS'https://www.clarin.com/politica/intendente-Malvinas-Argentinas-Onetto-municipio_0_1550845141.html'
p4
aS'https://www.clarin.com/politica/intendente-Malvinas-Argentinas-Onetto-municipio_0_1550845141.html'
p5
aS'https://www.clarin.com/politica/Macri-reencontro-Obama-Casa-Blanca_0_1550845139.html'
p6
aS'https://www.clarin.com/politica/Macri-reencontro-Obama-Casa-Blanca_0_1550845139.html'
p7
aS'https://www.clarin.com/sociedad/lugar-accidente-cruce-peligroso_0_1550845135.html'
p8
aS'https://www.clarin.com/sociedad/lugar-accidente-cruce-peligroso_0_1550845135.html'
p9
a.