(lp0
S'https://www.clarin.com/sociedad/Innovar-pensar-nuevas-incluir-educar_0_1655834610.html'
p1
aS'https://www.clarin.com/sociedad/cambios-empresas-amplian-licencia-padres_0_1655834612.html'
p2
aS'https://www.clarin.com/sociedad/chicas-escuela-borrachas-expulsaron_0_1655834614.html'
p3
aS'https://www.clarin.com/sociedad/nueva-agenda-educacion-calidad_0_1655834613.html'
p4
aS'https://www.clarin.com/sociedad/Congreso-proyectos-extender-licencia-paternidad_0_1655834618.html'
p5
aS'https://www.clarin.com/sociedad/Licencias-paternidad-genera-vinculo-padre_0_1655834527.html'
p6
aS'https://www.clarin.com/politica/falla-helicoptero-Macri-consecuencias_0_1655834611.html'
p7
aS'https://www.clarin.com/sociedad/Modelos-alternativos-region-inclusion-calidad_0_1655834617.html'
p8
aS'https://www.clarin.com/politica/Stiuso-Gils-Carbo-herramienta-Nisman_0_1655834615.html'
p9
a.