(lp0
S'https://www.clarin.com/politica/Reflotan-proyecto-tarjetas-aplazan-definicion_0_1684031761.html'
p1
aS'https://www.clarin.com/politica/Moyano-control-OCA-implicito-Gobierno_0_1684031766.html'
p2
aS'https://www.clarin.com/politica/Moyano-control-OCA-implicito-Gobierno_0_1684031766.html'
p3
aS'https://www.clarin.com/ieco/economia/Trump-promesa-proteccionista-empresarios-argentinos_0_1684031762.html'
p4
aS'https://www.clarin.com/ieco/economia/Trump-promesa-proteccionista-empresarios-argentinos_0_1684031762.html'
p5
aS'https://www.clarin.com/politica/Bingos-deciden-procesan-titular-Loteria_0_1684031756.html'
p6
aS'https://www.clarin.com/politica/Bingos-deciden-procesan-titular-Loteria_0_1684031756.html'
p7
aS'https://www.clarin.com/ieco/economia/Latam-cobrar-tarifas-pagar-valija_0_1684031732.html'
p8
aS'https://www.clarin.com/ieco/economia/Latam-cobrar-tarifas-pagar-valija_0_1684031732.html'
p9
aS'https://www.clarin.com/politica/Cristobal-Lopez-presenta-AFIP-moratoria_0_1684031632.html'
p10
aS'https://www.clarin.com/politica/Cristobal-Lopez-presenta-AFIP-moratoria_0_1684031632.html'
p11
aS'https://www.clarin.com/ieco/economia/victoria-Trump-estrategias-Prat-Gay-Sturzenegger_0_1684031625.html'
p12
aS'https://www.clarin.com/ieco/economia/victoria-Trump-estrategias-Prat-Gay-Sturzenegger_0_1684031625.html'
p13
aS'https://www.clarin.com/ieco/FMI-levanto-sancion-Argentina-INDEC_0_1684031746.html'
p14
aS'https://www.clarin.com/ieco/economia/pelea-gobernadores-demora-obra-Mendoza_0_1684031723.html'
p15
aS'https://www.clarin.com/ieco/economia/pelea-gobernadores-demora-obra-Mendoza_0_1684031723.html'
p16
aS'https://www.clarin.com/opinion/Pacto-Iran-Patria-desesperan-Cristina_0_1684631525.html'
p17
a.