(lp0
Vhttps://www.clarin.com/ieco/economia/Merval-pierde-caen-bonos_0_1498050478.html
p1
aVhttps://www.clarin.com/politica/Aparecio-camioneta-Kangoo-calcinada-crecen_0_1498650211.html
p2
aVhttps://www.clarin.com/politica/Aparecio-camioneta-Kangoo-calcinada-crecen_0_1498650211.html
p3
aVhttps://www.clarin.com/opinion/Silvia_Fesquet_0_1498650184.html
p4
aVhttps://www.clarin.com/opinion/protesta_social-espacio_publico-regulacion_0_1498650159.html
p5
aVhttps://www.clarin.com/politica/yrimia_0_1498650157.html
p6
aVhttps://www.clarin.com/politica/macri-vidal-fuga_0_1498650155.html
p7
aVhttps://www.clarin.com/politica/vidal-falbo-fuga_0_1498650154.html
p8
aVhttps://www.clarin.com/politica/vidal-falbo-fuga_0_1498650154.html
p9
aVhttps://www.clarin.com/ieco/AFIP-Alberto_Abad-Ganancias-Blanqueo-Retenciones_0_1498650150.html
p10
a.