(lp0
S'https://www.clarin.com/sociedad/Llevo-escuela-disparo-hirio-companero_0_1667233372.html'
p1
aS'https://www.clarin.com/sociedad/Llevo-escuela-disparo-hirio-companero_0_1667233372.html'
p2
aS'https://www.clarin.com/politica/bono-jubilados-beneficiarios-planes-sociales_0_1667233371.html'
p3
aS'https://www.clarin.com/politica/Vuelven-juzgar-Telleldin-atentado-AMIA_0_1667233368.html'
p4
aS'https://www.clarin.com/politica/Vuelven-juzgar-Telleldin-atentado-AMIA_0_1667233368.html'
p5
aS'https://www.clarin.com/politica/acuerdo-Gobierno-CGT-ahora-paro_0_1667233365.html'
p6
aS'https://www.clarin.com/politica/acuerdo-Gobierno-CGT-ahora-paro_0_1667233365.html'
p7
aS'https://www.clarin.com/ieco/economia/Autorizan-LAN-Argentina-Aeroparque-Brasil_0_1667233364.html'
p8
aS'https://www.clarin.com/ieco/economia/Autorizan-LAN-Argentina-Aeroparque-Brasil_0_1667233364.html'
p9
aS'https://www.clarin.com/ieco/canasta-basica-aumento-ciudad-Cordoba_0_1667233357.html'
p10
aS'https://www.clarin.com/ieco/canasta-basica-aumento-ciudad-Cordoba_0_1667233357.html'
p11
aS'https://www.clarin.com/politica/Imputaron-Oyarbide-presunto-enriquecimiento-ilicito_0_1667233356.html'
p12
aS'https://www.clarin.com/politica/Imputaron-Oyarbide-presunto-enriquecimiento-ilicito_0_1667233356.html'
p13
a.