(lp0
S'https://www.clarin.com/ieco/economia/CAC-comisiones-comerciantes-operaciones-tarjetas_0_1619838133.html'
p1
aS'https://www.clarin.com/ieco/demora-reglamentacion-blanqueo_0_1619838130.html'
p2
aS'https://www.clarin.com/ieco/demora-reglamentacion-blanqueo_0_1619838130.html'
p3
aS'https://www.clarin.com/ieco/economia/exportaciones-golosinas-cayeron-importaciones-subieron_0_1619838132.html'
p4
aS'https://www.clarin.com/ieco/Edelap-Edea-ratifican-plan-inversion_0_1619838127.html'
p5
aS'https://www.clarin.com/ieco/Edelap-Edea-ratifican-plan-inversion_0_1619838127.html'
p6
aS'https://www.clarin.com/ieco/economia/dolar-arranco-semana-estable_0_1619838116.html'
p7
aS'https://www.clarin.com/ieco/economia/dolar-arranco-semana-estable_0_1619838116.html'
p8
a.