(lp0
S'https://www.clarin.com/politica/Corte-Suprema-senadores-complicar-Macri_0_1591040921.html'
p1
aS'https://www.clarin.com/politica/Corte-Suprema-senadores-complicar-Macri_0_1591040921.html'
p2
aS'https://www.clarin.com/politica/Murio-Torcuato-Di-Tella-emblematico_0_1591040920.html'
p3
aS'https://www.clarin.com/politica/Murio-Torcuato-Di-Tella-emblematico_0_1591040920.html'
p4
aS'https://www.clarin.com/sociedad/Hugh-Hefner-compro-Mansion-Playboy_0_1591040917.html'
p5
aS'https://www.clarin.com/sociedad/Hugh-Hefner-compro-Mansion-Playboy_0_1591040917.html'
p6
aS'https://www.clarin.com/sociedad/chico-abandonado-bosque-hospital-celebridad_0_1591040903.html'
p7
aS'https://www.clarin.com/sociedad/chico-abandonado-bosque-hospital-celebridad_0_1591040903.html'
p8
aS'https://www.clarin.com/sociedad/Murio-beba-tomado-acido-dispensario_0_1591040913.html'
p9
aS'https://www.clarin.com/sociedad/Murio-beba-tomado-acido-dispensario_0_1591040913.html'
p10
aS'https://www.clarin.com/politica/Record-evasion-capital-provincial-paga_0_1591040911.html'
p11
aS'https://www.clarin.com/sociedad/decada-divorcios_0_1591040910.html'
p12
aS'https://www.clarin.com/sociedad/decada-divorcios_0_1591040910.html'
p13
aS'https://www.clarin.com/ieco/economia/Grobo-buscan-US-millones-crecer_0_1591040909.html'
p14
aS'https://www.clarin.com/ieco/economia/Grobo-buscan-US-millones-crecer_0_1591040909.html'
p15
a.