(lp0
S'https://www.clarin.com/politica/Mauricio-Macri-anticipo-mejora-empleo_0_1637236462.html'
p1
aS'https://www.clarin.com/politica/Mauricio-Macri-anticipo-mejora-empleo_0_1637236462.html'
p2
aS'https://www.clarin.com/sociedad/Recuperan-mastil-buque-Vuelta-Obligado_0_1637236458.html'
p3
aS'https://www.clarin.com/sociedad/Recuperan-mastil-buque-Vuelta-Obligado_0_1637236458.html'
p4
aS'https://www.clarin.com/politica/oposicion-junta-fuerzas-decreto-Macri_0_1637236440.html'
p5
aS'https://www.clarin.com/sociedad/Llegan-nuevos-videojuegos-Messi-figura_0_1637236455.html'
p6
aS'https://www.clarin.com/sociedad/Llegan-nuevos-videojuegos-Messi-figura_0_1637236455.html'
p7
aS'https://www.clarin.com/sociedad/crisis-educativa-afecta-millones-alumnos_0_1637236450.html'
p8
aS'https://www.clarin.com/sociedad/crisis-educativa-afecta-millones-alumnos_0_1637236450.html'
p9
aS'https://www.clarin.com/sociedad/huelga-apuro-empujada-interna-sindicatos_0_1637236452.html'
p10
aS'https://www.clarin.com/sociedad/huelga-apuro-empujada-interna-sindicatos_0_1637236452.html'
p11
a.