(lp0
S'https://www.clarin.com/politica/calendario-desfile-Justicia_0_1555044827.html'
p1
aS'https://www.clarin.com/politica/Panama-Papers-Macri-Justicia-declaracion_0_1555044735.html'
p2
aS'https://www.clarin.com/politica/Panama-Papers-Macri-Justicia-declaracion_0_1555044735.html'
p3
aS'https://www.clarin.com/politica/denuncia-Jaime-ahora-apuntan-consuegros_0_1555044800.html'
p4
aS'https://www.clarin.com/politica/denuncia-Jaime-ahora-apuntan-consuegros_0_1555044800.html'
p5
aS'https://www.clarin.com/sociedad/amantes-imposibles-casar-hijo-adopcion_0_1555044788.html'
p6
aS'https://www.clarin.com/sociedad/amantes-imposibles-casar-hijo-adopcion_0_1555044788.html'
p7
a.