(lp0
Vhttps://www.clarin.com/ieco/economia/Bolsa-trepa-acerca-ultimo-record_0_1604239640.html
p1
aVhttps://www.clarin.com/politica/Ausencias-presencias-jura-Rosatti_0_1604239634.html
p2
aVhttps://www.clarin.com/ieco/economia/dolar-baja-centavos_0_1604239636.html
p3
aVhttps://www.clarin.com/ieco/economia/dolar-baja-centavos_0_1604239636.html
p4
aVhttps://www.clarin.com/politica/Macri-joven-distinguido-NASA-asesinado_0_1604239632.html
p5
aVhttps://www.clarin.com/politica/Macri-joven-distinguido-NASA-asesinado_0_1604239632.html
p6
a.