(lp0
Vhttps://www.clarin.com/sociedad/Video-publicidad-asusta-gente-subte_0_1611438959.html
p1
aVhttps://www.clarin.com/sociedad/Video-publicidad-asusta-gente-subte_0_1611438959.html
p2
aVhttps://www.clarin.com/sociedad/frio-llegara-jueves-Buenos-Aires_0_1611438969.html
p3
aVhttps://www.clarin.com/sociedad/frio-llegara-jueves-Buenos-Aires_0_1611438969.html
p4
aVhttps://www.clarin.com/sociedad/Salieron-Cordoba-America-casamiento-Alaska_0_1611438930.html
p5
aVhttps://www.clarin.com/sociedad/Salieron-Cordoba-America-casamiento-Alaska_0_1611438930.html
p6
aVhttps://www.clarin.com/ieco/economia/dolar-minorista-gano-centavos-cerro_0_1611438949.html
p7
aVhttps://www.clarin.com/ieco/economia/dolar-minorista-gano-centavos-cerro_0_1611438949.html
p8
aVhttps://www.clarin.com/politica/Schoklender-fundacion-Madres-Boudou-Lopez_0_1611438957.html
p9
aVhttps://www.clarin.com/politica/Schoklender-fundacion-Madres-Boudou-Lopez_0_1611438957.html
p10
a.