(lp0
Vhttps://www.clarin.com/ieco/economia/Atanor-pone-venta-ingenios-tucumanos_0_1650435108.html
p1
aVhttps://www.clarin.com/ieco/economia/Atanor-pone-venta-ingenios-tucumanos_0_1650435108.html
p2
aVhttps://www.clarin.com/politica/CGT-Iglesia-reclamaron-preocupacion-Gobierno_0_1650435102.html
p3
aVhttps://www.clarin.com/ieco/economia/importadores-defienden-exportadores-alertan-subsidios_0_1650435099.html
p4
aVhttps://www.clarin.com/politica/comunicado-Argentina-Reino-Unido-completo_0_1650435093.html
p5
aVhttps://www.clarin.com/politica/comunicado-Argentina-Reino-Unido-completo_0_1650435093.html
p6
aVhttps://www.clarin.com/opinion/Frigerio-ideas-desarrollo-siguen-vigentes_0_1650435092.html
p7
a.