(lp0
Vhttps://www.clarin.com/politica/Jugada-Cristina-dolar-futuro-querellante_0_1561643914.html
p1
aVhttps://www.clarin.com/politica/Jugada-Cristina-dolar-futuro-querellante_0_1561643914.html
p2
aVhttps://www.clarin.com/politica/Macri-despidio-Fragata-Libertad-Tranquilos_0_1561643912.html
p3
aVhttps://www.clarin.com/politica/Macri-despidio-Fragata-Libertad-Tranquilos_0_1561643912.html
p4
aVhttps://www.clarin.com/sociedad/Time-Warp-conjunta-Prefectura-seguridad_0_1561643904.html
p5
aVhttps://www.clarin.com/sociedad/Time-Warp-conjunta-Prefectura-seguridad_0_1561643904.html
p6
aVhttps://www.clarin.com/sociedad/Video-corto-autopista-Santa-Fe_0_1561643910.html
p7
aVhttps://www.clarin.com/sociedad/Video-corto-autopista-Santa-Fe_0_1561643910.html
p8
aVhttps://www.clarin.com/sociedad/director-SAME-victimas-Costa-Salguero_0_1561643907.html
p9
aVhttps://www.clarin.com/sociedad/director-SAME-victimas-Costa-Salguero_0_1561643907.html
p10
aVhttps://www.clarin.com/sociedad/cocino-Mallmann-chef-estrella-Mundial_0_1561643906.html
p11
aVhttps://www.clarin.com/sociedad/cocino-Mallmann-chef-estrella-Mundial_0_1561643906.html
p12
aVhttps://www.clarin.com/ieco/economia/Llega-Hot-Sale-prometen-descuentos_0_1561643905.html
p13
aVhttps://www.clarin.com/ieco/economia/Llega-Hot-Sale-prometen-descuentos_0_1561643905.html
p14
aVhttps://www.clarin.com/politica/Susana-Trimarco-devolver-Gobierno-Cristina_0_1561643903.html
p15
aVhttps://www.clarin.com/politica/Susana-Trimarco-devolver-Gobierno-Cristina_0_1561643903.html
p16
a.