(lp0
S'https://www.clarin.com/politica/arrepentido-famoso-diferencio-Farina_0_1557444445.html'
p1
aS'https://www.clarin.com/politica/arrepentido-famoso-diferencio-Farina_0_1557444445.html'
p2
aS'https://www.clarin.com/sociedad/Mira-argentino-compite-Mundial-Pizza_0_1557444443.html'
p3
aS'https://www.clarin.com/sociedad/Mira-argentino-compite-Mundial-Pizza_0_1557444443.html'
p4
aS'https://www.clarin.com/sociedad/aerolinea-recibe-pasajeros-azafatas-bikini_0_1557444423.html'
p5
aS'https://www.clarin.com/sociedad/aerolinea-recibe-pasajeros-azafatas-bikini_0_1557444423.html'
p6
aS'https://www.clarin.com/sociedad/Video-colchones-domino-logran-Guinness_0_1557444434.html'
p7
aS'https://www.clarin.com/sociedad/Video-colchones-domino-logran-Guinness_0_1557444434.html'
p8
aS'https://www.clarin.com/politica/Facturas-truchas-Farina-fecha-juicio_0_1557444426.html'
p9
aS'https://www.clarin.com/politica/Facturas-truchas-Farina-fecha-juicio_0_1557444426.html'
p10
aS'https://www.clarin.com/politica/Macri-Cristina-declare-Tribunales_0_1557444418.html'
p11
aS'https://www.clarin.com/politica/Macri-Cristina-declare-Tribunales_0_1557444418.html'
p12
aS'https://www.clarin.com/ieco/Pronosticos-FMI-caida-crecimiento-proximo_0_1557444421.html'
p13
aS'https://www.clarin.com/ieco/Pronosticos-FMI-caida-crecimiento-proximo_0_1557444421.html'
p14
a.