(lp0
Vhttps://www.clarin.com/ieco/economia/Compras-bancos-oficiales-evitaron-dolar_0_1577842340.html
p1
aVhttps://www.clarin.com/ieco/economia/Elypsis-inflacion-mayo_0_1577842335.html
p2
aVhttps://www.clarin.com/sociedad/investigadoras-encontraron-personas_0_1577842338.html
p3
aVhttps://www.clarin.com/sociedad/investigadoras-encontraron-personas_0_1577842338.html
p4
aVhttps://www.clarin.com/politica/gobierno-EEUU-flexibiliza-entrevista-argentinos_0_1577842334.html
p5
aVhttps://www.clarin.com/politica/Plan-Suenos-Compartidos-devuelven-Schoklender_0_1577842333.html
p6
aVhttps://www.clarin.com/politica/Plan-Suenos-Compartidos-devuelven-Schoklender_0_1577842333.html
p7
a.