(lp0
S'https://www.clarin.com/sociedad/acto-Cirque-Soleil-accidento-acrobata_0_1582041871.html'
p1
aS'https://www.clarin.com/ieco/economia/Santa-Cruz-fallo-tarifazo-llaman_0_1582041859.html'
p2
aS'https://www.clarin.com/politica/Axel-Kicillof-denuncio-agredio-llevaba_0_1582041876.html'
p3
aS'https://www.clarin.com/sociedad/Escandalo-Mendoza-pasaron-porno-publico_0_1582041868.html'
p4
aS'https://www.clarin.com/sociedad/Horror-San-Pedro-mantuvieron-secuestrada_0_1582041861.html'
p5
aS'https://www.clarin.com/politica/izquierda-protesto-visita-canciller-Brasil_0_1582041866.html'
p6
aS'https://www.clarin.com/sociedad/presentador-grita-arana-vuelve-viral_0_1582041874.html'
p7
a.