(lp0
S'https://www.clarin.com/sociedad/Crean-pulsera-castiga-gastos-tarjeta_0_1580242017.html'
p1
aS'https://www.clarin.com/politica/peronismo-Macri-quedaremos-perjudique-trabajadores_0_1580242019.html'
p2
aS'https://www.clarin.com/sociedad/Costantini-records-compro-cuadro-latinoamericano_0_1580242007.html'
p3
aS'https://www.clarin.com/politica/Macri-anuncia-veto-total-antidespidos_0_1580242001.html'
p4
aS'https://www.clarin.com/sociedad/Tierra-Fuego-conflicto-siguen-clases_0_1580242009.html'
p5
aS'https://www.clarin.com/politica/Allanan-Gallegos-Mausoleo-Nestor-Kirchner_0_1580242008.html'
p6
aS'https://www.clarin.com/sociedad/reconocido-artista-denuncia-propia-hija_0_1580242003.html'
p7
aS'https://www.clarin.com/sociedad/Paro-Tierra-Fuego-vicedirectores-secretarios_0_1580242013.html'
p8
a.