(lp0
S'https://www.clarin.com/ieco/economia/Medellin-desarrollo-ecosistema-innovacion-productiva_0_1552044944.html'
p1
aS'https://www.clarin.com/ieco/economia/transicion-modelo-mayor-insercion-mundo_0_1552044980.html'
p2
aS'https://www.clarin.com/ieco/economia/equipo-UBA-gano-final-internacional_0_1552044953.html'
p3
aS'https://www.clarin.com/ieco/economia/mercado-atento-pago-cupones_0_1552044978.html'
p4
aS'https://www.clarin.com/ieco/economia/Despues-vuelven-fabricar-vinilos-Argentina_0_1552044947.html'
p5
aS'https://www.clarin.com/ieco/economia/burocracia-financiacion-pymes_0_1552044954.html'
p6
aS'https://www.clarin.com/ieco/economia/pais-consumen-millones-alfajores-ano_0_1552044981.html'
p7
aS'https://www.clarin.com/ieco/economia/India-excluye-reformas-drasticas_0_1552044940.html'
p8
aS'https://www.clarin.com/politica/tarifazo-oposicion-une-impulsar-proyectos_0_1551445168.html'
p9
aS'https://www.clarin.com/politica/Cristina-mandato-prudente-silencio-descanso_0_1551445152.html'
p10
aS'https://www.clarin.com/ieco/economia/claves-modelo-gestion-empresas-japonesas_0_1552044951.html'
p11
aS'https://www.clarin.com/ieco/economia/Examenes-medicos-oficina_0_1552044958.html'
p12
aS'https://www.clarin.com/opinion/hospital-late-milagro_0_1551445165.html'
p13
aS'https://www.clarin.com/ieco/economia/Argentina-herencia-maldita-cambio-expectativas_0_1552044938.html'
p14
aS'https://www.clarin.com/ieco/economia/apoyo-emprendedores-favorece-movilidad-social_0_1552044941.html'
p15
a.