(lp0
S'https://www.clarin.com/ieco/economia/Impsa-acuerda-acreedores-apuesta-energia_0_1617438379.html'
p1
aS'https://www.clarin.com/ieco/economia/Impsa-acuerda-acreedores-apuesta-energia_0_1617438379.html'
p2
aS'https://www.clarin.com/sociedad/Twitter-avanza-pueden-transmisiones-Periscope_0_1617438348.html'
p3
aS'https://www.clarin.com/sociedad/Twitter-avanza-pueden-transmisiones-Periscope_0_1617438348.html'
p4
aS'https://www.clarin.com/politica/portugues-aventaja-Malcorra-ONU_0_1617438374.html'
p5
aS'https://www.clarin.com/politica/portugues-aventaja-Malcorra-ONU_0_1617438374.html'
p6
a.