(lp0
Vhttps://www.clarin.com/politica/Oyarbide-Tribunales-declarar-causa-Angelici_0_1667833240.html
p1
aVhttps://www.clarin.com/politica/Oyarbide-Tribunales-declarar-causa-Angelici_0_1667833240.html
p2
aVhttps://www.clarin.com/politica/chicana-Cristina-Kirchner-Laura-Alonso_0_1667833238.html
p3
aVhttps://www.clarin.com/politica/chicana-Cristina-Kirchner-Laura-Alonso_0_1667833238.html
p4
aVhttps://www.clarin.com/sociedad/temas-imprescindibles-Bob-Dylan_0_1667833236.html
p5
aVhttps://www.clarin.com/sociedad/temas-imprescindibles-Bob-Dylan_0_1667833236.html
p6
aVhttps://www.clarin.com/ieco/coloquioidea/Juan-Manuel-Urtubey-marido-pagar_0_1667833229.html
p7
aVhttps://www.clarin.com/ieco/coloquioidea/Juan-Manuel-Urtubey-marido-pagar_0_1667833229.html
p8
aVhttps://www.clarin.com/politica/peronismo-honesta-Macri-Vidal-Carrio_0_1667833226.html
p9
aVhttps://www.clarin.com/politica/peronismo-honesta-Macri-Vidal-Carrio_0_1667833226.html
p10
aVhttps://www.clarin.com/politica/Hugo-Yasky-bono-paquetito-humo_0_1667833227.html
p11
aVhttps://www.clarin.com/politica/Hugo-Yasky-bono-paquetito-humo_0_1667833227.html
p12
aVhttps://www.clarin.com/sociedad/Denuncian-casos-intoxicacion-Berazategui_0_1667833220.html
p13
aVhttps://www.clarin.com/sociedad/Denuncian-casos-intoxicacion-Berazategui_0_1667833220.html
p14
a.