(lp0
S'https://www.clarin.com/sociedad/Polemica-presencia-Aldo-Rico-Bicentenario_0_1610838979.html'
p1
aS'https://www.clarin.com/sociedad/Polemica-presencia-Aldo-Rico-Bicentenario_0_1610838979.html'
p2
aS'https://www.clarin.com/sociedad/Desopilante-selfie-granadero-caballo-desfile_0_1610838977.html'
p3
aS'https://www.clarin.com/sociedad/Desopilante-selfie-granadero-caballo-desfile_0_1610838977.html'
p4
a.