(lp0
Vhttps://www.clarin.com/ieco/economia/Fuerte-caida-dolar-mayorista_0_1612038865.html
p1
aVhttps://www.clarin.com/ieco/Produccion-encuentro-empresarios-impidio-ingreso_0_1612038862.html
p2
aVhttps://www.clarin.com/ieco/Produccion-encuentro-empresarios-impidio-ingreso_0_1612038862.html
p3
aVhttps://www.clarin.com/ieco/economia/Cedio-Gobierno-fijan-tope-aumento_0_1612038858.html
p4
aVhttps://www.clarin.com/ieco/economia/Cedio-Gobierno-fijan-tope-aumento_0_1612038858.html
p5
aVhttps://www.clarin.com/politica/sueter-confesiones-dejan-parado-Macri_0_1612038855.html
p6
aVhttps://www.clarin.com/politica/sueter-confesiones-dejan-parado-Macri_0_1612038855.html
p7
aVhttps://www.clarin.com/sociedad/aire-traera-temperaturas-bajas-semana_0_1612038854.html
p8
aVhttps://www.clarin.com/sociedad/aire-traera-temperaturas-bajas-semana_0_1612038854.html
p9
aVhttps://www.clarin.com/politica/Stolbizer-sube-tono-Cristina-delincuente_0_1612038853.html
p10
aVhttps://www.clarin.com/politica/Stolbizer-sube-tono-Cristina-delincuente_0_1612038853.html
p11
aVhttps://www.clarin.com/ieco/economia/Qatar-Airways-comprara-aerolinea-LATAM_0_1612038849.html
p12
aVhttps://www.clarin.com/ieco/economia/Qatar-Airways-comprara-aerolinea-LATAM_0_1612038849.html
p13
a.