(lp0
S'https://www.clarin.com/politica/Murio-Daniel-Munoz-Nestor-Kirchner_0_1583241759.html'
p1
aS'https://www.clarin.com/sociedad/Volco-camion-jaula-faeno-vacas_0_1583241760.html'
p2
aS'https://www.clarin.com/sociedad/Crearon-casco-permite-ver-temperatura_0_1583241758.html'
p3
aS'https://www.clarin.com/politica/Putin-felicito-Macri-Revolucion-Mayo_0_1583241765.html'
p4
a.