(lp0
S'https://www.clarin.com/politica/Massa-Pichetto-Romero-acercamiento-peronismo_0_1613238733.html'
p1
aS'https://www.clarin.com/politica/Massa-Pichetto-Romero-acercamiento-peronismo_0_1613238733.html'
p2
aS'https://www.clarin.com/politica/Cancilleria-intercede-cordobes-condenado-Texas_0_1613238732.html'
p3
aS'https://www.clarin.com/politica/Cancilleria-intercede-cordobes-condenado-Texas_0_1613238732.html'
p4
aS'https://www.clarin.com/sociedad/Exhiben-primera-papiros-antiguos-Egipto_0_1613238728.html'
p5
aS'https://www.clarin.com/sociedad/Exhiben-primera-papiros-antiguos-Egipto_0_1613238728.html'
p6
aS'https://www.clarin.com/ieco/Toyota-Fiat-Chevrolet-marcas-vendidas_0_1613238726.html'
p7
aS'https://www.clarin.com/ieco/Toyota-Fiat-Chevrolet-marcas-vendidas_0_1613238726.html'
p8
aS'https://www.clarin.com/sociedad/Gastaron-millones-parque-acuatico-inunda_0_1613238721.html'
p9
aS'https://www.clarin.com/sociedad/Gastaron-millones-parque-acuatico-inunda_0_1613238721.html'
p10
aS'https://www.clarin.com/ieco/empresa-quiere-agregar-trabajo-gremio_0_1613238714.html'
p11
aS'https://www.clarin.com/ieco/empresa-quiere-agregar-trabajo-gremio_0_1613238714.html'
p12
aS'https://www.clarin.com/politica/Dinero-inmuebles-empresas-Florencia-Kirchner_0_1613238705.html'
p13
aS'https://www.clarin.com/politica/Dinero-inmuebles-empresas-Florencia-Kirchner_0_1613238705.html'
p14
a.