(lp0
S'https://www.clarin.com/politica/Cristina-volvio-cargar-Bonadio-Stolbizer_0_1608439342.html'
p1
aS'https://www.clarin.com/politica/Cristina-volvio-cargar-Bonadio-Stolbizer_0_1608439342.html'
p2
a.