(lp0
Vhttps://www.clarin.com/politica/Desesperado-Martin-Baez-Buenos-Aires_0_1554444940.html
p1
aVhttps://www.clarin.com/politica/Desesperado-Martin-Baez-Buenos-Aires_0_1554444940.html
p2
aVhttps://www.clarin.com/politica/pesar-criticas-Falbo-asegura-renunciar_0_1554445093.html
p3
aVhttps://www.clarin.com/politica/Rechazan-traspaso-social-Oil-Chubut_0_1554445069.html
p4
aVhttps://www.clarin.com/politica/Homenaje-Strassera-Lorenzetti-pidio-impunidad_0_1554445037.html
p5
aVhttps://www.clarin.com/ieco/Irsa-US-millones-viviendas-shoppings_0_1554445096.html
p6
aVhttps://www.clarin.com/ieco/Irsa-US-millones-viviendas-shoppings_0_1554445096.html
p7
aVhttps://www.clarin.com/politica/Marcha-Baez-kirchnerismo-defiende-Echegaray_0_1554445055.html
p8
aVhttps://www.clarin.com/opinion/Despertar-crack_0_1554444961.html
p9
aVhttps://www.clarin.com/sociedad/acoso-callejero-exceso-mayoria-mujeres_0_1554445057.html
p10
aVhttps://www.clarin.com/sociedad/Ahora-buscamos-cura-Ilarraz-cara_0_1554445052.html
p11
aVhttps://www.clarin.com/politica/Scioli-decisiones-tomado-ampliado-desigualdad_0_1554445139.html
p12
aVhttps://www.clarin.com/politica/Scioli-decisiones-tomado-ampliado-desigualdad_0_1554445139.html
p13
a.