(lp0
S'https://www.clarin.com/sociedad/Cierra-libreria-cuadras-aprovechar-ofertas_0_1640836001.html'
p1
aS'https://www.clarin.com/politica/Allanan-Rio-Gallegos-escribanias-Cristina_0_1640835996.html'
p2
aS'https://www.clarin.com/sociedad/curioso-regalo-Mark-Zuckerberg-Papa_0_1640835988.html'
p3
aS'https://www.clarin.com/politica/Premio-Nobel-Rigoberta-Menchu-Shirin_0_1640835993.html'
p4
aS'https://www.clarin.com/sociedad/pelicula-escribieron-SOS-rescataron-desierta_0_1640835991.html'
p5
a.