(lp0
S'https://www.clarin.com/sociedad/Post-verdad-palabra-ano-Diccionario-Oxford_0_1688231220.html'
p1
aS'https://www.clarin.com/sociedad/Post-verdad-palabra-ano-Diccionario-Oxford_0_1688231220.html'
p2
aS'https://www.clarin.com/politica/Presion-Vidal-quieren-bono-jubilados_0_1688231219.html'
p3
aS'https://www.clarin.com/politica/Presion-Vidal-quieren-bono-jubilados_0_1688231219.html'
p4
aS'https://www.clarin.com/ieco/economia/Gobierno-vende-terreno-codiciadas-ciudad_0_1688231217.html'
p5
aS'https://www.clarin.com/ieco/economia/Gobierno-vende-terreno-codiciadas-ciudad_0_1688231217.html'
p6
aS'https://www.clarin.com/sociedad/Quinta-Avenida-Nueva-York-mundo_0_1688231212.html'
p7
aS'https://www.clarin.com/sociedad/Quinta-Avenida-Nueva-York-mundo_0_1688231212.html'
p8
aS'https://www.clarin.com/ieco/Prat-Gay-cruzo-Lavagna-comparo-Bonafini_0_1688231209.html'
p9
aS'https://www.clarin.com/ieco/Prat-Gay-cruzo-Lavagna-comparo-Bonafini_0_1688231209.html'
p10
a.