(lp0
S'https://www.clarin.com/sociedad/caidas-Glaciar-Perito-Moreno_0_1537646409.html'
p1
aS'https://www.clarin.com/ieco/economia/Banco-Central-Europeo-baja-tasas_0_1537646420.html'
p2
aS'https://www.clarin.com/ieco/suba-tarifas-inflacion-portena-febrero_0_1537646425.html'
p3
aS'https://www.clarin.com/ieco/economia/Nuevas-denuncias-cumplan-contratos-futuro_0_1537646417.html'
p4
aS'https://www.clarin.com/sociedad/Dengue-Floresta-denuncian-mosquitos-propiedad_0_1537646400.html'
p5
a.