(lp0
Vhttps://www.clarin.com/politica/investiga-propiedades-Baez-vendieron-Kirchner_0_1585641562.html
p1
aVhttps://www.clarin.com/politica/investiga-propiedades-Baez-vendieron-Kirchner_0_1585641562.html
p2
aVhttps://www.clarin.com/politica/oculta-Lazaro-compra-propiedades_0_1586241364.html
p3
aVhttps://www.clarin.com/opinion/Duran-barbas-remojo_0_1586241363.html
p4
aVhttps://www.clarin.com/politica/Hallan-Lazaro-Baez-relacionadas-Kirchner_0_1585641540.html
p5
aVhttps://www.clarin.com/politica/Hallan-Lazaro-Baez-relacionadas-Kirchner_0_1585641540.html
p6
aVhttps://www.clarin.com/opinion/senda-peatonal-buscan_0_1585641556.html
p7
aVhttps://www.clarin.com/sociedad/Crece-asteroides-peligrosos-polemica-NASA_0_1585641559.html
p8
aVhttps://www.clarin.com/sociedad/Crece-asteroides-peligrosos-polemica-NASA_0_1585641559.html
p9
aVhttps://www.clarin.com/sociedad/Reciclar-dioxido-carbono-cambio-climatico_0_1585641557.html
p10
aVhttps://www.clarin.com/politica/Amores-matan-leon-enjaulado_0_1585641555.html
p11
aVhttps://www.clarin.com/politica/Amores-matan-leon-enjaulado_0_1585641555.html
p12
a.