(lp0
Vhttps://www.clarin.com/politica/Indice-Optimismo-confianza-politica-mantiene_0_1602439827.html
p1
aVhttps://www.clarin.com/politica/Indice-Optimismo-confianza-politica-mantiene_0_1602439827.html
p2
aVhttps://www.clarin.com/politica/Denunciaran-Cristina-Kirchner-asociacion-ilicita_0_1602439826.html
p3
aVhttps://www.clarin.com/politica/Denunciaran-Cristina-Kirchner-asociacion-ilicita_0_1602439826.html
p4
aVhttps://www.clarin.com/politica/abogada-Jose-Lopez-Hablamos-arrepentido_0_1602439820.html
p5
aVhttps://www.clarin.com/politica/abogada-Jose-Lopez-Hablamos-arrepentido_0_1602439820.html
p6
aVhttps://www.clarin.com/sociedad/Rescataron-personas-varadas-Altas-Cumbres_0_1602439812.html
p7
aVhttps://www.clarin.com/sociedad/Rescataron-personas-varadas-Altas-Cumbres_0_1602439812.html
p8
aVhttps://www.clarin.com/sociedad/insolito-jirafa-perdio-color-pelaje_0_1602439806.html
p9
aVhttps://www.clarin.com/sociedad/insolito-jirafa-perdio-color-pelaje_0_1602439806.html
p10
a.