(lp0
Vhttps://www.clarin.com/politica/Gobierno-Cristobal-Lopez-concesion-autopista_0_1540646410.html
p1
aVhttps://www.clarin.com/politica/Gobierno-Cristobal-Lopez-concesion-autopista_0_1540646410.html
p2
aVhttps://www.clarin.com/sociedad/Dormir-horas-alcanza-rendir-bien_0_1540646372.html
p3
aVhttps://www.clarin.com/sociedad/Recomiendan-menu-mejor-sueno-nocturno_0_1540646378.html
p4
aVhttps://www.clarin.com/sociedad/Acusan-Policia-agresion-activista-Miramar_0_1540646389.html
p5
aVhttps://www.clarin.com/politica/Justicia-cerrar-paritaria-estatales-bonaerenses_0_1540646387.html
p6
aVhttps://www.clarin.com/politica/Justicia-cerrar-paritaria-estatales-bonaerenses_0_1540646387.html
p7
aVhttps://www.clarin.com/politica/Congreso-Judio-Mundial-Macri-esclarecer_0_1541245875.html
p8
aVhttps://www.clarin.com/politica/Congreso-Judio-Mundial-Macri-esclarecer_0_1541245875.html
p9
aVhttps://www.clarin.com/politica/video-deja-burguesia-desnudo_0_1540646386.html
p10
aVhttps://www.clarin.com/politica/empresario-podrian-dar-anos-prision_0_1540646319.html
p11
aVhttps://www.clarin.com/politica/empresario-podrian-dar-anos-prision_0_1540646319.html
p12
aVhttps://www.clarin.com/politica/Lorenzetti-pidio-trabajar-terminar-impunidad_0_1540646345.html
p13
aVhttps://www.clarin.com/politica/Lorenzetti-pidio-trabajar-terminar-impunidad_0_1540646345.html
p14
aVhttps://www.clarin.com/politica/obispos-culparon-encubrir-graves-corrupcion_0_1540646392.html
p15
aVhttps://www.clarin.com/politica/obispos-culparon-encubrir-graves-corrupcion_0_1540646392.html
p16
a.