(lp0
Vhttps://www.clarin.com/politica/Lanzan-obras-Provincia-millones-pesos_0_1557444709.html
p1
aVhttps://www.clarin.com/politica/Preocupado-Gobierno-apura-medidas-sociales_0_1557444716.html
p2
aVhttps://www.clarin.com/politica/Macri-declaracion-Cristina-transite-corresponde_0_1557444697.html
p3
aVhttps://www.clarin.com/politica/PJ-apoyo-ferreo-Cristina-solidaridad_0_1557444677.html
p4
aVhttps://www.clarin.com/politica/PJ-apoyo-ferreo-Cristina-solidaridad_0_1557444677.html
p5
aVhttps://www.clarin.com/opinion/Extrano-encanto-ansiedad_0_1557444625.html
p6
aVhttps://www.clarin.com/politica/Cristina-frente-causa-comprometida_0_1557444662.html
p7
aVhttps://www.clarin.com/politica/Cristina-frente-causa-comprometida_0_1557444662.html
p8
aVhttps://www.clarin.com/sociedad/Viedma-despues-secretos-recuerdos-capital_0_1557444722.html
p9
aVhttps://www.clarin.com/sociedad/Viedma-despues-secretos-recuerdos-capital_0_1557444722.html
p10
aVhttps://www.clarin.com/politica/llegamos-paciencia-sentencio-gobernadora-fueguina_0_1557444742.html
p11
aVhttps://www.clarin.com/politica/Caparros-ideologia-basica-Cristina-oportunismo_0_1557444744.html
p12
aVhttps://www.clarin.com/politica/Caparros-ideologia-basica-Cristina-oportunismo_0_1557444744.html
p13
aVhttps://www.clarin.com/sociedad/Santa-Maria-peronismo-porteno-Pagina12_0_1557444734.html
p14
aVhttps://www.clarin.com/politica/Corte-Gobierno-publicidad-Luis-Majul_0_1557444732.html
p15
a.