(lp0
S'https://www.clarin.com/sociedad/Borracho-jugador-Colon-atropello-motociclista_0_1636036466.html'
p1
aS'https://www.clarin.com/sociedad/Borracho-jugador-Colon-atropello-motociclista_0_1636036466.html'
p2
aS'https://www.clarin.com/politica/comisaria-Federal-investigada-detencion-clandestino_0_1636036463.html'
p3
aS'https://www.clarin.com/politica/Frigerio-Mirtha-seguiamos-mentira-Venezuela_0_1636036462.html'
p4
aS'https://www.clarin.com/politica/Frigerio-Mirtha-seguiamos-mentira-Venezuela_0_1636036462.html'
p5
aS'https://www.clarin.com/sociedad/fiesta-calle-regalo-primas-chicos_0_1636036461.html'
p6
aS'https://www.clarin.com/sociedad/fiesta-calle-regalo-primas-chicos_0_1636036461.html'
p7
aS'https://www.clarin.com/sociedad/nena-pensaba-llamaba-Idiota_0_1636036447.html'
p8
aS'https://www.clarin.com/sociedad/nena-pensaba-llamaba-Idiota_0_1636036447.html'
p9
a.