(lp0
S'https://www.clarin.com/politica/Indice-optimismo-repunte-politico-economico_0_1598240251.html'
p1
aS'https://www.clarin.com/politica/Perez-Corradi-huellas-dactilares-dedos_0_1598240250.html'
p2
aS'https://www.clarin.com/politica/Ocana-Perez-Corradi-Morsa-Cristina_0_1598240260.html'
p3
aS'https://www.clarin.com/politica/Familiares-victimas-expresaron-Perez-Corradi_0_1598240258.html'
p4
aS'https://www.clarin.com/politica/Bina-recompensa-detencion-Perez-Corradi_0_1598240259.html'
p5
aS'https://www.clarin.com/politica/Paraguay-quieren-extradicion-Perez-Corradi_0_1598240254.html'
p6
a.