(lp0
Vhttps://www.clarin.com/politica/Gobierno-presiona-Congreso-dejar-default_0_1534047140.html
p1
aVhttps://www.clarin.com/sociedad/Lanzan-app-rezar-Papa-Francisco_0_1534047116.html
p2
aVhttps://www.clarin.com/sociedad/Lanzan-app-rezar-Papa-Francisco_0_1534047116.html
p3
a.