(lp0
Vhttps://www.clarin.com/politica/Senado-Gabriela_Michetti-Amado_Boudou_0_1498050538.html
p1
aVhttps://www.clarin.com/politica/Senado-Gabriela_Michetti-Amado_Boudou_0_1498050538.html
p2
aVhttps://www.clarin.com/sociedad/cancer-fumador_0_1498050537.html
p3
aVhttps://www.clarin.com/sociedad/cancer-fumador_0_1498050537.html
p4
aVhttps://www.clarin.com/ieco/economia/Wall-Street-perdidas-Dow-Jones_0_1498050480.html
p5
aVhttps://www.clarin.com/politica/Disolvieron-encargada-planificar-inversiones-hidrocarburos_0_1498050526.html
p6
aVhttps://www.clarin.com/politica/Disolvieron-encargada-planificar-inversiones-hidrocarburos_0_1498050526.html
p7
aVhttps://www.clarin.com/politica/Sobreseyeron-Ernestina-Herrera-Noble-apropiacion_0_1498050518.html
p8
aVhttps://www.clarin.com/politica/mails-jofre-arroyo_salgado_0_1498050523.html
p9
aVhttps://www.clarin.com/politica/mails-jofre-arroyo_salgado_0_1498050523.html
p10
aVhttps://www.clarin.com/sociedad/Apunalo-novia-calle-horas-preso_0_1498050514.html
p11
aVhttps://www.clarin.com/sociedad/Apunalo-novia-calle-horas-preso_0_1498050514.html
p12
a.