(lp0
S'https://www.clarin.com/politica/Duhalde-Scioli-enriquecimiento-ilicito-rodeaba_0_1657634308.html'
p1
aS'https://www.clarin.com/politica/Duhalde-Scioli-enriquecimiento-ilicito-rodeaba_0_1657634308.html'
p2
aS'https://www.clarin.com/politica/Marcha-acampe-Plaza-Mayo-ajuste_0_1657634297.html'
p3
aS'https://www.clarin.com/politica/Marcha-acampe-Plaza-Mayo-ajuste_0_1657634297.html'
p4
aS'https://www.clarin.com/politica/imperio-Lazaro-Baez-diario-FM_0_1657634301.html'
p5
aS'https://www.clarin.com/politica/imperio-Lazaro-Baez-diario-FM_0_1657634301.html'
p6
aS'https://www.clarin.com/sociedad/guardia-Mitre-quiso-chicas-besarse_0_1657634299.html'
p7
aS'https://www.clarin.com/sociedad/guardia-Mitre-quiso-chicas-besarse_0_1657634299.html'
p8
a.