(lp0
S'https://www.clarin.com/ieco/economia/Aprueban-creditos-US-millones-Argentina_0_1616238453.html'
p1
aS'https://www.clarin.com/sociedad/subte-tuitea_0_1616238363.html'
p2
aS'https://www.clarin.com/sociedad/Exhiben-insignia-ingles-Enrique-VIII_0_1616238457.html'
p3
a.