(lp0
Vhttps://www.clarin.com/politica/macri-llamados-gobernadores-senadores_0_1517248279.html
p1
aVhttps://www.clarin.com/politica/Corte_Suprema_de_Justicia-traspaso-escuchas_judiciales_0_1517248277.html
p2
aVhttps://www.clarin.com/opinion/Pablo_Calvo-Pasiones_argentinas_0_1517248276.html
p3
aVhttps://www.clarin.com/politica/campana_antartica-Schneiter-marino-armada_0_1517248275.html
p4
aVhttps://www.clarin.com/sociedad/Usar-acondicionado-ahora-factura-mensual_0_1516648766.html
p5
aVhttps://www.clarin.com/sociedad/Usar-acondicionado-ahora-factura-mensual_0_1516648766.html
p6
aVhttps://www.clarin.com/sociedad/paso-acceder-beneficio-tarifa-social_0_1516648754.html
p7
aVhttps://www.clarin.com/sociedad/Crecieron-consultas-aparatos-consumen_0_1516648751.html
p8
aVhttps://www.clarin.com/sociedad/Crecieron-consultas-aparatos-consumen_0_1516648751.html
p9
a.