(lp0
Vhttps://www.clarin.com/sociedad/alud-dejo-varadas-personas-Mendoza_0_1510049348.html
p1
aVhttps://www.clarin.com/sociedad/alud-dejo-varadas-personas-Mendoza_0_1510049348.html
p2
aVhttps://www.clarin.com/sociedad/jornada-agobiante-temperaturas-arriba-grados_0_1510049349.html
p3
aVhttps://www.clarin.com/sociedad/jornada-agobiante-temperaturas-arriba-grados_0_1510049349.html
p4
a.