(lp0
Vhttps://www.clarin.com/politica/Amplian-denuncia-Sabbatella-abuso-autoridad_0_1496250616.html
p1
aVhttps://www.clarin.com/politica/Amplian-denuncia-Sabbatella-abuso-autoridad_0_1496250616.html
p2
aVhttps://www.clarin.com/sociedad/La_Plata-ahogada-fiesta_privada_0_1496250612.html
p3
aVhttps://www.clarin.com/sociedad/La_Plata-ahogada-fiesta_privada_0_1496250612.html
p4
aVhttps://www.clarin.com/ieco/finanzas/Central-prorroga-creditos-pymes-CAME_0_1496250570.html
p5
aVhttps://www.clarin.com/ieco/finanzas/Central-prorroga-creditos-pymes-CAME_0_1496250570.html
p6
a.