(lp0
S'https://www.clarin.com/sociedad/Cayo-Autopista-Buenos-Aires-La-Plata_0_1596440458.html'
p1
aS'https://www.clarin.com/sociedad/Cayo-Autopista-Buenos-Aires-La-Plata_0_1596440458.html'
p2
aS'https://www.clarin.com/politica/Lopez-infiltrado-periodismo-Hebe-Bonafini_0_1596440452.html'
p3
aS'https://www.clarin.com/politica/Lopez-infiltrado-periodismo-Hebe-Bonafini_0_1596440452.html'
p4
aS'https://www.clarin.com/politica/particular-descargo-periodista-corrupcion-Lopez_0_1596440450.html'
p5
aS'https://www.clarin.com/politica/particular-descargo-periodista-corrupcion-Lopez_0_1596440450.html'
p6
a.