(lp0
Vhttps://www.clarin.com/sociedad/Impresionante-aterrizaje-forzoso-Praga-viento_0_1666033398.html
p1
aVhttps://www.clarin.com/sociedad/Impresionante-aterrizaje-forzoso-Praga-viento_0_1666033398.html
p2
a.