(lp0
Vhttps://www.clarin.com/politica/Fotos-exclusivas-emblematico-Baez-Kirchner_0_1586241510.html
p1
aVhttps://www.clarin.com/politica/Fotos-exclusivas-emblematico-Baez-Kirchner_0_1586241510.html
p2
aVhttps://www.clarin.com/politica/Procesan-funcionarios-autoridad-Cablevision-Fibertel_0_1586241498.html
p3
aVhttps://www.clarin.com/politica/Procesan-funcionarios-autoridad-Cablevision-Fibertel_0_1586241498.html
p4
aVhttps://www.clarin.com/sociedad/Crece-apunalado-festejar-triunfo-Boca_0_1586241503.html
p5
aVhttps://www.clarin.com/sociedad/Crece-apunalado-festejar-triunfo-Boca_0_1586241503.html
p6
aVhttps://www.clarin.com/politica/levanto-petrolero-Chubut-Santa-Cruz_0_1586241501.html
p7
aVhttps://www.clarin.com/politica/levanto-petrolero-Chubut-Santa-Cruz_0_1586241501.html
p8
aVhttps://www.clarin.com/sociedad/calentamiento-Gran-Barrera-Coral-australiana_0_1586241471.html
p9
aVhttps://www.clarin.com/sociedad/calentamiento-Gran-Barrera-Coral-australiana_0_1586241471.html
p10
aVhttps://www.clarin.com/sociedad/festejar-Nueva-York-Portugal-Kayak_0_1586241468.html
p11
aVhttps://www.clarin.com/sociedad/festejar-Nueva-York-Portugal-Kayak_0_1586241468.html
p12
a.