(lp0
Vhttps://www.clarin.com/politica/huelga-bancos-lunes_0_1562243899.html
p1
aVhttps://www.clarin.com/politica/huelga-bancos-lunes_0_1562243899.html
p2
aVhttps://www.clarin.com/ieco/economia/Desginan-representacion-Argentina-Banco-Mundial_0_1562243895.html
p3
aVhttps://www.clarin.com/ieco/economia/Desginan-representacion-Argentina-Banco-Mundial_0_1562243895.html
p4
aVhttps://www.clarin.com/politica/corrupcion-principal-preocupacion-argentinos_0_1562243893.html
p5
a.