(lp0
S'https://www.clarin.com/politica/medida-Macri-cerro-grieta_0_1635436618.html'
p1
aS'https://www.clarin.com/opinion/Avances-terminar-reeleccion-indefinida_0_1636036383.html'
p2
aS'https://www.clarin.com/sociedad/Superdotados-cerebros-brillantes-corazones-ninos_0_1634836672.html'
p3
aS'https://www.clarin.com/opinion/merecen-tener-viaje_0_1635436574.html'
p4
aS'https://www.clarin.com/politica/operacion-delictiva-mafiosa_0_1635436600.html'
p5
aS'https://www.clarin.com/ieco/economia/Jubilados-mitad-consultaron-reajuste_0_1635436570.html'
p6
aS'https://www.clarin.com/opinion/vuelta-gas-mangos_0_1636036381.html'
p7
aS'https://www.clarin.com/opinion/olvidado-arte-conversacion_0_1635436550.html'
p8
aS'https://www.clarin.com/opinion/Gils-Carbo-empujada-puerta-salida_0_1636036384.html'
p9
a.