(lp0
S'https://www.clarin.com/sociedad/robaron-Renault-encadeno-policia-busque_0_1530447170.html'
p1
aS'https://www.clarin.com/sociedad/acuerdo-docentes-comienzan-clases-Provincia_0_1530447191.html'
p2
a.