(lp0
Vhttps://www.clarin.com/politica/Cristina-Kirchner-Azurduy-Cristobal-Colon_0_1524447719.html
p1
aVhttps://www.clarin.com/politica/Cristina-Kirchner-Azurduy-Cristobal-Colon_0_1524447719.html
p2
aVhttps://www.clarin.com/sociedad/revitalizacion-home-noticiosa-pronosticos_0_1525047888.html
p3
aVhttps://www.clarin.com/sociedad/revitalizacion-home-noticiosa-pronosticos_0_1525047888.html
p4
aVhttps://www.clarin.com/sociedad/Volco-larga-distacia-Plata-heridos_0_1525647523.html
p5
a.