(lp0
Vhttps://www.clarin.com/ieco/economia/Blanqueo-tibio-arranque-operacion-exterior_0_1646235369.html
p1
aVhttps://www.clarin.com/ieco/economia/Blanqueo-tibio-arranque-operacion-exterior_0_1646235369.html
p2
aVhttps://www.clarin.com/opinion/innovacion-Argentina-parte-rezagada_0_1645635554.html
p3
aVhttps://www.clarin.com/opinion/regalo-Colombia-mundo-conflictivo_0_1645635556.html
p4
aVhttps://www.clarin.com/opinion/regalo-Colombia-mundo-conflictivo_0_1645635556.html
p5
aVhttps://www.clarin.com/opinion/vida-alumnos-Internet-cambia-docente_0_1645635557.html
p6
aVhttps://www.clarin.com/politica/Macri-hizo-deberes-Corte-cumplio_0_1646235364.html
p7
aVhttps://www.clarin.com/politica/Gas-luz-alivio-Casa-Rosada_0_1646235363.html
p8
aVhttps://www.clarin.com/politica/Scioli-paracaidista_0_1646235362.html
p9
aVhttps://www.clarin.com/opinion/Defensa-libro-cualquier-precio_0_1645635572.html
p10
aVhttps://www.clarin.com/sociedad/mito-Gilda-revive-tragica-muerte_0_1645035584.html
p11
aVhttps://www.clarin.com/sociedad/mito-Gilda-revive-tragica-muerte_0_1645035584.html
p12
a.