(lp0
S'https://www.clarin.com/politica/Macri-votacion-Senado-politica-contaminada_0_1596440416.html'
p1
aS'https://www.clarin.com/politica/Macri-votacion-Senado-politica-contaminada_0_1596440416.html'
p2
aS'https://www.clarin.com/sociedad/Disney-inauguro-nuevo-parque-China_0_1596440415.html'
p3
aS'https://www.clarin.com/sociedad/Disney-inauguro-nuevo-parque-China_0_1596440415.html'
p4
aS'https://www.clarin.com/sociedad/Francia-medicos-deberan-decidir-disputa_0_1596440413.html'
p5
aS'https://www.clarin.com/sociedad/Francia-medicos-deberan-decidir-disputa_0_1596440413.html'
p6
aS'https://www.clarin.com/politica/senadoras-senador-siguen-bancando-Cristina_0_1596440409.html'
p7
aS'https://www.clarin.com/politica/senadoras-senador-siguen-bancando-Cristina_0_1596440409.html'
p8
aS'https://www.clarin.com/sociedad/intoxico-purpurina-grave-dieron-alta_0_1596440410.html'
p9
aS'https://www.clarin.com/sociedad/intoxico-purpurina-grave-dieron-alta_0_1596440410.html'
p10
aS'https://www.clarin.com/sociedad/abuela-famosa-favor-gracias-Google_0_1596440403.html'
p11
aS'https://www.clarin.com/sociedad/abuela-famosa-favor-gracias-Google_0_1596440403.html'
p12
aS'https://www.clarin.com/politica/abogada-Lopez-estresado-sufriendo_0_1596440408.html'
p13
aS'https://www.clarin.com/politica/abogada-Lopez-estresado-sufriendo_0_1596440408.html'
p14
aS'https://www.clarin.com/politica/Oficina-Anticorrupcion-pidio-embargar-Vido_0_1596440405.html'
p15
aS'https://www.clarin.com/politica/Oficina-Anticorrupcion-pidio-embargar-Vido_0_1596440405.html'
p16
aS'https://www.clarin.com/sociedad/dijo-Disney-nene-cocodrilo-Orlando_0_1596440404.html'
p17
aS'https://www.clarin.com/sociedad/dijo-Disney-nene-cocodrilo-Orlando_0_1596440404.html'
p18
a.