(lp0
S'https://www.clarin.com/politica/Comienza-juicio-delitos-humanidad-acusados_0_1666633388.html'
p1
aS'https://www.clarin.com/ieco/Central-reglamento-uso-alias-CBU_0_1666633385.html'
p2
aS'https://www.clarin.com/politica/Garavano-Justicia-reivindico-Cristina-Kirchner_0_1666633386.html'
p3
aS'https://www.clarin.com/politica/Maxima-recargada-reuniones-Sturzenegger-Malcorra_0_1666633378.html'
p4
aS'https://www.clarin.com/ieco/economia/IPC-Congreso-tarifas-inflacion-septiembre_0_1666633381.html'
p5
aS'https://www.clarin.com/politica/conocidos-periodistas-hablaran-marcha-hoy_0_1666633387.html'
p6
a.