(lp0
Vhttps://www.clarin.com/ieco/economia/Camioneros-protestan-Central-posibles-despidos_0_1517248433.html
p1
aVhttps://www.clarin.com/ieco/economia/Camioneros-protestan-Central-posibles-despidos_0_1517248433.html
p2
aVhttps://www.clarin.com/politica/Detectaron-Yacimientos-Carboniferos-Rio-Turbio_0_1516048616.html
p3
aVhttps://www.clarin.com/politica/Detectaron-Yacimientos-Carboniferos-Rio-Turbio_0_1516048616.html
p4
aVhttps://www.clarin.com/politica/Macri-cambiola-Cristina-reemplazada-teniente_0_1517248406.html
p5
aVhttps://www.clarin.com/politica/Macri-cambiola-Cristina-reemplazada-teniente_0_1517248406.html
p6
a.