(lp0
Vhttps://www.clarin.com/politica/Macri-escandalo-Lopez-fin-kirchnerismo_0_1597040393.html
p1
aVhttps://www.clarin.com/politica/Macri-escandalo-Lopez-fin-kirchnerismo_0_1597040393.html
p2
aVhttps://www.clarin.com/politica/Pidio-disculpas-concejal-trompadas-Vidal_0_1597040392.html
p3
aVhttps://www.clarin.com/politica/Pidio-disculpas-concejal-trompadas-Vidal_0_1597040392.html
p4
aVhttps://www.clarin.com/politica/Moreno-intento-minimizar-detencion-Lopez_0_1597040380.html
p5
aVhttps://www.clarin.com/politica/Moreno-intento-minimizar-detencion-Lopez_0_1597040380.html
p6
aVhttps://www.clarin.com/ieco/economia/Viedma-Justicia-congela-techo-tarifas_0_1597040386.html
p7
aVhttps://www.clarin.com/ieco/economia/Viedma-Justicia-congela-techo-tarifas_0_1597040386.html
p8
aVhttps://www.clarin.com/ieco/economia/Gobierno-relanzar-aerolinea-estatal-Lade_0_1597040383.html
p9
a.