(lp0
S'https://www.clarin.com/sociedad/galpon-femicidio-mensajes-afecto-justicia_0_1576642382.html'
p1
aS'https://www.clarin.com/sociedad/tardes-Borda-llevar-suenos-mundo_0_1576642381.html'
p2
aS'https://www.clarin.com/sociedad/tiroteo-tino-sangre-confiteria-Avellaneda_0_1576642380.html'
p3
aS'https://www.clarin.com/sociedad/Incendiaron-escuela-pibes-clases-medio_0_1576642379.html'
p4
a.