(lp0
S'https://www.clarin.com/sociedad/Brasil-continua-busqueda-argentinos-perdidos_0_1512449100.html'
p1
aS'https://www.clarin.com/politica/Martin_Lousteau-Estados_Unidos-Barack_Obama_0_1512449139.html'
p2
aS'https://www.clarin.com/sociedad/Hallan-Rio-Plata-investigan-desaparecida_0_1512449103.html'
p3
a.