(lp0
Vhttps://www.clarin.com/politica/Pondran-topes-tarifas-comercios-Pymes_0_1588041306.html
p1
aVhttps://www.clarin.com/politica/Pondran-topes-tarifas-comercios-Pymes_0_1588041306.html
p2
aVhttps://www.clarin.com/sociedad/necesitan-millones-Gran-Barrera-Coral_0_1588041278.html
p3
aVhttps://www.clarin.com/sociedad/necesitan-millones-Gran-Barrera-Coral_0_1588041278.html
p4
aVhttps://www.clarin.com/ieco/finanzas/dolar-mayorista-sigue-cayendo_0_1588041303.html
p5
aVhttps://www.clarin.com/sociedad/muertos-gripe-suman-ano_0_1588041274.html
p6
aVhttps://www.clarin.com/sociedad/muertos-gripe-suman-ano_0_1588041274.html
p7
aVhttps://www.clarin.com/sociedad/equivoco-camino-GPS-salvo-delfin_0_1588041295.html
p8
aVhttps://www.clarin.com/sociedad/equivoco-camino-GPS-salvo-delfin_0_1588041295.html
p9
aVhttps://www.clarin.com/sociedad/Video-escanean-piramides-Egipto_0_1588041281.html
p10
aVhttps://www.clarin.com/sociedad/Video-escanean-piramides-Egipto_0_1588041281.html
p11
a.