(lp0
S'https://www.clarin.com/ieco/economia/Indec-conocer-primer-indice-precios_0_1557444597.html'
p1
aS'https://www.clarin.com/sociedad/condenaron-acosar-nena-Internet-preso_0_1557444620.html'
p2
aS'https://www.clarin.com/politica/CGT-van-Rosada-reunirse-Macri_0_1557444634.html'
p3
aS'https://www.clarin.com/sociedad/Distinguen-Chile-periodista-Clarin_0_1557444614.html'
p4
aS'https://www.clarin.com/ieco/economia/Historica-empresa-Chilena-ilegalmente-Malvinas_0_1557444610.html'
p5
aS'https://www.clarin.com/politica/Amenazaron-Farina-Metropolitana-custodia-familia_0_1557444617.html'
p6
a.