(lp0
S'https://www.clarin.com/sociedad/mejores-imagenes-cientificas-ano_0_1537646515.html'
p1
aS'https://www.clarin.com/sociedad/mejores-imagenes-cientificas-ano_0_1537646515.html'
p2
aS'https://www.clarin.com/sociedad/custodia-hijo-Madonna-vez-Justicia_0_1537646510.html'
p3
aS'https://www.clarin.com/sociedad/custodia-hijo-Madonna-vez-Justicia_0_1537646510.html'
p4
aS'https://www.clarin.com/ieco/economia/deficit-fiscal-rozo-millones-pesos_0_1537646505.html'
p5
aS'https://www.clarin.com/ieco/economia/deficit-fiscal-rozo-millones-pesos_0_1537646505.html'
p6
aS'https://www.clarin.com/sociedad/Video-pinguino-recorre-kilometros-hombre_0_1537646501.html'
p7
aS'https://www.clarin.com/sociedad/Video-pinguino-recorre-kilometros-hombre_0_1537646501.html'
p8
aS'https://www.clarin.com/sociedad/dentista-horror-destrozo-bocas-Francia_0_1537646499.html'
p9
aS'https://www.clarin.com/sociedad/dentista-horror-destrozo-bocas-Francia_0_1537646499.html'
p10
aS'https://www.clarin.com/ieco/economia/Monsanto-Gobierno-tomado-medidas-positivas_0_1537646493.html'
p11
aS'https://www.clarin.com/ieco/economia/Monsanto-Gobierno-tomado-medidas-positivas_0_1537646493.html'
p12
aS'https://www.clarin.com/politica/Gobierno-ofrecio-acelerar-devolucion-provincias_0_1537646496.html'
p13
aS'https://www.clarin.com/politica/Gobierno-ofrecio-acelerar-devolucion-provincias_0_1537646496.html'
p14
a.