(lp0
Vhttps://www.clarin.com/sociedad/mundo-gordos-flacos_0_1550845314.html
p1
aVhttps://www.clarin.com/sociedad/mundo-gordos-flacos_0_1550845314.html
p2
aVhttps://www.clarin.com/ieco/economia/familias-baja-deuda-hogar-pesos_0_1550845279.html
p3
aVhttps://www.clarin.com/ieco/economia/familias-baja-deuda-hogar-pesos_0_1550845279.html
p4
aVhttps://www.clarin.com/sociedad/Atendido-presos-exito-restaurante-carcel_0_1550845329.html
p5
aVhttps://www.clarin.com/sociedad/Atendido-presos-exito-restaurante-carcel_0_1550845329.html
p6
aVhttps://www.clarin.com/politica/Despues-fuerte-suba-tarifas-antiinflacionario_0_1550845369.html
p7
aVhttps://www.clarin.com/politica/estudio-molesta-gobiernos_0_1550845326.html
p8
aVhttps://www.clarin.com/opinion/requiem-habito-saludo_0_1550845252.html
p9
aVhttps://www.clarin.com/ieco/economia/Gobierno-analizara-posicion-dominante-sectores_0_1550845373.html
p10
aVhttps://www.clarin.com/ieco/economia/Gobierno-analizara-posicion-dominante-sectores_0_1550845373.html
p11
aVhttps://www.clarin.com/ieco/economia/abril-autos-aumentan-promedio_0_1550845346.html
p12
aVhttps://www.clarin.com/ieco/economia/abril-autos-aumentan-promedio_0_1550845346.html
p13
aVhttps://www.clarin.com/ieco/Gas-consumen-mayores-aumentos_0_1550845387.html
p14
aVhttps://www.clarin.com/ieco/Expertos-hablan-arrastre-herencia_0_1550845390.html
p15
a.