(lp0
S'https://www.clarin.com/politica/UCR-celebra-Yrigoyen-especula-Lousteau_0_1666033511.html'
p1
aS'https://www.clarin.com/politica/vigilias-Roma-prepara-canonizar-Brochero_0_1666033532.html'
p2
aS'https://www.clarin.com/sociedad/familias-viajaron-Chile-tecnologia-baratas_0_1666033530.html'
p3
aS'https://www.clarin.com/sociedad/espacio-buscan-paises-viajes-interplanetarios_0_1666033531.html'
p4
a.