(lp0
S'https://www.clarin.com/sociedad/expande-amenaza-payasos-asesinos_0_1666633351.html'
p1
aS'https://www.clarin.com/sociedad/expande-amenaza-payasos-asesinos_0_1666633351.html'
p2
aS'https://www.clarin.com/politica/inseguridad-criticas-Cristina-Kirchner-jueces_0_1666633355.html'
p3
aS'https://www.clarin.com/politica/inseguridad-criticas-Cristina-Kirchner-jueces_0_1666633355.html'
p4
aS'https://www.clarin.com/sociedad/agradecimiento-osezno-rescatado-incendio_0_1666633353.html'
p5
aS'https://www.clarin.com/sociedad/agradecimiento-osezno-rescatado-incendio_0_1666633353.html'
p6
aS'https://www.clarin.com/politica/Tarde-complicada-Congreso-estatales-inseguridad_0_1666633352.html'
p7
aS'https://www.clarin.com/politica/Tarde-complicada-Congreso-estatales-inseguridad_0_1666633352.html'
p8
aS'https://www.clarin.com/ieco/ventas-Arcor-Puma-anticipan-vacaciones_0_1666633350.html'
p9
aS'https://www.clarin.com/ieco/ventas-Arcor-Puma-anticipan-vacaciones_0_1666633350.html'
p10
a.