(lp0
S'https://www.clarin.com/ieco/economia/contrato-kirchnerismo-quiso-ocultar_0_1654034807.html'
p1
aS'https://www.clarin.com/politica/Pedro-Lacoste-economia-empezando-rebotar_0_1654034709.html'
p2
aS'https://www.clarin.com/ieco/economia/Dieron-Chevron-beneficios-excepcionales_0_1654034801.html'
p3
aS'https://www.clarin.com/ieco/Ampliacion-millonaria-presupuesto-pagar-deuda_0_1654034602.html'
p4
aS'https://www.clarin.com/sociedad/muerto-fiesta-Dia-Primavera_0_1654634531.html'
p5
aS'https://www.clarin.com/ieco/ventas-Km-financiacion-subieron-agosto_0_1654034789.html'
p6
aS'https://www.clarin.com/ieco/economia/Corregir-rumbo-economico-puntos-inflacion_0_1654034738.html'
p7
aS'https://www.clarin.com/politica/Reves-Cristobal-Corte-Capital-Federal_0_1654034747.html'
p8
aS'https://www.clarin.com/ieco/industria-lechera-leyes-salir-crisis_0_1654034777.html'
p9
a.