(lp0
Vhttps://www.clarin.com/sociedad/Murio-Japon-hombre-longevo-planeta_0_1507049469.html
p1
aVhttps://www.clarin.com/sociedad/Murio-Japon-hombre-longevo-planeta_0_1507049469.html
p2
aVhttps://www.clarin.com/politica/Zaffaroni-detencion-Milagro-Sala-terminara_0_1507049495.html
p3
aVhttps://www.clarin.com/politica/Zaffaroni-detencion-Milagro-Sala-terminara_0_1507049495.html
p4
aVhttps://www.clarin.com/ieco/economia/Macri-intensa-cargada-agenda-Davos_0_1507049493.html
p5
aVhttps://www.clarin.com/ieco/economia/Macri-intensa-cargada-agenda-Davos_0_1507049493.html
p6
aVhttps://www.clarin.com/sociedad/Luna-estrella-gigante-juntaran-cielo_0_1507049483.html
p7
aVhttps://www.clarin.com/sociedad/Luna-estrella-gigante-juntaran-cielo_0_1507049483.html
p8
a.