(lp0
S'https://www.clarin.com/sociedad/primera-esclava-sexual-Justicia-explotadores_0_1681631982.html'
p1
aS'https://www.clarin.com/sociedad/primera-esclava-sexual-Justicia-explotadores_0_1681631982.html'
p2
aS'https://www.clarin.com/politica/sociedad-sistema-educativo-funcionando-bien_0_1681631979.html'
p3
aS'https://www.clarin.com/politica/sociedad-sistema-educativo-funcionando-bien_0_1681631979.html'
p4
aS'https://www.clarin.com/ieco/Calculan-familia-feliz-necesita-mes_0_1681631972.html'
p5
aS'https://www.clarin.com/politica/lideres-sociales-Francisco-arremetio-dinero_0_1681631970.html'
p6
aS'https://www.clarin.com/ieco/Shell-Petrobras-Oil-estaciones-servicio_0_1681032086.html'
p7
aS'https://www.clarin.com/ieco/Shell-Petrobras-Oil-estaciones-servicio_0_1681032086.html'
p8
aS'https://www.clarin.com/opinion/Trump-retorica-veneno_0_1681631969.html'
p9
aS'https://www.clarin.com/opinion/Trump-retorica-veneno_0_1681631969.html'
p10
aS'https://www.clarin.com/opinion/argentinos-vieron-refugiados-pueden-olvidar_0_1681631967.html'
p11
aS'https://www.clarin.com/opinion/argentinos-vieron-refugiados-pueden-olvidar_0_1681631967.html'
p12
aS'https://www.clarin.com/sociedad/caras-detras-lucha-violencia-genero_0_1681631968.html'
p13
aS'https://www.clarin.com/sociedad/caras-detras-lucha-violencia-genero_0_1681631968.html'
p14
a.