(lp0
S'https://www.clarin.com/politica/Inundaciones-Macri-Rios-Santa-Fe_0_1559244203.html'
p1
aS'https://www.clarin.com/politica/misterio-legajo-perdido-Ciccone-aparecio_0_1559244189.html'
p2
aS'https://www.clarin.com/sociedad/OMS-aprueba-primera-vacuna-dengue_0_1559244208.html'
p3
aS'https://www.clarin.com/sociedad/Rige-tormentas-Litoral-afectado-inundaciones_0_1559244198.html'
p4
a.