(lp0
S'https://www.clarin.com/politica/Fondos-buitre-acuerdo-millones-dolares_0_1557444680.html'
p1
aS'https://www.clarin.com/politica/declarar-Cristina-balcon-departamento-Recoleta_0_1557444636.html'
p2
aS'https://www.clarin.com/sociedad/perito-EEUU-cuestiono-explotacion-Veladero_0_1557444628.html'
p3
aS'https://www.clarin.com/politica/Pan-American-Energy-despega-amenazas_0_1557444695.html'
p4
aS'https://www.clarin.com/politica/Tierra-Fuego-enfrentamiento-estatales-Camioneros_0_1557444674.html'
p5
aS'https://www.clarin.com/ieco/economia/indice-inflacion-Congreso-alza-marzo_0_1557444651.html'
p6
a.