(lp0
Vhttps://www.clarin.com/politica/Todas-sospechas-salpican-empresas-Cristina_0_1575442566.html
p1
aVhttps://www.clarin.com/politica/Todas-sospechas-salpican-empresas-Cristina_0_1575442566.html
p2
aVhttps://www.clarin.com/opinion/remedio-corregir-injusticias_0_1575442585.html
p3
aVhttps://www.clarin.com/sociedad/perro-desfiguro-chico-medio-prision_0_1575442581.html
p4
aVhttps://www.clarin.com/sociedad/perro-desfiguro-chico-medio-prision_0_1575442581.html
p5
aVhttps://www.clarin.com/sociedad/Argentina-logra-bajar-cantidad-abortos_0_1575442534.html
p6
aVhttps://www.clarin.com/ieco/economia/mucha-oferta-dolar-sigue-caida_0_1575442580.html
p7
aVhttps://www.clarin.com/ieco/economia/mucha-oferta-dolar-sigue-caida_0_1575442580.html
p8
aVhttps://www.clarin.com/sociedad/Denuncian-abusaron-nena-escuela_0_1575442577.html
p9
a.