(lp0
S'https://www.clarin.com/politica/bienes-Cristina-apunto-juez-Bonadio_0_1608439265.html'
p1
aS'https://www.clarin.com/politica/bienes-Cristina-apunto-juez-Bonadio_0_1608439265.html'
p2
aS'https://www.clarin.com/politica/Vecino-Ilustre-descubrir-Jose-Lopez_0_1608439278.html'
p3
aS'https://www.clarin.com/politica/Vecino-Ilustre-descubrir-Jose-Lopez_0_1608439278.html'
p4
aS'https://www.clarin.com/politica/Stolbizer-respondio-Cristina-sugerente-Twitter_0_1608439277.html'
p5
aS'https://www.clarin.com/politica/Stolbizer-respondio-Cristina-sugerente-Twitter_0_1608439277.html'
p6
a.