(lp0
Vhttps://www.clarin.com/sociedad/Buscan-atencion-enfermedad-manchas-cafe_0_1603039757.html
p1
aVhttps://www.clarin.com/sociedad/Buscan-atencion-enfermedad-manchas-cafe_0_1603039757.html
p2
aVhttps://www.clarin.com/sociedad/Chile-batalla-frontal-obesidad-infantil_0_1603039756.html
p3
aVhttps://www.clarin.com/sociedad/Chile-batalla-frontal-obesidad-infantil_0_1603039756.html
p4
aVhttps://www.clarin.com/politica/Reyes-contrabando-investigan-sociedades-megacausa_0_1603039746.html
p5
aVhttps://www.clarin.com/politica/Reyes-contrabando-investigan-sociedades-megacausa_0_1603039746.html
p6
aVhttps://www.clarin.com/politica/traspie-Echegaray-Justicia-volver-AGN_0_1603039749.html
p7
aVhttps://www.clarin.com/politica/traspie-Echegaray-Justicia-volver-AGN_0_1603039749.html
p8
aVhttps://www.clarin.com/politica/Revelan-Baez-detalles-Cristina-Casanello_0_1603039747.html
p9
aVhttps://www.clarin.com/politica/Revelan-Baez-detalles-Cristina-Casanello_0_1603039747.html
p10
a.