(lp0
Vhttps://www.clarin.com/politica/Massa-serio-importando-frutas-verduras_0_1645635448.html
p1
aVhttps://www.clarin.com/politica/Massa-serio-importando-frutas-verduras_0_1645635448.html
p2
aVhttps://www.clarin.com/sociedad/calvario-argentina-Egipto-separo-puede_0_1645635446.html
p3
aVhttps://www.clarin.com/sociedad/calvario-argentina-Egipto-separo-puede_0_1645635446.html
p4
aVhttps://www.clarin.com/politica/Denuncian-penalmente-funcionarios-sobreprecios-deuda_0_1645635440.html
p5
aVhttps://www.clarin.com/politica/Denuncian-penalmente-funcionarios-sobreprecios-deuda_0_1645635440.html
p6
aVhttps://www.clarin.com/sociedad/Atacaron-escuela-bonaerense-suman-hechos_0_1645635435.html
p7
aVhttps://www.clarin.com/politica/Pinedo-Quieren-Michetti-Capone-chiquitos_0_1645635431.html
p8
aVhttps://www.clarin.com/politica/Pinedo-Quieren-Michetti-Capone-chiquitos_0_1645635431.html
p9
a.