(lp0
Vhttps://www.clarin.com/sociedad/Denuncian-tiraron-restos-cementerio-rellenar_0_1567043472.html
p1
aVhttps://www.clarin.com/sociedad/Denuncian-tiraron-restos-cementerio-rellenar_0_1567043472.html
p2
aVhttps://www.clarin.com/sociedad/universidad-prohibieron-clases-panelista-denunciado_0_1567043467.html
p3
aVhttps://www.clarin.com/sociedad/universidad-prohibieron-clases-panelista-denunciado_0_1567043467.html
p4
aVhttps://www.clarin.com/politica/Macri-antidespidos-Destruye-trabajo-argentinos_0_1567043468.html
p5
aVhttps://www.clarin.com/politica/Macri-antidespidos-Destruye-trabajo-argentinos_0_1567043468.html
p6
aVhttps://www.clarin.com/politica/Confirman-empresario-acusado-sobornar-Recalde_0_1567043450.html
p7
aVhttps://www.clarin.com/politica/Confirman-empresario-acusado-sobornar-Recalde_0_1567043450.html
p8
aVhttps://www.clarin.com/politica/Allanan-estancia-Baez-Uruguay_0_1567043465.html
p9
aVhttps://www.clarin.com/politica/Allanan-estancia-Baez-Uruguay_0_1567043465.html
p10
aVhttps://www.clarin.com/politica/Macri-anuncio-construir-millon-viviendas_0_1567043455.html
p11
a.