(lp0
S'https://www.clarin.com/politica/Macri-IDEA-Peron-solidaridad-empresarios_0_1667233461.html'
p1
aS'https://www.clarin.com/politica/Macri-IDEA-Peron-solidaridad-empresarios_0_1667233461.html'
p2
aS'https://www.clarin.com/politica/CGT-desactivo-recalienta-interna-sindical_0_1667233458.html'
p3
aS'https://www.clarin.com/politica/CGT-desactivo-recalienta-interna-sindical_0_1667233458.html'
p4
aS'https://www.clarin.com/sociedad/educacion-prueba-evaluaran-alumnos-pais_0_1667233457.html'
p5
aS'https://www.clarin.com/sociedad/educacion-prueba-evaluaran-alumnos-pais_0_1667233457.html'
p6
aS'https://www.clarin.com/politica/Hoy-Aduana-desplazado-Gomez-Centurion_0_1667233435.html'
p7
aS'https://www.clarin.com/politica/Hoy-Aduana-desplazado-Gomez-Centurion_0_1667233435.html'
p8
aS'https://www.clarin.com/sociedad/falencias-deberian-revisadas_0_1667233456.html'
p9
aS'https://www.clarin.com/sociedad/Evaluar-camino-mejorar_0_1667233455.html'
p10
aS'https://www.clarin.com/sociedad/herramienta-apoyar-escuelas_0_1667233454.html'
p11
aS'https://www.clarin.com/politica/Presupuesto-Vidal-busca-apoyo-Randazzo_0_1667233453.html'
p12
aS'https://www.clarin.com/politica/Presupuesto-Vidal-busca-apoyo-Randazzo_0_1667233453.html'
p13
a.