(lp0
S'https://www.clarin.com/sociedad/panelistas-reclaman-indemnizaciones-millonarias-Nacional_0_1607839281.html'
p1
aS'https://www.clarin.com/sociedad/panelistas-reclaman-indemnizaciones-millonarias-Nacional_0_1607839281.html'
p2
aS'https://www.clarin.com/sociedad/Llega-Mes-ARQ-vanguardia-arquitectura_0_1607839278.html'
p3
aS'https://www.clarin.com/sociedad/Llega-Mes-ARQ-vanguardia-arquitectura_0_1607839278.html'
p4
aS'https://www.clarin.com/sociedad/peleo-motociclistas-termino-tremendo-vuelco_0_1607839276.html'
p5
aS'https://www.clarin.com/sociedad/peleo-motociclistas-termino-tremendo-vuelco_0_1607839276.html'
p6
aS'https://www.clarin.com/sociedad/historia-Marcos-yerbas-volvio-escuela_0_1607839262.html'
p7
aS'https://www.clarin.com/sociedad/historia-Marcos-yerbas-volvio-escuela_0_1607839262.html'
p8
aS'https://www.clarin.com/politica/Baez-presentaron-responder-preguntas-Suiza_0_1607839220.html'
p9
aS'https://www.clarin.com/politica/Baez-presentaron-responder-preguntas-Suiza_0_1607839220.html'
p10
aS'https://www.clarin.com/ieco/negocio-lacteos-venden-ganan-producen_0_1607839260.html'
p11
a.