(lp0
Vhttps://www.clarin.com/ieco/economia/Nueva-emision-deuda-millones-euros_0_1663033752.html
p1
aVhttps://www.clarin.com/ieco/economia/Nueva-emision-deuda-millones-euros_0_1663033752.html
p2
aVhttps://www.clarin.com/sociedad/mensaje-oculto-esconde-perfecta-Instagram_0_1663033717.html
p3
aVhttps://www.clarin.com/sociedad/mensaje-oculto-esconde-perfecta-Instagram_0_1663033717.html
p4
aVhttps://www.clarin.com/politica/Macri-Lifschitz-Buenos-Aires-Santa_0_1663033749.html
p5
aVhttps://www.clarin.com/politica/Macri-Lifschitz-Buenos-Aires-Santa_0_1663033749.html
p6
aVhttps://www.clarin.com/politica/Alicia-Kirchner-economica-Santa-Cruz_0_1663033713.html
p7
aVhttps://www.clarin.com/politica/Alicia-Kirchner-economica-Santa-Cruz_0_1663033713.html
p8
aVhttps://www.clarin.com/politica/sciolista-encuesta-Cristina-Kirchner-siempre_0_1663033743.html
p9
aVhttps://www.clarin.com/politica/sciolista-encuesta-Cristina-Kirchner-siempre_0_1663033743.html
p10
aVhttps://www.clarin.com/sociedad/clientes-Personal-problemas-comunicarse-voz_0_1663033744.html
p11
aVhttps://www.clarin.com/sociedad/clientes-Personal-problemas-comunicarse-voz_0_1663033744.html
p12
aVhttps://www.clarin.com/politica/juez-Oyarbide-tino-pelo-Messi_0_1663033740.html
p13
aVhttps://www.clarin.com/politica/juez-Oyarbide-tino-pelo-Messi_0_1663033740.html
p14
a.