(lp0
S'https://www.clarin.com/ieco/economia/consumidores-busca-Precios-Cuidados_0_1512448889.html'
p1
aS'https://www.clarin.com/sociedad/Vuelven-investigar-acusado-sobrina-pelotero_0_1512448887.html'
p2
aS'https://www.clarin.com/opinion/Fabian_Bosoer_0_1512448801.html'
p3
aS'https://www.clarin.com/politica/servicio-electrico-mensual-tarifa-social_0_1512448865.html'
p4
a.