(lp0
Vhttps://www.clarin.com/sociedad/Union-Civil-italiana-intendente-Napoles_0_1656434387.html
p1
aVhttps://www.clarin.com/sociedad/Union-Civil-italiana-intendente-Napoles_0_1656434387.html
p2
aVhttps://www.clarin.com/politica/Macri-Vidal-Antonia-sorprendidos-Boca_0_1656434386.html
p3
aVhttps://www.clarin.com/politica/Macri-Vidal-Antonia-sorprendidos-Boca_0_1656434386.html
p4
aVhttps://www.clarin.com/politica/Juan-Manuel-Urtubey-Isabel-Macedo_0_1656434383.html
p5
aVhttps://www.clarin.com/politica/Juan-Manuel-Urtubey-Isabel-Macedo_0_1656434383.html
p6
aVhttps://www.clarin.com/politica/Barrionuevo-mejor-pais-hacer-paro_0_1656434382.html
p7
aVhttps://www.clarin.com/politica/Barrionuevo-mejor-pais-hacer-paro_0_1656434382.html
p8
aVhttps://www.clarin.com/sociedad/Murio-Max-Mannheimer-sobreviviente-extermino_0_1656434364.html
p9
aVhttps://www.clarin.com/sociedad/Murio-Max-Mannheimer-sobreviviente-extermino_0_1656434364.html
p10
a.