(lp0
S'https://www.clarin.com/sociedad/Parto-mira-cruce-medico-partera_0_1620437969.html'
p1
aS'https://www.clarin.com/sociedad/Parto-mira-cruce-medico-partera_0_1620437969.html'
p2
aS'https://www.clarin.com/politica/apuesta-Macri-EEUU-Hillary-Trump_0_1619838144.html'
p3
aS'https://www.clarin.com/politica/apuesta-Macri-EEUU-Hillary-Trump_0_1619838144.html'
p4
aS'https://www.clarin.com/sociedad/Alerta-sudestada-Rio-Plata-vientos_0_1620437959.html'
p5
aS'https://www.clarin.com/sociedad/Alerta-sudestada-Rio-Plata-vientos_0_1620437959.html'
p6
aS'https://www.clarin.com/politica/Facilitan-turistas-suficiente-EEUU-UE_0_1620437960.html'
p7
aS'https://www.clarin.com/politica/Facilitan-turistas-suficiente-EEUU-UE_0_1620437960.html'
p8
aS'https://www.clarin.com/sociedad/Parto-beba-sufrio-multiples-fracturas_0_1620437955.html'
p9
a.