(lp0
Vhttps://www.clarin.com/politica/acusado-mujeres-aportante-campana-Scioli-Zannini_0_1654634546.html
p1
aVhttps://www.clarin.com/politica/acusado-mujeres-aportante-campana-Scioli-Zannini_0_1654634546.html
p2
aVhttps://www.clarin.com/politica/Carrio-amplia-denuncia-Scioli-apunta_0_1654634542.html
p3
aVhttps://www.clarin.com/politica/Carrio-amplia-denuncia-Scioli-apunta_0_1654634542.html
p4
aVhttps://www.clarin.com/politica/Gobierno-asegura-crearon-empleos-construccion_0_1654634541.html
p5
aVhttps://www.clarin.com/politica/Gobierno-asegura-crearon-empleos-construccion_0_1654634541.html
p6
aVhttps://www.clarin.com/sociedad/Cristian-joven-fiesta-chico-adelante_0_1654634539.html
p7
aVhttps://www.clarin.com/sociedad/Cristian-joven-fiesta-chico-adelante_0_1654634539.html
p8
aVhttps://www.clarin.com/sociedad/mensajes-Twitter-Van-terminar-muertos_0_1654634534.html
p9
aVhttps://www.clarin.com/sociedad/mensajes-Twitter-Van-terminar-muertos_0_1654634534.html
p10
a.