(lp0
Vhttps://www.clarin.com/politica/regalos-Macri-Papa-Francisco_0_1530447088.html
p1
aVhttps://www.clarin.com/politica/regalos-Macri-Papa-Francisco_0_1530447088.html
p2
aVhttps://www.clarin.com/politica/Macri-primera-solas-Papa-presidente_0_1530447066.html
p3
aVhttps://www.clarin.com/politica/Macri-primera-solas-Papa-presidente_0_1530447066.html
p4
aVhttps://www.clarin.com/politica/Comercio-denuncio-cumplen-Precios-cuidados_0_1530447061.html
p5
aVhttps://www.clarin.com/politica/docentes-bonaerenses-definen-aceptan-aumento_0_1530447019.html
p6
aVhttps://www.clarin.com/politica/docentes-bonaerenses-definen-aceptan-aumento_0_1530447019.html
p7
aVhttps://www.clarin.com/ieco/economia/Aranguren-anuncio-revision-integral-electrica_0_1529847392.html
p8
aVhttps://www.clarin.com/ieco/economia/Provincia-Vidal-autorizo-subas_0_1529847396.html
p9
aVhttps://www.clarin.com/opinion/juez-aferro-sillon_0_1530447009.html
p10
a.