(lp0
S'https://www.clarin.com/ieco/economia/Jubilados-Fondo-ANSES-perjudicado-millones_0_1553245033.html'
p1
aS'https://www.clarin.com/ieco/economia/Optimismo-directivos-bancos-llegada-capitales_0_1553244965.html'
p2
aS'https://www.clarin.com/politica/Lazaro-Baez-Perez-Gadin-tribunales_0_1553844701.html'
p3
aS'https://www.clarin.com/ieco/economia/Cayo-produccion-autos_0_1553245068.html'
p4
aS'https://www.clarin.com/sociedad/elegante-sutil-paso-frente_0_1553245169.html'
p5
aS'https://www.clarin.com/ieco/economia/Sturzenegger-defendio-politica-interes-altas_0_1553245017.html'
p6
aS'https://www.clarin.com/ieco/economia/Inflacion-marzo-siguio-ascenso_0_1553245092.html'
p7
aS'https://www.clarin.com/ieco/economia/Gobierno-modero-subas-tarifas-agua_0_1553245144.html'
p8
aS'https://www.clarin.com/politica/fiscal-Marijuan-descarto-investigacion-Cristina_0_1553844705.html'
p9
aS'https://www.clarin.com/ieco/economia/Prat-Gay-anuncios-subas-tarifas_0_1553244927.html'
p10
a.