(lp0
S'https://www.clarin.com/politica/Ahora-Carrio-critica-ajuste-transportes_0_1549645153.html'
p1
aS'https://www.clarin.com/politica/Fondos-senador-opositor-votara-acuerdo_0_1549645136.html'
p2
aS'https://www.clarin.com/politica/PJ-riojano-senadoras-acuerdo-holdouts_0_1549645144.html'
p3
a.