(lp0
Vhttps://www.clarin.com/politica/Michetti-debio-salir-explicar-difundio_0_1615038562.html
p1
aVhttps://www.clarin.com/politica/Michetti-debio-salir-explicar-difundio_0_1615038562.html
p2
aVhttps://www.clarin.com/sociedad/Detienen-boxeador-Paton-Basile-golpear_0_1615038560.html
p3
aVhttps://www.clarin.com/sociedad/Detienen-boxeador-Paton-Basile-golpear_0_1615038560.html
p4
aVhttps://www.clarin.com/sociedad/joven-murio-pleno-recital-Renga_0_1615038546.html
p5
aVhttps://www.clarin.com/ieco/economia/Came-productos-agrarios-productor-multiplico_0_1615038533.html
p6
aVhttps://www.clarin.com/ieco/Cambios-grupo-Dentsu_0_1613838786.html
p7
a.