(lp0
S'https://www.clarin.com/sociedad/Time-Warp-Stinfale-seguira-domiciliaria_0_1586841338.html'
p1
aS'https://www.clarin.com/politica/minuto-politicos-Showmatch_0_1586841334.html'
p2
aS'https://www.clarin.com/ieco/economia/Preocupa-Mendoza-desabaestecimiento-combustible-petroleros_0_1586841335.html'
p3
aS'https://www.clarin.com/ieco/economia/Prat-Gay-Repsol-invertir-Argentina_0_1586841349.html'
p4
aS'https://www.clarin.com/sociedad/Mar-Plata-evacuados-mal-tiempo_0_1586841345.html'
p5
aS'https://www.clarin.com/politica/abogados-Baez-pidieron-reunirse-fiscal_0_1586841340.html'
p6
aS'https://www.clarin.com/politica/Obispos-Patagonia-suman-protesta-aumento_0_1586841351.html'
p7
a.