(lp0
Vhttps://www.clarin.com/politica/Julio-Vido-sospechoso-incremento-patrimonial_0_1615638421.html
p1
aVhttps://www.clarin.com/politica/Julio-Vido-sospechoso-incremento-patrimonial_0_1615638421.html
p2
aVhttps://www.clarin.com/opinion/nuevo-lexico-creo-Web_0_1615038543.html
p3
aVhttps://www.clarin.com/sociedad/Arrancar-agosto-segunda-punto-partida_0_1615038577.html
p4
aVhttps://www.clarin.com/sociedad/Arrancar-agosto-segunda-punto-partida_0_1615038577.html
p5
aVhttps://www.clarin.com/politica/allanamientos-sospechas-hijos-Baez_0_1615038542.html
p6
aVhttps://www.clarin.com/politica/allanamientos-sospechas-hijos-Baez_0_1615038542.html
p7
aVhttps://www.clarin.com/politica/Cristobal-Lopez-pidio-disponer-bienes_0_1615038563.html
p8
aVhttps://www.clarin.com/politica/Cristobal-Lopez-pidio-disponer-bienes_0_1615038563.html
p9
aVhttps://www.clarin.com/politica/AMIA-cantante-homenajeo-Marisa-companera_0_1615038583.html
p10
aVhttps://www.clarin.com/politica/AMIA-cantante-homenajeo-Marisa-companera_0_1615038583.html
p11
aVhttps://www.clarin.com/politica/espias-AFI-autopsia-Nisman_0_1615038594.html
p12
aVhttps://www.clarin.com/politica/espias-AFI-autopsia-Nisman_0_1615038594.html
p13
aVhttps://www.clarin.com/politica/fiscales-AMIA-admiten-fallas-revisan_0_1615038592.html
p14
aVhttps://www.clarin.com/politica/fiscales-AMIA-admiten-fallas-revisan_0_1615038592.html
p15
a.