(lp0
Vhttps://www.clarin.com/ieco/Oficializan-emision-bonos-salir-default_0_1563443688.html
p1
aVhttps://www.clarin.com/ieco/Oficializan-emision-bonos-salir-default_0_1563443688.html
p2
aVhttps://www.clarin.com/politica/Chueco-abogado-Baez-indagado-Casanello_0_1563443687.html
p3
aVhttps://www.clarin.com/politica/Chueco-abogado-Baez-indagado-Casanello_0_1563443687.html
p4
aVhttps://www.clarin.com/sociedad/patron-fiestas-Dell-hacinamiento-drogas_0_1563443680.html
p5
aVhttps://www.clarin.com/sociedad/patron-fiestas-Dell-hacinamiento-drogas_0_1563443680.html
p6
aVhttps://www.clarin.com/politica/Claudio-Bustos-confianza-Lazaro-Baez_0_1563443674.html
p7
aVhttps://www.clarin.com/politica/Claudio-Bustos-confianza-Lazaro-Baez_0_1563443674.html
p8
aVhttps://www.clarin.com/ieco/Movida-tecnologicas-argentinas-Nueva-York_0_1562843789.html
p9
aVhttps://www.clarin.com/ieco/economia/devolucion-suma-reintegro_0_1562843873.html
p10
a.