(lp0
Vhttps://www.clarin.com/sociedad/Controlar-cuatris-responsabilidad-padres_0_1511849177.html
p1
aVhttps://www.clarin.com/sociedad/Controlar-cuatris-responsabilidad-padres_0_1511849177.html
p2
aVhttps://www.clarin.com/ieco/Tarifas_electricas-Aranguren-Subsidios-Aumentos-Segmentacion-Tarifa_Social_0_1512448764.html
p3
aVhttps://www.clarin.com/politica/Tarifas_electricas-Aranguren-Subsidios-Aumentos_0_1512448763.html
p4
aVhttps://www.clarin.com/sociedad/Mar-Plata-playa-cubiertos-flores_0_1511849167.html
p5
aVhttps://www.clarin.com/sociedad/Mar-Plata-playa-cubiertos-flores_0_1511849167.html
p6
aVhttps://www.clarin.com/sociedad/anos-Challenger-tragedia-sueno-espacial_0_1511849166.html
p7
aVhttps://www.clarin.com/sociedad/anos-Challenger-tragedia-sueno-espacial_0_1511849166.html
p8
aVhttps://www.clarin.com/sociedad/Depresion-polemica-debate-detectarla-tiempo_0_1511849176.html
p9
aVhttps://www.clarin.com/sociedad/consagrados-YouTubers-ahora-llegan-YouNowers_0_1508849395.html
p10
aVhttps://www.clarin.com/sociedad/consagrados-YouTubers-ahora-llegan-YouNowers_0_1508849395.html
p11
aVhttps://www.clarin.com/politica/escenario-error-macri-ciudad_0_1512448759.html
p12
aVhttps://www.clarin.com/politica/Sala-Detencion-Allanamiento-Mercau-Tupac_0_1512448758.html
p13
aVhttps://www.clarin.com/ieco/economia/inflacion-luz-ajuste-tarifas_0_1512448757.html
p14
aVhttps://www.clarin.com/politica/Gobernadores-Mauricio_Macri-coparticipacion-PJ_0_1512448756.html
p15
aVhttps://www.clarin.com/politica/gobernadores-Casa_Rosada-Rogelio_Frigerio-Carlos_Verna_0_1512448755.html
p16
aVhttps://www.clarin.com/politica/gobernadores-Casa_Rosada-Rogelio_Frigerio-Carlos_Verna_0_1512448755.html
p17
a.