(lp0
Vhttps://www.clarin.com/politica/Volvio-Tiempo-Argentino-dedico-Macri_0_1564643607.html
p1
aVhttps://www.clarin.com/politica/Volvio-Tiempo-Argentino-dedico-Macri_0_1564643607.html
p2
aVhttps://www.clarin.com/politica/Carrio-Gabinete-politica-comunicacional-Gobierno_0_1564643606.html
p3
aVhttps://www.clarin.com/politica/Carrio-Gabinete-politica-comunicacional-Gobierno_0_1564643606.html
p4
aVhttps://www.clarin.com/politica/intendente-GBA-reclama-saco-kirchnerismo_0_1564643604.html
p5
aVhttps://www.clarin.com/politica/Lavagna-hablo-ley-antidespidos_0_1564643603.html
p6
aVhttps://www.clarin.com/politica/Lavagna-hablo-ley-antidespidos_0_1564643603.html
p7
aVhttps://www.clarin.com/sociedad/Costa-Salguero-preguntas-clave-fiscal_0_1564643601.html
p8
aVhttps://www.clarin.com/sociedad/Costa-Salguero-preguntas-clave-fiscal_0_1564643601.html
p9
aVhttps://www.clarin.com/sociedad/Rosario-proyecto-analizar-pastillas-electronicas_0_1564643598.html
p10
aVhttps://www.clarin.com/sociedad/Rosario-proyecto-analizar-pastillas-electronicas_0_1564643598.html
p11
aVhttps://www.clarin.com/ieco/economia/Grobocopatel_0_1564643548.html
p12
a.