(lp0
Vhttps://www.clarin.com/politica/Panama-Papers-Carrio-Mauricio-Macri_0_1553244800.html
p1
aVhttps://www.clarin.com/politica/Panama-Papers-Carrio-Mauricio-Macri_0_1553244800.html
p2
aVhttps://www.clarin.com/politica/Jaime-Economia-Rosada-Nestor-Kirchner_0_1553244795.html
p3
aVhttps://www.clarin.com/politica/Jaime-Economia-Rosada-Nestor-Kirchner_0_1553244795.html
p4
aVhttps://www.clarin.com/ieco/economia/Tarifas-primera-reunion-UIA-Prat-Gay_0_1553244787.html
p5
aVhttps://www.clarin.com/ieco/economia/Tarifas-primera-reunion-UIA-Prat-Gay_0_1553244787.html
p6
aVhttps://www.clarin.com/politica/Cumbre-vestuario-peronista-Gioja-PJ_0_1553244784.html
p7
aVhttps://www.clarin.com/politica/Cumbre-vestuario-peronista-Gioja-PJ_0_1553244784.html
p8
aVhttps://www.clarin.com/sociedad/Rios-flotando-evacuados-intensas-lluvias_0_1553244775.html
p9
aVhttps://www.clarin.com/sociedad/Rios-flotando-evacuados-intensas-lluvias_0_1553244775.html
p10
a.