(lp0
S'https://www.clarin.com/politica/Macri-numero-preocupar-solo-empleo_0_1637836237.html'
p1
aS'https://www.clarin.com/politica/Macri-numero-preocupar-solo-empleo_0_1637836237.html'
p2
aS'https://www.clarin.com/politica/Macri-defendio-tarifas-Salir-populismo_0_1637836233.html'
p3
aS'https://www.clarin.com/politica/Macri-defendio-tarifas-Salir-populismo_0_1637836233.html'
p4
aS'https://www.clarin.com/sociedad/fornicacion-polemica-columna-publico-Aguer_0_1637836231.html'
p5
aS'https://www.clarin.com/sociedad/fornicacion-polemica-columna-publico-Aguer_0_1637836231.html'
p6
aS'https://www.clarin.com/politica/Nora-Cortinas-exabrupto-Fernandez-Meijide_0_1637836232.html'
p7
aS'https://www.clarin.com/politica/Nora-Cortinas-exabrupto-Fernandez-Meijide_0_1637836232.html'
p8
a.