(lp0
S'https://www.clarin.com/sociedad/Lanzan-nuevo-plan-turismo-social_0_1595840546.html'
p1
aS'https://www.clarin.com/sociedad/Lanzan-nuevo-plan-turismo-social_0_1595840546.html'
p2
aS'https://www.clarin.com/sociedad/XL-reservas-Mar-Plata-llegan_0_1595840556.html'
p3
aS'https://www.clarin.com/sociedad/XL-reservas-Mar-Plata-llegan_0_1595840556.html'
p4
aS'https://www.clarin.com/sociedad/Detectan-segunda-gravitacionales-predijo-Einstein_0_1595840553.html'
p5
aS'https://www.clarin.com/sociedad/Detectan-segunda-gravitacionales-predijo-Einstein_0_1595840553.html'
p6
aS'https://www.clarin.com/politica/hija-Bonafini-preocupada-declaracion-Lopez_0_1595840551.html'
p7
aS'https://www.clarin.com/politica/hija-Bonafini-preocupada-declaracion-Lopez_0_1595840551.html'
p8
aS'https://www.clarin.com/politica/medicos-revisaron-Lopez-aseguran-declarar_0_1595840549.html'
p9
aS'https://www.clarin.com/politica/medicos-revisaron-Lopez-aseguran-declarar_0_1595840549.html'
p10
a.