(lp0
S'https://www.clarin.com/opinion/Macri-billones-dolares-Trump_0_1690630927.html'
p1
aS'https://www.clarin.com/ieco/economia/sidra-va-encuentro-consumidores-premium_0_1689431163.html'
p2
aS'https://www.clarin.com/opinion/Cuestion-clave-recorte-jefes-militares_0_1690630922.html'
p3
aS'https://www.clarin.com/ieco/economia/impacto-triunfo-Trump-gradualismo_0_1689431135.html'
p4
aS'https://www.clarin.com/ieco/economia/Explosiones-controladas-PJ_0_1689431172.html'
p5
aS'https://www.clarin.com/opinion/Perros-liberacion_0_1690630921.html'
p6
aS'https://www.clarin.com/ieco/economia/Fase-nacional-globalizacion_0_1689431149.html'
p7
aS'https://www.clarin.com/opinion/Cristina-consigue-frenar-avalancha_0_1690630923.html'
p8
aS'https://www.clarin.com/ieco/economia/Projimo-creatividad-inclusion_0_1689431184.html'
p9
aS'https://www.clarin.com/opinion/Macri-necesita-victoria-electoral-peronismo_0_1690630925.html'
p10
aS'https://www.clarin.com/opinion/aliada-aspera-imprescindible_0_1690630926.html'
p11
aS'https://www.clarin.com/ieco/economia/latas-cervezas-buscan-sostener-consumo_0_1689431141.html'
p12
aS'https://www.clarin.com/opinion/corrupcion-tapa-economia_0_1690630924.html'
p13
aS'https://www.clarin.com/ieco/campus-ieco/Realidad-virtual-simuladores-invaden-universitarias_0_1689431150.html'
p14
aS'https://www.clarin.com/ieco/economia/dilema-decidir-tiempos-incertidumbre-Trump_0_1689431186.html'
p15
a.