(lp0
Vhttps://www.clarin.com/ieco/economia/Gobierno-chileno-Patagonia-atender-compatriotas_0_1643235746.html
p1
aVhttps://www.clarin.com/ieco/economia/Gobierno-chileno-Patagonia-atender-compatriotas_0_1643235746.html
p2
aVhttps://www.clarin.com/ieco/Guelar-China-bien-economicamente-mejorando_0_1643235745.html
p3
aVhttps://www.clarin.com/ieco/Guelar-China-bien-economicamente-mejorando_0_1643235745.html
p4
aVhttps://www.clarin.com/ieco/Caen-expectativas-economicas-latinoamericanos_0_1643235743.html
p5
aVhttps://www.clarin.com/ieco/Caen-expectativas-economicas-latinoamericanos_0_1643235743.html
p6
aVhttps://www.clarin.com/sociedad/tripulantes-pesquero-hundido-suman-desaparecidos_0_1643235740.html
p7
aVhttps://www.clarin.com/sociedad/tripulantes-pesquero-hundido-suman-desaparecidos_0_1643235740.html
p8
a.