(lp0
S'https://www.clarin.com/sociedad/pesar-campanas-argentinos-fumador_0_1586241496.html'
p1
aS'https://www.clarin.com/politica/diputada-Cerruti-denuncio-Macri-enriquecimiento_0_1586241484.html'
p2
aS'https://www.clarin.com/politica/allanaron-Boca-Rio-Gallegos-Baez_0_1586241515.html'
p3
aS'https://www.clarin.com/sociedad/INADI-defiende-reina-belleza-mama_0_1586241500.html'
p4
aS'https://www.clarin.com/politica/Ruta-dinero-Justicia-libertad-expresion_0_1586241518.html'
p5
a.