(lp0
Vhttps://www.clarin.com/politica/Cristina-rapida-Santa-Cruz-Macri_0_1558044294.html
p1
aVhttps://www.clarin.com/politica/Cristina-rapida-Santa-Cruz-Macri_0_1558044294.html
p2
aVhttps://www.clarin.com/politica/Zaffaroni-imputacion-Cristina-codigo-penal_0_1558044290.html
p3
aVhttps://www.clarin.com/politica/Zaffaroni-imputacion-Cristina-codigo-penal_0_1558044290.html
p4
aVhttps://www.clarin.com/politica/Lazaro-Baez-detenido-enfermo-visitas_0_1557444670.html
p5
aVhttps://www.clarin.com/politica/Lazaro-Baez-detenido-enfermo-visitas_0_1557444670.html
p6
aVhttps://www.clarin.com/ieco/economia/Aval-FMI-metas-oficiales-inflacion_0_1558044321.html
p7
aVhttps://www.clarin.com/ieco/economia/Central-convalido-tasas-atraer-inversores_0_1558044317.html
p8
a.