(lp0
Vhttps://www.clarin.com/sociedad/tortas-famosas-Buddy-Valastro_0_1622837765.html
p1
aVhttps://www.clarin.com/sociedad/tortas-famosas-Buddy-Valastro_0_1622837765.html
p2
aVhttps://www.clarin.com/politica/Macri-apertura-oficial-Rural-presidente_0_1622837760.html
p3
aVhttps://www.clarin.com/politica/Macri-apertura-oficial-Rural-presidente_0_1622837760.html
p4
aVhttps://www.clarin.com/sociedad/Partir-saber_0_1613238799.html
p5
aVhttps://www.clarin.com/politica/Denuncian-juez-Figueroa_0_1622237950.html
p6
aVhttps://www.clarin.com/politica/Denuncian-juez-Figueroa_0_1622237950.html
p7
aVhttps://www.clarin.com/politica/Estudian-indagatoria-empresario-vinculado-Vido_0_1622237940.html
p8
aVhttps://www.clarin.com/politica/Estudian-indagatoria-empresario-vinculado-Vido_0_1622237940.html
p9
aVhttps://www.clarin.com/politica/Encontraron-muerto-Washington-ministro-Scioli_0_1622237962.html
p10
aVhttps://www.clarin.com/politica/Encontraron-muerto-Washington-ministro-Scioli_0_1622237962.html
p11
a.