(lp0
Vhttps://www.clarin.com/sociedad/Mira-ponerle-musica-Sol-Chicos_0_1622237883.html
p1
aVhttps://www.clarin.com/sociedad/Mira-ponerle-musica-Sol-Chicos_0_1622237883.html
p2
aVhttps://www.clarin.com/ieco/tecnologia/caen-gigantes-alta-tecnologia_0_1622237882.html
p3
aVhttps://www.clarin.com/sociedad/youtuber-Marina-Joyce-conto-moretones_0_1622237864.html
p4
aVhttps://www.clarin.com/sociedad/youtuber-Marina-Joyce-conto-moretones_0_1622237864.html
p5
aVhttps://www.clarin.com/sociedad/Descubren-especie-ballena-hocico-delfin_0_1622237874.html
p6
aVhttps://www.clarin.com/sociedad/Descubren-especie-ballena-hocico-delfin_0_1622237874.html
p7
aVhttps://www.clarin.com/sociedad/mujer-murio-Cordoba-consumido-extasis_0_1622237871.html
p8
aVhttps://www.clarin.com/sociedad/mujer-murio-Cordoba-consumido-extasis_0_1622237871.html
p9
a.