(lp0
Vhttps://www.clarin.com/politica/Camara-cancha-Casanello-apunta-bovedas_0_1558644384.html
p1
aVhttps://www.clarin.com/politica/Camara-cancha-Casanello-apunta-bovedas_0_1558644384.html
p2
aVhttps://www.clarin.com/sociedad/Filman-gorila-baila-ballet_0_1558644381.html
p3
aVhttps://www.clarin.com/sociedad/Filman-gorila-baila-ballet_0_1558644381.html
p4
aVhttps://www.clarin.com/politica/intendente-Nequen-rinoscopia-declaro-narcotrafico_0_1558644377.html
p5
aVhttps://www.clarin.com/politica/intendente-Nequen-rinoscopia-declaro-narcotrafico_0_1558644377.html
p6
aVhttps://www.clarin.com/politica/Urtubey-dijo-quiere-casarse-Macedo_0_1558644364.html
p7
aVhttps://www.clarin.com/politica/Urtubey-dijo-quiere-casarse-Macedo_0_1558644364.html
p8
aVhttps://www.clarin.com/politica/Manana-bancos-paro-empleados_0_1558044520.html
p9
aVhttps://www.clarin.com/politica/Manana-bancos-paro-empleados_0_1558044520.html
p10
a.