(lp0
S'https://www.clarin.com/sociedad/Time-Warp-iniciaria-organizador-argentina_0_1562243796.html'
p1
aS'https://www.clarin.com/sociedad/Time-Warp-iniciaria-organizador-argentina_0_1562243796.html'
p2
aS'https://www.clarin.com/politica/Fein-renuncia-Nisman-Lagomarsino-yCarrio_0_1562243801.html'
p3
aS'https://www.clarin.com/politica/Fein-renuncia-Nisman-Lagomarsino-yCarrio_0_1562243801.html'
p4
aS'https://www.clarin.com/sociedad/Mundial-Sommeliers-argentina-cuarto-puesto_0_1562243799.html'
p5
aS'https://www.clarin.com/sociedad/Mundial-Sommeliers-argentina-cuarto-puesto_0_1562243799.html'
p6
aS'https://www.clarin.com/politica/proximo-PJ-Macri-joder-gobernar_0_1562243795.html'
p7
aS'https://www.clarin.com/politica/proximo-PJ-Macri-joder-gobernar_0_1562243795.html'
p8
aS'https://www.clarin.com/ieco/UIA-reclamo-AFIP-cambios-impuestos_0_1562243792.html'
p9
a.