(lp0
S'https://www.clarin.com/opinion/Proteger-animales-justicia-compasion_0_1556844674.html'
p1
aS'https://www.clarin.com/sociedad/Yuri-Gagarin-cumplio-conquistar-espacio_0_1556844719.html'
p2
aS'https://www.clarin.com/sociedad/Yuri-Gagarin-cumplio-conquistar-espacio_0_1556844719.html'
p3
aS'https://www.clarin.com/politica/Macri-dijo-quiere-pais-impunidad_0_1556844705.html'
p4
aS'https://www.clarin.com/sociedad/Polemica-judaismo-primera-boda-religiosa_0_1556844706.html'
p5
aS'https://www.clarin.com/politica/Crean-comision-control-obras-publicas_0_1556844727.html'
p6
aS'https://www.clarin.com/politica/Crean-comision-control-obras-publicas_0_1556844727.html'
p7
aS'https://www.clarin.com/politica/Highton-Nolasco-adelanta-jubilara-Corte_0_1556844711.html'
p8
aS'https://www.clarin.com/ieco/pagar-Prat-Gay-celeridad-jueces-EEUU_0_1556844708.html'
p9
aS'https://www.clarin.com/ieco/pagar-Prat-Gay-celeridad-jueces-EEUU_0_1556844708.html'
p10
aS'https://www.clarin.com/ieco/Timido-comienzo-nuevos-creditos-hipotecarios_0_1556844725.html'
p11
aS'https://www.clarin.com/ieco/Timido-comienzo-nuevos-creditos-hipotecarios_0_1556844725.html'
p12
aS'https://www.clarin.com/politica/Stolbizer-Casanello-solicite-datos-Hotesur_0_1556844672.html'
p13
aS'https://www.clarin.com/politica/Stolbizer-Casanello-solicite-datos-Hotesur_0_1556844672.html'
p14
aS'https://www.clarin.com/politica/anos-escribano-Baez-cuadruplico-patrimonio_0_1556844704.html'
p15
aS'https://www.clarin.com/politica/anos-escribano-Baez-cuadruplico-patrimonio_0_1556844704.html'
p16
aS'https://www.clarin.com/politica/Presidente-siente-impacto-inflacion-tarifas_0_1556844688.html'
p17
aS'https://www.clarin.com/politica/Presidente-siente-impacto-inflacion-tarifas_0_1556844688.html'
p18
a.