(lp0
Vhttps://www.clarin.com/sociedad/Detienen-pareja-Guernica-golpear-meses_0_1582041830.html
p1
aVhttps://www.clarin.com/sociedad/Detienen-pareja-Guernica-golpear-meses_0_1582041830.html
p2
aVhttps://www.clarin.com/ieco/Gobierno-admiten-pais-peor-momento_0_1582041824.html
p3
aVhttps://www.clarin.com/ieco/Gobierno-admiten-pais-peor-momento_0_1582041824.html
p4
aVhttps://www.clarin.com/sociedad/top-nuevas-especies-raras-mundo_0_1582041823.html
p5
aVhttps://www.clarin.com/sociedad/top-nuevas-especies-raras-mundo_0_1582041823.html
p6
aVhttps://www.clarin.com/sociedad/Insisten-epidemia-gripe_0_1582041817.html
p7
aVhttps://www.clarin.com/sociedad/Insisten-epidemia-gripe_0_1582041817.html
p8
aVhttps://www.clarin.com/politica/arzobispo-cercano-Papa-Elisa-Carrio_0_1582041816.html
p9
aVhttps://www.clarin.com/politica/arzobispo-cercano-Papa-Elisa-Carrio_0_1582041816.html
p10
aVhttps://www.clarin.com/politica/Lazaro-Baez-momento-abandonado-custodio_0_1581441970.html
p11
aVhttps://www.clarin.com/politica/Lazaro-Baez-momento-abandonado-custodio_0_1581441970.html
p12
aVhttps://www.clarin.com/sociedad/Denuncio-mordieron-jardin-maestras-juicio_0_1582041813.html
p13
a.