(lp0
Vhttps://www.clarin.com/politica/Gobierno-hipotesis-terrorismo-Trabajamos-AFI_0_1657634236.html
p1
aVhttps://www.clarin.com/politica/Gobierno-hipotesis-terrorismo-Trabajamos-AFI_0_1657634236.html
p2
aVhttps://www.clarin.com/politica/estatales-muchas-razones-secretario-general_0_1657634235.html
p3
aVhttps://www.clarin.com/politica/estatales-muchas-razones-secretario-general_0_1657634235.html
p4
aVhttps://www.clarin.com/sociedad/Cae-sospechoso-crimen-Proyecto-XXX_0_1657634227.html
p5
aVhttps://www.clarin.com/sociedad/Cae-sospechoso-crimen-Proyecto-XXX_0_1657634227.html
p6
aVhttps://www.clarin.com/politica/Pablo-Kosiner-modificar-Ganancias-provincias_0_1657034428.html
p7
aVhttps://www.clarin.com/ieco/economia/Ahora-enero-suman-juguetes-nacionales_0_1657034434.html
p8
aVhttps://www.clarin.com/politica/inflacion-madre-todas-batallas_0_1657034445.html
p9
aVhttps://www.clarin.com/ieco/economia/Tarjetas-credito-enfrenta-comerciantes-bancos_0_1657034397.html
p10
aVhttps://www.clarin.com/ieco/economia/Tarjetas-credito-enfrenta-comerciantes-bancos_0_1657034397.html
p11
aVhttps://www.clarin.com/politica/Estatales-docentes-manana-esperar-CGT_0_1657034433.html
p12
aVhttps://www.clarin.com/politica/Estatales-docentes-manana-esperar-CGT_0_1657034433.html
p13
aVhttps://www.clarin.com/politica/PJ-buscan-evitar-sorpresas_0_1657634222.html
p14
aVhttps://www.clarin.com/politica/Baez-recibio-plata-US-millones_0_1657034422.html
p15
aVhttps://www.clarin.com/politica/Baez-recibio-plata-US-millones_0_1657034422.html
p16
aVhttps://www.clarin.com/opinion/gendarme-nueva-moneda-nacional_0_1657634221.html
p17
aVhttps://www.clarin.com/opinion/gendarme-nueva-moneda-nacional_0_1657634221.html
p18
a.