(lp0
S'https://www.clarin.com/politica/Mirtha-almuerzo-Macri-tarifas-altas_0_1582641841.html'
p1
aS'https://www.clarin.com/sociedad/Encuentran-momia-importante-faraonica-Egipto_0_1582641846.html'
p2
aS'https://www.clarin.com/sociedad/hombre-selfies-cuidador-intento-salvarlo_0_1582641848.html'
p3
aS'https://www.clarin.com/sociedad/Video-colectivo-futuro-arriba-autos_0_1582641786.html'
p4
aS'https://www.clarin.com/sociedad/Bill-Cosby-juicio-acusado-sexual_0_1582641849.html'
p5
a.