(lp0
S'https://www.clarin.com/sociedad/Dia-Mujer-reclamos-Plaza-Mayo_0_1536446817.html'
p1
aS'https://www.clarin.com/sociedad/Dia-Mujer-reclamos-Plaza-Mayo_0_1536446817.html'
p2
aS'https://www.clarin.com/sociedad/Chocaron-avionetas-vuelo-muertos_0_1536446816.html'
p3
aS'https://www.clarin.com/politica/Xipolitakis-Gate-Ottavis-presidencia-bloque_0_1536446812.html'
p4
aS'https://www.clarin.com/politica/Xipolitakis-Gate-Ottavis-presidencia-bloque_0_1536446812.html'
p5
aS'https://www.clarin.com/politica/Palmaghini-aclarar-Nisman-suicido-mataron_0_1536446801.html'
p6
aS'https://www.clarin.com/politica/Palmaghini-aclarar-Nisman-suicido-mataron_0_1536446801.html'
p7
aS'https://www.clarin.com/politica/brindis-mujeres-Defensa_0_1536446753.html'
p8
aS'https://www.clarin.com/politica/brindis-mujeres-Defensa_0_1536446753.html'
p9
a.