(lp0
Vhttps://www.clarin.com/ieco/economia/Acuerdan-limitar-importaciones-calzado_0_1676232467.html
p1
aVhttps://www.clarin.com/ieco/economia/Acuerdan-limitar-importaciones-calzado_0_1676232467.html
p2
aVhttps://www.clarin.com/politica/CGT-avalo-acordado-mesa-dialogo_0_1676232559.html
p3
aVhttps://www.clarin.com/politica/CGT-avalo-acordado-mesa-dialogo_0_1676232559.html
p4
aVhttps://www.clarin.com/opinion/bella-poesia-antimisiles-John-Lennon_0_1676832307.html
p5
aVhttps://www.clarin.com/opinion/Celebrar-humano-don-talento_0_1676832305.html
p6
aVhttps://www.clarin.com/opinion/elegido-Macri-unificar-gabinete-economico_0_1676232517.html
p7
aVhttps://www.clarin.com/opinion/costos-oficialismo-Congreso_0_1676832304.html
p8
aVhttps://www.clarin.com/sociedad/Susto-aterrizaje-emergencia-Aerolineas-Argentinas_0_1676832303.html
p9
aVhttps://www.clarin.com/sociedad/Susto-aterrizaje-emergencia-Aerolineas-Argentinas_0_1676832303.html
p10
aVhttps://www.clarin.com/politica/tregua-Congreso-voto-kirchnerismo_0_1676232570.html
p11
aVhttps://www.clarin.com/politica/Gobierno-sacar-leyes-resultara-dificil_0_1676232568.html
p12
a.