(lp0
Vhttps://www.clarin.com/sociedad/Tragedia-Carilo-hacer-RCP-peliculas_0_1500450241.html
p1
aVhttps://www.clarin.com/sociedad/Tragedia-Carilo-hacer-RCP-peliculas_0_1500450241.html
p2
aVhttps://www.clarin.com/sociedad/Tan_Bionica-Verano_2016-Mar_del_Plata_0_1500450233.html
p3
aVhttps://www.clarin.com/ieco/economia/Macri-anuncio-medidas-sector-lechero_0_1500450237.html
p4
aVhttps://www.clarin.com/politica/Patricia-Bullrich-profugos-recursos_0_1500450226.html
p5
aVhttps://www.clarin.com/politica/Patricia-Bullrich-profugos-recursos_0_1500450226.html
p6
aVhttps://www.clarin.com/sociedad/mujer-Ottavis-volvio-denunciarlo-violencia-xipolitakis_0_1500450213.html
p7
aVhttps://www.clarin.com/sociedad/mujer-Ottavis-volvio-denunciarlo-violencia-xipolitakis_0_1500450213.html
p8
a.