(lp0
Vhttps://www.clarin.com/ieco/reavivan-importaciones-alimentos-reclaman-ponerles_0_1548445432.html
p1
aVhttps://www.clarin.com/ieco/reavivan-importaciones-alimentos-reclaman-ponerles_0_1548445432.html
p2
aVhttps://www.clarin.com/politica/Gobierno-ONU-reconocio-soberania-Malvinas_0_1548445445.html
p3
aVhttps://www.clarin.com/politica/Gobierno-ONU-reconocio-soberania-Malvinas_0_1548445445.html
p4
aVhttps://www.clarin.com/sociedad/Detienen-suboficial-Armada-hijastra-filmarlo_0_1548445441.html
p5
aVhttps://www.clarin.com/sociedad/Espectacular-hallazgo-perrito-Edad-Hielo_0_1548445414.html
p6
aVhttps://www.clarin.com/sociedad/Espectacular-hallazgo-perrito-Edad-Hielo_0_1548445414.html
p7
a.