(lp0
S'https://www.clarin.com/ieco/economia/Empresas-lacteas-alertan-conflicto-Serenisima_0_1555044887.html'
p1
aS'https://www.clarin.com/ieco/Avanzan-negociaciones-Union-Europea-Mercosur_0_1555044872.html'
p2
aS'https://www.clarin.com/ieco/Avanzan-negociaciones-Union-Europea-Mercosur_0_1555044872.html'
p3
aS'https://www.clarin.com/sociedad/Detectan-mecanismos-puede-fracasar-quimioterapia_0_1555044867.html'
p4
a.