(lp0
Vhttps://www.clarin.com/sociedad/Video-susto-zoo-ahora-tigre_0_1592840846.html
p1
aVhttps://www.clarin.com/sociedad/Video-susto-zoo-ahora-tigre_0_1592840846.html
p2
aVhttps://www.clarin.com/politica/Frigerio-Urtubey-Salta-mujeres-gestion_0_1592840838.html
p3
aVhttps://www.clarin.com/politica/Frigerio-Urtubey-Salta-mujeres-gestion_0_1592840838.html
p4
a.