(lp0
S'https://www.clarin.com/ieco/economia/Audiencia-publica-tratar-aumento-tarifa_0_1595840577.html'
p1
aS'https://www.clarin.com/ieco/economia/Audiencia-publica-tratar-aumento-tarifa_0_1595840577.html'
p2
aS'https://www.clarin.com/ieco/economia/Crece-cantidad-depositos-galpones-vacios_0_1595840530.html'
p3
aS'https://www.clarin.com/ieco/economia/Petroleo-estiman-sur-sobran-empleos_0_1595840507.html'
p4
aS'https://www.clarin.com/ieco/economia/Petroleo-estiman-sur-sobran-empleos_0_1595840507.html'
p5
aS'https://www.clarin.com/politica/Maquinaria-autos-agenda-Macri-Colombia_0_1595840598.html'
p6
aS'https://www.clarin.com/politica/Allanan-propiedades-Lopez-enriquecimiento-ilicito_0_1595840591.html'
p7
aS'https://www.clarin.com/politica/Allanan-propiedades-Lopez-enriquecimiento-ilicito_0_1595840591.html'
p8
aS'https://www.clarin.com/sociedad/Escuelas-tecnicas-egresados-trabajan-estudiaron_0_1595840601.html'
p9
aS'https://www.clarin.com/sociedad/Escuelas-tecnicas-egresados-trabajan-estudiaron_0_1595840601.html'
p10
aS'https://www.clarin.com/sociedad/Debaten-rol-periodismo-realidad-virtual_0_1595840597.html'
p11
aS'https://www.clarin.com/sociedad/Debaten-rol-periodismo-realidad-virtual_0_1595840597.html'
p12
aS'https://www.clarin.com/opinion/cooperativas-pobreza-corrupcion_0_1595840552.html'
p13
aS'https://www.clarin.com/opinion/cooperativas-pobreza-corrupcion_0_1595840552.html'
p14
aS'https://www.clarin.com/opinion/limpieza-Riachuelo-tema-verguenza-nacional_0_1595840502.html'
p15
aS'https://www.clarin.com/opinion/Cesar-Dios_0_1595840499.html'
p16
aS'https://www.clarin.com/politica/mayo-inflacion-golpeo-interior_0_1595840568.html'
p17
aS'https://www.clarin.com/sociedad/Time-Warp-profugos-mato-chicos_0_1595840575.html'
p18
aS'https://www.clarin.com/sociedad/Time-Warp-profugos-mato-chicos_0_1595840575.html'
p19
a.