(lp0
Vhttps://www.clarin.com/politica/tecnicos-politica-audiencia-tarifas-luz_0_1676232403.html
p1
aVhttps://www.clarin.com/politica/tecnicos-politica-audiencia-tarifas-luz_0_1676232403.html
p2
aVhttps://www.clarin.com/sociedad/homenaje-kiosco-argentino-negocios_0_1675032625.html
p3
aVhttps://www.clarin.com/sociedad/homenaje-kiosco-argentino-negocios_0_1675032625.html
p4
aVhttps://www.clarin.com/sociedad/Libro-Oro-Autos-Argentinos-Polara_0_1676232402.html
p5
aVhttps://www.clarin.com/sociedad/Libro-Oro-Autos-Argentinos-Polara_0_1676232402.html
p6
aVhttps://www.clarin.com/politica/Desfile-Tribunales-Cristina-Kirchner-Baez_0_1675032554.html
p7
aVhttps://www.clarin.com/politica/Desfile-Tribunales-Cristina-Kirchner-Baez_0_1675032554.html
p8
aVhttps://www.clarin.com/sociedad/suicido-junto-esposa-opto-eutanasia_0_1676232398.html
p9
aVhttps://www.clarin.com/politica/Actos-Nestor-Kirchner-nestoristas-cristinistas_0_1676232396.html
p10
aVhttps://www.clarin.com/politica/Actos-Nestor-Kirchner-nestoristas-cristinistas_0_1676232396.html
p11
aVhttps://www.clarin.com/sociedad/celulares-esperan-records-proximo-CyberMonday_0_1676232394.html
p12
aVhttps://www.clarin.com/sociedad/celulares-esperan-records-proximo-CyberMonday_0_1676232394.html
p13
aVhttps://www.clarin.com/sociedad/Halloween-paises-prohiben-disfraz-payaso_0_1676232393.html
p14
aVhttps://www.clarin.com/sociedad/Halloween-paises-prohiben-disfraz-payaso_0_1676232393.html
p15
a.