(lp0
S'https://www.clarin.com/politica/cienaga-rodea-Macri-Vidal_0_1497450284.html'
p1
aS'https://www.clarin.com/politica/Oscura-amenaza-detras-triple-fuga_0_1497450280.html'
p2
aS'https://www.clarin.com/politica/Oscura-amenaza-detras-triple-fuga_0_1497450280.html'
p3
aS'https://www.clarin.com/opinion/acuerdos_economicos-Tabare_Vazquez_0_1497450277.html'
p4
aS'https://www.clarin.com/sociedad/cuotas-ahora-alojamiento-paga-meses_0_1496850681.html'
p5
aS'https://www.clarin.com/politica/Triple_Crimen-Martin_Lanatta-Cristian_Lanatta-Marcelo_Melnyk-Anibal_Fernandez-Cristian_Ritondo_0_1497450271.html'
p6
aS'https://www.clarin.com/politica/Triple_Crimen-Martin_Lanatta-Cristian_Lanatta-Marcelo_Melnyk-Anibal_Fernandez-Cristian_Ritondo_0_1497450271.html'
p7
aS'https://www.clarin.com/ieco/economia/cepo-dolares-economia_0_1497450270.html'
p8
aS'https://www.clarin.com/politica/nisman-fein_0_1497450269.html'
p9
aS'https://www.clarin.com/politica/Macri-Casa_Rosada-decretos-viajes-agenda-enero_0_1497450268.html'
p10
aS'https://www.clarin.com/politica/Macri-Casa_Rosada-decretos-viajes-agenda-enero_0_1497450268.html'
p11
aS'https://www.clarin.com/politica/Levantaron-acampe-Tupac-Amaru_0_1497450267.html'
p12
aS'https://www.clarin.com/politica/FpV-votara-favor-nuevos-jueces-Corte_0_1497450266.html'
p13
aS'https://www.clarin.com/politica/FpV-votara-favor-nuevos-jueces-Corte_0_1497450266.html'
p14
aS'https://www.clarin.com/ieco/riesgo_pais-argentina-brasil-macri-rousseff_0_1497450265.html'
p15
aS'https://www.clarin.com/ieco/economia/subsidios-colectivos-trenes-iran-directo-usuario_0_1497450264.html'
p16
aS'https://www.clarin.com/ieco/economia/subsidios-colectivos-trenes-iran-directo-usuario_0_1497450264.html'
p17
a.