(lp0
S'https://www.clarin.com/politica/Macri-encabezo-Veterano-Caidos-Malvinas_0_1551445041.html'
p1
aS'https://www.clarin.com/politica/Jaime-dispuesto-todas-explicaciones-correspondan_0_1551445060.html'
p2
aS'https://www.clarin.com/sociedad/Pagan-cifra-increible-utilizo-Francisco_0_1551445037.html'
p3
aS'https://www.clarin.com/sociedad/Indemnizan-familias-victimas-inundacion-Plata_0_1551445057.html'
p4
aS'https://www.clarin.com/politica/titular-AGN-operacion-corrupcion-gigantesca_0_1551445064.html'
p5
aS'https://www.clarin.com/politica/Macri-encabezo-Veterano-Caidos-Malvinas_0_1551445042.html'
p6
aS'https://www.clarin.com/sociedad/Dije-Mira-maneja-minutos-despues_0_1551445047.html'
p7
aS'https://www.clarin.com/politica/Satisfaccion-familiares-victimas-Once-esperabamos_0_1551445062.html'
p8
a.