(lp0
Vhttps://www.clarin.com/politica/dias-ruido-dolar_0_1529247087.html
p1
aVhttps://www.clarin.com/ieco/economia/mercados-reaccionaron-calma-muestran-optimismo_0_1528647635.html
p2
aVhttps://www.clarin.com/ieco/economia/mercados-reaccionaron-calma-muestran-optimismo_0_1528647635.html
p3
aVhttps://www.clarin.com/opinion/Sacandose-Campora-encima_0_1529247083.html
p4
aVhttps://www.clarin.com/opinion/cartel-adulterar-historia_0_1528647514.html
p5
aVhttps://www.clarin.com/opinion/cartel-adulterar-historia_0_1528647514.html
p6
aVhttps://www.clarin.com/opinion/politica-defensa-nacional_0_1528647486.html
p7
aVhttps://www.clarin.com/opinion/Obama-nuevos-equilibrios-America-Latina_0_1528647557.html
p8
aVhttps://www.clarin.com/ieco/economia/Contrato-Chevron-YPF-cuentas-offshore_0_1528647624.html
p9
aVhttps://www.clarin.com/ieco/economia/Contrato-Chevron-YPF-cuentas-offshore_0_1528647624.html
p10
aVhttps://www.clarin.com/politica/Rafecas-abandono-Hotesur-recaera-Ercolini_0_1528647613.html
p11
aVhttps://www.clarin.com/politica/Rafecas-abandono-Hotesur-recaera-Ercolini_0_1528647613.html
p12
aVhttps://www.clarin.com/politica/protesta-ATE-desafio-Protocolo-antipiquete_0_1528647652.html
p13
aVhttps://www.clarin.com/politica/protesta-ATE-desafio-Protocolo-antipiquete_0_1528647652.html
p14
a.