(lp0
Vhttps://www.clarin.com/politica/Baez-millones-dolares-cuentas-Suiza_0_1601240065.html
p1
aVhttps://www.clarin.com/politica/Baez-millones-dolares-cuentas-Suiza_0_1601240065.html
p2
aVhttps://www.clarin.com/opinion/caracter-vernaculo_0_1601240001.html
p3
aVhttps://www.clarin.com/politica/inflacion-atraso-tarifazo-exitoso-pendiente_0_1601240057.html
p4
a.