(lp0
S'https://www.clarin.com/sociedad/Corrio-kilometros-justicia-muerte-hermana_0_1600640013.html'
p1
aS'https://www.clarin.com/politica/abroquela-Diputados-impedir-allanen-Vido_0_1600640009.html'
p2
aS'https://www.clarin.com/sociedad/argentinas-pelo-largo-lavan_0_1600639998.html'
p3
aS'https://www.clarin.com/politica/audio-Perez-Corradi-Buenos-Aires_0_1600640014.html'
p4
aS'https://www.clarin.com/politica/Cambio-PASO-combinar-formulas-presidenciales_0_1600640004.html'
p5
aS'https://www.clarin.com/sociedad/drama-actriz-busca-hermano-meses_0_1600640019.html'
p6
a.