(lp0
S'https://www.clarin.com/politica/Macri-cambiola-Cristina-reemplazada-teniente_0_1517248406.html'
p1
aS'https://www.clarin.com/politica/Detectaron-Yacimientos-Carboniferos-Rio-Turbio_0_1516048616.html'
p2
aS'https://www.clarin.com/ieco/economia/Camioneros-protestan-Central-posibles-despidos_0_1517248433.html'
p3
a.