(lp0
S'https://www.clarin.com/ieco/economia/Afirman-IVA-canasta-bajaria-pobreza_0_1559244350.html'
p1
aS'https://www.clarin.com/politica/conto-abogado-comprado-Rosadita_0_1559244348.html'
p2
aS'https://www.clarin.com/politica/conto-abogado-comprado-Rosadita_0_1559244348.html'
p3
aS'https://www.clarin.com/politica/Jorge-Chueco_0_1559244336.html'
p4
aS'https://www.clarin.com/politica/Jorge-Chueco_0_1559244336.html'
p5
aS'https://www.clarin.com/politica/armado-dijo-ex-mujer-Chueco_0_1559244337.html'
p6
aS'https://www.clarin.com/politica/armado-dijo-ex-mujer-Chueco_0_1559244337.html'
p7
aS'https://www.clarin.com/politica/esposa-abogado-desaparecido-cree-amenzado_0_1559244328.html'
p8
aS'https://www.clarin.com/politica/esposa-abogado-desaparecido-cree-amenzado_0_1559244328.html'
p9
aS'https://www.clarin.com/sociedad/Banksy-artista-callejero-exposicion-Munich_0_1559244329.html'
p10
aS'https://www.clarin.com/sociedad/Banksy-artista-callejero-exposicion-Munich_0_1559244329.html'
p11
aS'https://www.clarin.com/sociedad/tregua-Santa-Fe-Rios-Chaco_0_1559244324.html'
p12
aS'https://www.clarin.com/sociedad/tregua-Santa-Fe-Rios-Chaco_0_1559244324.html'
p13
a.