(lp0
Vhttps://www.clarin.com/politica/Eugenio-Semino-jubilados-noticia-hacerse_0_1583241816.html
p1
aVhttps://www.clarin.com/politica/Casanello-Marijuan-analizan-Suiza-destrabar_0_1583241804.html
p2
aVhttps://www.clarin.com/politica/Casanello-Marijuan-analizan-Suiza-destrabar_0_1583241804.html
p3
aVhttps://www.clarin.com/politica/fondos-declarados-mitad-Producto-Bruto_0_1583241802.html
p4
aVhttps://www.clarin.com/sociedad/valientes-argentinos-nadaron-tiburones-blancos_0_1583241788.html
p5
aVhttps://www.clarin.com/sociedad/valientes-argentinos-nadaron-tiburones-blancos_0_1583241788.html
p6
a.