(lp0
Vhttps://www.clarin.com/politica/Rio_Turbio-Yacimiento-interventor-Omar_Zeidan_0_1511849017.html
p1
aVhttps://www.clarin.com/politica/Rio_Turbio-Yacimiento-interventor-Omar_Zeidan_0_1511849017.html
p2
aVhttps://www.clarin.com/politica/Raul-Castells-Tupac-Amaru-narcotraficante_0_1511849015.html
p3
aVhttps://www.clarin.com/politica/Raul-Castells-Tupac-Amaru-narcotraficante_0_1511849015.html
p4
aVhttps://www.clarin.com/ieco/economia/nivel-global-Toyota-mantiene-ventas_0_1511849003.html
p5
aVhttps://www.clarin.com/sociedad/Brasil-frenar-dengue-mosquitos-transgenicos_0_1511848994.html
p6
aVhttps://www.clarin.com/sociedad/Brasil-frenar-dengue-mosquitos-transgenicos_0_1511848994.html
p7
aVhttps://www.clarin.com/sociedad/virus-zika-expande-Europa_0_1511849006.html
p8
aVhttps://www.clarin.com/sociedad/virus-zika-expande-Europa_0_1511849006.html
p9
a.