(lp0
S'https://www.clarin.com/sociedad/autopsia-revelo-murio-hijo-Storani_0_1552645006.html'
p1
aS'https://www.clarin.com/sociedad/nuevo-laboratorio-inflable-NASA_0_1552644995.html'
p2
aS'https://www.clarin.com/politica/Confirman-procesamiento-Sbatella-violar-secretos_0_1552644996.html'
p3
aS'https://www.clarin.com/politica/Denuncia-Sauces-Bonadio-investigar-Cristina_0_1552645004.html'
p4
a.