(lp0
Vhttps://www.clarin.com/politica/Doble-indemnizacion-PRO-impulsaria-propuesta_0_1561644020.html
p1
aVhttps://www.clarin.com/sociedad/tumor-tiroides-dejara-tratarse-cancer_0_1561644017.html
p2
aVhttps://www.clarin.com/politica/sospecha-Echegaray-depositos-fiscales-amigos_0_1561643884.html
p3
aVhttps://www.clarin.com/politica/Cristina-regreso-Conurbano-reunio-actores_0_1561644027.html
p4
aVhttps://www.clarin.com/opinion/Filosofia-entrecasa_0_1561643997.html
p5
aVhttps://www.clarin.com/sociedad/autopista-Rosario-Santa-Fe-quedo-lluvias_0_1561644030.html
p6
aVhttps://www.clarin.com/sociedad/autopista-Rosario-Santa-Fe-quedo-lluvias_0_1561644030.html
p7
aVhttps://www.clarin.com/ieco/economia/Bajar-riesgo-pais-revivir-inversion_0_1561643983.html
p8
aVhttps://www.clarin.com/ieco/economia/Bajar-riesgo-pais-revivir-inversion_0_1561643983.html
p9
aVhttps://www.clarin.com/politica/Marcos-Aguinis-kirchnerismo-ingenieria-saqueo_0_1561644044.html
p10
aVhttps://www.clarin.com/politica/Marcos-Aguinis-kirchnerismo-ingenieria-saqueo_0_1561644044.html
p11
a.