(lp0
Vhttps://www.clarin.com/politica/alrededores-Palermo-vallados-listos-Obama_0_1545445576.html
p1
aVhttps://www.clarin.com/politica/alrededores-Palermo-vallados-listos-Obama_0_1545445576.html
p2
aVhttps://www.clarin.com/politica/Victoria-Donda-explico-gala-Obama_0_1545445561.html
p3
aVhttps://www.clarin.com/politica/Victoria-Donda-explico-gala-Obama_0_1545445561.html
p4
aVhttps://www.clarin.com/politica/armado-gritos-transmision-Radio-Nacional_0_1545445557.html
p5
aVhttps://www.clarin.com/politica/armado-gritos-transmision-Radio-Nacional_0_1545445557.html
p6
aVhttps://www.clarin.com/politica/regalara-Antonia-hijas-Obama_0_1545445550.html
p7
aVhttps://www.clarin.com/politica/regalara-Antonia-hijas-Obama_0_1545445550.html
p8
aVhttps://www.clarin.com/ieco/economia/Central-mantuvo-tasas_0_1544845988.html
p9
aVhttps://www.clarin.com/ieco/economia/Central-mantuvo-tasas_0_1544845988.html
p10
aVhttps://www.clarin.com/politica/comprador-Tiempo-Argentino-devolverselo-Szpolsky_0_1544845954.html
p11
aVhttps://www.clarin.com/politica/comprador-Tiempo-Argentino-devolverselo-Szpolsky_0_1544845954.html
p12
aVhttps://www.clarin.com/politica/Senado-dictamen-mayoria-amplia-default_0_1544845987.html
p13
a.