(lp0
S'https://www.clarin.com/sociedad/Necesita-traslado-urgente-social-niega_0_1663633752.html'
p1
aS'https://www.clarin.com/ieco/economia/mantiene-recuperacion-mercado-oficinas_0_1663633772.html'
p2
aS'https://www.clarin.com/politica/Vuelven-Investigar-Vido-Rio-Turbio_0_1663633763.html'
p3
aS'https://www.clarin.com/sociedad/joven-atacado-patota-rugbiers-hospital_0_1663633766.html'
p4
aS'https://www.clarin.com/politica/propiedades-nacional-pone-venta_0_1663633781.html'
p5
aS'https://www.clarin.com/ieco/economia/Biodiesel-OMC-ratifico-fallo-Argentina_0_1663633764.html'
p6
aS'https://www.clarin.com/politica/CGT-decidira-proximo-jueves-nacional_0_1663633775.html'
p7
a.