(lp0
S'https://www.clarin.com/opinion/infinito-temor-peronismo-Cristina_0_1631836804.html'
p1
aS'https://www.clarin.com/opinion/Conviene-repensar-vivir-mejor-vejez_0_1631236986.html'
p2
aS'https://www.clarin.com/opinion/Macri-igual-Kirchner_0_1631836806.html'
p3
aS'https://www.clarin.com/opinion/Lazaro-levantate-lee_0_1631836801.html'
p4
aS'https://www.clarin.com/opinion/redes-sociales-viralizan-atractivo-verdadero_0_1631236993.html'
p5
aS'https://www.clarin.com/opinion/escalada-Macri-termine-ayudandolo_0_1631836803.html'
p6
aS'https://www.clarin.com/politica/Malcorra-competencia-ONU-Todavia-sesgado_0_1631236949.html'
p7
aS'https://www.clarin.com/opinion/Graciela-Basso-Canguros-ayudan-vivir_0_1631236992.html'
p8
aS'https://www.clarin.com/opinion/modelo-despega_0_1631836805.html'
p9
a.