(lp0
S'https://www.clarin.com/politica/Investigan-cuentas-bancarias-complican-Scioli_0_1622837788.html'
p1
aS'https://www.clarin.com/politica/Investigan-cuentas-bancarias-complican-Scioli_0_1622837788.html'
p2
aS'https://www.clarin.com/politica/indicios-Casanello-Gils-Carbo-Cristina_0_1622237899.html'
p3
aS'https://www.clarin.com/politica/indicios-Casanello-Gils-Carbo-Cristina_0_1622237899.html'
p4
aS'https://www.clarin.com/sociedad/Corregiran-boletas-descuentos-millones-familias_0_1622837783.html'
p5
aS'https://www.clarin.com/sociedad/Corregiran-boletas-descuentos-millones-familias_0_1622837783.html'
p6
a.