(lp0
S'https://www.clarin.com/politica/falta-Michetti-citara-bloques-Tucuman_0_1584441782.html'
p1
aS'https://www.clarin.com/politica/falta-Michetti-citara-bloques-Tucuman_0_1584441782.html'
p2
aS'https://www.clarin.com/politica/Existiria-Cristina-pidiendo-complicar-Calcaterra_0_1585041537.html'
p3
aS'https://www.clarin.com/sociedad/Mundos-intimos-historia-familiar-murieron_0_1584441701.html'
p4
aS'https://www.clarin.com/sociedad/Mundos-intimos-historia-familiar-murieron_0_1584441701.html'
p5
aS'https://www.clarin.com/sociedad/incognita-futuro_0_1584441708.html'
p6
aS'https://www.clarin.com/ieco/economia/Firmas-petroleras-alertan-dramatica-actividad_0_1585041535.html'
p7
aS'https://www.clarin.com/ieco/economia/Caen-ventas-comercios-portenos_0_1585041534.html'
p8
aS'https://www.clarin.com/politica/medida-incluye-indice-polemico-actualizacion_0_1585041533.html'
p9
aS'https://www.clarin.com/politica/Negro-Tata-Justicia-allanamientos-simultaneos_0_1584441773.html'
p10
aS'https://www.clarin.com/politica/Negro-Tata-Justicia-allanamientos-simultaneos_0_1584441773.html'
p11
a.