(lp0
S'https://www.clarin.com/ieco/economia/Alvin-Toffler-economia-trabajo-conocimiento_0_1607839323.html'
p1
aS'https://www.clarin.com/sociedad/Encontraron-pornografia-infantil-funcionario-chicos_0_1607839320.html'
p2
aS'https://www.clarin.com/sociedad/abogado-Stinfale-pronostico-Time-Warp_0_1607839317.html'
p3
aS'https://www.clarin.com/politica/denuncia-Carrio-Vidal-pruebas-Bressi_0_1607839318.html'
p4
aS'https://www.clarin.com/sociedad/lluvias-puente-historico-riesgo-derrumbarse_0_1607839322.html'
p5
a.