(lp0
S'https://www.clarin.com/sociedad/Extrano-escuela-gusta-tener-companeros_0_1625237655.html'
p1
aS'https://www.clarin.com/sociedad/Extrano-escuela-gusta-tener-companeros_0_1625237655.html'
p2
aS'https://www.clarin.com/politica/Vialidad-sobreprecios-beneficios-Baez-Relats_0_1625237615.html'
p3
aS'https://www.clarin.com/politica/Vialidad-sobreprecios-beneficios-Baez-Relats_0_1625237615.html'
p4
aS'https://www.clarin.com/politica/Vidal-anuncia-obras-publicas-millones_0_1625237647.html'
p5
aS'https://www.clarin.com/opinion/Fobias-trae-marketing_0_1625237613.html'
p6
aS'https://www.clarin.com/sociedad/Puede-Pacto-Porron-vencer-inflacion_0_1625237551.html'
p7
aS'https://www.clarin.com/sociedad/Puede-Pacto-Porron-vencer-inflacion_0_1625237551.html'
p8
aS'https://www.clarin.com/politica/Carrio-Gobierno-suspenda-convoque-audiencias_0_1625237673.html'
p9
aS'https://www.clarin.com/politica/Carrio-Gobierno-suspenda-convoque-audiencias_0_1625237673.html'
p10
a.