(lp0
S'https://www.clarin.com/sociedad/estudio-revela-compartimos-casa-insectos_0_1507049606.html'
p1
aS'https://www.clarin.com/sociedad/estudio-revela-compartimos-casa-insectos_0_1507049606.html'
p2
aS'https://www.clarin.com/opinion/Horacio_Pagani_0_1507049603.html'
p3
a.