(lp0
S'https://www.clarin.com/politica/CGT-Plaini-advirtio-Gobierno-importante_0_1663633652.html'
p1
aS'https://www.clarin.com/politica/Oficializan-residencias-embajadores-EEUU-Brasil_0_1663633656.html'
p2
aS'https://www.clarin.com/politica/Radicales-homenajean-Yrigoyen-Cristina-Kirchner_0_1663633647.html'
p3
aS'https://www.clarin.com/sociedad/famoso-chef-desato-escandalo-receta_0_1663633648.html'
p4
aS'https://www.clarin.com/sociedad/Destituyeron-funcionario-post-antisemita-Facebook_0_1663633657.html'
p5
a.