(lp0
Vhttps://www.clarin.com/politica/Vaticano-hablan-nueva-actitud-Macri_0_1529247503.html
p1
aVhttps://www.clarin.com/politica/diputado-Wolff-denuncio-amenazas-Rafecas_0_1529247481.html
p2
aVhttps://www.clarin.com/politica/diputado-Wolff-denuncio-amenazas-Rafecas_0_1529247481.html
p3
aVhttps://www.clarin.com/politica/Pidieron-FpV-entregue-despachos-Maximo_0_1529247465.html
p4
aVhttps://www.clarin.com/politica/Pidieron-FpV-entregue-despachos-Maximo_0_1529247465.html
p5
aVhttps://www.clarin.com/ieco/FMI-difundira-informes-economicos-Argentina_0_1529247469.html
p6
aVhttps://www.clarin.com/ieco/FMI-difundira-informes-economicos-Argentina_0_1529247469.html
p7
aVhttps://www.clarin.com/politica/Gobierno-apuesta-Obama-estadia-Argentina_0_1529247468.html
p8
aVhttps://www.clarin.com/politica/Gobierno-apuesta-Obama-estadia-Argentina_0_1529247468.html
p9
aVhttps://www.clarin.com/ieco/Fondos-Griesa-audiencia-levantar-bloqueo_0_1529247460.html
p10
aVhttps://www.clarin.com/ieco/Fondos-Griesa-audiencia-levantar-bloqueo_0_1529247460.html
p11
aVhttps://www.clarin.com/ieco/economia/Licitacion-Bonar-Gobierno-millones-cercanas_0_1529247449.html
p12
a.