(lp0
S'https://www.clarin.com/sociedad/Clausuran-falsa-Palermo-todas-irregularidades_0_1568843176.html'
p1
aS'https://www.clarin.com/politica/izquierda-marcho-Plaza-Mayo-Gobierno_0_1568843184.html'
p2
aS'https://www.clarin.com/sociedad/increible-operativo-atrapar-cambiaba-UADE_0_1568843168.html'
p3
aS'https://www.clarin.com/ieco/economia/Malchiodi-aumento-provocara-inflacion-ventas_0_1568843166.html'
p4
a.