(lp0
Vhttps://www.clarin.com/opinion/Malvinas-diplomacia-coherente-pasos-sucesivos_0_1639636162.html
p1
aVhttps://www.clarin.com/opinion/dia-Handel-costo-asado_0_1639636155.html
p2
aVhttps://www.clarin.com/opinion/dia-Handel-costo-asado_0_1639636155.html
p3
aVhttps://www.clarin.com/opinion/Tarifazo-fallido-perdio_0_1640235965.html
p4
aVhttps://www.clarin.com/opinion/Macri-apuros-imagen-cae-GBA_0_1640235964.html
p5
aVhttps://www.clarin.com/opinion/Macri-apuros-imagen-cae-GBA_0_1640235964.html
p6
aVhttps://www.clarin.com/opinion/realidad-tozuda-solo-encuestas_0_1640235963.html
p7
aVhttps://www.clarin.com/ieco/economia/Guerra-Gobierno-bancos-comercios-tarjetas_0_1639036259.html
p8
aVhttps://www.clarin.com/ieco/economia/Guerra-Gobierno-bancos-comercios-tarjetas_0_1639036259.html
p9
aVhttps://www.clarin.com/ieco/economia/Advierten-corre-peligro-continuidad-cuotas_0_1639036261.html
p10
aVhttps://www.clarin.com/ieco/economia/bajar-desempleo-crear-puestos-trabajo_0_1639036256.html
p11
aVhttps://www.clarin.com/ieco/economia/bajar-desempleo-crear-puestos-trabajo_0_1639036256.html
p12
aVhttps://www.clarin.com/opinion/The-Izquierda-Horror-Show_0_1640235961.html
p13
aVhttps://www.clarin.com/ieco/economia/industria-indumentaria-alerta-posible-importadora_0_1639036266.html
p14
aVhttps://www.clarin.com/ieco/economia/industria-indumentaria-alerta-posible-importadora_0_1639036266.html
p15
aVhttps://www.clarin.com/politica/Marijuan-Voy-informando-parezca-importante_0_1639636158.html
p16
aVhttps://www.clarin.com/politica/Marijuan-Voy-informando-parezca-importante_0_1639636158.html
p17
a.