(lp0
Vhttps://www.clarin.com/politica/oficialismo-denuncia-laboratorios-escandalosos-medicamentos_0_1582041894.html
p1
aVhttps://www.clarin.com/politica/oficialismo-denuncia-laboratorios-escandalosos-medicamentos_0_1582041894.html
p2
aVhttps://www.clarin.com/politica/revancha-intendente-detenido-borracho-ebriedad_0_1582041888.html
p3
aVhttps://www.clarin.com/politica/revancha-intendente-detenido-borracho-ebriedad_0_1582041888.html
p4
aVhttps://www.clarin.com/politica/Macri-publicamente-candidatura-Malcorra-ONU_0_1582041884.html
p5
aVhttps://www.clarin.com/politica/Macri-publicamente-candidatura-Malcorra-ONU_0_1582041884.html
p6
aVhttps://www.clarin.com/politica/Detuvieron-sospechosos-amenazas-bomba-ESMA_0_1582041883.html
p7
aVhttps://www.clarin.com/politica/Detuvieron-sospechosos-amenazas-bomba-ESMA_0_1582041883.html
p8
aVhttps://www.clarin.com/sociedad/Ole-cumple-Twitter-mejores-tapas_0_1582041865.html
p9
aVhttps://www.clarin.com/sociedad/Ole-cumple-Twitter-mejores-tapas_0_1582041865.html
p10
aVhttps://www.clarin.com/sociedad/salvo-nena-ahora-graduacion_0_1582041878.html
p11
aVhttps://www.clarin.com/sociedad/salvo-nena-ahora-graduacion_0_1582041878.html
p12
aVhttps://www.clarin.com/sociedad/Conmovedor-video-viral-gusta-cabello_0_1582041873.html
p13
aVhttps://www.clarin.com/sociedad/Conmovedor-video-viral-gusta-cabello_0_1582041873.html
p14
aVhttps://www.clarin.com/sociedad/nenas-vivieron-dias-solas-casa_0_1582041877.html
p15
aVhttps://www.clarin.com/sociedad/nenas-vivieron-dias-solas-casa_0_1582041877.html
p16
a.