(lp0
Vhttps://www.clarin.com/sociedad/Yellow-Submarine-Fragata-Libertad-Liverpool_0_1621038024.html
p1
aVhttps://www.clarin.com/sociedad/Yellow-Submarine-Fragata-Libertad-Liverpool_0_1621038024.html
p2
aVhttps://www.clarin.com/politica/politica-via-Snapchat_0_1621038023.html
p3
aVhttps://www.clarin.com/politica/politica-via-Snapchat_0_1621038023.html
p4
aVhttps://www.clarin.com/ieco/economia/tarifazo-compran-estufas-Chile-Aduna_0_1621038022.html
p5
aVhttps://www.clarin.com/ieco/economia/Unipar-mejoro-oferta-falta-Indupa_0_1621038019.html
p6
aVhttps://www.clarin.com/ieco/economia/Unipar-mejoro-oferta-falta-Indupa_0_1621038019.html
p7
aVhttps://www.clarin.com/politica/Denuncian-Justicia-avanzar-investigacion-AMIA_0_1621038018.html
p8
aVhttps://www.clarin.com/politica/Denuncian-Justicia-avanzar-investigacion-AMIA_0_1621038018.html
p9
aVhttps://www.clarin.com/politica/CFK-directorio-Banco-Santa-Cruz_0_1621037931.html
p10
aVhttps://www.clarin.com/politica/CFK-directorio-Banco-Santa-Cruz_0_1621037931.html
p11
a.