(lp0
Vhttps://www.clarin.com/politica/intendente-reconocio-irregular-fondos-Tupac_0_1666633340.html
p1
aVhttps://www.clarin.com/politica/intendente-reconocio-irregular-fondos-Tupac_0_1666633340.html
p2
aVhttps://www.clarin.com/ieco/economia/estadounidense-Duke-vende-electricas-pais_0_1666633330.html
p3
aVhttps://www.clarin.com/ieco/economia/estadounidense-Duke-vende-electricas-pais_0_1666633330.html
p4
aVhttps://www.clarin.com/ieco/automotrices-despiden-autos-chicos_0_1666033527.html
p5
aVhttps://www.clarin.com/ieco/automotrices-despiden-autos-chicos_0_1666033527.html
p6
aVhttps://www.clarin.com/ieco/economia/Subieron-acciones-argentinas-Nueva-York_0_1666033501.html
p7
aVhttps://www.clarin.com/ieco/economia/Subieron-acciones-argentinas-Nueva-York_0_1666033501.html
p8
aVhttps://www.clarin.com/ieco/economia/Vidal-subiria-Ingresos-Brutos-negocio_0_1666033534.html
p9
aVhttps://www.clarin.com/ieco/economia/Vidal-subiria-Ingresos-Brutos-negocio_0_1666033534.html
p10
aVhttps://www.clarin.com/ieco/blanqueo-fuerza-seabren-cuentas-bancos_0_1666033507.html
p11
aVhttps://www.clarin.com/ieco/blanqueo-fuerza-seabren-cuentas-bancos_0_1666033507.html
p12
aVhttps://www.clarin.com/ieco/Prat-Gay-prometio-deficit_0_1666633338.html
p13
a.