(lp0
S'https://www.clarin.com/sociedad/Denuncian-fondos-cuidar-bosques_0_1663633801.html'
p1
aS'https://www.clarin.com/politica/Preocupada-inseguridad-Vidal-terminar-giratoria_0_1663633804.html'
p2
aS'https://www.clarin.com/sociedad/Desintoxicarse-jugos-Hollywood-adeptos-polemica_0_1663633803.html'
p3
aS'https://www.clarin.com/sociedad/Denuncian-fondos-cuidar-bosques_0_1663633805.html'
p4
aS'https://www.clarin.com/sociedad/Hallan-mujer-desaparecido-denunciar-pareja_0_1663633794.html'
p5
aS'https://www.clarin.com/politica/Dividen-provincia-zonas-envio-gendarmes_0_1663633784.html'
p6
aS'https://www.clarin.com/opinion/democracia-hace-fuerte-ciudad_0_1663633798.html'
p7
a.