(lp0
Vhttps://www.clarin.com/sociedad/Gobierno-oficializo-aumento-impuesto-cigarrillos_0_1569443063.html
p1
aVhttps://www.clarin.com/sociedad/Gobierno-oficializo-aumento-impuesto-cigarrillos_0_1569443063.html
p2
aVhttps://www.clarin.com/ieco/Luego-aumento-naftas-podrian-subir_0_1569443060.html
p3
aVhttps://www.clarin.com/ieco/Luego-aumento-naftas-podrian-subir_0_1569443060.html
p4
aVhttps://www.clarin.com/politica/AGN-Carrio-Justicia-permanencia-Echegaray_0_1569443058.html
p5
aVhttps://www.clarin.com/politica/AGN-Carrio-Justicia-permanencia-Echegaray_0_1569443058.html
p6
aVhttps://www.clarin.com/sociedad/Saco-cabeza-ventanilla-camion-venia_0_1569443057.html
p7
aVhttps://www.clarin.com/ieco/economia/ventas-comercios-caen-abril_0_1569443053.html
p8
aVhttps://www.clarin.com/politica/Macri-generar-trabajo-registrado-calidad_0_1569443050.html
p9
aVhttps://www.clarin.com/politica/Macri-generar-trabajo-registrado-calidad_0_1569443050.html
p10
aVhttps://www.clarin.com/sociedad/Hablo-hacker-ridiculo-cambio-notas_0_1569443051.html
p11
aVhttps://www.clarin.com/sociedad/Hablo-hacker-ridiculo-cambio-notas_0_1569443051.html
p12
a.