(lp0
S'https://www.clarin.com/politica/Bariloche-izquierda-conmemoro-Golpe-Obama_0_1546045762.html'
p1
aS'https://www.clarin.com/politica/Bariloche-izquierda-conmemoro-Golpe-Obama_0_1546045762.html'
p2
aS'https://www.clarin.com/politica/actores-Plaza-Mayo_0_1546045747.html'
p3
aS'https://www.clarin.com/politica/actores-Plaza-Mayo_0_1546045747.html'
p4
aS'https://www.clarin.com/politica/Secuestraron-Villa-Bosch-liberaron-rescate_0_1546045729.html'
p5
aS'https://www.clarin.com/politica/Secuestraron-Villa-Bosch-liberaron-rescate_0_1546045729.html'
p6
aS'https://www.clarin.com/sociedad/tiempo-Mar-Plata-arranque-semana_0_1546045728.html'
p7
aS'https://www.clarin.com/sociedad/tiempo-Mar-Plata-arranque-semana_0_1546045728.html'
p8
a.