(lp0
S'https://www.clarin.com/sociedad/reconocen-madre-ovulos-gesto-bebe_0_1682831782.html'
p1
aS'https://www.clarin.com/sociedad/reconocen-madre-ovulos-gesto-bebe_0_1682831782.html'
p2
aS'https://www.clarin.com/sociedad/sangrienta-lucha-pinguino-amante-pareja_0_1682831779.html'
p3
aS'https://www.clarin.com/sociedad/sangrienta-lucha-pinguino-amante-pareja_0_1682831779.html'
p4
aS'https://www.clarin.com/politica/Imputan-Rocio-Garcia-Argentina-Sonrie_0_1682831772.html'
p5
aS'https://www.clarin.com/politica/Imputan-Rocio-Garcia-Argentina-Sonrie_0_1682831772.html'
p6
a.