(lp0
S'https://www.clarin.com/ieco/emprendedores/Claves-pymes-exporten-China_0_1502850007.html'
p1
aS'https://www.clarin.com/ieco/emprendedores/Claves-pymes-exporten-China_0_1502850007.html'
p2
aS'https://www.clarin.com/politica/Ahora-Perez-Corradi-buscaria-Justicia_0_1503449693.html'
p3
aS'https://www.clarin.com/politica/Ahora-Perez-Corradi-buscaria-Justicia_0_1503449693.html'
p4
aS'https://www.clarin.com/politica/triple_crimen-vidal_0_1503449689.html'
p5
aS'https://www.clarin.com/politica/triple_crimen-vidal_0_1503449688.html'
p6
aS'https://www.clarin.com/politica/triple_crimen-vidal_0_1503449687.html'
p7
aS'https://www.clarin.com/politica/triple_crimen-vidal_0_1503449687.html'
p8
aS'https://www.clarin.com/sociedad/Florianopolis-Canasvieiras-contaminacion-Brasil-argentinos-verano_0_1503449686.html'
p9
aS'https://www.clarin.com/sociedad/Florianopolis-Canasvieiras-contaminacion-Brasil-argentinos-verano_0_1503449686.html'
p10
aS'https://www.clarin.com/sociedad/Pinamar-Mar_del_Plata-turismo-temporada-verano-liquidacion_0_1503449685.html'
p11
aS'https://www.clarin.com/sociedad/Pinamar-Mar_del_Plata-turismo-temporada-verano-liquidacion_0_1503449685.html'
p12
aS'https://www.clarin.com/opinion/transparencia-calidad_institucional-etica_publica_0_1503449676.html'
p13
aS'https://www.clarin.com/opinion/sistema_impositivo-reforma_fiscal-impuesto_a_las_ganancias-ciudadania_fiscal_0_1503449675.html'
p14
aS'https://www.clarin.com/opinion/sistema_impositivo-reforma_fiscal-impuesto_a_las_ganancias-ciudadania_fiscal_0_1503449675.html'
p15
aS'https://www.clarin.com/opinion/politica_economica-acuerdo_social-inflacion-salarios_0_1503449674.html'
p16
a.