(lp0
S'https://www.clarin.com/sociedad/Encontro-serpiente-venenosa-heladera-despues_0_1503449880.html'
p1
aS'https://www.clarin.com/politica/comisario-vecinos-separado-escucha-Faraon_0_1503449873.html'
p2
aS'https://www.clarin.com/sociedad/canguros-muerte-hembra-foto-australia-agarra-patas_0_1503449859.html'
p3
aS'https://www.clarin.com/ieco/bono-deuda-canje-bonar_2020-bonar_2017_0_1503449886.html'
p4
aS'https://www.clarin.com/sociedad/desfiguraron-acido-ahora-modelo-marca_0_1503449868.html'
p5
aS'https://www.clarin.com/sociedad/Google-confirmo-autos-conductores-errores_0_1503449839.html'
p6
aS'https://www.clarin.com/sociedad/pedido-ayuda-Puma-pequena-hija_0_1503449865.html'
p7
aS'https://www.clarin.com/politica/Crisis-Santa-Cruz-Alicia-Rosada_0_1503449846.html'
p8
a.