(lp0
S'https://www.clarin.com/politica/secretario-Trabajo-acordada-bancarios-modelo_0_1514248732.html'
p1
aS'https://www.clarin.com/ieco/economia/Fed-debilita-suba-tasas_0_1514248771.html'
p2
aS'https://www.clarin.com/ieco/economia/Pese-Aranguren-considero-necesario-electricas_0_1514248739.html'
p3
aS'https://www.clarin.com/ieco/economia/universidades-presentan-nuevas-maestrias-diplomaturas_0_1514248783.html'
p4
aS'https://www.clarin.com/ieco/economia/dificil-arte-lograr-equilibrio-inestable_0_1514248803.html'
p5
aS'https://www.clarin.com/sociedad/Belgica-Noruega-aprender-respetar-mujeres_0_1514248764.html'
p6
aS'https://www.clarin.com/politica/Moreno-lanzarse-disputar-interna-PJ_0_1514248748.html'
p7
aS'https://www.clarin.com/ieco/economia/valor-bonos-verdes-circulacion-duplicara_0_1514248770.html'
p8
aS'https://www.clarin.com/ieco/economia/agroindustria-_balance_2015-_perspectivas_2016-_soja-_trigo-_maiz-girasol-_ganaderia-_maquinaria_agricola-_avicultura-_dolar-_devaluacion-_retenciones_0_1514248814.html'
p9
aS'https://www.clarin.com/ieco/economia/motivos-detras-creditos-organismos_0_1514248769.html'
p10
a.