(lp0
Vhttps://www.clarin.com/politica/Moyano-seguira-CGT-dia-unificacion_0_1613238853.html
p1
aVhttps://www.clarin.com/politica/Moyano-seguira-CGT-dia-unificacion_0_1613238853.html
p2
aVhttps://www.clarin.com/ieco/economia/indice-porteno-inflacion-anual_0_1613238821.html
p3
aVhttps://www.clarin.com/sociedad/Bypass-gastrico-ahora-indican-adolescentes_0_1613238862.html
p4
aVhttps://www.clarin.com/sociedad/Bypass-gastrico-ahora-indican-adolescentes_0_1613238862.html
p5
aVhttps://www.clarin.com/politica/Guino-PJ-Frente-Renovador-Pichetto_0_1613238867.html
p6
aVhttps://www.clarin.com/politica/Guino-PJ-Frente-Renovador-Pichetto_0_1613238867.html
p7
a.