(lp0
S'https://www.clarin.com/ieco/Apple-Google-Coca-Cola-marcas-valoradas_0_1663033731.html'
p1
aS'https://www.clarin.com/sociedad/Chile-correr-maraton-descompuso-carrera_0_1663033742.html'
p2
aS'https://www.clarin.com/sociedad/celebrar-parto-animal_0_1663033735.html'
p3
aS'https://www.clarin.com/politica/Malena-Galmarini-Moro-tratarla-vehemente_0_1663033726.html'
p4
aS'https://www.clarin.com/opinion/Raices-amor-comida-casera_0_1663033729.html'
p5
a.