(lp0
S'https://www.clarin.com/opinion/poder-deben-tener-lideres_0_1612638888.html'
p1
aS'https://www.clarin.com/opinion/poder-deben-tener-lideres_0_1612638888.html'
p2
aS'https://www.clarin.com/opinion/Procuracion-imparcial_0_1612638853.html'
p3
aS'https://www.clarin.com/politica/hija-Cristina-saco-fondos-inhibicion_0_1613238663.html'
p4
aS'https://www.clarin.com/politica/hija-Cristina-saco-fondos-inhibicion_0_1613238663.html'
p5
aS'https://www.clarin.com/politica/sindicatos-transporte-amenazan-lanzar-paro_0_1612638881.html'
p6
aS'https://www.clarin.com/politica/sindicatos-transporte-amenazan-lanzar-paro_0_1612638881.html'
p7
aS'https://www.clarin.com/politica/Schmid-prefiere-triunvirato-CGT-unica_0_1612638895.html'
p8
aS'https://www.clarin.com/politica/Schmid-prefiere-triunvirato-CGT-unica_0_1612638895.html'
p9
aS'https://www.clarin.com/opinion/Tarifas-gas-costo-multiplicar_0_1613238662.html'
p10
aS'https://www.clarin.com/opinion/problema-vemos_0_1613238661.html'
p11
aS'https://www.clarin.com/politica/Detectan-movimientos-millonarios-Florencia-Kirchner_0_1612638902.html'
p12
aS'https://www.clarin.com/politica/Detectan-movimientos-millonarios-Florencia-Kirchner_0_1612638902.html'
p13
aS'https://www.clarin.com/politica/Presidente-sepa-paso-suba-gas_0_1612638872.html'
p14
aS'https://www.clarin.com/politica/Presidente-sepa-paso-suba-gas_0_1612638872.html'
p15
aS'https://www.clarin.com/opinion/Automedicarse-deporte-nacional_0_1612638859.html'
p16
aS'https://www.clarin.com/ieco/economia/reaviva-interna-Gobierno-actividad-inflacion_0_1612638890.html'
p17
aS'https://www.clarin.com/ieco/economia/reaviva-interna-Gobierno-actividad-inflacion_0_1612638890.html'
p18
a.