(lp0
S'https://www.clarin.com/sociedad/incendio-escuela-descartan-intencional_0_1566443538.html'
p1
aS'https://www.clarin.com/sociedad/incendio-escuela-descartan-intencional_0_1566443538.html'
p2
aS'https://www.clarin.com/sociedad/Caminando-borde-precipicio_0_1566443539.html'
p3
aS'https://www.clarin.com/sociedad/Materia-desaprobada_0_1559244460.html'
p4
aS'https://www.clarin.com/ieco/economia/duenos-Ryanair-quieren-dentro-Argentina_0_1566443489.html'
p5
aS'https://www.clarin.com/ieco/economia/duenos-Ryanair-quieren-dentro-Argentina_0_1566443489.html'
p6
aS'https://www.clarin.com/opinion/Tasas-dolar-guerra-galaxias_0_1567043282.html'
p7
aS'https://www.clarin.com/opinion/reconstruir-hospital-publico_0_1566443478.html'
p8
aS'https://www.clarin.com/opinion/reconstruir-hospital-publico_0_1566443478.html'
p9
aS'https://www.clarin.com/opinion/default-busqueda-inversiones-extranjeras_0_1566443466.html'
p10
aS'https://www.clarin.com/opinion/Adolescentes-doblemente-castigados_0_1566443465.html'
p11
aS'https://www.clarin.com/opinion/futbol-herencia_0_1567043281.html'
p12
aS'https://www.clarin.com/sociedad/Damian-Superman-nocion-tiempo-desmayo_0_1566443527.html'
p13
aS'https://www.clarin.com/sociedad/abogada-ayudaba-mujeres-golpeadas-novio_0_1566443532.html'
p14
aS'https://www.clarin.com/sociedad/abogada-ayudaba-mujeres-golpeadas-novio_0_1566443532.html'
p15
aS'https://www.clarin.com/opinion/tentacion-colarse-fila_0_1566443541.html'
p16
a.