(lp0
S'https://www.clarin.com/politica/delegado-trosko-Papa_0_1668433151.html'
p1
aS'https://www.clarin.com/ieco/coloquioidea/Mini-Natalia-Oreiro-coloquio-IDEA_0_1667833402.html'
p2
aS'https://www.clarin.com/ieco/coloquioidea/Mini-Natalia-Oreiro-coloquio-IDEA_0_1667833402.html'
p3
aS'https://www.clarin.com/sociedad/videos-delincuentes-show-mal_0_1667833397.html'
p4
aS'https://www.clarin.com/sociedad/videos-delincuentes-show-mal_0_1667833397.html'
p5
aS'https://www.clarin.com/politica/Cristina-perfila-mesa-ordenar-despoder_0_1667833378.html'
p6
aS'https://www.clarin.com/politica/Cristina-perfila-mesa-ordenar-despoder_0_1667833378.html'
p7
aS'https://www.clarin.com/sociedad/Andrea-Boca-espera-fallo-Justicia_0_1667833395.html'
p8
aS'https://www.clarin.com/sociedad/Andrea-Boca-espera-fallo-Justicia_0_1667833395.html'
p9
aS'https://www.clarin.com/politica/CGT-hablan-piso-fija-privados_0_1667833394.html'
p10
aS'https://www.clarin.com/politica/CGT-hablan-piso-fija-privados_0_1667833394.html'
p11
a.