(lp0
S'https://www.clarin.com/sociedad/Horacio-Rodriguez-Larreta-lectivo-Ciudad_0_1531647148.html'
p1
aS'https://www.clarin.com/ieco/dolar-sube-centavos_0_1531647088.html'
p2
aS'https://www.clarin.com/sociedad/Video-encontraron-turistas-mendocinas-asesinadas_0_1531647067.html'
p3
aS'https://www.clarin.com/ieco/acuerdo-buitres-permitira-mercados-inmediatamente_0_1531647137.html'
p4
aS'https://www.clarin.com/politica/Citaron-representantes-Cambiemos-marcha-Congreso_0_1531647150.html'
p5
aS'https://www.clarin.com/sociedad/Chaco-pediatra-dias-guardia-descanso_0_1531647124.html'
p6
aS'https://www.clarin.com/politica/Cristobal-Lopez-multimedio-inversiones-millonarias_0_1531647117.html'
p7
a.