(lp0
Vhttps://www.clarin.com/politica/Presupuesto_2016-Provincia-Vidal-FPV-Intendentes_0_1504050018.html
p1
aVhttps://www.clarin.com/politica/Gobierno-descarto-Lanatta-Schillaci-detenidos_0_1504049987.html
p2
aVhttps://www.clarin.com/politica/Gobierno-descarto-Lanatta-Schillaci-detenidos_0_1504049987.html
p3
a.