(lp0
Vhttps://www.clarin.com/politica/Polemica-fuerte-aumento-diputados-senadores_0_1678032202.html
p1
aVhttps://www.clarin.com/politica/Polemica-fuerte-aumento-diputados-senadores_0_1678032202.html
p2
aVhttps://www.clarin.com/sociedad/Estudiantes-solidarios-armaron-comedores-pibes_0_1678032200.html
p3
aVhttps://www.clarin.com/sociedad/Estudiantes-solidarios-armaron-comedores-pibes_0_1678032200.html
p4
aVhttps://www.clarin.com/sociedad/dieron-alta-chico-golpeado-futbol_0_1678032195.html
p5
aVhttps://www.clarin.com/sociedad/dieron-alta-chico-golpeado-futbol_0_1678032195.html
p6
a.