(lp0
S'https://www.clarin.com/politica/sugestivo-Marijuan-familia-queremos-suicidar_0_1557444360.html'
p1
aS'https://www.clarin.com/sociedad/Inundaciones-Litoral-seguiran-lluvias-afectadas_0_1557444352.html'
p2
a.