(lp0
S'https://www.clarin.com/sociedad/Mundos_intimos-Daniel_Ulanovsky-abuso-anorexia_0_1496850441.html'
p1
aS'https://www.clarin.com/sociedad/Mundos_intimos-Ines_Arteta-abuso_adolescente-anorexia_0_1496850440.html'
p2
aS'https://www.clarin.com/sociedad/Mundos_intimos-Ines_Arteta-abuso_adolescente-anorexia_0_1496850440.html'
p3
aS'https://www.clarin.com/opinion/Magda_Tagtachian_0_1496850403.html'
p4
aS'https://www.clarin.com/sociedad/Primer-desfile-verano-Roberto_Piazza-lleno-Espacio_Clarin_0_1496850400.html'
p5
aS'https://www.clarin.com/sociedad/Primer-desfile-verano-Roberto_Piazza-lleno-Espacio_Clarin_0_1496850400.html'
p6
a.