(lp0
S'https://www.clarin.com/ieco/economia/Saint-Gobain-peor-momento_0_1605439555.html'
p1
aS'https://www.clarin.com/sociedad/Avance-cientificos-argentinos-lucha-tuberculosis_0_1605439549.html'
p2
aS'https://www.clarin.com/sociedad/Polemico-parcial-profesor-antimacrista-UBA_0_1605439556.html'
p3
aS'https://www.clarin.com/politica/sindicalista-estallo-tarifas-Anda-Aranguren_0_1605439551.html'
p4
a.