(lp0
Vhttps://www.clarin.com/sociedad/supervedettes-arrinconan-Justicia-cirujano-top_0_1672032959.html
p1
aVhttps://www.clarin.com/sociedad/supervedettes-arrinconan-Justicia-cirujano-top_0_1672032959.html
p2
aVhttps://www.clarin.com/sociedad/entregaron-envios-conviene-ropa-tecnologia_0_1672032958.html
p3
aVhttps://www.clarin.com/sociedad/entregaron-envios-conviene-ropa-tecnologia_0_1672032958.html
p4
aVhttps://www.clarin.com/politica/Macri-relanza-Cambiemos-acto-aliados_0_1672032957.html
p5
aVhttps://www.clarin.com/politica/Macri-relanza-Cambiemos-acto-aliados_0_1672032957.html
p6
a.