(lp0
S'https://www.clarin.com/politica/Triple-Servini-Martin-Lanatta-Anibal_0_1538246473.html'
p1
aS'https://www.clarin.com/politica/Cristobal-Lopez-medios-petroleo-socio_0_1538246488.html'
p2
aS'https://www.clarin.com/sociedad/Multaran-Barrick-millones-pesos_0_1538246449.html'
p3
aS'https://www.clarin.com/ieco/economia/gobernadores-salieron-devolverles-acuerdo-buitres_0_1538246478.html'
p4
a.