(lp0
S'https://www.clarin.com/sociedad/Arranca-semana-fria-Buenos-Aires_0_1580842047.html'
p1
aS'https://www.clarin.com/sociedad/Arranca-semana-fria-Buenos-Aires_0_1580842047.html'
p2
aS'https://www.clarin.com/ieco/primera-Enarsa-publico-ganadores-GNL_0_1580842033.html'
p3
aS'https://www.clarin.com/politica/Denuncian-sobreprecios-Centro-Cultural-Kirchner_0_1580842032.html'
p4
aS'https://www.clarin.com/politica/Denuncian-sobreprecios-Centro-Cultural-Kirchner_0_1580842032.html'
p5
aS'https://www.clarin.com/ieco/economia/Dictan-conciliacion-obligatoria-frenan-petrolero_0_1580842029.html'
p6
aS'https://www.clarin.com/ieco/economia/Dictan-conciliacion-obligatoria-frenan-petrolero_0_1580842029.html'
p7
a.