(lp0
Vhttps://www.clarin.com/sociedad/definiciones-periodismo-Rogelio-Garcia-Lupo_0_1635436536.html
p1
aVhttps://www.clarin.com/sociedad/definiciones-periodismo-Rogelio-Garcia-Lupo_0_1635436536.html
p2
aVhttps://www.clarin.com/sociedad/Rastreador-huellas-militante-periodismo_0_1635436535.html
p3
aVhttps://www.clarin.com/sociedad/Rastreador-huellas-militante-periodismo_0_1635436535.html
p4
aVhttps://www.clarin.com/sociedad/hundio-Corrientes-mujer-muerta-desaparecidos_0_1635436534.html
p5
aVhttps://www.clarin.com/sociedad/hundio-Corrientes-mujer-muerta-desaparecidos_0_1635436534.html
p6
aVhttps://www.clarin.com/sociedad/pitbull-arranco-parte-pierna-Pampa_0_1635436533.html
p7
aVhttps://www.clarin.com/sociedad/pitbull-arranco-parte-pierna-Pampa_0_1635436533.html
p8
aVhttps://www.clarin.com/politica/Torre-construyendo-peronista-gobierno-Cambiemos_0_1635436523.html
p9
aVhttps://www.clarin.com/politica/Torre-construyendo-peronista-gobierno-Cambiemos_0_1635436523.html
p10
a.