(lp0
S'https://www.clarin.com/politica/Cesar-Andres-contador-Baez-clausuraron_0_1566443357.html'
p1
aS'https://www.clarin.com/ieco/economia/Gobierno-Mendoza-minera-Vale-retomara_0_1565843564.html'
p2
aS'https://www.clarin.com/politica/Marijuan-buscan-encontraron-propiedades-conocidas_0_1566443354.html'
p3
aS'https://www.clarin.com/politica/Siempre-Lazaro-Baez-Nestor-Kirchner_0_1566443363.html'
p4
aS'https://www.clarin.com/politica/diputado-murio-proponia-obras-camino_0_1566443353.html'
p5
aS'https://www.clarin.com/ieco/Prat-Gay-apura-tasas-Central-paciencia_0_1565843611.html'
p6
a.