(lp0
S'https://www.clarin.com/sociedad/fiscal-elevacion-juicio-Time-Warp_0_1637236281.html'
p1
aS'https://www.clarin.com/sociedad/fiscal-elevacion-juicio-Time-Warp_0_1637236281.html'
p2
aS'https://www.clarin.com/politica/Vido-Frigerio-funcionarios-salieron-cruzarlo_0_1637236280.html'
p3
aS'https://www.clarin.com/politica/Vido-Frigerio-funcionarios-salieron-cruzarlo_0_1637236280.html'
p4
aS'https://www.clarin.com/politica/Postergan-septiembre-audiencia-gas_0_1637236277.html'
p5
aS'https://www.clarin.com/politica/Revelan-amenazas-Vidal-cartucho-escopeta_0_1637236271.html'
p6
aS'https://www.clarin.com/politica/Revelan-amenazas-Vidal-cartucho-escopeta_0_1637236271.html'
p7
aS'https://www.clarin.com/sociedad/Cayo-globo-Google-Formosa_0_1637236264.html'
p8
aS'https://www.clarin.com/sociedad/Cayo-globo-Google-Formosa_0_1637236264.html'
p9
aS'https://www.clarin.com/politica/Justicia-investiga-denuncia-jefe-Aduana_0_1637236263.html'
p10
aS'https://www.clarin.com/politica/Justicia-investiga-denuncia-jefe-Aduana_0_1637236263.html'
p11
a.