(lp0
Vhttps://www.clarin.com/politica/Aprovechan-feriado-cargar-Paraguay-ahorran_0_1583241720.html
p1
aVhttps://www.clarin.com/politica/Aprovechan-feriado-cargar-Paraguay-ahorran_0_1583241720.html
p2
aVhttps://www.clarin.com/sociedad/vegana-escalo-Everest-murio-intento_0_1583241719.html
p3
aVhttps://www.clarin.com/sociedad/vegana-escalo-Everest-murio-intento_0_1583241719.html
p4
aVhttps://www.clarin.com/ieco/economia/Macri-confirmo-jubilados-fondos-blanqueo_0_1583241718.html
p5
aVhttps://www.clarin.com/ieco/economia/Macri-confirmo-jubilados-fondos-blanqueo_0_1583241718.html
p6
aVhttps://www.clarin.com/ieco/Antonio-presento-nuevo-proyecto-vinos_0_1583241704.html
p7
aVhttps://www.clarin.com/sociedad/Aerolineas-uniformes-femeninos-comandantes-copilotos_0_1583241714.html
p8
aVhttps://www.clarin.com/sociedad/Aerolineas-uniformes-femeninos-comandantes-copilotos_0_1583241714.html
p9
aVhttps://www.clarin.com/politica/atencion-priorice-vulnerables-Monsenor-Poli_0_1583241712.html
p10
aVhttps://www.clarin.com/politica/atencion-priorice-vulnerables-Monsenor-Poli_0_1583241712.html
p11
aVhttps://www.clarin.com/sociedad/Instagram-censuro-veces-artista-frutal_0_1583241710.html
p12
aVhttps://www.clarin.com/sociedad/Instagram-censuro-veces-artista-frutal_0_1583241710.html
p13
aVhttps://www.clarin.com/sociedad/patria-mira-exquisiteces-cocina-Noroeste_0_1583241709.html
p14
aVhttps://www.clarin.com/sociedad/patria-mira-exquisiteces-cocina-Noroeste_0_1583241709.html
p15
a.