(lp0
S'https://www.clarin.com/ieco/economia/Rige-nueva-tarifa-tope-residenciales_0_1664233753.html'
p1
aS'https://www.clarin.com/politica/Juliana-Awada-ministros-Chubut-Stanley_0_1664233746.html'
p2
aS'https://www.clarin.com/politica/Juliana-Awada-ministros-Chubut-Stanley_0_1664233746.html'
p3
aS'https://www.clarin.com/sociedad/Viaje-agotado-mascamos-problema-descansamos_0_1664233744.html'
p4
aS'https://www.clarin.com/sociedad/Viaje-agotado-mascamos-problema-descansamos_0_1664233744.html'
p5
aS'https://www.clarin.com/sociedad/WhatsApp-transferencias-funciona-bancos_0_1664233731.html'
p6
aS'https://www.clarin.com/sociedad/WhatsApp-transferencias-funciona-bancos_0_1664233731.html'
p7
a.