(lp0
Vhttps://www.clarin.com/politica/Poder-Ciudadano-informes-legisladores-Unidos_0_1684031711.html
p1
aVhttps://www.clarin.com/politica/Poder-Ciudadano-informes-legisladores-Unidos_0_1684031711.html
p2
aVhttps://www.clarin.com/opinion/miren-solamente-Pichetto_0_1684031709.html
p3
aVhttps://www.clarin.com/politica/decide-revoca-libertad-condicional-Esteche_0_1684031702.html
p4
aVhttps://www.clarin.com/politica/decide-revoca-libertad-condicional-Esteche_0_1684031702.html
p5
a.