(lp0
Vhttps://www.clarin.com/sociedad/Cordoba-modelos-XL-desfilaran-erotica_0_1651034986.html
p1
aVhttps://www.clarin.com/sociedad/Cordoba-modelos-XL-desfilaran-erotica_0_1651034986.html
p2
aVhttps://www.clarin.com/sociedad/Casanello-allanamientos-ministerios-derrame-Veladero_0_1651034982.html
p3
aVhttps://www.clarin.com/sociedad/Casanello-allanamientos-ministerios-derrame-Veladero_0_1651034982.html
p4
aVhttps://www.clarin.com/ieco/economia/Juan-Procaccini-identificados-US-diciembre_0_1651034977.html
p5
aVhttps://www.clarin.com/ieco/economia/Juan-Procaccini-identificados-US-diciembre_0_1651034977.html
p6
aVhttps://www.clarin.com/politica/Diputados-PRO-Bergman-San-Juan_0_1651034975.html
p7
aVhttps://www.clarin.com/politica/Diputados-PRO-Bergman-San-Juan_0_1651034975.html
p8
a.