(lp0
S'https://www.clarin.com/politica/operativo-seguridad-allanamientos-Baez_0_1565843424.html'
p1
aS'https://www.clarin.com/politica/operativo-seguridad-allanamientos-Baez_0_1565843424.html'
p2
aS'https://www.clarin.com/politica/Farina-desarme-bovedas-Lazaro-Baez_0_1565843423.html'
p3
aS'https://www.clarin.com/politica/Farina-desarme-bovedas-Lazaro-Baez_0_1565843423.html'
p4
aS'https://www.clarin.com/politica/sindical-alineo-Macri-rechaza-antidespidos_0_1565843419.html'
p5
aS'https://www.clarin.com/politica/sindical-alineo-Macri-rechaza-antidespidos_0_1565843419.html'
p6
aS'https://www.clarin.com/ieco/Macro-Itau-ICBC-HSBC-Citibank_0_1565243620.html'
p7
aS'https://www.clarin.com/ieco/Santander-lanzo-creditos-pymes-exportadoras_0_1565843416.html'
p8
aS'https://www.clarin.com/politica/imagenes-escrache-Zannini-vuelo-Miami_0_1565843415.html'
p9
aS'https://www.clarin.com/politica/imagenes-escrache-Zannini-vuelo-Miami_0_1565843415.html'
p10
a.