(lp0
Vhttps://www.clarin.com/ieco/dolar-sube-centavos_0_1639036149.html
p1
aVhttps://www.clarin.com/ieco/dolar-sube-centavos_0_1639036149.html
p2
aVhttps://www.clarin.com/politica/Carrio-sorprendio-Vidal-acto-Pilar_0_1639036148.html
p3
aVhttps://www.clarin.com/politica/Carrio-sorprendio-Vidal-acto-Pilar_0_1639036148.html
p4
aVhttps://www.clarin.com/ieco/economia/Estiman-personas-Neuquen-Rio-Negro_0_1639036146.html
p5
aVhttps://www.clarin.com/ieco/economia/Estiman-personas-Neuquen-Rio-Negro_0_1639036146.html
p6
aVhttps://www.clarin.com/politica/escribano-Albornoz-Baez-Cristina-Kirchner_0_1639036136.html
p7
aVhttps://www.clarin.com/politica/escribano-Albornoz-Baez-Cristina-Kirchner_0_1639036136.html
p8
aVhttps://www.clarin.com/politica/Congreso-mecanismo-designacion-Defensor-Pueblo_0_1638436342.html
p9
aVhttps://www.clarin.com/politica/Congreso-mecanismo-designacion-Defensor-Pueblo_0_1638436342.html
p10
aVhttps://www.clarin.com/politica/Ataque-Macri-ahora-cinico-fiscal_0_1637236328.html
p11
aVhttps://www.clarin.com/politica/Ataque-Macri-ahora-cinico-fiscal_0_1637236328.html
p12
aVhttps://www.clarin.com/ieco/economia/Roemmers-cierra-productora-aceitunas-Rioja_0_1639036141.html
p13
aVhttps://www.clarin.com/ieco/economia/Roemmers-cierra-productora-aceitunas-Rioja_0_1639036141.html
p14
aVhttps://www.clarin.com/politica/Trabajaban-ANSeS-Mendoza-viaticos-campana_0_1639036138.html
p15
aVhttps://www.clarin.com/politica/Trabajaban-ANSeS-Mendoza-viaticos-campana_0_1639036138.html
p16
a.