(lp0
Vhttps://www.clarin.com/sociedad/Sorpresa-playa-nene-hallo-fosiles_0_1608439302.html
p1
aVhttps://www.clarin.com/sociedad/Sorpresa-playa-nene-hallo-fosiles_0_1608439302.html
p2
aVhttps://www.clarin.com/politica/Carrio-Vidal-fundamento-Policia-Bonaerense_0_1608439301.html
p3
aVhttps://www.clarin.com/politica/Carrio-Vidal-fundamento-Policia-Bonaerense_0_1608439301.html
p4
aVhttps://www.clarin.com/sociedad/Time-Warp-presentaron-profugos-quedaron_0_1608439300.html
p5
aVhttps://www.clarin.com/sociedad/Time-Warp-presentaron-profugos-quedaron_0_1608439300.html
p6
aVhttps://www.clarin.com/ieco/economia/consumo-carne-cayo-primer-semestre_0_1608439297.html
p7
aVhttps://www.clarin.com/politica/Bicentenario-referentes-Congreso-equidad-convivencia_0_1608439291.html
p8
aVhttps://www.clarin.com/ieco/economia/Gobierno-acuerdo-bonistas-US-millones_0_1608439285.html
p9
aVhttps://www.clarin.com/ieco/economia/Gobierno-acuerdo-bonistas-US-millones_0_1608439285.html
p10
aVhttps://www.clarin.com/politica/Perez-Corradi-funcionarios-vinculados-efedrina_0_1608439284.html
p11
a.