(lp0
Vhttps://www.clarin.com/ieco/Pese-expectativas-desplomaron-exportaciones-leche_0_1546045518.html
p1
aVhttps://www.clarin.com/ieco/Pese-expectativas-desplomaron-exportaciones-leche_0_1546045518.html
p2
aVhttps://www.clarin.com/politica/Obama-causo-sorpresa-ministra-Macri_0_1546045519.html
p3
aVhttps://www.clarin.com/politica/Obama-causo-sorpresa-ministra-Macri_0_1546045519.html
p4
aVhttps://www.clarin.com/sociedad/Abrio-primer-atendido-exclusivamente-Pepper_0_1546045516.html
p5
aVhttps://www.clarin.com/sociedad/Abrio-primer-atendido-exclusivamente-Pepper_0_1546045516.html
p6
aVhttps://www.clarin.com/politica/Macri-Bariloche-confirmada-agenda-Obama_0_1546045514.html
p7
aVhttps://www.clarin.com/politica/Macri-Bariloche-confirmada-agenda-Obama_0_1546045514.html
p8
aVhttps://www.clarin.com/politica/desclasificacion-archivos-dictadura-llevara-medio_0_1546045505.html
p9
aVhttps://www.clarin.com/politica/desclasificacion-archivos-dictadura-llevara-medio_0_1546045505.html
p10
a.