(lp0
S'https://www.clarin.com/politica/Enarsa-saca-YPF-importacion-gas_0_1675632561.html'
p1
aS'https://www.clarin.com/politica/Enarsa-saca-YPF-importacion-gas_0_1675632561.html'
p2
aS'https://www.clarin.com/ieco/economia/Cresta-Roja-vendio-US-millones_0_1675632548.html'
p3
aS'https://www.clarin.com/ieco/economia/Cresta-Roja-vendio-US-millones_0_1675632548.html'
p4
aS'https://www.clarin.com/ieco/economia/septiembre-desplomo-produccion-industrial-cayo_0_1675632541.html'
p5
aS'https://www.clarin.com/ieco/economia/septiembre-desplomo-produccion-industrial-cayo_0_1675632541.html'
p6
aS'https://www.clarin.com/ieco/economia/Leve-mejora-empleo-agosto-septiembre_0_1675632533.html'
p7
aS'https://www.clarin.com/ieco/economia/Leve-mejora-empleo-agosto-septiembre_0_1675632533.html'
p8
aS'https://www.clarin.com/ieco/EEUU-elimina-trabas-limones-Argentina_0_1675632589.html'
p9
aS'https://www.clarin.com/ieco/EEUU-elimina-trabas-limones-Argentina_0_1675632589.html'
p10
aS'https://www.clarin.com/politica/Macri-ferroviarios-pilotos-Aerolineas-paros_0_1675632493.html'
p11
aS'https://www.clarin.com/politica/Macri-ferroviarios-pilotos-Aerolineas-paros_0_1675632493.html'
p12
aS'https://www.clarin.com/opinion/ocaso-pelados-apocrifos_0_1676232368.html'
p13
aS'https://www.clarin.com/opinion/pelea-bandas-Provincia-dinero-poder_0_1676232367.html'
p14
a.