(lp0
S'https://www.clarin.com/politica/Macri-renuncia-Oyarbide-Tinelli-Carrio_0_1558644266.html'
p1
aS'https://www.clarin.com/sociedad/estrellas-ensena-secretos-redes-sociales_0_1558644274.html'
p2
aS'https://www.clarin.com/politica/Cristina-palos-prensa-pedido-Milagro_0_1558644267.html'
p3
aS'https://www.clarin.com/ieco/economia/deficit-fiscal-llegaria_0_1558644268.html'
p4
aS'https://www.clarin.com/sociedad/microchip-permite-tetraplejico-recuperar-control_0_1558644277.html'
p5
aS'https://www.clarin.com/sociedad/Difunden-desechan-cloacales-Nahuel-Huapi_0_1558644292.html'
p6
a.