(lp0
Vhttps://www.clarin.com/politica/Lanata-Cristina-libre-proximas-elecciones_0_1637236408.html
p1
aVhttps://www.clarin.com/politica/Lanata-Cristina-libre-proximas-elecciones_0_1637236408.html
p2
aVhttps://www.clarin.com/opinion/Reconstruir-capacidad-defensa-nacional_0_1637236402.html
p3
aVhttps://www.clarin.com/politica/Facultad-Filosofia-Cordoba-Milagro-Sala_0_1637236401.html
p4
aVhttps://www.clarin.com/politica/Facultad-Filosofia-Cordoba-Milagro-Sala_0_1637236401.html
p5
aVhttps://www.clarin.com/politica/Macri-encabeza-reunion-clave-tarifas_0_1637236399.html
p6
aVhttps://www.clarin.com/politica/Macri-encabeza-reunion-clave-tarifas_0_1637236399.html
p7
aVhttps://www.clarin.com/ieco/desocupacion-Indec_0_1637236397.html
p8
aVhttps://www.clarin.com/ieco/desocupacion-Indec_0_1637236397.html
p9
aVhttps://www.clarin.com/sociedad/Condenan-supermercado-indemnizar-llamarla-grandes_0_1637236395.html
p10
aVhttps://www.clarin.com/sociedad/Condenan-supermercado-indemnizar-llamarla-grandes_0_1637236395.html
p11
a.