(lp0
Vhttps://www.clarin.com/politica/Maximo-Diputados-Lazaro-Baez-Tribunales_0_1553844848.html
p1
aVhttps://www.clarin.com/politica/Maximo-Diputados-Lazaro-Baez-Tribunales_0_1553844848.html
p2
aVhttps://www.clarin.com/sociedad/Controvertida-frase-funcionaria-femicidio_0_1553844841.html
p3
aVhttps://www.clarin.com/sociedad/Controvertida-frase-funcionaria-femicidio_0_1553844841.html
p4
aVhttps://www.clarin.com/sociedad/pan-caro-mundo_0_1553844837.html
p5
aVhttps://www.clarin.com/sociedad/pan-caro-mundo_0_1553844837.html
p6
aVhttps://www.clarin.com/politica/Hotesur-Oficina-Anticorrupcion-aceptada-querellante_0_1553844828.html
p7
aVhttps://www.clarin.com/politica/Hotesur-Oficina-Anticorrupcion-aceptada-querellante_0_1553844828.html
p8
aVhttps://www.clarin.com/ieco/atencion-recarga-cajeros-Banco-Provincia_0_1553844823.html
p9
aVhttps://www.clarin.com/ieco/atencion-recarga-cajeros-Banco-Provincia_0_1553844823.html
p10
aVhttps://www.clarin.com/sociedad/Victima-sexual-contarlo-Facebook-Papa_0_1553844821.html
p11
aVhttps://www.clarin.com/sociedad/Victima-sexual-contarlo-Facebook-Papa_0_1553844821.html
p12
aVhttps://www.clarin.com/sociedad/Fontanet-entrego-Justicia-cumplir-condena_0_1553844709.html
p13
aVhttps://www.clarin.com/sociedad/Fontanet-entrego-Justicia-cumplir-condena_0_1553844709.html
p14
a.