(lp0
Vhttps://www.clarin.com/sociedad/EEUU-accidente-mortal-piloto-automatico_0_1605439478.html
p1
aVhttps://www.clarin.com/sociedad/EEUU-accidente-mortal-piloto-automatico_0_1605439478.html
p2
aVhttps://www.clarin.com/politica/Marijuan-Justicia-buscando-pruebas-Cristina_0_1605439470.html
p3
aVhttps://www.clarin.com/sociedad/Continuara-niebla-espera-tiempo-semana_0_1605439469.html
p4
aVhttps://www.clarin.com/sociedad/Continuara-niebla-espera-tiempo-semana_0_1605439469.html
p5
aVhttps://www.clarin.com/sociedad/Detienen-Espana-amenazo-Stephen-Hawking_0_1605439468.html
p6
aVhttps://www.clarin.com/sociedad/Detienen-Espana-amenazo-Stephen-Hawking_0_1605439468.html
p7
aVhttps://www.clarin.com/ieco/economia/Nueva-emision-bonos-US-millones_0_1605439467.html
p8
a.