(lp0
S'https://www.clarin.com/politica/DElia-juicio-oral-causa-discriminacion_0_1662433893.html'
p1
aS'https://www.clarin.com/ieco/economia/Cautela-Central-tasas-lebacs-cambios_0_1662433880.html'
p2
aS'https://www.clarin.com/opinion/Trump-llega-Casa-Blanca_0_1662433892.html'
p3
aS'https://www.clarin.com/ieco/economia/ANSeS-negocia-asociarse-emirato-Qatar_0_1662433894.html'
p4
aS'https://www.clarin.com/politica/visita-Temer-Macri-planea-Brasil_0_1662433885.html'
p5
aS'https://www.clarin.com/sociedad/tromba-provoco-graves-destrozos-Rioja_0_1662433881.html'
p6
aS'https://www.clarin.com/opinion/educacion-mejor-capital-humano_0_1662433896.html'
p7
a.