(lp0
S'https://www.clarin.com/politica/Oyarbide-Tribunales-declarar-causa-Angelici_0_1667833240.html'
p1
aS'https://www.clarin.com/politica/Oyarbide-Tribunales-declarar-causa-Angelici_0_1667833240.html'
p2
aS'https://www.clarin.com/politica/chicana-Cristina-Kirchner-Laura-Alonso_0_1667833238.html'
p3
aS'https://www.clarin.com/politica/chicana-Cristina-Kirchner-Laura-Alonso_0_1667833238.html'
p4
aS'https://www.clarin.com/sociedad/temas-imprescindibles-Bob-Dylan_0_1667833236.html'
p5
aS'https://www.clarin.com/sociedad/temas-imprescindibles-Bob-Dylan_0_1667833236.html'
p6
aS'https://www.clarin.com/ieco/coloquioidea/Juan-Manuel-Urtubey-marido-pagar_0_1667833229.html'
p7
aS'https://www.clarin.com/ieco/coloquioidea/Juan-Manuel-Urtubey-marido-pagar_0_1667833229.html'
p8
aS'https://www.clarin.com/politica/peronismo-honesta-Macri-Vidal-Carrio_0_1667833226.html'
p9
aS'https://www.clarin.com/politica/peronismo-honesta-Macri-Vidal-Carrio_0_1667833226.html'
p10
aS'https://www.clarin.com/politica/Hugo-Yasky-bono-paquetito-humo_0_1667833227.html'
p11
aS'https://www.clarin.com/politica/Hugo-Yasky-bono-paquetito-humo_0_1667833227.html'
p12
aS'https://www.clarin.com/sociedad/Denuncian-casos-intoxicacion-Berazategui_0_1667833220.html'
p13
aS'https://www.clarin.com/sociedad/Denuncian-casos-intoxicacion-Berazategui_0_1667833220.html'
p14
a.