(lp0
S'https://www.clarin.com/sociedad/Derrumbe-Bahia-Blanca-resultaron-heridos_0_1682231828.html'
p1
aS'https://www.clarin.com/politica/Angelici-Carrio-River-aburrio-denuncias_0_1682231823.html'
p2
aS'https://www.clarin.com/politica/Sola-reconciliacion-Randazzo-Massa-PJ_0_1680432063.html'
p3
aS'https://www.clarin.com/politica/Facundo-Manes-candidatura-responsabilidad-comprometerme_0_1682231832.html'
p4
aS'https://www.clarin.com/sociedad/Cumplieron-sueno-viaje-egresados-despues_0_1681031999.html'
p5
aS'https://www.clarin.com/politica/Facundo-Moyano-anuncio-actividad-sindical_0_1682231824.html'
p6
a.