(lp0
S'https://www.clarin.com/opinion/Gracias-Vido-dado_0_1602439741.html'
p1
aS'https://www.clarin.com/politica/hijos-Baez-recluidos-Rio-Gallegos_0_1601839980.html'
p2
aS'https://www.clarin.com/politica/hijos-Baez-recluidos-Rio-Gallegos_0_1601839980.html'
p3
aS'https://www.clarin.com/politica/Gobierno-Cristina-cuentas-Baez-EEUU_0_1601839955.html'
p4
aS'https://www.clarin.com/politica/Gobierno-Cristina-cuentas-Baez-EEUU_0_1601839955.html'
p5
aS'https://www.clarin.com/opinion/antiguos-amigos_0_1601839948.html'
p6
aS'https://www.clarin.com/opinion/antiguos-amigos_0_1601839948.html'
p7
aS'https://www.clarin.com/politica/fideicomiso-Macri-millones-mitad-bienes_0_1601839975.html'
p8
aS'https://www.clarin.com/opinion/Explorar-sonar-animarse-vivir_0_1601839932.html'
p9
aS'https://www.clarin.com/politica/Investigan-Lopez-escapar-avion-convento_0_1601839982.html'
p10
aS'https://www.clarin.com/politica/Investigan-Lopez-escapar-avion-convento_0_1601839982.html'
p11
aS'https://www.clarin.com/ieco/economia/Encuesta-BCRA-inflacion-llegara-abril_0_1601839964.html'
p12
aS'https://www.clarin.com/ieco/economia/Encuesta-BCRA-inflacion-llegara-abril_0_1601839964.html'
p13
aS'https://www.clarin.com/politica/Gobierno-reforma-electoral-salga-rapido_0_1601839966.html'
p14
aS'https://www.clarin.com/politica/Gobierno-reforma-electoral-salga-rapido_0_1601839966.html'
p15
aS'https://www.clarin.com/politica/Anibal-Berni-proteccion-Perez-Corradi_0_1601839981.html'
p16
aS'https://www.clarin.com/politica/Anibal-Berni-proteccion-Perez-Corradi_0_1601839981.html'
p17
aS'https://www.clarin.com/politica/comedores-Conurbano-registro-pulso-crisis_0_1601839976.html'
p18
aS'https://www.clarin.com/politica/comedores-Conurbano-registro-pulso-crisis_0_1601839976.html'
p19
a.