(lp0
Vhttps://www.clarin.com/sociedad/Detenido-devolver-VHS-hace-anos_0_1547845488.html
p1
aVhttps://www.clarin.com/sociedad/Detenido-devolver-VHS-hace-anos_0_1547845488.html
p2
aVhttps://www.clarin.com/sociedad/guardiacarcel-hantavirus-denuncian-contagio-trabajaba_0_1547845465.html
p3
aVhttps://www.clarin.com/sociedad/guardiacarcel-hantavirus-denuncian-contagio-trabajaba_0_1547845465.html
p4
aVhttps://www.clarin.com/politica/Tierra-Fuego-Gobierno-gremios-conflicto_0_1547845461.html
p5
aVhttps://www.clarin.com/politica/Tierra-Fuego-Gobierno-gremios-conflicto_0_1547845461.html
p6
aVhttps://www.clarin.com/politica/Hillary-Clinton-Cristina-conductas-infantiles_0_1547845452.html
p7
aVhttps://www.clarin.com/politica/Hillary-Clinton-Cristina-conductas-infantiles_0_1547845452.html
p8
a.