(lp0
S'https://www.clarin.com/politica/contraataque-Macri-anuncios-inversiones-ambicioso_0_1566443399.html'
p1
aS'https://www.clarin.com/ieco/Sacrifican-bovinos-Viedma-fuerte-politica_0_1566443393.html'
p2
aS'https://www.clarin.com/ieco/Mil-comienza-asignacion-universal-Belgica_0_1566443396.html'
p3
aS'https://www.clarin.com/ieco/economia/Gracias-subsidios-YPF-vuelve-exportar_0_1566443410.html'
p4
aS'https://www.clarin.com/sociedad/Burlando-responsable-muertes-narcotrafico_0_1566443405.html'
p5
aS'https://www.clarin.com/sociedad/Provincia-municipios-habiliten-fiestas-electronicas_0_1566443411.html'
p6
a.