(lp0
S'https://www.clarin.com/politica/Malvinas-Argentina-crecimiento_poblacion_0_1519648363.html'
p1
aS'https://www.clarin.com/politica/De_la_Sota-Jose_Manuel_de_la_Sota-PJ-Partido_Justicialista_0_1519648367.html'
p2
aS'https://www.clarin.com/sociedad/turistas-gastaron-millones-feriado-extralargo_0_1519648359.html'
p3
a.