(lp0
Vhttps://www.clarin.com/sociedad/Perpetua-portero-mujer-escondio-ciego_0_1586841456.html
p1
aVhttps://www.clarin.com/sociedad/Perpetua-portero-mujer-escondio-ciego_0_1586841456.html
p2
aVhttps://www.clarin.com/sociedad/Video-increible-banda-musica-abajo_0_1586841455.html
p3
aVhttps://www.clarin.com/sociedad/Video-increible-banda-musica-abajo_0_1586841455.html
p4
aVhttps://www.clarin.com/sociedad/Video-quedo-atrapado-adentro-lavarropas_0_1586841444.html
p5
aVhttps://www.clarin.com/sociedad/Video-quedo-atrapado-adentro-lavarropas_0_1586841444.html
p6
aVhttps://www.clarin.com/sociedad/surfista-pierde-pierna-ataque-tiburon_0_1586841441.html
p7
aVhttps://www.clarin.com/sociedad/surfista-pierde-pierna-ataque-tiburon_0_1586841441.html
p8
aVhttps://www.clarin.com/sociedad/Francia-autorizo-espanola-transfieran-esperma_0_1586841436.html
p9
aVhttps://www.clarin.com/sociedad/Francia-autorizo-espanola-transfieran-esperma_0_1586841436.html
p10
aVhttps://www.clarin.com/sociedad/cartera-cara-mundo-pagaron-dolares_0_1586841431.html
p11
aVhttps://www.clarin.com/sociedad/cartera-cara-mundo-pagaron-dolares_0_1586841431.html
p12
a.