(lp0
Vhttps://www.clarin.com/politica/Malvinas-sobrevolo-visita-Macri-Papa_0_1669033100.html
p1
aVhttps://www.clarin.com/politica/Malvinas-sobrevolo-visita-Macri-Papa_0_1669033100.html
p2
aVhttps://www.clarin.com/politica/Alejandro-Marmo-simboliza-Francisco-Macri_0_1669033095.html
p3
aVhttps://www.clarin.com/politica/Alejandro-Marmo-simboliza-Francisco-Macri_0_1669033095.html
p4
aVhttps://www.clarin.com/sociedad/golpeado-Liceo-recibio-Apenas-estudiar_0_1669033094.html
p5
aVhttps://www.clarin.com/sociedad/golpeado-Liceo-recibio-Apenas-estudiar_0_1669033094.html
p6
aVhttps://www.clarin.com/politica/Elogios-Eugenia-Vidal-Carolina-Stanley_0_1669033093.html
p7
aVhttps://www.clarin.com/politica/Elogios-Eugenia-Vidal-Carolina-Stanley_0_1669033093.html
p8
aVhttps://www.clarin.com/politica/cuestionario-llevo-Antonia-papa-Francisco_0_1669033091.html
p9
aVhttps://www.clarin.com/politica/cuestionario-llevo-Antonia-papa-Francisco_0_1669033091.html
p10
aVhttps://www.clarin.com/politica/Macri-Roma-optimismo-encuentro-Papa_0_1669033087.html
p11
aVhttps://www.clarin.com/politica/Macri-Roma-optimismo-encuentro-Papa_0_1669033087.html
p12
a.