(lp0
S'https://www.clarin.com/sociedad/Fiestas-electronicas-consumo-sustancias_0_1559844238.html'
p1
aS'https://www.clarin.com/sociedad/Fernandez-desfile-padres-busca-hijos_0_1559844236.html'
p2
aS'https://www.clarin.com/sociedad/postal-mediodia-botellitas-vacias-apiladas_0_1559844237.html'
p3
aS'https://www.clarin.com/sociedad/chico-convulsiones-piso-quince-minutos_0_1559844244.html'
p4
aS'https://www.clarin.com/politica/Boudou-vecino-destacado-Mar-Plata_0_1559844227.html'
p5
aS'https://www.clarin.com/politica/Sigue-Puerto-Iguazu-Lazaro-Baez_0_1559844220.html'
p6
aS'https://www.clarin.com/sociedad/fiesta_electronica-Costa_Salguero_0_1559844207.html'
p7
aS'https://www.clarin.com/politica/Bullrich-ministerio-ordenes-custodiar-Chueco_0_1559844226.html'
p8
a.