(lp0
S'https://www.clarin.com/politica/carta-Cristina-Baez-existe-guardada_0_1591040994.html'
p1
aS'https://www.clarin.com/politica/Corte-fallo-facturas-juicios-previsionales_0_1591041079.html'
p2
aS'https://www.clarin.com/politica/Blanqueo-Macri-acepto-eliminen-prensa_0_1591041077.html'
p3
aS'https://www.clarin.com/sociedad/Avanzan-biopsias-liquidas-monitorear-cancer_0_1591041062.html'
p4
aS'https://www.clarin.com/sociedad/Negocian-lista-Precios-Cuidados-medicamentos_0_1591041073.html'
p5
aS'https://www.clarin.com/politica/Baez-preocupado-Leandro-Va-terminar_0_1591041007.html'
p6
aS'https://www.clarin.com/opinion/Rondas-mate-redaccion_0_1591040989.html'
p7
a.