(lp0
S'https://www.clarin.com/politica/CTERA-dudan-clases-empiecen_0_1519648204.html'
p1
aS'https://www.clarin.com/ieco/economia/Acusan-Gobierno-comprar-acuerdo-ofreciendole_0_1519648228.html'
p2
aS'https://www.clarin.com/sociedad/Milagroso-rescate-soldado-sepultado-nieve_0_1519648220.html'
p3
aS'https://www.clarin.com/politica/gerentes-Campora-llevandose-documentacion-Telam_0_1519648234.html'
p4
aS'https://www.clarin.com/sociedad/Videos-cientificos-asombrosas-cualidades-cucarachas_0_1519648208.html'
p5
aS'https://www.clarin.com/sociedad/Registro-viste-bebes-furor-Facebook_0_1519648221.html'
p6
aS'https://www.clarin.com/politica/Manana-vence-Lazaro-Baez-UOCRA_0_1519648176.html'
p7
a.