(lp0
S'https://www.clarin.com/sociedad/exterior-notebooks-tablets-cuestan-mitad_0_1668433334.html'
p1
aS'https://www.clarin.com/sociedad/Puso-anos-volante-filmo-celular_0_1669033136.html'
p2
aS'https://www.clarin.com/sociedad/Riesgo-ciudad-ataques-perros-callejeros_0_1669033140.html'
p3
aS'https://www.clarin.com/sociedad/Buscan-proteger-filmaron-intentaba-pegarles_0_1669033135.html'
p4
aS'https://www.clarin.com/politica/Definieron-llegaran-primeras-federales-GBA_0_1669033137.html'
p5
aS'https://www.clarin.com/politica/indica-reunion-superadora-sonrisas-fotos_0_1669033133.html'
p6
aS'https://www.clarin.com/politica/pedido-Macri-embajadores-argentinos_0_1669033131.html'
p7
a.