(lp0
S'https://www.clarin.com/ieco/economia/firmo-paritaria-comercio-aumento-meses_0_1541846040.html'
p1
aS'https://www.clarin.com/sociedad/Confirmado-salas-ocultas-tumba-Tutankamon_0_1541846050.html'
p2
aS'https://www.clarin.com/sociedad/Montanita-detuvieron-venezolano-acusado-crimen_0_1541846028.html'
p3
aS'https://www.clarin.com/ieco/FMI-dijo-sigue-cerca-Brasil_0_1541846051.html'
p4
aS'https://www.clarin.com/sociedad/primer-cientifico-argentino-TED-mundial_0_1541846061.html'
p5
aS'https://www.clarin.com/politica/personajes-clave-ruta-dinero_0_1541846053.html'
p6
aS'https://www.clarin.com/ieco/economia/tormenta-YPF-emite-US-millones_0_1541846064.html'
p7
aS'https://www.clarin.com/politica/gobernadores-presionan-Senado-aprobar-buitre_0_1541846048.html'
p8
a.