(lp0
Vhttps://www.clarin.com/sociedad/Puede-invitar-trastorno-alimentario_0_1596440547.html
p1
aVhttps://www.clarin.com/sociedad/semana-XL-arranca-negocios-abiertos_0_1596440546.html
p2
aVhttps://www.clarin.com/politica/Rebaja-agua-hospitales-clubes-universidades_0_1596440545.html
p3
aVhttps://www.clarin.com/politica/Rebaja-agua-hospitales-clubes-universidades_0_1596440545.html
p4
aVhttps://www.clarin.com/sociedad/Caricias-mejoran-ambiente_0_1596440544.html
p5
aVhttps://www.clarin.com/sociedad/ciencia-confirmo-plantas-sensibles-tacto_0_1596440542.html
p6
aVhttps://www.clarin.com/sociedad/ciencia-confirmo-plantas-sensibles-tacto_0_1596440542.html
p7
aVhttps://www.clarin.com/sociedad/Nuevos-usados-ahora-puede-salir_0_1596440539.html
p8
aVhttps://www.clarin.com/sociedad/Nuevos-usados-ahora-puede-salir_0_1596440539.html
p9
aVhttps://www.clarin.com/politica/familia-Lopez-Tucuman-jamas-recibimos_0_1596440540.html
p10
a.