(lp0
S'https://www.clarin.com/politica/Cristina-Kirchner-Macri-denuncia-inventar_0_1687631323.html'
p1
aS'https://www.clarin.com/politica/Corte-condenas-homicidio-Mariano-Ferreyra_0_1687631307.html'
p2
aS'https://www.clarin.com/politica/oficializo-Telefe-Viacom-millones-TV_0_1687631310.html'
p3
aS'https://www.clarin.com/opinion/Dale-Messi_0_1687631322.html'
p4
a.