(lp0
S'https://www.clarin.com/sociedad/Prision-preventiva-ultima-pareja-fisioterapeuta_0_1634236670.html'
p1
aS'https://www.clarin.com/sociedad/Prision-preventiva-ultima-pareja-fisioterapeuta_0_1634236670.html'
p2
aS'https://www.clarin.com/politica/Imputan-Szpolski-Pergolini-evasion-millonaria_0_1634236683.html'
p3
aS'https://www.clarin.com/politica/Imputan-Szpolski-Pergolini-evasion-millonaria_0_1634236683.html'
p4
aS'https://www.clarin.com/politica/unica-verdad-realidad-Macri-volvio_0_1634236675.html'
p5
aS'https://www.clarin.com/politica/unica-verdad-realidad-Macri-volvio_0_1634236675.html'
p6
aS'https://www.clarin.com/sociedad/Emotivo-bomberos-reanimando-perrito-incendio_0_1634236677.html'
p7
aS'https://www.clarin.com/sociedad/Emotivo-bomberos-reanimando-perrito-incendio_0_1634236677.html'
p8
aS'https://www.clarin.com/politica/Convocan-reapertura-Nisman-Cristina-Kirchner_0_1634236673.html'
p9
aS'https://www.clarin.com/politica/Convocan-reapertura-Nisman-Cristina-Kirchner_0_1634236673.html'
p10
aS'https://www.clarin.com/sociedad/Juegos-Olimpicos-alimentara-recursos-Rio_0_1634236661.html'
p11
aS'https://www.clarin.com/sociedad/Juegos-Olimpicos-alimentara-recursos-Rio_0_1634236661.html'
p12
a.