(lp0
Vhttps://www.clarin.com/ieco/INTA-robots-cerca-campo-argentino_0_1567043343.html
p1
aVhttps://www.clarin.com/ieco/INTA-robots-cerca-campo-argentino_0_1567043343.html
p2
aVhttps://www.clarin.com/sociedad/Defienden-apoderado-Dell-Producciones-tramites_0_1567043337.html
p3
aVhttps://www.clarin.com/sociedad/Defienden-apoderado-Dell-Producciones-tramites_0_1567043337.html
p4
aVhttps://www.clarin.com/sociedad/Lanzan-oficial-victima-delitos-redes_0_1567043342.html
p5
aVhttps://www.clarin.com/sociedad/Lanzan-oficial-victima-delitos-redes_0_1567043342.html
p6
aVhttps://www.clarin.com/sociedad/Farmacias-Interior-suspenden-jubilados-PAMI_0_1567043340.html
p7
aVhttps://www.clarin.com/sociedad/Farmacias-Interior-suspenden-jubilados-PAMI_0_1567043340.html
p8
aVhttps://www.clarin.com/politica/video-PRO-dedico-Mona-Jimenez_0_1567043328.html
p9
aVhttps://www.clarin.com/ieco/construccion-empleo-caida-salarios-reales_0_1567043326.html
p10
aVhttps://www.clarin.com/ieco/construccion-empleo-caida-salarios-reales_0_1567043326.html
p11
a.