(lp0
S'https://www.clarin.com/politica/Macri-Nueva-York-Ibamos-directo_0_1653434757.html'
p1
aS'https://www.clarin.com/politica/Macri-Nueva-York-Ibamos-directo_0_1653434757.html'
p2
aS'https://www.clarin.com/politica/Allanaron-municipalidad-Varela-denuncia-intendente_0_1653434755.html'
p3
aS'https://www.clarin.com/politica/Allanaron-municipalidad-Varela-denuncia-intendente_0_1653434755.html'
p4
aS'https://www.clarin.com/politica/Santiago-Estero-murieron-acusados-represion_0_1653434756.html'
p5
aS'https://www.clarin.com/politica/Santiago-Estero-murieron-acusados-represion_0_1653434756.html'
p6
aS'https://www.clarin.com/ieco/tecnologia/computacion-cognitiva-paradigma-Big-Data_0_1653434751.html'
p7
a.