(lp0
S'https://www.clarin.com/sociedad/cerraron-aumento-docentes-bonaerenses-solidario_0_1582641764.html'
p1
aS'https://www.clarin.com/sociedad/cerraron-aumento-docentes-bonaerenses-solidario_0_1582641764.html'
p2
aS'https://www.clarin.com/politica/Macri-almuerza-Mirtha-Legrand-Rosada_0_1582641762.html'
p3
aS'https://www.clarin.com/politica/Macri-almuerza-Mirtha-Legrand-Rosada_0_1582641762.html'
p4
aS'https://www.clarin.com/politica/lujosa-construye-Kirchner-Santa-Cruz_0_1564643682.html'
p5
aS'https://www.clarin.com/politica/lujosa-construye-Kirchner-Santa-Cruz_0_1564643682.html'
p6
aS'https://www.clarin.com/ieco/economia/Suba-medicamentos-farmaceuticos-defienden_0_1582641759.html'
p7
aS'https://www.clarin.com/ieco/economia/Suba-medicamentos-farmaceuticos-defienden_0_1582641759.html'
p8
aS'https://www.clarin.com/politica/criticas-Mirtha-sacudieron-Gobierno_0_1582641757.html'
p9
aS'https://www.clarin.com/politica/criticas-Mirtha-sacudieron-Gobierno_0_1582641757.html'
p10
a.