(lp0
S'https://www.clarin.com/sociedad/patota-ataco-chico-muerte-cerebral_0_1528047346.html'
p1
aS'https://www.clarin.com/ieco/economia/Santander-Rio-primera-digital-Argentina_0_1527447651.html'
p2
aS'https://www.clarin.com/ieco/Acindar-explico-parate-crisis-Brasil_0_1528047353.html'
p3
aS'https://www.clarin.com/politica/YPF-Justicia-contrato-secreto-Chevron_0_1528047324.html'
p4
aS'https://www.clarin.com/ieco/economia/Inflacion-utilizarian-Ciudad-Buenos-Aires_0_1528047326.html'
p5
aS'https://www.clarin.com/politica/Negocian-DNU-clave-finanzas-Macri_0_1528047340.html'
p6
aS'https://www.clarin.com/politica/Solanas-Giustiniani-YPF-contrato-Chevron_0_1528047332.html'
p7
a.