(lp0
S'https://www.clarin.com/politica/Milagro-Sala-volvieron-excarcelacion-ofrecieron_0_1513648948.html'
p1
aS'https://www.clarin.com/politica/Milagro-Sala-volvieron-excarcelacion-ofrecieron_0_1513648948.html'
p2
a.