(lp0
S'https://www.clarin.com/sociedad/Dice-US-millones-loteria-quieren_0_1517248449.html'
p1
aS'https://www.clarin.com/sociedad/Ira-carcel-obligar-padre-violento_0_1517248444.html'
p2
aS'https://www.clarin.com/sociedad/fans-Rolling-Stones-vigilia-hoteles_0_1517248450.html'
p3
aS'https://www.clarin.com/ieco/economia/enviada-Obama-empresarios-colaboren-Gobierno_0_1517248475.html'
p4
aS'https://www.clarin.com/ieco/economia/metalurgicos-Calo-acordaron-pago-especial_0_1517248453.html'
p5
aS'https://www.clarin.com/sociedad/Aparecio-Corrientes-ocelote-felino-extinto_0_1517248455.html'
p6
a.