(lp0
Vhttps://www.clarin.com/sociedad/Video-Innovadora-prevenir-violencia-mujeres_0_1536446462.html
p1
aVhttps://www.clarin.com/sociedad/Video-Innovadora-prevenir-violencia-mujeres_0_1536446462.html
p2
aVhttps://www.clarin.com/politica/Fondos-acuerdan-Massa-Gobierno-complica_0_1536446463.html
p3
aVhttps://www.clarin.com/politica/Fondos-acuerdan-Massa-Gobierno-complica_0_1536446463.html
p4
aVhttps://www.clarin.com/sociedad/Doble-Ecuador-permitieron-argentinos-cadaveres_0_1536446458.html
p5
aVhttps://www.clarin.com/sociedad/Doble-Ecuador-permitieron-argentinos-cadaveres_0_1536446458.html
p6
aVhttps://www.clarin.com/politica/Postergan-vez-anuncio-aumento-gas_0_1535846787.html
p7
aVhttps://www.clarin.com/politica/Postergan-vez-anuncio-aumento-gas_0_1535846787.html
p8
aVhttps://www.clarin.com/ieco/economia/liquidacion-divisas-alcanzo-US-millones_0_1535846732.html
p9
aVhttps://www.clarin.com/politica/Investigan-privilegios-Vialidad-Lazaro-Baez_0_1535846765.html
p10
aVhttps://www.clarin.com/politica/Investigan-privilegios-Vialidad-Lazaro-Baez_0_1535846765.html
p11
aVhttps://www.clarin.com/politica/densas-sombras-todavia-envuelven-pistola_0_1536446397.html
p12
aVhttps://www.clarin.com/politica/densas-sombras-todavia-envuelven-pistola_0_1536446397.html
p13
a.