(lp0
Vhttps://www.clarin.com/politica/Ercolini-pruebas-citar-Cristina-publica_0_1638436256.html
p1
aVhttps://www.clarin.com/politica/Ercolini-pruebas-citar-Cristina-publica_0_1638436256.html
p2
aVhttps://www.clarin.com/ieco/economia/Pymes-Rio-Negro-Neuquen-tarifazo_0_1638436251.html
p3
aVhttps://www.clarin.com/ieco/economia/Pymes-Rio-Negro-Neuquen-tarifazo_0_1638436251.html
p4
aVhttps://www.clarin.com/sociedad/Malabarista-extremo-mira-metros-altura_0_1638436246.html
p5
aVhttps://www.clarin.com/sociedad/Malabarista-extremo-mira-metros-altura_0_1638436246.html
p6
a.