(lp0
Vhttps://www.clarin.com/politica/Ahora-tema-dolar-vaya-abajo_0_1546045413.html
p1
aVhttps://www.clarin.com/politica/hombre-amenazo-periodistas-Radio-Nacional_0_1545445957.html
p2
aVhttps://www.clarin.com/politica/hombre-amenazo-periodistas-Radio-Nacional_0_1545445957.html
p3
aVhttps://www.clarin.com/politica/alicate-Timerman-coooperacion-plena-EEUU_0_1545445946.html
p4
aVhttps://www.clarin.com/politica/alicate-Timerman-coooperacion-plena-EEUU_0_1545445946.html
p5
aVhttps://www.clarin.com/sociedad/paro-deja-chicos-clases-dias_0_1545445942.html
p6
aVhttps://www.clarin.com/sociedad/paro-deja-chicos-clases-dias_0_1545445942.html
p7
aVhttps://www.clarin.com/sociedad/escuela-va-recibirse-fisico_0_1545445938.html
p8
aVhttps://www.clarin.com/sociedad/escuela-va-recibirse-fisico_0_1545445938.html
p9
aVhttps://www.clarin.com/politica/Bariloche-fortificada-recibe-hoy-Obama_0_1546045409.html
p10
aVhttps://www.clarin.com/politica/Bariloche-fortificada-recibe-hoy-Obama_0_1546045409.html
p11
a.