(lp0
Vhttps://www.clarin.com/ieco/economia/FMI-analizara-INDEC-argentina-noviembre_0_1676232419.html
p1
aVhttps://www.clarin.com/ieco/economia/FMI-analizara-INDEC-argentina-noviembre_0_1676232419.html
p2
aVhttps://www.clarin.com/politica/Gils-Carbo-Venegas-ruralista-Gobierno_0_1676232416.html
p3
aVhttps://www.clarin.com/politica/Gils-Carbo-Venegas-ruralista-Gobierno_0_1676232416.html
p4
aVhttps://www.clarin.com/ieco/Twitter-despedira-empleados_0_1676232410.html
p5
aVhttps://www.clarin.com/ieco/Twitter-despedira-empleados_0_1676232410.html
p6
aVhttps://www.clarin.com/sociedad/despacho-murio-Hitler_0_1676232407.html
p7
aVhttps://www.clarin.com/sociedad/despacho-murio-Hitler_0_1676232407.html
p8
aVhttps://www.clarin.com/sociedad/Juntaron-millon-firmas-polar-shopping_0_1676232409.html
p9
aVhttps://www.clarin.com/sociedad/Juntaron-millon-firmas-polar-shopping_0_1676232409.html
p10
aVhttps://www.clarin.com/ieco/bancarios-ratifican-manana-total-horas_0_1676232404.html
p11
aVhttps://www.clarin.com/ieco/bancarios-ratifican-manana-total-horas_0_1676232404.html
p12
a.