(lp0
Vhttps://www.clarin.com/sociedad/Autorizan-aumento-prepagas_0_1567643256.html
p1
aVhttps://www.clarin.com/sociedad/Autorizan-aumento-prepagas_0_1567643256.html
p2
aVhttps://www.clarin.com/ieco/Construccion-freno-perdida-empleos_0_1567643252.html
p3
aVhttps://www.clarin.com/ieco/Demoras-lanzamiento-control-precios-line_0_1567043516.html
p4
aVhttps://www.clarin.com/ieco/Demoras-lanzamiento-control-precios-line_0_1567043516.html
p5
aVhttps://www.clarin.com/sociedad/Escuelas-instalacion-cambiarle-alumnos-maestros_0_1567043396.html
p6
aVhttps://www.clarin.com/sociedad/Escuelas-instalacion-cambiarle-alumnos-maestros_0_1567043396.html
p7
aVhttps://www.clarin.com/politica/Yasky-Nadie-sentido-reaccion-prematura_0_1567643249.html
p8
aVhttps://www.clarin.com/politica/Yasky-Nadie-sentido-reaccion-prematura_0_1567643249.html
p9
aVhttps://www.clarin.com/politica/Gobierno-marcha-homenaje-dificil-justificar_0_1567643245.html
p10
aVhttps://www.clarin.com/politica/Gobierno-marcha-homenaje-dificil-justificar_0_1567643245.html
p11
a.