(lp0
S'https://www.clarin.com/ieco/economia/Comenzo-paro-horas-bancos_0_1562843759.html'
p1
aS'https://www.clarin.com/politica/Macri-proyecto-antidespidos-oposicion-hagamos_0_1562843760.html'
p2
aS'https://www.clarin.com/sociedad/Freddie-Mercury-normal-distorsionandola-estudio_0_1562843754.html'
p3
aS'https://www.clarin.com/sociedad/Solar-Impulse-retoma-intento-vuelta_0_1562843764.html'
p4
aS'https://www.clarin.com/ieco/Gobierno-promete-excepcionales-productores-inundados_0_1562843758.html'
p5
aS'https://www.clarin.com/ieco/ANSES-confirmo-pagara-extra_0_1562843753.html'
p6
aS'https://www.clarin.com/politica/Carrio-Justicia-millones-Nestor-Cristina_0_1562843752.html'
p7
a.