(lp0
S'https://www.clarin.com/politica/ojo-Senado-reciben-gobernadores-Rosada_0_1537046757.html'
p1
aS'https://www.clarin.com/ieco/economia/Reunion-Macri-Isela-Constantini_0_1537046779.html'
p2
aS'https://www.clarin.com/ieco/economia/Reunion-Macri-Isela-Constantini_0_1537046779.html'
p3
a.