(lp0
Vhttps://www.clarin.com/politica/Citan-procuradora-Cristina-Nisman-encubrimiento_0_1685231503.html
p1
aVhttps://www.clarin.com/politica/Citan-procuradora-Cristina-Nisman-encubrimiento_0_1685231503.html
p2
aVhttps://www.clarin.com/ieco/Aprueban-primer-fondo-inmobiliario-blanqueo_0_1685231500.html
p3
aVhttps://www.clarin.com/ieco/Aprueban-primer-fondo-inmobiliario-blanqueo_0_1685231500.html
p4
aVhttps://www.clarin.com/politica/Gobierno-ministra-menemista-Defensoria-Pueblo_0_1685231499.html
p5
aVhttps://www.clarin.com/politica/Skanska-Vido-presento-respondio-preguntas_0_1685231498.html
p6
aVhttps://www.clarin.com/politica/Skanska-Vido-presento-respondio-preguntas_0_1685231498.html
p7
aVhttps://www.clarin.com/politica/Convocan-Grupo-Halcon-Guns-Roses_0_1685231496.html
p8
aVhttps://www.clarin.com/politica/Convocan-Grupo-Halcon-Guns-Roses_0_1685231496.html
p9
aVhttps://www.clarin.com/ieco/economia/Todesca-admite-escenario-inflacion-alto_0_1685231495.html
p10
aVhttps://www.clarin.com/ieco/economia/Todesca-admite-escenario-inflacion-alto_0_1685231495.html
p11
a.