(lp0
Vhttps://www.clarin.com/politica/Vidal-Bonaerense-mensaje-escuchan_0_1600040148.html
p1
aVhttps://www.clarin.com/politica/Macri-pliegos-Rosatti-Rosenkrantz-Corte_0_1600040150.html
p2
aVhttps://www.clarin.com/politica/Vido-reaparecio-Congreso-puerta-consternado_0_1600040143.html
p3
aVhttps://www.clarin.com/politica/Vido-reaparecio-Congreso-puerta-consternado_0_1600040143.html
p4
a.