(lp0
Vhttps://www.clarin.com/politica/Carlos_Verna-La_Pampa-coparticipacion-Mauricio_Macri-Casa_Rosada_0_1507049535.html
p1
aVhttps://www.clarin.com/politica/Carlos_Verna-La_Pampa-coparticipacion-Mauricio_Macri-Casa_Rosada_0_1507049535.html
p2
aVhttps://www.clarin.com/sociedad/mendocina-vacaciones-Ecuador-accidento-grave_0_1507049529.html
p3
aVhttps://www.clarin.com/sociedad/mendocina-vacaciones-Ecuador-accidento-grave_0_1507049529.html
p4
aVhttps://www.clarin.com/politica/Julio_de_Vido-Elisa_Carrio_0_1507049534.html
p5
aVhttps://www.clarin.com/politica/Julio_de_Vido-Elisa_Carrio_0_1507049534.html
p6
aVhttps://www.clarin.com/politica/Macri-presidente-popular-Facebook-mundo_0_1507049530.html
p7
aVhttps://www.clarin.com/politica/Macri-presidente-popular-Facebook-mundo_0_1507049530.html
p8
aVhttps://www.clarin.com/politica/Macri-Davos-seguridad_0_1507049527.html
p9
aVhttps://www.clarin.com/politica/Macri-Davos-seguridad_0_1507049527.html
p10
aVhttps://www.clarin.com/sociedad/anos-buscar-pelota-techo-murio_0_1507049518.html
p11
aVhttps://www.clarin.com/sociedad/anos-buscar-pelota-techo-murio_0_1507049518.html
p12
aVhttps://www.clarin.com/ieco/Banco_Provincia-directorio-massismo-frente_renovador_0_1507049514.html
p13
aVhttps://www.clarin.com/ieco/Banco_Provincia-directorio-massismo-frente_renovador_0_1507049514.html
p14
aVhttps://www.clarin.com/sociedad/Polemica-billete-pusieron-ballena-reves_0_1507049506.html
p15
aVhttps://www.clarin.com/sociedad/Polemica-billete-pusieron-ballena-reves_0_1507049506.html
p16
aVhttps://www.clarin.com/sociedad/Video-tiro-amante-marido-rio_0_1507049512.html
p17
aVhttps://www.clarin.com/sociedad/Video-tiro-amante-marido-rio_0_1507049512.html
p18
a.