(lp0
S'https://www.clarin.com/politica/Hebe-Bonafini-insulto-Pichetto-Renuncia_0_1680432099.html'
p1
aS'https://www.clarin.com/politica/Hebe-Bonafini-insulto-Pichetto-Renuncia_0_1680432099.html'
p2
aS'https://www.clarin.com/opinion/remera-explica-Trump_0_1680432080.html'
p3
aS'https://www.clarin.com/opinion/remera-explica-Trump_0_1680432080.html'
p4
aS'https://www.clarin.com/opinion/Irritacion-Congreso-Justicia_0_1680432079.html'
p5
aS'https://www.clarin.com/politica/ministro-Daniel-Scioli-involucrado-corrupcion_0_1680432070.html'
p6
aS'https://www.clarin.com/politica/ministro-Daniel-Scioli-involucrado-corrupcion_0_1680432070.html'
p7
a.