(lp0
S'https://www.clarin.com/politica/Allanaron-Cristina-Santa-Cruz-investigarla_0_1605439457.html'
p1
aS'https://www.clarin.com/politica/rostro-modelo_0_1605439455.html'
p2
aS'https://www.clarin.com/sociedad/Colas-frontera-Paraguay-comprar-barato_0_1604839694.html'
p3
aS'https://www.clarin.com/opinion/Jubilaciones-justo-condiciones_0_1604839635.html'
p4
aS'https://www.clarin.com/politica/jueces-investigar-rapida-coordinamente-Cristina_0_1604839671.html'
p5
aS'https://www.clarin.com/politica/jueces-mirada-implacable_0_1605439456.html'
p6
aS'https://www.clarin.com/politica/Oficial-Lazaro-Baez-US-Santa_0_1604839650.html'
p7
aS'https://www.clarin.com/opinion/Vido-procesado-comprar-trenes-chatarra_0_1604839709.html'
p8
aS'https://www.clarin.com/politica/Auditaran-juzgados-federales-causas-corrupcion_0_1604839649.html'
p9
a.