(lp0
S'https://www.clarin.com/ieco/activa-tramite-limones-ingresar-EEUU_0_1573642638.html'
p1
aS'https://www.clarin.com/ieco/activa-tramite-limones-ingresar-EEUU_0_1573642638.html'
p2
aS'https://www.clarin.com/politica/gobernador-peronista-pide-tiempo-Macri_0_1573642639.html'
p3
aS'https://www.clarin.com/politica/gobernador-peronista-pide-tiempo-Macri_0_1573642639.html'
p4
aS'https://www.clarin.com/ieco/tamberos-productores-pollos-dicen-extincion_0_1573042818.html'
p5
aS'https://www.clarin.com/sociedad/Mercurio-delante-Sol-observar-Tierra_0_1573642628.html'
p6
aS'https://www.clarin.com/sociedad/Mercurio-delante-Sol-observar-Tierra_0_1573642628.html'
p7
a.