(lp0
S'https://www.clarin.com/sociedad/Desajuste-trabajo-abogados-reciben-ingenieros_0_1604239758.html'
p1
aS'https://www.clarin.com/sociedad/empresas-consiguen-tecnicos-necesitan_0_1604239759.html'
p2
aS'https://www.clarin.com/sociedad/estudian-carreras-duras-minoria-motivada_0_1604239760.html'
p3
aS'https://www.clarin.com/ieco/confirmo-Sancor-aceitera-Vicentin-US_0_1604239668.html'
p4
aS'https://www.clarin.com/ieco/economia/Macri-ACDE_0_1604239715.html'
p5
aS'https://www.clarin.com/ieco/Despues-Brexit-Salta-colocar-pago_0_1604239732.html'
p6
aS'https://www.clarin.com/politica/Macri-presento-autopartes-peronismos-disidente_0_1604239681.html'
p7
aS'https://www.clarin.com/politica/candidatos-presidente-elegiran-vice-PASO_0_1604239767.html'
p8
aS'https://www.clarin.com/ieco/economia/crecimiento-menor-anunciado_0_1604239757.html'
p9
aS'https://www.clarin.com/politica/Senado-convirtio-pago-jubilados-blanqueo_0_1604239765.html'
p10
a.