(lp0
Vhttps://www.clarin.com/ieco/emprendedores/Consejos-detectar-neutralizar-riesgos-financieros_0_1523847919.html
p1
aVhttps://www.clarin.com/politica/Matteo_Renzi-Mauricio_Macri-Italia_0_1523847950.html
p2
aVhttps://www.clarin.com/politica/Matteo_Renzi-Mauricio_Macri-Italia_0_1523847950.html
p3
aVhttps://www.clarin.com/ieco/emprendedores/claves-prevenir-riesgos-financieros_0_1523847944.html
p4
aVhttps://www.clarin.com/politica/Chubut-Mauricio_Macri-Mario_Das_Neves_0_1523847939.html
p5
aVhttps://www.clarin.com/politica/Chubut-Mauricio_Macri-Mario_Das_Neves_0_1523847939.html
p6
aVhttps://www.clarin.com/politica/Guillermo_Moreno-procesamiento-apelacion-Claudio_Bonadio-Clarin-hostigamiento_0_1523847937.html
p7
aVhttps://www.clarin.com/politica/Guillermo_Moreno-procesamiento-apelacion-Claudio_Bonadio-Clarin-hostigamiento_0_1523847937.html
p8
aVhttps://www.clarin.com/politica/presidente-Pinedo-amigo-House-Cards_0_1523847931.html
p9
aVhttps://www.clarin.com/politica/presidente-Pinedo-amigo-House-Cards_0_1523847931.html
p10
aVhttps://www.clarin.com/ieco/economia/dolar-blue-mercado_0_1523847920.html
p11
a.