(lp0
S'https://www.clarin.com/politica/Cambiemos-pueda-armar-pata-peronista_0_1661234031.html'
p1
aS'https://www.clarin.com/politica/Senado-acusan-PJ-frenar-anticorrupcion_0_1661234030.html'
p2
aS'https://www.clarin.com/politica/Senado-acusan-PJ-frenar-anticorrupcion_0_1661234030.html'
p3
aS'https://www.clarin.com/sociedad/chicos-argentinos-subieron-podio-matematicas_0_1661234023.html'
p4
aS'https://www.clarin.com/sociedad/chicos-argentinos-subieron-podio-matematicas_0_1661234023.html'
p5
aS'https://www.clarin.com/sociedad/torneo-matematico-argentinos-sacaron-medallas_0_1661234026.html'
p6
aS'https://www.clarin.com/politica/nuevo-intendentes-PJ-Cristina-Massa_0_1661234024.html'
p7
aS'https://www.clarin.com/politica/nuevo-intendentes-PJ-Cristina-Massa_0_1661234024.html'
p8
aS'https://www.clarin.com/politica/Confirman-Milagro-Sala-Buenos-Aires_0_1661234017.html'
p9
aS'https://www.clarin.com/politica/Confirman-Milagro-Sala-Buenos-Aires_0_1661234017.html'
p10
a.