(lp0
S'https://www.clarin.com/sociedad/Video-brutal-bella-periodista-baile_0_1528047419.html'
p1
aS'https://www.clarin.com/sociedad/Video-brutal-bella-periodista-baile_0_1528047419.html'
p2
aS'https://www.clarin.com/politica/Acuerdo-Chevron-oposicion-alerta-YPF_0_1528047416.html'
p3
aS'https://www.clarin.com/politica/Acuerdo-Chevron-oposicion-alerta-YPF_0_1528047416.html'
p4
aS'https://www.clarin.com/politica/Lrenzetti-admite-Cristina-presiono_0_1528047408.html'
p5
aS'https://www.clarin.com/sociedad/misteriosa-musica-espacial-oculta-Luna_0_1528047392.html'
p6
aS'https://www.clarin.com/sociedad/misteriosa-musica-espacial-oculta-Luna_0_1528047392.html'
p7
aS'https://www.clarin.com/politica/Postergan-definicion-DNU-coparticipacion_0_1528047395.html'
p8
aS'https://www.clarin.com/politica/Postergan-definicion-DNU-coparticipacion_0_1528047395.html'
p9
a.