(lp0
S'https://www.clarin.com/politica/Triaca-estatales-criterio-provincias-recursos_0_1669633103.html'
p1
aS'https://www.clarin.com/politica/Malcorra-Reino-Unido-tratando-cambiar_0_1669633094.html'
p2
aS'https://www.clarin.com/ieco/economia/Defensa-capitalismo-verdadero_0_1669633048.html'
p3
aS'https://www.clarin.com/politica/Marcos-Pena-Cristina-Kirchner-importancia_0_1669633101.html'
p4
aS'https://www.clarin.com/ieco/economia/Crece-antiglobalizacion-EEUU_0_1669633033.html'
p5
aS'https://www.clarin.com/ieco/economia/Jugarse-vida-videogame_0_1669633061.html'
p6
aS'https://www.clarin.com/sociedad/perros-corrieron-duenos-singular-maraton_0_1669633098.html'
p7
aS'https://www.clarin.com/politica/Indice-optimismo-estabiliza-politico-economico_0_1669633096.html'
p8
a.