(lp0
Vhttps://www.clarin.com/politica/Stolbizer-pagarles-buitres-prioridades-Gobierno_0_1539446240.html
p1
aVhttps://www.clarin.com/politica/Stolbizer-pagarles-buitres-prioridades-Gobierno_0_1539446240.html
p2
aVhttps://www.clarin.com/politica/Carrio-Justicia-Cristobal-Lopez-Kirchner_0_1539446221.html
p3
aVhttps://www.clarin.com/politica/Carrio-Justicia-Cristobal-Lopez-Kirchner_0_1539446221.html
p4
aVhttps://www.clarin.com/sociedad/Idioma-felino-comunicarnos-mascotas_0_1539446213.html
p5
aVhttps://www.clarin.com/sociedad/Europa-lanza-buscar-vida-Marte_0_1539446212.html
p6
aVhttps://www.clarin.com/sociedad/Europa-lanza-buscar-vida-Marte_0_1539446212.html
p7
aVhttps://www.clarin.com/sociedad/mandibula-brasileno-agredido-rugbiers-argentinos_0_1539446214.html
p8
aVhttps://www.clarin.com/sociedad/mandibula-brasileno-agredido-rugbiers-argentinos_0_1539446214.html
p9
aVhttps://www.clarin.com/sociedad/rugbiers-detenidos-Rio-Janeiro-preventiva_0_1539446199.html
p10
aVhttps://www.clarin.com/sociedad/rugbiers-detenidos-Rio-Janeiro-preventiva_0_1539446199.html
p11
aVhttps://www.clarin.com/politica/Ciencia-Baranao-Macri-Rio-Negro_0_1539446194.html
p12
aVhttps://www.clarin.com/politica/Ciencia-Baranao-Macri-Rio-Negro_0_1539446194.html
p13
a.