(lp0
S'https://www.clarin.com/politica/Massa-reelecciones-terminar-politicos-eternizan_0_1581441924.html'
p1
aS'https://www.clarin.com/politica/Gobierno-asegura-paro-veto-antidespidos_0_1581441931.html'
p2
aS'https://www.clarin.com/politica/Narcotrafico-funcionario-famoso-apunto-gobernador_0_1581441936.html'
p3
aS'https://www.clarin.com/politica/Iglesia-advirtio-fragilidad-laboral-hermanos_0_1581441927.html'
p4
a.