(lp0
Vhttps://www.clarin.com/sociedad/Tribus-ruteras-violencia-aprietes-pasion_0_1580242128.html
p1
aVhttps://www.clarin.com/sociedad/Tribus-ruteras-violencia-aprietes-pasion_0_1580242128.html
p2
aVhttps://www.clarin.com/sociedad/Video-neonazis-desnudas-prostitutas-clientes_0_1580242126.html
p3
aVhttps://www.clarin.com/sociedad/Video-neonazis-desnudas-prostitutas-clientes_0_1580242126.html
p4
aVhttps://www.clarin.com/sociedad/Interpol-difunde-profugos-Time-Warp_0_1580242105.html
p5
aVhttps://www.clarin.com/sociedad/Interpol-difunde-profugos-Time-Warp_0_1580242105.html
p6
a.