(lp0
S'https://www.clarin.com/ieco/Lavagna-critico-inflacion-indemnizacion-Cristina_0_1562843735.html'
p1
aS'https://www.clarin.com/politica/acusan-anotarse-PJ-quieren-echarlos_0_1562843730.html'
p2
aS'https://www.clarin.com/politica/acusan-anotarse-PJ-quieren-echarlos_0_1562843730.html'
p3
a.