(lp0
S'https://www.clarin.com/ieco/economia/Basavilbaso-Queremos-flexibilidad-comprar-acciones_0_1588041216.html'
p1
aS'https://www.clarin.com/sociedad/Enojado-multa-baldes-llenos-monedas_0_1588041196.html'
p2
aS'https://www.clarin.com/sociedad/Tension-Ricchieri-corte-altura-Ezeiza_0_1588041212.html'
p3
aS'https://www.clarin.com/politica/millones-intendente-aborigenes-denuncian-desaparecer_0_1588041204.html'
p4
aS'https://www.clarin.com/politica/estancia-Lazaro-Baez-millones-dolares_0_1588041210.html'
p5
aS'https://www.clarin.com/ieco/moratoria-impuestos-incluye-proyecto-blanqueo_0_1588041203.html'
p6
aS'https://www.clarin.com/politica/Confirman-Papa-cumbre-jueces-argentinos_0_1588041209.html'
p7
a.