(lp0
S'https://www.clarin.com/opinion/puertos_de_la_Patagonia-impuestos_0_1497450294.html'
p1
aS'https://www.clarin.com/sociedad/Encontraron-Yani-Rejas-desaparecido-diciembre_0_1497450300.html'
p2
aS'https://www.clarin.com/sociedad/primer-verano-Juan-casa-Federico_Jeanmarie_0_1497450287.html'
p3
aS'https://www.clarin.com/sociedad/viajar-exterior-devaluacion-cepo-cuotas_0_1497450326.html'
p4
aS'https://www.clarin.com/opinion/anos_60-poesia-metodo_de_meditacion_0_1497450295.html'
p5
aS'https://www.clarin.com/sociedad/nadie-paraba-de-bailar-mientras-Yessica-moria_0_1497450297.html'
p6
aS'https://www.clarin.com/sociedad/telenovela-del-kirchnerato_0_1497450311.html'
p7
aS'https://www.clarin.com/opinion/red_de_trenes-_subte-Metrobus_0_1497450292.html'
p8
aS'https://www.clarin.com/opinion/calidad_de_vida-organizacion_del_territorio_0_1497450293.html'
p9
aS'https://www.clarin.com/politica/Morsa-Faraon-fuga-argentina_0_1497450285.html'
p10
aS'https://www.clarin.com/sociedad/tragedia-camping-Sur-cayo-arbol-mato-dos-nenes_0_1497450312.html'
p11
aS'https://www.clarin.com/politica/Ritondo-acuso-Anibal-involucrado-submundo_0_1497450318.html'
p12
a.