(lp0
S'https://www.clarin.com/politica/Macri-punto-partida-acepto-evaluado_0_1658834222.html'
p1
aS'https://www.clarin.com/sociedad/Polemica-campana-Formosa-impuestos-Pombero_0_1658834212.html'
p2
aS'https://www.clarin.com/sociedad/Abuelas-gris-nueva-moda-jovenes_0_1650435030.html'
p3
aS'https://www.clarin.com/politica/Mineria-quorum-tratar-derrame-Veladero_0_1658834216.html'
p4
aS'https://www.clarin.com/politica/Pena-asesores-anticipo-inflacion-debajo_0_1658834201.html'
p5
a.