(lp0
Vhttps://www.clarin.com/politica/Provincia-investigara-policias-represion-Plata_0_1501050036.html
p1
aVhttps://www.clarin.com/politica/Scioli-invitados-prefirieron-preservar-FpV_0_1501050020.html
p2
aVhttps://www.clarin.com/sociedad/Mundos_intimos-Daniel_Ulanovsky-sida_0_1501049995.html
p3
aVhttps://www.clarin.com/sociedad/Mundos_intimos-Julio_Gonzalez_Montaner-sida_0_1501049994.html
p4
aVhttps://www.clarin.com/sociedad/Mundos_intimos-Julio_Gonzalez_Montaner-sida_0_1501049994.html
p5
a.