(lp0
S'https://www.clarin.com/ieco/economia/Cae-indice-confianza-sistema-financiero_0_1628837240.html'
p1
aS'https://www.clarin.com/politica/UCR-PRO-Santa-Fe-socialismo_0_1628837241.html'
p2
aS'https://www.clarin.com/politica/UCR-PRO-Santa-Fe-socialismo_0_1628837241.html'
p3
aS'https://www.clarin.com/ieco/economia/Caen-escrituras-provincia-Buenos-Aires_0_1628837232.html'
p4
aS'https://www.clarin.com/sociedad/dolor-nino-sirio-escapar-guerra_0_1628837236.html'
p5
aS'https://www.clarin.com/sociedad/dolor-nino-sirio-escapar-guerra_0_1628837236.html'
p6
a.