(lp0
S'https://www.clarin.com/politica/amigable-Malvinas-Macri-encontro-britanica_0_1654034711.html'
p1
aS'https://www.clarin.com/politica/amigable-Malvinas-Macri-encontro-britanica_0_1654034711.html'
p2
aS'https://www.clarin.com/politica/Despues-manzanazo-verdurazo-viene-cuadernazo_0_1654034708.html'
p3
aS'https://www.clarin.com/politica/Despues-manzanazo-verdurazo-viene-cuadernazo_0_1654034708.html'
p4
aS'https://www.clarin.com/politica/Discurso-completo-Mauricio-Macri-ONU_0_1654034706.html'
p5
aS'https://www.clarin.com/politica/Discurso-completo-Mauricio-Macri-ONU_0_1654034706.html'
p6
aS'https://www.clarin.com/politica/Ritondo-puerta-giratoria-problema-seguridad_0_1654034703.html'
p7
aS'https://www.clarin.com/politica/Ritondo-puerta-giratoria-problema-seguridad_0_1654034703.html'
p8
aS'https://www.clarin.com/politica/Macri-Awada-ONU-difundido-Presidencia_0_1654034700.html'
p9
aS'https://www.clarin.com/politica/Macri-Awada-ONU-difundido-Presidencia_0_1654034700.html'
p10
a.