(lp0
S'https://www.clarin.com/politica/Senado-pliegos-AFI-oficialismo-confiado_0_1629437143.html'
p1
aS'https://www.clarin.com/politica/Senado-pliegos-AFI-oficialismo-confiado_0_1629437143.html'
p2
aS'https://www.clarin.com/politica/Cristina-cruzo-Eduardo-Feinmann-mediacion_0_1629437136.html'
p3
aS'https://www.clarin.com/politica/Cristina-cruzo-Eduardo-Feinmann-mediacion_0_1629437136.html'
p4
aS'https://www.clarin.com/sociedad/Capturan-imagen-laboratorio-cosmico-Sagitario_0_1629437132.html'
p5
aS'https://www.clarin.com/sociedad/Capturan-imagen-laboratorio-cosmico-Sagitario_0_1629437132.html'
p6
aS'https://www.clarin.com/politica/investigacion-Nisman-Cristina-The-Guardian_0_1629437130.html'
p7
aS'https://www.clarin.com/politica/investigacion-Nisman-Cristina-The-Guardian_0_1629437130.html'
p8
aS'https://www.clarin.com/politica/Tarifas-Gobierno-acepto-Aranguren-Diputados_0_1629437129.html'
p9
aS'https://www.clarin.com/politica/Tarifas-Gobierno-acepto-Aranguren-Diputados_0_1629437129.html'
p10
aS'https://www.clarin.com/politica/Caso-Nisman-identificar-Cristina-Kirchner_0_1629437114.html'
p11
aS'https://www.clarin.com/politica/Caso-Nisman-identificar-Cristina-Kirchner_0_1629437114.html'
p12
a.