(lp0
Vhttps://www.clarin.com/ieco/noviembre-inscriptos-IVA-emitiran-electronica_0_1654034610.html
p1
aVhttps://www.clarin.com/ieco/noviembre-inscriptos-IVA-emitiran-electronica_0_1654034610.html
p2
aVhttps://www.clarin.com/sociedad/OMS-derriba-mitos-suicidio_0_1654034609.html
p3
aVhttps://www.clarin.com/sociedad/OMS-derriba-mitos-suicidio_0_1654034609.html
p4
aVhttps://www.clarin.com/politica/denuncias-intendente-salio-bancar-Scioli_0_1654034608.html
p5
aVhttps://www.clarin.com/politica/denuncias-intendente-salio-bancar-Scioli_0_1654034608.html
p6
aVhttps://www.clarin.com/ieco/ANSeS-publico-contrato-firmar-jubilados_0_1654034607.html
p7
aVhttps://www.clarin.com/ieco/ANSeS-publico-contrato-firmar-jubilados_0_1654034607.html
p8
aVhttps://www.clarin.com/politica/Marijuan-investiga-supuestas-propiedades-Baez_0_1653434777.html
p9
aVhttps://www.clarin.com/politica/Marijuan-investiga-supuestas-propiedades-Baez_0_1653434777.html
p10
a.