(lp0
S'https://www.clarin.com/sociedad/garotas-argentinas-hicieron-realidad-carnaval_0_1518448504.html'
p1
aS'https://www.clarin.com/sociedad/Intendente-dia-batuquero-noche_0_1518448507.html'
p2
aS'https://www.clarin.com/politica/Juan_Manuel_Urtubey-Partido_Justicialista-Peronismo-Salta_0_1519048096.html'
p3
aS'https://www.clarin.com/politica/Juan_Manuel_Urtubey-Partido_Justicialista-Peronismo-Salta_0_1519048096.html'
p4
aS'https://www.clarin.com/politica/Partido_Justicialista-oposicion-Daniel_Scioli-Jose_Luis_Gioja_0_1519048095.html'
p5
aS'https://www.clarin.com/politica/Partido_Justicialista-oposicion-Daniel_Scioli-Jose_Luis_Gioja_0_1519048095.html'
p6
aS'https://www.clarin.com/politica/Fondos_buitre-Congreso-ley_cerrojo-Gobierno_0_1519048082.html'
p7
aS'https://www.clarin.com/sociedad/fanaticos-debut-gusto-despedida_0_1518448545.html'
p8
aS'https://www.clarin.com/sociedad/fanaticos-debut-gusto-despedida_0_1518448545.html'
p9
aS'https://www.clarin.com/sociedad/supersonico-batir-record-velocidad-terrestre_0_1518448540.html'
p10
aS'https://www.clarin.com/sociedad/supersonico-batir-record-velocidad-terrestre_0_1518448540.html'
p11
aS'https://www.clarin.com/ieco/economia/dolarizacion-cepo_0_1518448570.html'
p12
aS'https://www.clarin.com/ieco/economia/buitres-nielsen-oferta_0_1518448569.html'
p13
aS'https://www.clarin.com/ieco/economia/buitres-nielsen-oferta_0_1518448569.html'
p14
a.