(lp0
S'https://www.clarin.com/sociedad/Video-corrian-picada-filmaron-muerte_0_1590441020.html'
p1
aS'https://www.clarin.com/politica/Tribunales-Lazaro-Baez-reencontro-Martin_0_1590441023.html'
p2
aS'https://www.clarin.com/sociedad/Denuncia-pareja-quiso-matarla-pais_0_1590441027.html'
p3
aS'https://www.clarin.com/politica/sorpresas-audiencia-Camara-mantendria-Casanello_0_1590441028.html'
p4
aS'https://www.clarin.com/sociedad/Banksy-sorprendio-alumnos-escuela-Bristol_0_1590441032.html'
p5
a.