(lp0
Vhttps://www.clarin.com/sociedad/Volvieron-aumentar-cigarrillos-nuevos-precios_0_1642035813.html
p1
aVhttps://www.clarin.com/sociedad/Volvieron-aumentar-cigarrillos-nuevos-precios_0_1642035813.html
p2
aVhttps://www.clarin.com/politica/Justicia-intenta-fortuna-Lazaro-Baez_0_1641435979.html
p3
aVhttps://www.clarin.com/politica/Justicia-intenta-fortuna-Lazaro-Baez_0_1641435979.html
p4
aVhttps://www.clarin.com/politica/Suiza-Argentina-vinculadas-Lazaro-Baez_0_1642035807.html
p5
aVhttps://www.clarin.com/politica/Suiza-Argentina-vinculadas-Lazaro-Baez_0_1642035807.html
p6
aVhttps://www.clarin.com/sociedad/Hoy-precios-temporada-Mar-Plata_0_1642035806.html
p7
aVhttps://www.clarin.com/sociedad/Hoy-precios-temporada-Mar-Plata_0_1642035806.html
p8
aVhttps://www.clarin.com/politica/Elisa-Carrio-Aduana-puede-morir_0_1642035805.html
p9
aVhttps://www.clarin.com/politica/Elisa-Carrio-Aduana-puede-morir_0_1642035805.html
p10
a.