(lp0
Vhttps://www.clarin.com/sociedad/San-Luis-ataco-patadas-preceptor_0_1584441609.html
p1
aVhttps://www.clarin.com/sociedad/San-Luis-ataco-patadas-preceptor_0_1584441609.html
p2
aVhttps://www.clarin.com/politica/AFIP-investigara-comerciales-Sauces-inquilinos_0_1584441604.html
p3
aVhttps://www.clarin.com/politica/AFIP-investigara-comerciales-Sauces-inquilinos_0_1584441604.html
p4
aVhttps://www.clarin.com/sociedad/Alerta-bacteria-pesadilla_0_1584441605.html
p5
aVhttps://www.clarin.com/sociedad/Alerta-bacteria-pesadilla_0_1584441605.html
p6
aVhttps://www.clarin.com/ieco/economia/Juicios-jubilatorios-acepten-oficial-haberes_0_1584441603.html
p7
aVhttps://www.clarin.com/ieco/economia/Juicios-jubilatorios-acepten-oficial-haberes_0_1584441603.html
p8
aVhttps://www.clarin.com/politica/Jaimito-Duran-Barba-imitacion-Macri_0_1584441600.html
p9
aVhttps://www.clarin.com/politica/Jaimito-Duran-Barba-imitacion-Macri_0_1584441600.html
p10
aVhttps://www.clarin.com/ieco/detalles-blanqueo-moratoria-premio-cumplidores_0_1584441601.html
p11
aVhttps://www.clarin.com/ieco/detalles-blanqueo-moratoria-premio-cumplidores_0_1584441601.html
p12
aVhttps://www.clarin.com/ieco/Macri-exterior-millones-dolares-argentinos_0_1584441597.html
p13
a.