(lp0
Vhttps://www.clarin.com/politica/Emergencia-Seguridad-Publica-decreto-Gobierno_0_1507049691.html
p1
aVhttps://www.clarin.com/politica/Emergencia-Seguridad-Publica-decreto-Gobierno_0_1507049691.html
p2
aVhttps://www.clarin.com/politica/Denuncian-Sergio-Berni-Perez-Corradi_0_1507049677.html
p3
aVhttps://www.clarin.com/politica/Denuncian-Sergio-Berni-Perez-Corradi_0_1507049677.html
p4
aVhttps://www.clarin.com/sociedad/Banco-Central-error-nuevos-billetes_0_1507049676.html
p5
aVhttps://www.clarin.com/sociedad/Banco-Central-error-nuevos-billetes_0_1507049676.html
p6
aVhttps://www.clarin.com/ieco/industrias_creativas-PBI_mundial-BID_0_1507049667.html
p7
aVhttps://www.clarin.com/ieco/economia/CEOs-dice-confiado-incrementar-ingresos_0_1507049647.html
p8
a.