(lp0
Vhttps://www.clarin.com/ieco/economia/tercios-renta-agricola-parar-bolsillo_0_1555044920.html
p1
aVhttps://www.clarin.com/politica/kirchnerismo-defender-Cristina-convocatoria-Tribunales_0_1556244611.html
p2
aVhttps://www.clarin.com/politica/kirchnerismo-defender-Cristina-convocatoria-Tribunales_0_1556244611.html
p3
aVhttps://www.clarin.com/politica/imputacion-Cristina-impacto-medios-mundo_0_1556244544.html
p4
aVhttps://www.clarin.com/politica/imputacion-Cristina-impacto-medios-mundo_0_1556244544.html
p5
aVhttps://www.clarin.com/ieco/economia/arte-redisena-marcas_0_1556244593.html
p6
aVhttps://www.clarin.com/ieco/economia/arte-redisena-marcas_0_1556244593.html
p7
aVhttps://www.clarin.com/sociedad/madreejecuto-balazos-Iphone-hijos_0_1556244600.html
p8
aVhttps://www.clarin.com/politica/Hablo-Martin-Baez-aca-disponible_0_1556244598.html
p9
aVhttps://www.clarin.com/politica/Hablo-Martin-Baez-aca-disponible_0_1556244598.html
p10
aVhttps://www.clarin.com/sociedad/enfermedad-criolla-elegir-delincuentes_0_1555644794.html
p11
aVhttps://www.clarin.com/politica/Hablo-Lazaro-Baez-allanamiento-preocupado_0_1556244568.html
p12
aVhttps://www.clarin.com/politica/Hablo-Lazaro-Baez-allanamiento-preocupado_0_1556244568.html
p13
a.