(lp0
Vhttps://www.clarin.com/politica/Brasil-Macri-bailando-promocionar-carnaval_0_1513048849.html
p1
aVhttps://www.clarin.com/politica/Brasil-Macri-bailando-promocionar-carnaval_0_1513048849.html
p2
aVhttps://www.clarin.com/sociedad/Declaran-emergencia-hidrica-provincias-Nino_0_1513048845.html
p3
aVhttps://www.clarin.com/sociedad/Declaran-emergencia-hidrica-provincias-Nino_0_1513048845.html
p4
aVhttps://www.clarin.com/ieco/economia/Plata-creditos-sector-fruticola_0_1513048842.html
p5
aVhttps://www.clarin.com/ieco/economia/Plata-creditos-sector-fruticola_0_1513048842.html
p6
aVhttps://www.clarin.com/politica/Intendentes-peronistas-Gobierno-Audiencia-Publica_0_1513048834.html
p7
aVhttps://www.clarin.com/politica/Intendentes-peronistas-Gobierno-Audiencia-Publica_0_1513048834.html
p8
aVhttps://www.clarin.com/sociedad/Encontraron-cuerpo-desaparecida-familia-femicidio_0_1513048822.html
p9
aVhttps://www.clarin.com/sociedad/Encontraron-cuerpo-desaparecida-familia-femicidio_0_1513048822.html
p10
a.