(lp0
Vhttps://www.clarin.com/sociedad/prision-padres-murio-intentar-casero_0_1620438021.html
p1
aVhttps://www.clarin.com/sociedad/prision-padres-murio-intentar-casero_0_1620438021.html
p2
aVhttps://www.clarin.com/politica/Cristina-Gobierno-reabrir-denuncia-Nisman_0_1620438020.html
p3
aVhttps://www.clarin.com/politica/Cristina-Gobierno-reabrir-denuncia-Nisman_0_1620438020.html
p4
aVhttps://www.clarin.com/ieco/economia/ano-departamentos-subieron-dolares_0_1620438018.html
p5
aVhttps://www.clarin.com/ieco/economia/ano-departamentos-subieron-dolares_0_1620438018.html
p6
aVhttps://www.clarin.com/politica/Pena-problema-Tinelli-humor-politico_0_1620438013.html
p7
aVhttps://www.clarin.com/politica/Pena-problema-Tinelli-humor-politico_0_1620438013.html
p8
aVhttps://www.clarin.com/sociedad/Recibio-trasplantes-mano-quiere-saquen_0_1620438012.html
p9
aVhttps://www.clarin.com/sociedad/Recibio-trasplantes-mano-quiere-saquen_0_1620438012.html
p10
aVhttps://www.clarin.com/ieco/Aseguran-aumento-expectativa-afectar-previsional_0_1620438010.html
p11
aVhttps://www.clarin.com/ieco/Aseguran-aumento-expectativa-afectar-previsional_0_1620438010.html
p12
aVhttps://www.clarin.com/politica/Subsidios-millonarios-Gobierno-amores-Maximo_0_1620438004.html
p13
aVhttps://www.clarin.com/politica/Subsidios-millonarios-Gobierno-amores-Maximo_0_1620438004.html
p14
aVhttps://www.clarin.com/politica/Fuertes-criticas-opositoras-Gobierno-ANSeS_0_1620438005.html
p15
aVhttps://www.clarin.com/politica/Fuertes-criticas-opositoras-Gobierno-ANSeS_0_1620438005.html
p16
a.