(lp0
S'https://www.clarin.com/politica/Shakira-mano-derecha-Milagro-Sala_0_1526247602.html'
p1
aS'https://www.clarin.com/politica/Gabinete-comprension-responsabilidad-dirigentes-Ganancias_0_1526247590.html'
p2
aS'https://www.clarin.com/sociedad/ultimas-horas-Martin-Blaquier_0_1526247587.html'
p3
a.