(lp0
S'https://www.clarin.com/politica/Diego-Bossio-CFK-Cristina-superada_0_1656434366.html'
p1
aS'https://www.clarin.com/sociedad/Perdio-consiguio-donante-lucha-concientizar_0_1655834525.html'
p2
aS'https://www.clarin.com/sociedad/mato-dice-chicas-bullying_0_1656434367.html'
p3
a.