(lp0
Vhttps://www.clarin.com/opinion/Parece-zen-sirve-cerrar-Grieta_0_1547245631.html
p1
aVhttps://www.clarin.com/opinion/Macri-Obama-paraiso-grieta_0_1547845223.html
p2
aVhttps://www.clarin.com/opinion/Frondizi-Borges-tigres-papel_0_1547845221.html
p3
aVhttps://www.clarin.com/opinion/historia-Santa-Cruz-Islote-invento_0_1547245608.html
p4
aVhttps://www.clarin.com/opinion/historia-Santa-Cruz-Islote-invento_0_1547245608.html
p5
aVhttps://www.clarin.com/opinion/inexplicable-salmon-caro-consuma_0_1547245597.html
p6
aVhttps://www.clarin.com/opinion/inexplicable-salmon-caro-consuma_0_1547245597.html
p7
aVhttps://www.clarin.com/opinion/gira-Obama-estrategias-jugador-fuerte_0_1547245627.html
p8
aVhttps://www.clarin.com/opinion/gira-Obama-cordialidad-intereses-mutuos_0_1547245622.html
p9
aVhttps://www.clarin.com/opinion/haremos-China-finalmente-trastabilla_0_1547245614.html
p10
aVhttps://www.clarin.com/opinion/Chunchuna-Villafane-ojos-vieron_0_1547245604.html
p11
aVhttps://www.clarin.com/opinion/Chunchuna-Villafane-ojos-vieron_0_1547245604.html
p12
aVhttps://www.clarin.com/sociedad/Facebook-Instagram-prohiben-desnudos-debate_0_1547245577.html
p13
aVhttps://www.clarin.com/sociedad/Facebook-Instagram-prohiben-desnudos-debate_0_1547245577.html
p14
aVhttps://www.clarin.com/ieco/debe-hacer-Banco-Central_0_1547245664.html
p15
a.