(lp0
S'https://www.clarin.com/politica/intendentes-PJ-tarifazo-Gobierno-dialogo_0_1652234943.html'
p1
aS'https://www.clarin.com/politica/intendentes-PJ-tarifazo-Gobierno-dialogo_0_1652234943.html'
p2
aS'https://www.clarin.com/sociedad/Patricia-Ramos-jefa-parrilla-imposible_0_1652234942.html'
p3
aS'https://www.clarin.com/sociedad/Patricia-Ramos-jefa-parrilla-imposible_0_1652234942.html'
p4
aS'https://www.clarin.com/sociedad/campeona-nacional-gano-costillar-kilos_0_1652234940.html'
p5
aS'https://www.clarin.com/sociedad/campeona-nacional-gano-costillar-kilos_0_1652234940.html'
p6
aS'https://www.clarin.com/sociedad/Mujeres-asadoras-parrilla-territorio-femenino_0_1651634912.html'
p7
aS'https://www.clarin.com/sociedad/Mujeres-asadoras-parrilla-territorio-femenino_0_1651634912.html'
p8
aS'https://www.clarin.com/sociedad/Aplican-eutanasia-chico-primera-mundo_0_1652234935.html'
p9
aS'https://www.clarin.com/sociedad/Aplican-eutanasia-chico-primera-mundo_0_1652234935.html'
p10
aS'https://www.clarin.com/ieco/economia/Espana-refuta-Stiglitz_0_1652234932.html'
p11
aS'https://www.clarin.com/ieco/km-ataque_0_1651635005.html'
p12
aS'https://www.clarin.com/ieco/km-ataque_0_1651635005.html'
p13
a.