(lp0
Vhttps://www.clarin.com/politica/Lavado-dinero-Cristina-Kirchner-sospecha_0_1637236309.html
p1
aVhttps://www.clarin.com/politica/Lavado-dinero-Cristina-Kirchner-sospecha_0_1637236309.html
p2
aVhttps://www.clarin.com/politica/Macri-pronostico-leve-repunte-empleo_0_1637236314.html
p3
aVhttps://www.clarin.com/politica/Macri-pronostico-leve-repunte-empleo_0_1637236314.html
p4
aVhttps://www.clarin.com/ieco/economia/deficit-fiscal-duplico-supero-millones_0_1637236311.html
p5
aVhttps://www.clarin.com/ieco/economia/deficit-fiscal-duplico-supero-millones_0_1637236311.html
p6
a.