(lp0
S'https://www.clarin.com/politica/Macri-recibe-intendentes-Capitanich-Rosada_0_1535846622.html'
p1
aS'https://www.clarin.com/sociedad/Descubren-funciona-interruptor-hambre_0_1535846619.html'
p2
aS'https://www.clarin.com/sociedad/acusado-mujer-Castelar-acosaba-marido_0_1535846632.html'
p3
aS'https://www.clarin.com/politica/seguira-causa-muerte-Nisman_0_1535846620.html'
p4
aS'https://www.clarin.com/sociedad/Rioja-marcha-carcel-conductores-borrachos_0_1535846617.html'
p5
aS'https://www.clarin.com/politica/asesor-Scioli-favor-acuerdo-holdouts_0_1535846636.html'
p6
aS'https://www.clarin.com/sociedad/unico-eclipse-total-podra-Internet_0_1535846624.html'
p7
a.