(lp0
S'https://www.clarin.com/politica/Quieren-limitar-reelecciones-gobernadores-intendentes_0_1601839968.html'
p1
aS'https://www.clarin.com/sociedad/hicieron-deseo-animaron-salir-closet_0_1601839958.html'
p2
aS'https://www.clarin.com/sociedad/hicieron-deseo-animaron-salir-closet_0_1601839958.html'
p3
aS'https://www.clarin.com/politica/fantasia-Macri-interponen-camino_0_1601839952.html'
p4
a.