(lp0
Vhttps://www.clarin.com/sociedad/destinos-repletos-vacaciones-invierno-record_0_1618638240.html
p1
aVhttps://www.clarin.com/sociedad/destinos-repletos-vacaciones-invierno-record_0_1618638240.html
p2
aVhttps://www.clarin.com/sociedad/Tetazo-masivo-plazas-mujeres-amamantando_0_1618638238.html
p3
aVhttps://www.clarin.com/sociedad/Tetazo-masivo-plazas-mujeres-amamantando_0_1618638238.html
p4
aVhttps://www.clarin.com/politica/Gerardo-Morales-Cristina-Milagro-Sala_0_1618638239.html
p5
aVhttps://www.clarin.com/politica/Gerardo-Morales-Cristina-Milagro-Sala_0_1618638239.html
p6
aVhttps://www.clarin.com/ieco/economia/Fragata-Libertad-llego-Inglaterra-primera_0_1618638237.html
p7
aVhttps://www.clarin.com/ieco/economia/Fragata-Libertad-llego-Inglaterra-primera_0_1618638237.html
p8
a.