(lp0
S'https://www.clarin.com/politica/Legisladores-EEUU-Obama-visite-AMIA_0_1532846893.html'
p1
aS'https://www.clarin.com/ieco/ritual-banana-vez-importa-produce_0_1532846948.html'
p2
aS'https://www.clarin.com/sociedad/Irina-Shayk-pregunta-millones-desnuda_0_1532846934.html'
p3
aS'https://www.clarin.com/ieco/hermanos-Bulgheroni-Rocca-millonarios-Argentina_0_1532846950.html'
p4
aS'https://www.clarin.com/sociedad/fuerza-chica-condenaron-abuso-sexual_0_1532846955.html'
p5
a.