(lp0
Vhttps://www.clarin.com/sociedad/pareja-encerro-prendio-fuego-salvo_0_1687631305.html
p1
aVhttps://www.clarin.com/sociedad/pareja-encerro-prendio-fuego-salvo_0_1687631305.html
p2
aVhttps://www.clarin.com/politica/prepara-Maria-Eugenia-Vidal-campana_0_1681631940.html
p3
aVhttps://www.clarin.com/politica/prepara-Maria-Eugenia-Vidal-campana_0_1681631940.html
p4
aVhttps://www.clarin.com/politica/debate-videos-chicanas-promesas-Macri_0_1687631303.html
p5
aVhttps://www.clarin.com/politica/debate-videos-chicanas-promesas-Macri_0_1687631303.html
p6
aVhttps://www.clarin.com/sociedad/hacer-lampara-hilo-papel_0_1687631299.html
p7
aVhttps://www.clarin.com/sociedad/hacer-lampara-hilo-papel_0_1687631299.html
p8
aVhttps://www.clarin.com/ieco/economia/JP-Morgan-US-millones-argentina_0_1687631302.html
p9
aVhttps://www.clarin.com/ieco/economia/JP-Morgan-US-millones-argentina_0_1687631302.html
p10
a.