(lp0
S'https://www.clarin.com/politica/sindicatos-plantan-Macri-prometio-campana_0_1689431152.html'
p1
aS'https://www.clarin.com/politica/sindicatos-plantan-Macri-prometio-campana_0_1689431152.html'
p2
a.