(lp0
S'https://www.clarin.com/politica/Envian-comitiva-reforzada-cumbre-anticorrupcion_0_1559244471.html'
p1
aS'https://www.clarin.com/sociedad/OMS-pide-utilice-vacuna-dengue_0_1559244533.html'
p2
aS'https://www.clarin.com/sociedad/Gastroenterocolitis-logran-frenar-mitad-chicos_0_1559244520.html'
p3
aS'https://www.clarin.com/opinion/Cristina-Elisabet-vacilaciones-Justicia_0_1559844053.html'
p4
aS'https://www.clarin.com/opinion/Cesion-controles-estilo_0_1559844062.html'
p5
aS'https://www.clarin.com/politica/Recuperar-opositor-Massa-Urtubey-Bossio_0_1559244515.html'
p6
aS'https://www.clarin.com/sociedad/Beto-Perez-maridos-principio-despues_0_1559244299.html'
p7
a.