(lp0
Vhttps://www.clarin.com/politica/Perdio-Malcorra-portugues-secretario-ONU_0_1663033768.html
p1
aVhttps://www.clarin.com/politica/Perdio-Malcorra-portugues-secretario-ONU_0_1663033768.html
p2
aVhttps://www.clarin.com/sociedad/ataque-rugbiers-internado-terapia-intensiva_0_1663033765.html
p3
aVhttps://www.clarin.com/sociedad/ataque-rugbiers-internado-terapia-intensiva_0_1663033765.html
p4
aVhttps://www.clarin.com/politica/Vidal-victimas-inseguridad-reclamar-comprometernos_0_1663033760.html
p5
aVhttps://www.clarin.com/politica/Vidal-victimas-inseguridad-reclamar-comprometernos_0_1663033760.html
p6
aVhttps://www.clarin.com/ieco/primera-Argentina-emite-bonos-euros_0_1663033724.html
p7
aVhttps://www.clarin.com/ieco/primera-Argentina-emite-bonos-euros_0_1663033724.html
p8
aVhttps://www.clarin.com/ieco/economia/Buryaile-pidio-gauchada-productores-retenciones_0_1663033759.html
p9
aVhttps://www.clarin.com/ieco/economia/Buryaile-pidio-gauchada-productores-retenciones_0_1663033759.html
p10
aVhttps://www.clarin.com/sociedad/Multan-choferes-micros-manejar-drogados_0_1663033754.html
p11
aVhttps://www.clarin.com/sociedad/Multan-choferes-micros-manejar-drogados_0_1663033754.html
p12
a.