(lp0
Vhttps://www.clarin.com/sociedad/aviso-cortes-programados-energia-electrica_0_1528647637.html
p1
aVhttps://www.clarin.com/ieco/economia/Corte-apelaciones-Nueva-York-buitre_0_1528647626.html
p2
aVhttps://www.clarin.com/ieco/economia/Malcorra-Francia-contribuye-encontrar-holdouts_0_1528647622.html
p3
a.