(lp0
S'https://www.clarin.com/sociedad/Detienen-concejal-acusado-abusar-nieta_0_1654034680.html'
p1
aS'https://www.clarin.com/politica/Destituyeron-Alvear-hermanos-Lanatta-Schillaci_0_1654034676.html'
p2
aS'https://www.clarin.com/politica/ONU-Macri-solucionar-amigablemente-Malvinas_0_1654034681.html'
p3
aS'https://www.clarin.com/ieco/Reves-Cristobal-Lopez-Corte-Capital_0_1654034674.html'
p4
a.