(lp0
Vhttps://www.clarin.com/politica/Macri-Lifschitz-pactaran-envio-detectives_0_1648035280.html
p1
aVhttps://www.clarin.com/sociedad/estafaron-promocion-logro-empresa-castigada_0_1648635152.html
p2
aVhttps://www.clarin.com/sociedad/estafaron-promocion-logro-empresa-castigada_0_1648635152.html
p3
aVhttps://www.clarin.com/sociedad/Facundo-Manes-entendemos-funciona-podemos_0_1648635129.html
p4
aVhttps://www.clarin.com/sociedad/Facundo-Manes-entendemos-funciona-podemos_0_1648635129.html
p5
aVhttps://www.clarin.com/sociedad/conocer-cerebro_0_1648635128.html
p6
aVhttps://www.clarin.com/ieco/economia/super-optimista-pais-proximos-anos_0_1647435408.html
p7
aVhttps://www.clarin.com/ieco/economia/super-optimista-pais-proximos-anos_0_1647435408.html
p8
aVhttps://www.clarin.com/ieco/Innovacion-vision-futuro_0_1647435406.html
p9
aVhttps://www.clarin.com/ieco/economia/sirve-foro-pymes_0_1647435405.html
p10
aVhttps://www.clarin.com/ieco/economia/sirve-foro-pymes_0_1647435405.html
p11
aVhttps://www.clarin.com/ieco/economia/mundo-ve-positivamente-Argentina-cautela_0_1647435404.html
p12
aVhttps://www.clarin.com/ieco/economia/mundo-ve-positivamente-Argentina-cautela_0_1647435404.html
p13
aVhttps://www.clarin.com/ieco/economia/evolucion-pirotecnia_0_1648035299.html
p14
aVhttps://www.clarin.com/ieco/economia/evolucion-pirotecnia_0_1648035299.html
p15
a.