(lp0
Vhttps://www.clarin.com/sociedad/Parto-mira-cruce-medico-partera_0_1620437969.html
p1
aVhttps://www.clarin.com/sociedad/Parto-mira-cruce-medico-partera_0_1620437969.html
p2
aVhttps://www.clarin.com/politica/apuesta-Macri-EEUU-Hillary-Trump_0_1619838144.html
p3
aVhttps://www.clarin.com/politica/apuesta-Macri-EEUU-Hillary-Trump_0_1619838144.html
p4
aVhttps://www.clarin.com/sociedad/Alerta-sudestada-Rio-Plata-vientos_0_1620437959.html
p5
aVhttps://www.clarin.com/sociedad/Alerta-sudestada-Rio-Plata-vientos_0_1620437959.html
p6
aVhttps://www.clarin.com/politica/Facilitan-turistas-suficiente-EEUU-UE_0_1620437960.html
p7
aVhttps://www.clarin.com/politica/Facilitan-turistas-suficiente-EEUU-UE_0_1620437960.html
p8
aVhttps://www.clarin.com/sociedad/Parto-beba-sufrio-multiples-fracturas_0_1620437955.html
p9
a.