(lp0
Vhttps://www.clarin.com/politica/gabinete-Macri-Vidal-Baez-Kirchner_0_1562243789.html
p1
aVhttps://www.clarin.com/politica/gabinete-Macri-Vidal-Baez-Kirchner_0_1562243789.html
p2
aVhttps://www.clarin.com/politica/balcon-lunar-claves-detencion-Chueco_0_1562243781.html
p3
aVhttps://www.clarin.com/politica/balcon-lunar-claves-detencion-Chueco_0_1562243781.html
p4
aVhttps://www.clarin.com/politica/reunen-gabinetes-Macri-Vidal-paquete_0_1562243775.html
p5
aVhttps://www.clarin.com/politica/reunen-gabinetes-Macri-Vidal-paquete_0_1562243775.html
p6
aVhttps://www.clarin.com/politica/peronismo-ahora-pelea-lapicera_0_1562243772.html
p7
aVhttps://www.clarin.com/politica/peronismo-ahora-pelea-lapicera_0_1562243772.html
p8
aVhttps://www.clarin.com/ieco/economia/Bimbo-compra-medialunas-Saltena_0_1561643950.html
p9
aVhttps://www.clarin.com/ieco/economia/Bimbo-compra-medialunas-Saltena_0_1561643950.html
p10
aVhttps://www.clarin.com/ieco/economia/Neuquen-dicen-sobreabundancia-petroleo_0_1561643930.html
p11
aVhttps://www.clarin.com/ieco/economia/Neuquen-dicen-sobreabundancia-petroleo_0_1561643930.html
p12
a.