(lp0
S'https://www.clarin.com/sociedad/nuevos-bots-intermedio-humano-software_0_1578442345.html'
p1
aS'https://www.clarin.com/politica/Bossio-limite-Brancatelli-Campora_0_1578442359.html'
p2
aS'https://www.clarin.com/politica/Bariloche-impulsa-amparo-colectivo-tarifas_0_1578442352.html'
p3
a.