(lp0
S'https://www.clarin.com/politica/persecucion-limites_0_1664833581.html'
p1
aS'https://www.clarin.com/politica/CGT-mantiene-firme-reclama-bono_0_1664833582.html'
p2
aS'https://www.clarin.com/politica/Garavano-reconocimiento-fracaso-sistema-judicial_0_1664833573.html'
p3
aS'https://www.clarin.com/sociedad/Miedo-colegio-GBA-confirmados-tuberculosis_0_1664833587.html'
p4
a.