(lp0
S'https://www.clarin.com/opinion/curar-impuntualidad_0_1588041296.html'
p1
aS'https://www.clarin.com/sociedad/mitad-victimas-femicidio-murio-casa_0_1588041388.html'
p2
aS'https://www.clarin.com/sociedad/mitad-victimas-femicidio-murio-casa_0_1588041388.html'
p3
aS'https://www.clarin.com/politica/Milani-declarar-desaparicion-soldado-Tucuman_0_1588041400.html'
p4
aS'https://www.clarin.com/politica/Milani-declarar-desaparicion-soldado-Tucuman_0_1588041400.html'
p5
aS'https://www.clarin.com/politica/Periodismo-diversas-estreno-TV-Publica_0_1588041399.html'
p6
aS'https://www.clarin.com/politica/Periodismo-diversas-estreno-TV-Publica_0_1588041399.html'
p7
aS'https://www.clarin.com/politica/Procesaron-Echegaray-buscan-sacarlo-AGN_0_1588041397.html'
p8
aS'https://www.clarin.com/politica/Procesaron-Echegaray-buscan-sacarlo-AGN_0_1588041397.html'
p9
aS'https://www.clarin.com/politica/presion-radical-PASO-optativas_0_1588041396.html'
p10
aS'https://www.clarin.com/politica/presion-radical-PASO-optativas_0_1588041396.html'
p11
aS'https://www.clarin.com/politica/Jubilaciones-debate-venta-acciones-ANSeS_0_1588041395.html'
p12
aS'https://www.clarin.com/politica/Jubilaciones-debate-venta-acciones-ANSeS_0_1588041395.html'
p13
aS'https://www.clarin.com/politica/Monzo-Michetti-resolucion-Echegaray-AGN_0_1588041393.html'
p14
aS'https://www.clarin.com/politica/Monzo-Michetti-resolucion-Echegaray-AGN_0_1588041393.html'
p15
aS'https://www.clarin.com/politica/CTA-Plaza-Mayo-Macri-nacional_0_1588041390.html'
p16
aS'https://www.clarin.com/politica/CTA-Plaza-Mayo-Macri-nacional_0_1588041390.html'
p17
aS'https://www.clarin.com/sociedad/dar-respuestas_0_1588041389.html'
p18
a.