(lp0
S'https://www.clarin.com/politica/informe-Periodismo-aguantaderos_0_1632436743.html'
p1
aS'https://www.clarin.com/ieco/deterioro-capacidad-consumo-ahorro-familias_0_1631836946.html'
p2
aS'https://www.clarin.com/ieco/economia/bancos-grandes-ganadores-primer-semestre_0_1631836923.html'
p3
aS'https://www.clarin.com/opinion/Recuperar-educacion-publica-serio-declive_0_1631836897.html'
p4
aS'https://www.clarin.com/politica/Ezeiza-via-contrabando-sospechas-Echegaray_0_1631836910.html'
p5
aS'https://www.clarin.com/sociedad/gemelos-quimicos-heroes-destacan-olimpiadas_0_1631836924.html'
p6
aS'https://www.clarin.com/opinion/Argentina-desconfiada_0_1632436741.html'
p7
aS'https://www.clarin.com/politica/Tarifas-internas-costos-politica_0_1632436742.html'
p8
a.