(lp0
Vhttps://www.clarin.com/sociedad/Tucuman-joven-quemada-novio-detenido_0_1672632785.html
p1
aVhttps://www.clarin.com/ieco/economia/Guerra-publicidad-Santo-creativos-agencia_0_1672632784.html
p2
aVhttps://www.clarin.com/ieco/economia/Guerra-publicidad-Santo-creativos-agencia_0_1672632784.html
p3
aVhttps://www.clarin.com/sociedad/compran-comen-chefs-famosos-mundo_0_1672632780.html
p4
aVhttps://www.clarin.com/sociedad/compran-comen-chefs-famosos-mundo_0_1672632780.html
p5
aVhttps://www.clarin.com/sociedad/Tutorial-hace-maceta-botella-suculentas_0_1672632778.html
p6
aVhttps://www.clarin.com/sociedad/Tutorial-hace-maceta-botella-suculentas_0_1672632778.html
p7
aVhttps://www.clarin.com/sociedad/Confirman-multa-marca-dentifrico_0_1672632776.html
p8
aVhttps://www.clarin.com/sociedad/Confirman-multa-marca-dentifrico_0_1672632776.html
p9
aVhttps://www.clarin.com/sociedad/ataque-informatico-afecto-Twitter-Spotify_0_1672632777.html
p10
aVhttps://www.clarin.com/sociedad/ataque-informatico-afecto-Twitter-Spotify_0_1672632777.html
p11
aVhttps://www.clarin.com/politica/Nacio-Emilia-hija-Maximo-Kirchner_0_1672632773.html
p12
aVhttps://www.clarin.com/politica/Nacio-Emilia-hija-Maximo-Kirchner_0_1672632773.html
p13
a.