(lp0
S'https://www.clarin.com/sociedad/Alerta-tormentas-Buenos-Aires-provincias_0_1529847030.html'
p1
aS'https://www.clarin.com/politica/Convenios-tango-champagne-Centro-Kirchner_0_1529247506.html'
p2
aS'https://www.clarin.com/politica/Hollande-empresarios-Voy-vuelta-pagina_0_1529247496.html'
p3
aS'https://www.clarin.com/politica/Hollande-liceo-frances-Marsellesa-tango_0_1529247536.html'
p4
aS'https://www.clarin.com/opinion/Emergencia-seguridad-medidas-efectivas_0_1529247402.html'
p5
aS'https://www.clarin.com/opinion/relato-Cristina-acuerdos-Mauricio_0_1529247454.html'
p6
aS'https://www.clarin.com/opinion/Superar-miedo-islam_0_1529247439.html'
p7
aS'https://www.clarin.com/ieco/Isela-Costantini-prepara-ajuste-Aerolineas_0_1529247510.html'
p8
aS'https://www.clarin.com/opinion/Nisman-sigue-acusando_0_1529847033.html'
p9
a.