(lp0
S'https://www.clarin.com/sociedad/Comprueban-virus-zika-contagia-sexual_0_1515448804.html'
p1
aS'https://www.clarin.com/politica/Ganancias-Carrio-imponible-excluir-jubilados_0_1515448765.html'
p2
aS'https://www.clarin.com/sociedad/Macri-anuncio-ley-proteccion-humedales_0_1515448801.html'
p3
a.