(lp0
Vhttps://www.clarin.com/sociedad/recuerdo-ojos_0_1648035305.html
p1
aVhttps://www.clarin.com/politica/anos-querellante-caso-Julio-Lopez_0_1648035304.html
p2
aVhttps://www.clarin.com/politica/anos-querellante-caso-Julio-Lopez_0_1648035304.html
p3
aVhttps://www.clarin.com/sociedad/recibieron-siguen-dando-clase-amistad_0_1648035303.html
p4
aVhttps://www.clarin.com/sociedad/recibieron-siguen-dando-clase-amistad_0_1648035303.html
p5
aVhttps://www.clarin.com/sociedad/bizarro-fanatismo-bien-argentino_0_1648035302.html
p6
aVhttps://www.clarin.com/ieco/economia/Avanza-juicio-YPF-Argentina-Unidos_0_1648035301.html
p7
aVhttps://www.clarin.com/ieco/economia/Avanza-juicio-YPF-Argentina-Unidos_0_1648035301.html
p8
aVhttps://www.clarin.com/politica/macrismo-dice-adios-candidatos-famosos_0_1648035300.html
p9
aVhttps://www.clarin.com/politica/macrismo-dice-adios-candidatos-famosos_0_1648035300.html
p10
a.