(lp0
S'https://www.clarin.com/sociedad/ciencia-apura-camino-juventud-eterna_0_1577242403.html'
p1
aS'https://www.clarin.com/politica/kirchnerismo-conversa-massismo-ley-antidespidos_0_1577242410.html'
p2
aS'https://www.clarin.com/politica/Denuncian-Alicia-Kirchner-desvio-millones_0_1577242399.html'
p3
aS'https://www.clarin.com/politica/Vidal-apuesta-video-mostrar-gestion_0_1577242397.html'
p4
aS'https://www.clarin.com/sociedad/gurues-invierten-fuerte-esperanza-vivir_0_1577242409.html'
p5
aS'https://www.clarin.com/sociedad/nuevas-promesas-medicas-siglo-XXI_0_1577242415.html'
p6
a.