(lp0
S'https://www.clarin.com/politica/Macri-acto-Cristina-Tribunales-desafortunado_0_1558644240.html'
p1
aS'https://www.clarin.com/politica/Massa-Scioli-Carrio-Randazzo-senador_0_1558644234.html'
p2
aS'https://www.clarin.com/sociedad/Acusan-profesor-padres-apedrea-escuela_0_1558644261.html'
p3
aS'https://www.clarin.com/politica/confesion-Farina-Uruguay-investigacion-Aduana_0_1558644243.html'
p4
a.