(lp0
S'https://www.clarin.com/sociedad/Clarin-premiado-cobertura-digital-Nisman_0_1670233031.html'
p1
aS'https://www.clarin.com/sociedad/Clarin-premiado-cobertura-digital-Nisman_0_1670233031.html'
p2
a.