(lp0
S'https://www.clarin.com/sociedad/Bisiestos-privilegio-invisibilidad_0_1530447243.html'
p1
aS'https://www.clarin.com/politica/familias-Provincia-podran-chicos-escuela_0_1530447313.html'
p2
aS'https://www.clarin.com/sociedad/quedan-mascotas-pareja-separa_0_1530447328.html'
p3
aS'https://www.clarin.com/politica/Macri-trajo-felicitaciones-organizar-G-20_0_1530447332.html'
p4
aS'https://www.clarin.com/opinion/dinamica-jueces-polemica-Gobierno_0_1531046908.html'
p5
aS'https://www.clarin.com/politica/macrismo-movilizara-militantes-Congreso_0_1530447334.html'
p6
aS'https://www.clarin.com/politica/Bullrich-Macri-Obama-trabajaran-cuestiones_0_1530447246.html'
p7
a.