(lp0
S'https://www.clarin.com/politica/Macri-Juliana-Awada-Central-Malvinas_0_1654634654.html'
p1
aS'https://www.clarin.com/sociedad/Festa-Asumimos-responsabilidad-paso_0_1654634636.html'
p2
aS'https://www.clarin.com/ieco/economia/FIEL-industria-contrajo-agosto_0_1654634646.html'
p3
aS'https://www.clarin.com/sociedad/Proyecto-XXX-aparecieron-chicos-perdidos_0_1654634641.html'
p4
a.