(lp0
Vhttps://www.clarin.com/sociedad/Dia-Nino-promos-cuotas-semana_0_1631237001.html
p1
aVhttps://www.clarin.com/sociedad/Dia-Nino-promos-cuotas-semana_0_1631237001.html
p2
aVhttps://www.clarin.com/sociedad/personas-buscan-precios-bajos-oficial_0_1631237000.html
p3
aVhttps://www.clarin.com/sociedad/personas-buscan-precios-bajos-oficial_0_1631237000.html
p4
aVhttps://www.clarin.com/sociedad/Viven-planean-Dia-Nino-especial_0_1631236982.html
p5
aVhttps://www.clarin.com/sociedad/Viven-planean-Dia-Nino-especial_0_1631236982.html
p6
aVhttps://www.clarin.com/sociedad/Doctor-Web-cibercondriacos-busquedas-Internet_0_1631236988.html
p7
aVhttps://www.clarin.com/sociedad/Doctor-Web-cibercondriacos-busquedas-Internet_0_1631236988.html
p8
aVhttps://www.clarin.com/sociedad/alumnos-idearon-mouse-companero-falta_0_1631236980.html
p9
aVhttps://www.clarin.com/sociedad/alumnos-idearon-mouse-companero-falta_0_1631236980.html
p10
a.