(lp0
Vhttps://www.clarin.com/ieco/economia/sumo-empleados-ano-industria-perdio_0_1658234388.html
p1
aVhttps://www.clarin.com/ieco/meses-demora-pliego-Sturzenegger-aterrizo_0_1658234310.html
p2
aVhttps://www.clarin.com/ieco/meses-demora-pliego-Sturzenegger-aterrizo_0_1658234310.html
p3
aVhttps://www.clarin.com/politica/Blanqueo-declarados-EE-UU-Uruguay_0_1658234372.html
p4
aVhttps://www.clarin.com/politica/Blanqueo-declarados-EE-UU-Uruguay_0_1658234372.html
p5
aVhttps://www.clarin.com/opinion/Romances-empatia-on-line_0_1658834105.html
p6
aVhttps://www.clarin.com/politica/Gobierno-CGT-encerrona_0_1658834103.html
p7
aVhttps://www.clarin.com/politica/Plegarias-atendidas_0_1658834102.html
p8
aVhttps://www.clarin.com/sociedad/diseno-tecnica-polemica-ADN-padres_0_1658234394.html
p9
aVhttps://www.clarin.com/sociedad/diseno-tecnica-polemica-ADN-padres_0_1658234394.html
p10
aVhttps://www.clarin.com/sociedad/horas-hallaron-muertas-mujeres-desaparecidas_0_1658234393.html
p11
aVhttps://www.clarin.com/sociedad/horas-hallaron-muertas-mujeres-desaparecidas_0_1658234393.html
p12
a.