(lp0
Vhttps://www.clarin.com/politica/macri-davos-inversiones_0_1509449130.html
p1
aVhttps://www.clarin.com/politica/uom-aseguradora-calo_0_1509449129.html
p2
aVhttps://www.clarin.com/politica/policia_federal-bullrich-cambios_0_1509449128.html
p3
aVhttps://www.clarin.com/politica/policia_federal-bullrich-cambios_0_1509449128.html
p4
aVhttps://www.clarin.com/politica/puso-dura-pelea-buitres_0_1509449125.html
p5
aVhttps://www.clarin.com/politica/albur-discutir-inflacion_0_1509449123.html
p6
a.