(lp0
Vhttps://www.clarin.com/politica/Macri-felicito-Trump-Espero-trabajar_0_1684031614.html
p1
aVhttps://www.clarin.com/politica/Macri-felicito-Trump-Espero-trabajar_0_1684031614.html
p2
aVhttps://www.clarin.com/sociedad/Time-Warp-legendaria-electronica-Kraftwerk_0_1684031612.html
p3
aVhttps://www.clarin.com/sociedad/Time-Warp-legendaria-electronica-Kraftwerk_0_1684031612.html
p4
aVhttps://www.clarin.com/sociedad/California-aprobo-legalizacion-marihuana_0_1684031607.html
p5
aVhttps://www.clarin.com/sociedad/California-aprobo-legalizacion-marihuana_0_1684031607.html
p6
a.