(lp0
S'https://www.clarin.com/politica/Marchan-frazadas-protestar-tarifas_0_1587441357.html'
p1
aS'https://www.clarin.com/politica/Marchan-frazadas-protestar-tarifas_0_1587441357.html'
p2
aS'https://www.clarin.com/sociedad/embarazar-chica-FacebooK-juicio-grooming_0_1587441356.html'
p3
aS'https://www.clarin.com/sociedad/embarazar-chica-FacebooK-juicio-grooming_0_1587441356.html'
p4
aS'https://www.clarin.com/sociedad/argentino-responsable-construccion-tunel-record_0_1587441354.html'
p5
aS'https://www.clarin.com/sociedad/argentino-responsable-construccion-tunel-record_0_1587441354.html'
p6
aS'https://www.clarin.com/politica/Contragolpe-DGI-kirchnerista-proteccion-Baez_0_1587441338.html'
p7
aS'https://www.clarin.com/politica/Malcorra-Diputados-posicion-Brasil-Venezuela_0_1587441347.html'
p8
aS'https://www.clarin.com/politica/Malcorra-Diputados-posicion-Brasil-Venezuela_0_1587441347.html'
p9
a.