(lp0
S'https://www.clarin.com/ieco/management/Sirve-realmente-multitasking_0_1613838771.html'
p1
aS'https://www.clarin.com/opinion/tarifas-convierten-gran-desafio-Macri_0_1615038483.html'
p2
aS'https://www.clarin.com/politica/Siempre-dolares-siempre-efectivo_0_1614438659.html'
p3
aS'https://www.clarin.com/ieco/desafio-conectar-millennials_0_1613838784.html'
p4
aS'https://www.clarin.com/ieco/marcas-apuestan-comunicacion-autentica_0_1613838782.html'
p5
aS'https://www.clarin.com/politica/Vidal-orden-estatizar-rutas-Costa_0_1614438662.html'
p6
aS'https://www.clarin.com/ieco/economia/Riesgos-trabajo-falta-justicia_0_1613838746.html'
p7
aS'https://www.clarin.com/ieco/management/empresas-promueven-formacion-tecnica-RRHH_0_1613838769.html'
p8
aS'https://www.clarin.com/ieco/economia/Esperanza-industria-naval_0_1613838747.html'
p9
aS'https://www.clarin.com/opinion/factor-estupido_0_1615038481.html'
p10
aS'https://www.clarin.com/ieco/economia/facturacion-vendedoras-nuevos-canales_0_1613838774.html'
p11
aS'https://www.clarin.com/ieco/economia/espacio-optimismo-acciones-mercados-emergentes_0_1613838772.html'
p12
a.