(lp0
S'https://www.clarin.com/politica/Macri-metio-presion-pago-holdouts_0_1540646197.html'
p1
aS'https://www.clarin.com/politica/Laspina-Kicillof-Heller-Pitrola-Congreso_0_1540646215.html'
p2
aS'https://www.clarin.com/politica/Cruces-chicanas-enganos-reabrio-artistas_0_1540646205.html'
p3
aS'https://www.clarin.com/ieco/economia/precio-promedio-alquiler-Capital_0_1540646196.html'
p4
aS'https://www.clarin.com/ieco/economia/Consultoras-contrataran-empleados_0_1540646217.html'
p5
a.