(lp0
Vhttps://www.clarin.com/politica/Auge-caida-Lazaro-Baez-numeros_0_1554444802.html
p1
aVhttps://www.clarin.com/politica/Auge-caida-Lazaro-Baez-numeros_0_1554444802.html
p2
aVhttps://www.clarin.com/sociedad/Humillan-redes-chica-tiempo-mundo_0_1554444805.html
p3
aVhttps://www.clarin.com/sociedad/Humillan-redes-chica-tiempo-mundo_0_1554444805.html
p4
aVhttps://www.clarin.com/sociedad/Francia-penaliza-clientes-prostitutas_0_1554444800.html
p5
aVhttps://www.clarin.com/sociedad/Francia-penaliza-clientes-prostitutas_0_1554444800.html
p6
aVhttps://www.clarin.com/politica/Macri-distancia-polemica-jovenes-Misiones_0_1554444790.html
p7
aVhttps://www.clarin.com/politica/Macri-distancia-polemica-jovenes-Misiones_0_1554444790.html
p8
a.