(lp0
S'https://www.clarin.com/politica/revisaban-Policia-valijas-Milagro-Sala_0_1569443080.html'
p1
aS'https://www.clarin.com/politica/primer-youtuber-politico-Argentina_0_1569443094.html'
p2
aS'https://www.clarin.com/sociedad/disparate-dijo-hacker-abogado_0_1569443098.html'
p3
aS'https://www.clarin.com/ieco/economia/Aranguren-nego-naftas-vayan-subir_0_1569443085.html'
p4
aS'https://www.clarin.com/sociedad/Confirman-condena-fabricante-siliconas-truchas_0_1569443088.html'
p5
aS'https://www.clarin.com/ieco/sube-nafta-Argentina-resto-mundo_0_1569443086.html'
p6
aS'https://www.clarin.com/sociedad/hacker-investigado-estafa-informatica_0_1569443084.html'
p7
a.