(lp0
S'https://www.clarin.com/sociedad/tierra-ciudad-meditacion-grande-historia_0_1538246429.html'
p1
aS'https://www.clarin.com/sociedad/tierra-ciudad-meditacion-grande-historia_0_1538246429.html'
p2
aS'https://www.clarin.com/ieco/economia/Oficializan-subsidio-exportacion-petroleo_0_1538246426.html'
p3
aS'https://www.clarin.com/ieco/economia/Oficializan-subsidio-exportacion-petroleo_0_1538246426.html'
p4
aS'https://www.clarin.com/ieco/economia/dolar-baja-tercera-jornada-consecutiva_0_1538246423.html'
p5
aS'https://www.clarin.com/ieco/economia/dolar-baja-tercera-jornada-consecutiva_0_1538246423.html'
p6
aS'https://www.clarin.com/sociedad/Aerolineas-aterrizo-emergencia-amenaza-bomba_0_1538246401.html'
p7
aS'https://www.clarin.com/sociedad/Aerolineas-aterrizo-emergencia-amenaza-bomba_0_1538246401.html'
p8
aS'https://www.clarin.com/sociedad/Argentinos-meditacion-historia-energia-fuerte_0_1538246385.html'
p9
aS'https://www.clarin.com/sociedad/Argentinos-meditacion-historia-energia-fuerte_0_1538246385.html'
p10
aS'https://www.clarin.com/politica/Maximo-Cristina-ahora-disfrutando-nietos_0_1538246404.html'
p11
aS'https://www.clarin.com/politica/Maximo-Cristina-ahora-disfrutando-nietos_0_1538246404.html'
p12
a.