(lp0
S'https://www.clarin.com/opinion/Vocacion-querellas_0_1622237921.html'
p1
aS'https://www.clarin.com/politica/Empresarios-sindicatos-Gobierno-comenzar-debate_0_1622237957.html'
p2
aS'https://www.clarin.com/politica/paso-cerca-Alianza-Pacifico_0_1622237966.html'
p3
aS'https://www.clarin.com/politica/PJ-Urtubey-aliados-intendentes-renovadores_0_1622237927.html'
p4
aS'https://www.clarin.com/politica/Macri-Pena-Nieto-hablaron-comercio_0_1622237968.html'
p5
aS'https://www.clarin.com/ieco/Naftas-revertir-ventas-promos-descuentos_0_1622237915.html'
p6
a.