(lp0
Vhttps://www.clarin.com/politica/Costilla-corazon-rodilla-problemas-Macri_0_1599440166.html
p1
aVhttps://www.clarin.com/politica/Costilla-corazon-rodilla-problemas-Macri_0_1599440166.html
p2
aVhttps://www.clarin.com/sociedad/Video-hombre-arrojo-Garganta-Diablo_0_1599440157.html
p3
aVhttps://www.clarin.com/sociedad/Video-hombre-arrojo-Garganta-Diablo_0_1599440157.html
p4
aVhttps://www.clarin.com/politica/Monsenor-Radrizzani-bovedas-llenas-fantasia_0_1599440156.html
p5
aVhttps://www.clarin.com/politica/Monsenor-Radrizzani-bovedas-llenas-fantasia_0_1599440156.html
p6
aVhttps://www.clarin.com/sociedad/intendente-manejando-borracho-declarar-preso_0_1599440155.html
p7
aVhttps://www.clarin.com/sociedad/intendente-manejando-borracho-declarar-preso_0_1599440155.html
p8
aVhttps://www.clarin.com/sociedad/Convocan-voluntarios-Buenos-Aires-Neuquen_0_1599440154.html
p9
aVhttps://www.clarin.com/sociedad/Convocan-voluntarios-Buenos-Aires-Neuquen_0_1599440154.html
p10
a.