(lp0
S'https://www.clarin.com/opinion/pensabamos_0_1687031434.html'
p1
aS'https://www.clarin.com/opinion/Trabajadores-frustracion-asegurada_0_1687031445.html'
p2
aS'https://www.clarin.com/ieco/economia/economia-colaborativa-busqueda-comisiones_0_1687031431.html'
p3
aS'https://www.clarin.com/opinion/Reforma-politica-modico-paso_0_1687031446.html'
p4
aS'https://www.clarin.com/politica/Casacion-rechazaron-resolveran-denuncia-Nisman_0_1687031451.html'
p5
aS'https://www.clarin.com/opinion/Carolina-ministra-presupuesto-planes-sociales_0_1687031430.html'
p6
a.