(lp0
Vhttps://www.clarin.com/politica/Optimismo-reclamos-empresarios-Foro-Inversiones_0_1649835218.html
p1
aVhttps://www.clarin.com/sociedad/Revelan-Luna-costilla-planeta-Tierra_0_1649835216.html
p2
aVhttps://www.clarin.com/sociedad/Revelan-Luna-costilla-planeta-Tierra_0_1649835216.html
p3
aVhttps://www.clarin.com/politica/gremialista-Omar-Caballo-Suarez-extorsion_0_1649835198.html
p4
aVhttps://www.clarin.com/politica/gremialista-Omar-Caballo-Suarez-extorsion_0_1649835198.html
p5
a.