(lp0
S'https://www.clarin.com/politica/Mauricio-Macri-Descartamos-Juliana-Awada_0_1682831849.html'
p1
aS'https://www.clarin.com/politica/Intendentes-peronistas-Casa-Blanca_0_1682831848.html'
p2
aS'https://www.clarin.com/ieco/economia/Anuncian-inversiones-US-millones-comunicaciones_0_1682831852.html'
p3
aS'https://www.clarin.com/opinion/beneficios-inmigracion_0_1682831838.html'
p4
aS'https://www.clarin.com/ieco/economia/empleo-reemplaza-trabajo-privado_0_1682831839.html'
p5
aS'https://www.clarin.com/opinion/Tercera-Via-muerta_0_1682831841.html'
p6
aS'https://www.clarin.com/opinion/Meter-pata-historia_0_1682831845.html'
p7
a.