(lp0
Vhttps://www.clarin.com/opinion/Roller-Derby-deporte-contacto-superpoderosas_0_1610239084.html
p1
aVhttps://www.clarin.com/opinion/Roller-Derby-deporte-contacto-superpoderosas_0_1610239084.html
p2
aVhttps://www.clarin.com/opinion/pensando-crear-combustible-Marte_0_1610239077.html
p3
aVhttps://www.clarin.com/opinion/pensando-crear-combustible-Marte_0_1610239077.html
p4
aVhttps://www.clarin.com/opinion/sonado-hora-demagogos_0_1610239088.html
p5
aVhttps://www.clarin.com/ieco/economia/Brexit-salvavidas-US-empresas-emergentes_0_1609039257.html
p6
aVhttps://www.clarin.com/opinion/Fortalecer-corazon-vamos-educar-mente_0_1610239094.html
p7
aVhttps://www.clarin.com/opinion/Adolfo-Cacho-Villafane-tatuador-mares_0_1610239080.html
p8
aVhttps://www.clarin.com/opinion/Adolfo-Cacho-Villafane-tatuador-mares_0_1610239080.html
p9
aVhttps://www.clarin.com/opinion/Recursos-familias-desorden_0_1610239092.html
p10
aVhttps://www.clarin.com/opinion/dios-dinero-odiosa-inflacion_0_1610838904.html
p11
aVhttps://www.clarin.com/opinion/peronismo-ahora-descubre-Republica_0_1610838903.html
p12
aVhttps://www.clarin.com/opinion/Vidal-Pena-alternativas-abren-oficialismo_0_1610838902.html
p13
aVhttps://www.clarin.com/ieco/recursos-humanos/ART-foco-empleadores-trabajadores_0_1609039264.html
p14
aVhttps://www.clarin.com/ieco/economia/rebelion-obreros-fabriles_0_1609039259.html
p15
a.