(lp0
S'https://www.clarin.com/politica/Embargan-Baez-Uruguay-presunto-dinero_0_1566443365.html'
p1
aS'https://www.clarin.com/ieco/derrumba-deficit-comercial_0_1566443372.html'
p2
aS'https://www.clarin.com/politica/Luz-mantienen-subsidios-aumentos-noviembre_0_1566443356.html'
p3
aS'https://www.clarin.com/ieco/Empresas-revisan-prevision-alza-salarial_0_1566443376.html'
p4
aS'https://www.clarin.com/ieco/economia/Banco-Mundial-listos-US-millones_0_1566443374.html'
p5
aS'https://www.clarin.com/ieco/economia/Hilux-argentina-reemplaza-Tailandia_0_1566443373.html'
p6
aS'https://www.clarin.com/politica/propiedad-Martin-Baez-Rio-Gallegos_0_1566443379.html'
p7
a.