(lp0
S'https://www.clarin.com/sociedad/chicas-aventureras-Falcon-Olivos-Caribe_0_1656434404.html'
p1
aS'https://www.clarin.com/sociedad/chicas-aventureras-Falcon-Olivos-Caribe_0_1656434404.html'
p2
aS'https://www.clarin.com/sociedad/restaurante-barato-famoso-visitado-Obama_0_1655834554.html'
p3
aS'https://www.clarin.com/sociedad/restaurante-barato-famoso-visitado-Obama_0_1655834554.html'
p4
aS'https://www.clarin.com/sociedad/corona-inglesa-problemas-hackearon-privadas_0_1656434391.html'
p5
aS'https://www.clarin.com/sociedad/corona-inglesa-problemas-hackearon-privadas_0_1656434391.html'
p6
aS'https://www.clarin.com/politica/Elisa-Carrio-participo-timbreo-nacional_0_1656434394.html'
p7
aS'https://www.clarin.com/politica/Elisa-Carrio-participo-timbreo-nacional_0_1656434394.html'
p8
a.