(lp0
S'https://www.clarin.com/ieco/economia/dolar-trepa-centavos_0_1498650386.html'
p1
aS'https://www.clarin.com/sociedad/video-sexo-parto_respetado-nacimiento-sex_like_birth_0_1498650422.html'
p2
aS'https://www.clarin.com/sociedad/video-sexo-parto_respetado-nacimiento-sex_like_birth_0_1498650422.html'
p3
aS'https://www.clarin.com/sociedad/plena-calle-asesino-punaladas-ex_0_1498650456.html'
p4
aS'https://www.clarin.com/sociedad/Bahia-Blanca-primer-piso-hospital_0_1498650452.html'
p5
aS'https://www.clarin.com/sociedad/Bahia-Blanca-primer-piso-hospital_0_1498650452.html'
p6
aS'https://www.clarin.com/sociedad/creciente-cerraron-todas-playas-Rosario_0_1498650446.html'
p7
aS'https://www.clarin.com/sociedad/creciente-cerraron-todas-playas-Rosario_0_1498650446.html'
p8
a.