(lp0
S'https://www.clarin.com/opinion/uso-abusivo-metafora_0_1595240662.html'
p1
aS'https://www.clarin.com/ieco/economia/negocio-minorista-Citi-recta-final_0_1595240628.html'
p2
aS'https://www.clarin.com/ieco/economia/negocio-minorista-Citi-recta-final_0_1595240628.html'
p3
aS'https://www.clarin.com/politica/Brancatelli-Hoy-limite-hartazgo-total_0_1595240709.html'
p4
aS'https://www.clarin.com/politica/Brancatelli-Hoy-limite-hartazgo-total_0_1595240709.html'
p5
aS'https://www.clarin.com/politica/Rosadita-General-Rodriguez_0_1595240706.html'
p6
aS'https://www.clarin.com/politica/Corrupcion-desnuda-salvese-pueda_0_1595240705.html'
p7
aS'https://www.clarin.com/politica/Diputados-arranco-limitar-Gils-Carbo_0_1595240702.html'
p8
aS'https://www.clarin.com/politica/bala-letal-kirchnerismo_0_1595240701.html'
p9
aS'https://www.clarin.com/politica/bala-letal-kirchnerismo_0_1595240701.html'
p10
aS'https://www.clarin.com/politica/oficialismo-afirma-votos-Corte_0_1595240674.html'
p11
aS'https://www.clarin.com/sociedad/primera-argentino-entro-gastronomia-mundial_0_1595240597.html'
p12
aS'https://www.clarin.com/sociedad/primera-argentino-entro-gastronomia-mundial_0_1595240597.html'
p13
a.