(lp0
S'https://www.clarin.com/sociedad/6-7-8-TV_Publica-C5N-Cristobal_Lopez-Diego_Gvirtz-PPT-Grupo_Indalo_0_1512449182.html'
p1
aS'https://www.clarin.com/sociedad/Publicidad_oficial-Gobierno-Marcos_Pena-Jorge_Grecco-Anibal_Fernandez-Szpolski-Cristobal_Lopez_0_1512449185.html'
p2
aS'https://www.clarin.com/politica/Argentina-relacion-previsible-Lousteau-Obama_0_1512449201.html'
p3
a.