(lp0
Vhttps://www.clarin.com/politica/aprobo-proyecto-fomentar-inversiones-publica_0_1654634655.html
p1
aVhttps://www.clarin.com/politica/aprobo-proyecto-fomentar-inversiones-publica_0_1654634655.html
p2
aVhttps://www.clarin.com/politica/Cristina-Kirchner-Macri-Malvinas-desagravio_0_1654634670.html
p3
aVhttps://www.clarin.com/politica/Cristina-Kirchner-Macri-Malvinas-desagravio_0_1654634670.html
p4
aVhttps://www.clarin.com/opinion/Defensa-propia-castigo-privado_0_1654634677.html
p5
aVhttps://www.clarin.com/sociedad/alumnos-argentinos-repiten-crece-preocupacion_0_1654634676.html
p6
aVhttps://www.clarin.com/sociedad/alumnos-argentinos-repiten-crece-preocupacion_0_1654634676.html
p7
aVhttps://www.clarin.com/sociedad/repitencia-influye-negativamente-chicos_0_1654634675.html
p8
aVhttps://www.clarin.com/sociedad/necesario-conocer-realidad-escuelas_0_1654634673.html
p9
aVhttps://www.clarin.com/politica/vincula-Daniel-Scioli-recaudador-Peluso_0_1654634656.html
p10
aVhttps://www.clarin.com/politica/vincula-Daniel-Scioli-recaudador-Peluso_0_1654634656.html
p11
a.