(lp0
Vhttps://www.clarin.com/sociedad/juez-ordeno-Edenor-cortes-Pilar_0_1528647519.html
p1
aVhttps://www.clarin.com/sociedad/exploto-libero-energia-similar-atomica_0_1528647505.html
p2
aVhttps://www.clarin.com/sociedad/exploto-libero-energia-similar-atomica_0_1528647505.html
p3
aVhttps://www.clarin.com/sociedad/insolito-europeos-bloquearon-Perito-Moreno_0_1528647500.html
p4
aVhttps://www.clarin.com/sociedad/insolito-europeos-bloquearon-Perito-Moreno_0_1528647500.html
p5
aVhttps://www.clarin.com/ieco/economia/Gobierno-cauto-noticia_0_1528647488.html
p6
aVhttps://www.clarin.com/sociedad/Juicio-ataques-neonazis-Mar-Plata_0_1528647483.html
p7
aVhttps://www.clarin.com/sociedad/Juicio-ataques-neonazis-Mar-Plata_0_1528647483.html
p8
aVhttps://www.clarin.com/sociedad/Desarrollaran-simulador-mejorar-gestion-hospitales_0_1528647459.html
p9
a.