(lp0
S'https://www.clarin.com/ieco/economia/Gobierno-Vidal-consiguio-US-millones_0_1668433303.html'
p1
aS'https://www.clarin.com/ieco/economia/Gobierno-Vidal-consiguio-US-millones_0_1668433303.html'
p2
aS'https://www.clarin.com/sociedad/Mundos-Cuarenta-despues-enamore-companerita_0_1668433299.html'
p3
aS'https://www.clarin.com/sociedad/Mundos-Cuarenta-despues-enamore-companerita_0_1668433299.html'
p4
aS'https://www.clarin.com/ieco/coloquioidea/industrias-tradicionales-segunda-ola-innovacion_0_1668433298.html'
p5
aS'https://www.clarin.com/sociedad/The-satisfying-satisfactorios-invaden-YouTube_0_1668433293.html'
p6
aS'https://www.clarin.com/sociedad/The-satisfying-satisfactorios-invaden-YouTube_0_1668433293.html'
p7
aS'https://www.clarin.com/sociedad/Rioja-condenan-perpetua-policia-femicidio_0_1668433291.html'
p8
aS'https://www.clarin.com/sociedad/Rioja-condenan-perpetua-policia-femicidio_0_1668433291.html'
p9
aS'https://www.clarin.com/ieco/coloquioidea/Jorge-Macri-Vidal-enfrentando-mafias_0_1668433289.html'
p10
aS'https://www.clarin.com/ieco/coloquioidea/Jorge-Macri-Vidal-enfrentando-mafias_0_1668433289.html'
p11
aS'https://www.clarin.com/sociedad/Llego-SurGente-diario-Maestria-Clarin_0_1668433288.html'
p12
aS'https://www.clarin.com/sociedad/Llego-SurGente-diario-Maestria-Clarin_0_1668433288.html'
p13
a.