(lp0
Vhttps://www.clarin.com/opinion/Prioridad-protestar-llegar-trabajo_0_1532847069.html
p1
aVhttps://www.clarin.com/politica/agenda-parlamentaria-recalentada_0_1532847192.html
p2
aVhttps://www.clarin.com/politica/agenda-parlamentaria-recalentada_0_1532847192.html
p3
aVhttps://www.clarin.com/politica/Stiuso-agrupacion-Quebracho-matado-Nisman_0_1532847121.html
p4
aVhttps://www.clarin.com/politica/Stiuso-agrupacion-Quebracho-matado-Nisman_0_1532847121.html
p5
aVhttps://www.clarin.com/sociedad/Ecuador-reconocer-cuerpos-volvieron-detectives_0_1532847168.html
p6
aVhttps://www.clarin.com/sociedad/Ecuador-reconocer-cuerpos-volvieron-detectives_0_1532847168.html
p7
aVhttps://www.clarin.com/ieco/inflacion-febrero-llego-aumentos-luz_0_1532847157.html
p8
aVhttps://www.clarin.com/ieco/inflacion-febrero-llego-aumentos-luz_0_1532847157.html
p9
aVhttps://www.clarin.com/politica/gobernadores-PJ-endurecen-Macri-Congreso_0_1532847189.html
p10
aVhttps://www.clarin.com/politica/gobernadores-PJ-endurecen-Macri-Congreso_0_1532847189.html
p11
aVhttps://www.clarin.com/sociedad/Creen-Lorenzetti-pago-mataran-mujer_0_1532847172.html
p12
aVhttps://www.clarin.com/sociedad/Creen-Lorenzetti-pago-mataran-mujer_0_1532847172.html
p13
aVhttps://www.clarin.com/ieco/economia/Facebook-lanza-pais-escuela-pymes_0_1532847099.html
p14
aVhttps://www.clarin.com/ieco/economia/Facebook-lanza-pais-escuela-pymes_0_1532847099.html
p15
a.