(lp0
Vhttps://www.clarin.com/ieco/economia/Fabricando-comunidades_0_1631836822.html
p1
aVhttps://www.clarin.com/ieco/economia/Fabricando-comunidades_0_1631836822.html
p2
aVhttps://www.clarin.com/ieco/economia/Cordoba-mundo_0_1631836821.html
p3
aVhttps://www.clarin.com/ieco/economia/Cordoba-mundo_0_1631836821.html
p4
aVhttps://www.clarin.com/ieco/economia/claves-sinceramiento_0_1631836819.html
p5
aVhttps://www.clarin.com/ieco/economia/Hillarynomics-Paul-Krugman_0_1631836813.html
p6
aVhttps://www.clarin.com/ieco/economia/Hillarynomics-Paul-Krugman_0_1631836813.html
p7
aVhttps://www.clarin.com/ieco/economia/Consenso-economistas-deficit-fiscal-achicaria_0_1631836812.html
p8
aVhttps://www.clarin.com/ieco/economia/Nube-nueva-revolucion-industrial_0_1631836811.html
p9
aVhttps://www.clarin.com/ieco/economia/Nube-nueva-revolucion-industrial_0_1631836811.html
p10
aVhttps://www.clarin.com/ieco/economia/Megabancos-pequenas-empresas-Wall-Street_0_1631836810.html
p11
aVhttps://www.clarin.com/ieco/economia/Megabancos-pequenas-empresas-Wall-Street_0_1631836810.html
p12
aVhttps://www.clarin.com/sociedad/pifia-bellisima-sociedad_0_1631236977.html
p13
aVhttps://www.clarin.com/ieco/Gobierno-apuesta-volver-crecer-inflacion_0_1631237034.html
p14
a.