(lp0
S'https://www.clarin.com/politica/Tucuman-desaparecido-Luis-Eduardo-Falu_0_1611438924.html'
p1
aS'https://www.clarin.com/sociedad/respondio-empresa-fabrica-chocolates-Kinder_0_1611438925.html'
p2
aS'https://www.clarin.com/sociedad/casos-diabetes-asociados-variantes-geneticas_0_1611438921.html'
p3
aS'https://www.clarin.com/ieco/Tarifas-asociaciones-consumidores-audiencia-publica_0_1611438929.html'
p4
aS'https://www.clarin.com/politica/Cristina-Kirchner-Quieren-privarme-libertad_0_1611438928.html'
p5
aS'https://www.clarin.com/politica/Tarifas-Marcos-Pena-Aranguren-conferencia_0_1611438927.html'
p6
aS'https://www.clarin.com/sociedad/Mellizos-coparon-Famailla-clasico-encuentro_0_1611438917.html'
p7
aS'https://www.clarin.com/politica/Intendentes-legisladores-peronistas-Tarifas-Seguridad_0_1611438931.html'
p8
a.