(lp0
S'https://www.clarin.com/ieco/INTA-robots-cerca-campo-argentino_0_1567043343.html'
p1
aS'https://www.clarin.com/ieco/INTA-robots-cerca-campo-argentino_0_1567043343.html'
p2
aS'https://www.clarin.com/sociedad/Defienden-apoderado-Dell-Producciones-tramites_0_1567043337.html'
p3
aS'https://www.clarin.com/sociedad/Defienden-apoderado-Dell-Producciones-tramites_0_1567043337.html'
p4
aS'https://www.clarin.com/sociedad/Lanzan-oficial-victima-delitos-redes_0_1567043342.html'
p5
aS'https://www.clarin.com/sociedad/Lanzan-oficial-victima-delitos-redes_0_1567043342.html'
p6
aS'https://www.clarin.com/sociedad/Farmacias-Interior-suspenden-jubilados-PAMI_0_1567043340.html'
p7
aS'https://www.clarin.com/sociedad/Farmacias-Interior-suspenden-jubilados-PAMI_0_1567043340.html'
p8
aS'https://www.clarin.com/politica/video-PRO-dedico-Mona-Jimenez_0_1567043328.html'
p9
aS'https://www.clarin.com/ieco/construccion-empleo-caida-salarios-reales_0_1567043326.html'
p10
aS'https://www.clarin.com/ieco/construccion-empleo-caida-salarios-reales_0_1567043326.html'
p11
a.