(lp0
S'https://www.clarin.com/sociedad/paracaidistas-brasilenos-murieron-intentar-olimpicos_0_1605439500.html'
p1
aS'https://www.clarin.com/politica/Cristina-investigan-distraer-poblacion-economico_0_1605439507.html'
p2
aS'https://www.clarin.com/ieco/economia/Gobierno-flexibilizo-Ley-Tierras-extranjeras_0_1605439509.html'
p3
aS'https://www.clarin.com/ieco/fuerte-intervencion-Central-dolar-subiendo_0_1605439503.html'
p4
a.