(lp0
S'https://www.clarin.com/sociedad/Matar-defensa-propia-ahora-delito_0_1652234924.html'
p1
aS'https://www.clarin.com/politica/Macri-ONU-refugiados-negocios-Argentina_0_1652234887.html'
p2
aS'https://www.clarin.com/politica/Macri-ONU-refugiados-negocios-Argentina_0_1652234887.html'
p3
aS'https://www.clarin.com/politica/Gobernadores-PJ-discuten-Presupuesto-legisladores_0_1652234896.html'
p4
aS'https://www.clarin.com/politica/Gobernadores-PJ-discuten-Presupuesto-legisladores_0_1652234896.html'
p5
aS'https://www.clarin.com/ieco/economia/Rusia-bajar-credito-construir-Chihuido_0_1652234919.html'
p6
aS'https://www.clarin.com/ieco/economia/Rusia-bajar-credito-construir-Chihuido_0_1652234919.html'
p7
aS'https://www.clarin.com/sociedad/Time-Warp-Creamfields-Buenos-Aires_0_1652234918.html'
p8
aS'https://www.clarin.com/sociedad/Time-Warp-Creamfields-Buenos-Aires_0_1652234918.html'
p9
aS'https://www.clarin.com/politica/Audiencias-publico-oposicion-critico-Gobierno_0_1652234908.html'
p10
a.