(lp0
Vhttps://www.clarin.com/sociedad/turron-golosina-tradicional-explosion-ventas_0_1629437138.html
p1
aVhttps://www.clarin.com/sociedad/turron-golosina-tradicional-explosion-ventas_0_1629437138.html
p2
aVhttps://www.clarin.com/sociedad/Haters-redes-denuncias-odio-digital_0_1666033485.html
p3
aVhttps://www.clarin.com/sociedad/Haters-redes-denuncias-odio-digital_0_1666033485.html
p4
aVhttps://www.clarin.com/ieco/deficit-ayudas-Central-ANSeS-subio_0_1673232713.html
p5
aVhttps://www.clarin.com/sociedad/polo-final-abierto-tortugas-dolfina-ellerstina_0_1672632919.html
p6
aVhttps://www.clarin.com/sociedad/polo-final-abierto-tortugas-dolfina-ellerstina_0_1672632919.html
p7
aVhttps://www.clarin.com/opinion/libro-blanco-Argentina_0_1673232711.html
p8
aVhttps://www.clarin.com/politica/Aportan-Criminal-Cristina-favorecer-Baez_0_1672632875.html
p9
aVhttps://www.clarin.com/politica/Aportan-Criminal-Cristina-favorecer-Baez_0_1672632875.html
p10
a.