(lp0
Vhttps://www.clarin.com/ieco/economia/Apuran-plan-Ahora-lanzarlo-Navidad_0_1684631705.html
p1
aVhttps://www.clarin.com/ieco/economia/Apuran-plan-Ahora-lanzarlo-Navidad_0_1684631705.html
p2
aVhttps://www.clarin.com/ieco/Ribeiro-tecnologia-cara_0_1684631654.html
p3
aVhttps://www.clarin.com/ieco/Ribeiro-tecnologia-cara_0_1684631654.html
p4
aVhttps://www.clarin.com/ieco/FMI-advierte-cambiario-presiones-inflacionarias_0_1684631700.html
p5
aVhttps://www.clarin.com/ieco/FMI-advierte-cambiario-presiones-inflacionarias_0_1684631700.html
p6
aVhttps://www.clarin.com/sociedad/Norman-eterno-habitante-noche-portena_0_1684631671.html
p7
aVhttps://www.clarin.com/sociedad/Norman-eterno-habitante-noche-portena_0_1684631671.html
p8
aVhttps://www.clarin.com/sociedad/amarga-dicha-fermentar-propia-birra_0_1684631678.html
p9
aVhttps://www.clarin.com/sociedad/amarga-dicha-fermentar-propia-birra_0_1684631678.html
p10
aVhttps://www.clarin.com/opinion/casa-propia-aspiracion-aleja_0_1685231462.html
p11
aVhttps://www.clarin.com/opinion/Historia-incomoda-relacion-Trump-Macri_0_1684631679.html
p12
aVhttps://www.clarin.com/opinion/Historia-incomoda-relacion-Trump-Macri_0_1684631679.html
p13
aVhttps://www.clarin.com/opinion/inflacion-sigue-viva-recesion_0_1685231461.html
p14
aVhttps://www.clarin.com/politica/mujer-Maximo-Kirchner-declaro-pesos_0_1684031798.html
p15
aVhttps://www.clarin.com/politica/mujer-Maximo-Kirchner-declaro-pesos_0_1684031798.html
p16
a.