(lp0
Vhttps://www.clarin.com/opinion/Graciela-Basso-Canguros-ayudan-vivir_0_1631236992.html
p1
aVhttps://www.clarin.com/opinion/Graciela-Basso-Canguros-ayudan-vivir_0_1631236992.html
p2
aVhttps://www.clarin.com/opinion/Conviene-repensar-vivir-mejor-vejez_0_1631236986.html
p3
aVhttps://www.clarin.com/opinion/redes-sociales-viralizan-atractivo-verdadero_0_1631236993.html
p4
aVhttps://www.clarin.com/opinion/redes-sociales-viralizan-atractivo-verdadero_0_1631236993.html
p5
aVhttps://www.clarin.com/opinion/Macri-igual-Kirchner_0_1631836806.html
p6
aVhttps://www.clarin.com/opinion/modelo-despega_0_1631836805.html
p7
aVhttps://www.clarin.com/opinion/infinito-temor-peronismo-Cristina_0_1631836804.html
p8
aVhttps://www.clarin.com/opinion/infinito-temor-peronismo-Cristina_0_1631836804.html
p9
aVhttps://www.clarin.com/opinion/escalada-Macri-termine-ayudandolo_0_1631836803.html
p10
aVhttps://www.clarin.com/politica/Malcorra-competencia-ONU-Todavia-sesgado_0_1631236949.html
p11
aVhttps://www.clarin.com/politica/Malcorra-competencia-ONU-Todavia-sesgado_0_1631236949.html
p12
aVhttps://www.clarin.com/opinion/Lazaro-levantate-lee_0_1631836801.html
p13
aVhttps://www.clarin.com/opinion/Lazaro-levantate-lee_0_1631836801.html
p14
a.