(lp0
Vhttps://www.clarin.com/sociedad/Tercer-dramatica-busqueda-Storani-Delta_0_1552045059.html
p1
aVhttps://www.clarin.com/sociedad/Tercer-dramatica-busqueda-Storani-Delta_0_1552045059.html
p2
aVhttps://www.clarin.com/politica/Jaime-Scioli-Recalde-avalaron-detencion_0_1552045054.html
p3
aVhttps://www.clarin.com/politica/Jaime-Scioli-Recalde-avalaron-detencion_0_1552045054.html
p4
aVhttps://www.clarin.com/politica/Reino-Unido-proteccion-Marina-Malvinas_0_1552045030.html
p5
aVhttps://www.clarin.com/politica/Reino-Unido-proteccion-Marina-Malvinas_0_1552045030.html
p6
a.