(lp0
Vhttps://www.clarin.com/ieco/reclamo-tarifa-transportistas-cereales-iniciaron_0_1615638471.html
p1
aVhttps://www.clarin.com/ieco/reclamo-tarifa-transportistas-cereales-iniciaron_0_1615638471.html
p2
aVhttps://www.clarin.com/politica/nuevas-encuestas-midieron-impacto-tarifazo_0_1615638459.html
p3
aVhttps://www.clarin.com/politica/nuevas-encuestas-midieron-impacto-tarifazo_0_1615638459.html
p4
aVhttps://www.clarin.com/sociedad/hospitales-cordobeses-alerta-violencia_0_1615638462.html
p5
aVhttps://www.clarin.com/sociedad/hospitales-cordobeses-alerta-violencia_0_1615638462.html
p6
aVhttps://www.clarin.com/ieco/temperaturas-demanda-electricidad-crecio-junio_0_1615638468.html
p7
aVhttps://www.clarin.com/politica/presencia-madre-Nisman-homenaje-AMIA_0_1615638463.html
p8
aVhttps://www.clarin.com/politica/presencia-madre-Nisman-homenaje-AMIA_0_1615638463.html
p9
aVhttps://www.clarin.com/ieco/Macri-adelanta-millones-Alicia-Kirchner_0_1615638466.html
p10
aVhttps://www.clarin.com/ieco/Macri-adelanta-millones-Alicia-Kirchner_0_1615638466.html
p11
aVhttps://www.clarin.com/politica/informe-desconocio-Gobierno-Perez-Corradi_0_1615638458.html
p12
aVhttps://www.clarin.com/politica/informe-desconocio-Gobierno-Perez-Corradi_0_1615638458.html
p13
aVhttps://www.clarin.com/sociedad/Policias-San-Isidro-echaron-publico_0_1615638455.html
p14
aVhttps://www.clarin.com/sociedad/Policias-San-Isidro-echaron-publico_0_1615638455.html
p15
a.