(lp0
Vhttps://www.clarin.com/ieco/economia/Blanqueo-AFIP-simulador-saber-pagar_0_1624637608.html
p1
aVhttps://www.clarin.com/sociedad/Arqueologos-descubren-Atenas-importante-comun_0_1624637607.html
p2
aVhttps://www.clarin.com/sociedad/Arqueologos-descubren-Atenas-importante-comun_0_1624637607.html
p3
aVhttps://www.clarin.com/ieco/Buffet-EEUU-burlandose-inversiones-Trump_0_1624637603.html
p4
aVhttps://www.clarin.com/ieco/Buffet-EEUU-burlandose-inversiones-Trump_0_1624637603.html
p5
aVhttps://www.clarin.com/politica/Imputan-Vido-computadoras-televisores-tribunal_0_1624637602.html
p6
aVhttps://www.clarin.com/politica/Imputan-Vido-computadoras-televisores-tribunal_0_1624637602.html
p7
aVhttps://www.clarin.com/politica/Chino-Navarro-pelicula-entrevista-Cristina_0_1624637601.html
p8
aVhttps://www.clarin.com/politica/Chino-Navarro-pelicula-entrevista-Cristina_0_1624637601.html
p9
aVhttps://www.clarin.com/sociedad/Video-cadena-humana-rescataron-inundacion_0_1624637600.html
p10
aVhttps://www.clarin.com/sociedad/Video-cadena-humana-rescataron-inundacion_0_1624637600.html
p11
aVhttps://www.clarin.com/sociedad/Avance-depresion-identifican-relacionados-enfermedad_0_1624637595.html
p12
aVhttps://www.clarin.com/sociedad/Avance-depresion-identifican-relacionados-enfermedad_0_1624637595.html
p13
aVhttps://www.clarin.com/politica/ATE-desmiente-dichos-Alberto-Perez_0_1624637590.html
p14
aVhttps://www.clarin.com/politica/ATE-desmiente-dichos-Alberto-Perez_0_1624637590.html
p15
a.