(lp0
Vhttps://www.clarin.com/ieco/economia/Expansion-Paladini-compra-espanola-Espuna_0_1504049730.html
p1
aVhttps://www.clarin.com/ieco/economia/Crisis-azucar-productores-dejan-cosechar_0_1504049727.html
p2
aVhttps://www.clarin.com/sociedad/demoras-cancelaciones-Aeroparque-paro-pilotos_de_LAN_0_1504049710.html
p3
aVhttps://www.clarin.com/sociedad/demoras-cancelaciones-Aeroparque-paro-pilotos_de_LAN_0_1504049710.html
p4
aVhttps://www.clarin.com/ieco/plan_fiscal-inflacion-2016_0_1503450121.html
p5
aVhttps://www.clarin.com/ieco/campus-ieco/docentes-argentinas-finalistas-Nobel-educacion_0_1502850079.html
p6
aVhttps://www.clarin.com/ieco/campus-ieco/docentes-argentinas-finalistas-Nobel-educacion_0_1502850079.html
p7
aVhttps://www.clarin.com/ieco/emprendedores/Exposiciones-claves-elegir-bien_0_1503449976.html
p8
aVhttps://www.clarin.com/ieco/emprendedores/Exposiciones-claves-elegir-bien_0_1503449976.html
p9
aVhttps://www.clarin.com/ieco/recursos-humanos/Recursos_Humanos-negociacion-empresas_0_1503449965.html
p10
aVhttps://www.clarin.com/ieco/recursos-humanos/Recursos_Humanos-negociacion-empresas_0_1503449965.html
p11
aVhttps://www.clarin.com/ieco/Qatar_Airways-American_Airlines-Oneworld-pelea_0_1503449987.html
p12
aVhttps://www.clarin.com/ieco/Qatar_Airways-American_Airlines-Oneworld-pelea_0_1503449987.html
p13
a.