(lp0
S'https://www.clarin.com/politica/Stella_Scandura_0_1509449405.html'
p1
aS'https://www.clarin.com/politica/Mauricio_Macri-_holdouts-_gobernabilidad-_New_York_Times_0_1509449373.html'
p2
aS'https://www.clarin.com/politica/PJ_bonaerense-Fernando_Espinoza-Mauricio_Macri-Maria_Eugenia_Vidal-Vidal-Macri_0_1509449371.html'
p3
aS'https://www.clarin.com/sociedad/Tiempo-tesoro-puede-felicidad-dinero_0_1509449423.html'
p4
aS'https://www.clarin.com/ieco/Macri-inflacion-2016_0_1509449412.html'
p5
aS'https://www.clarin.com/politica/Anibal_F-Julian_Dominguez-Anibal_Fernandez_0_1509449376.html'
p6
a.