(lp0
S'https://www.clarin.com/politica/Garavano-prudencia-causas-involucran-Cristina_0_1572442819.html'
p1
aS'https://www.clarin.com/politica/Denuncia-penal-Aranguren_0_1572442810.html'
p2
aS'https://www.clarin.com/politica/Carrio-quiere-denunciar-empresarios_0_1572442809.html'
p3
aS'https://www.clarin.com/politica/Carrio-quiere-denunciar-empresarios_0_1572442809.html'
p4
aS'https://www.clarin.com/politica/Macri-Maduro-abrir-puerta-dialogo_0_1572442808.html'
p5
a.