(lp0
S'https://www.clarin.com/sociedad/Volco-camion-vecinos-faenaron-cuchillo_0_1620438122.html'
p1
aS'https://www.clarin.com/sociedad/Definieron-pasos-seguir-compras-puerta_0_1620438097.html'
p2
aS'https://www.clarin.com/ieco/Tradicion-restaurante-Central-Sociedad-Rural_0_1620438025.html'
p3
aS'https://www.clarin.com/politica/Massa-contactos-EEUU-guino-Lousteau_0_1620438127.html'
p4
aS'https://www.clarin.com/politica/PJ-disimular-homenaje-Eva-Peron_0_1620438108.html'
p5
aS'https://www.clarin.com/politica/Defensor-Pueblo-Gobierno-suspenda-personales_0_1620438118.html'
p6
a.