(lp0
S'https://www.clarin.com/ieco/Daran-pedir-beneficios-contribuyentes-cumplidores_0_1678632249.html'
p1
aS'https://www.clarin.com/opinion/unica-voz-influye-micromundo-Cristina_0_1678632259.html'
p2
aS'https://www.clarin.com/opinion/Corte-paridad-genero_0_1678632260.html'
p3
aS'https://www.clarin.com/opinion/aire-toxico-ahoga-Venezuela_0_1678632253.html'
p4
aS'https://www.clarin.com/opinion/Pienso-luego-mato_0_1678632255.html'
p5
a.