(lp0
Vhttps://www.clarin.com/politica/Baez-pedira-prision-domiciliaria-delicado_0_1646235457.html
p1
aVhttps://www.clarin.com/politica/Baez-pedira-prision-domiciliaria-delicado_0_1646235457.html
p2
aVhttps://www.clarin.com/politica/Myriam-Bregman-denuncio-amenazas-Zurdita_0_1646235458.html
p3
aVhttps://www.clarin.com/politica/Myriam-Bregman-denuncio-amenazas-Zurdita_0_1646235458.html
p4
aVhttps://www.clarin.com/sociedad/agrupacion-charla-practicas-abortivas-Pellegrini_0_1646235448.html
p5
aVhttps://www.clarin.com/sociedad/agrupacion-charla-practicas-abortivas-Pellegrini_0_1646235448.html
p6
aVhttps://www.clarin.com/ieco/economia/Aranguren-reconocio-calor-verano-cortes_0_1646235446.html
p7
aVhttps://www.clarin.com/ieco/economia/Aranguren-reconocio-calor-verano-cortes_0_1646235446.html
p8
a.