(lp0
Vhttps://www.clarin.com/ieco/economia/Ciudad-credito-hipotecario-combina-UVI_0_1634836637.html
p1
aVhttps://www.clarin.com/ieco/economia/Ciudad-credito-hipotecario-combina-UVI_0_1634836637.html
p2
aVhttps://www.clarin.com/sociedad/Video-transmitia-TV-avisaron-gente_0_1634836634.html
p3
aVhttps://www.clarin.com/sociedad/Video-transmitia-TV-avisaron-gente_0_1634836634.html
p4
aVhttps://www.clarin.com/politica/Cumbre-Macri-Olivos-buscar-tarifas_0_1634836630.html
p5
aVhttps://www.clarin.com/politica/Cumbre-Macri-Olivos-buscar-tarifas_0_1634836630.html
p6
aVhttps://www.clarin.com/ieco/economia/canasta-portena-llego-jubilados_0_1634836627.html
p7
aVhttps://www.clarin.com/ieco/economia/canasta-portena-llego-jubilados_0_1634836627.html
p8
a.