(lp0
S'https://www.clarin.com/politica/Tarifas-Macri-mostrara-Tecnopolis-Corte_0_1634236578.html'
p1
aS'https://www.clarin.com/politica/Massa-celebro-Twitter-reeleccion-indefinida_0_1634236579.html'
p2
aS'https://www.clarin.com/ieco/economia/crisis-fruta-crecio-importacion-Chile_0_1633636684.html'
p3
aS'https://www.clarin.com/sociedad/Increible-Hospital-Clinicas-fuselaje-funciona_0_1633636803.html'
p4
aS'https://www.clarin.com/politica/gratificaciones-retiro-laboral-pagan-Ganancias_0_1634236573.html'
p5
a.