(lp0
Vhttps://www.clarin.com/politica/Luego-declaracion-Farina-camaras-seguridad_0_1555644599.html
p1
aVhttps://www.clarin.com/sociedad/eterno-Playboy-Hugh-Hefner-cumple_0_1555044776.html
p2
aVhttps://www.clarin.com/sociedad/eterno-Playboy-Hugh-Hefner-cumple_0_1555044776.html
p3
aVhttps://www.clarin.com/sociedad/Mundos-intimos-heredera-escritor-fracasado_0_1555044884.html
p4
aVhttps://www.clarin.com/sociedad/Mundos-intimos-heredera-escritor-fracasado_0_1555044884.html
p5
aVhttps://www.clarin.com/sociedad/prejuicios_0_1555044901.html
p6
a.