(lp0
S'https://www.clarin.com/sociedad/dengue-vacuna-brote-mosquito-prevenir-misiones-ministro-sanofi_0_1499850315.html'
p1
aS'https://www.clarin.com/sociedad/dengue-vacuna-brote-mosquito-prevenir-misiones-ministro-sanofi_0_1499850315.html'
p2
aS'https://www.clarin.com/sociedad/mes-murieron-animales-zoo-Mendoza_0_1499850310.html'
p3
aS'https://www.clarin.com/sociedad/mes-murieron-animales-zoo-Mendoza_0_1499850310.html'
p4
aS'https://www.clarin.com/politica/triple_crimen-vidal_0_1499850312.html'
p5
aS'https://www.clarin.com/politica/triple_crimen-vidal_0_1499850312.html'
p6
aS'https://www.clarin.com/politica/Patricia-Bullrich-Santa-Fe-encabezar_0_1499850264.html'
p7
aS'https://www.clarin.com/politica/Patricia-Bullrich-Santa-Fe-encabezar_0_1499850264.html'
p8
aS'https://www.clarin.com/sociedad/yates-lujosos-Salon-Nautico-Londres_0_1499850256.html'
p9
aS'https://www.clarin.com/sociedad/yates-lujosos-Salon-Nautico-Londres_0_1499850256.html'
p10
a.