(lp0
S'https://www.clarin.com/sociedad/argentinas-infieles-America-Latina_0_1532847008.html'
p1
aS'https://www.clarin.com/sociedad/numeros-mision-espacial-historica_0_1532847013.html'
p2
aS'https://www.clarin.com/sociedad/numeros-mision-espacial-historica_0_1532847013.html'
p3
aS'https://www.clarin.com/ieco/economia/socio-YPF-acusado-conspiracion-EEUU_0_1532847009.html'
p4
aS'https://www.clarin.com/ieco/economia/socio-YPF-acusado-conspiracion-EEUU_0_1532847009.html'
p5
aS'https://www.clarin.com/sociedad/solo-aparecieron-delfines-muertos-Costa_0_1532847006.html'
p6
aS'https://www.clarin.com/sociedad/solo-aparecieron-delfines-muertos-Costa_0_1532847006.html'
p7
aS'https://www.clarin.com/politica/Macri-Tecnopolis-pedido-humildad-Franco_0_1532847001.html'
p8
aS'https://www.clarin.com/politica/Macri-Tecnopolis-pedido-humildad-Franco_0_1532847001.html'
p9
aS'https://www.clarin.com/politica/Advierten-crecimiento-consumo-barrios-humildes_0_1532846998.html'
p10
aS'https://www.clarin.com/politica/Advierten-crecimiento-consumo-barrios-humildes_0_1532846998.html'
p11
aS'https://www.clarin.com/politica/Guerra-despachos-diputada-destrabar-conflicto_0_1532846986.html'
p12
aS'https://www.clarin.com/politica/Guerra-despachos-diputada-destrabar-conflicto_0_1532846986.html'
p13
aS'https://www.clarin.com/sociedad/Video-cayo-nene-dieron-cuenta_0_1532846991.html'
p14
aS'https://www.clarin.com/sociedad/Video-cayo-nene-dieron-cuenta_0_1532846991.html'
p15
a.