(lp0
S'https://www.clarin.com/sociedad/pinamar-carilo-cuatriciclos-tragedia-muerte-drones-controles_0_1502250039.html'
p1
aS'https://www.clarin.com/sociedad/Alfombra-roja-botinera-looks-mujeres_0_1502250046.html'
p2
aS'https://www.clarin.com/sociedad/Pusieron-mansion-Playboy-Hefner-quiere_0_1502249990.html'
p3
a.