(lp0
Vhttps://www.clarin.com/sociedad/crimen-mensajes-texto-intendente-mujer_0_1534046946.html
p1
aVhttps://www.clarin.com/sociedad/crimen-mensajes-texto-intendente-mujer_0_1534046946.html
p2
aVhttps://www.clarin.com/politica/Macri-va-Vendimia-manda-tropa_0_1534046943.html
p3
aVhttps://www.clarin.com/politica/Macri-va-Vendimia-manda-tropa_0_1534046943.html
p4
aVhttps://www.clarin.com/sociedad/Porristas-EEUU-recluta-chicas-argentinas_0_1534046935.html
p5
aVhttps://www.clarin.com/sociedad/Porristas-EEUU-recluta-chicas-argentinas_0_1534046935.html
p6
aVhttps://www.clarin.com/sociedad/Instalaran-avion-ciudad-funcionara-restaurante_0_1534046922.html
p7
aVhttps://www.clarin.com/sociedad/Instalaran-avion-ciudad-funcionara-restaurante_0_1534046922.html
p8
a.