(lp0
S'https://www.clarin.com/sociedad/Hoy-dejo-salir-The-Independet_0_1547245447.html'
p1
aS'https://www.clarin.com/sociedad/Hoy-dejo-salir-The-Independet_0_1547245447.html'
p2
aS'https://www.clarin.com/politica/Lazaro-Baez-Echegaray-Alicia-Kirchner_0_1547245446.html'
p3
aS'https://www.clarin.com/politica/Lazaro-Baez-Echegaray-Alicia-Kirchner_0_1547245446.html'
p4
aS'https://www.clarin.com/politica/Murio-gremialista-Mary-Sanchez-impulsoras_0_1547245432.html'
p5
aS'https://www.clarin.com/politica/Detectan-sobreprecios-Aerolineas-ligada-SIDE_0_1546645642.html'
p6
aS'https://www.clarin.com/politica/Detectan-sobreprecios-Aerolineas-ligada-SIDE_0_1546645642.html'
p7
aS'https://www.clarin.com/politica/Suspenden-division-empresas-Lopez_0_1547245418.html'
p8
aS'https://www.clarin.com/sociedad/Mundos-intimos-Empece-hablar-politica_0_1545445877.html'
p9
aS'https://www.clarin.com/sociedad/Mundos-intimos-Empece-hablar-politica_0_1545445877.html'
p10
aS'https://www.clarin.com/sociedad/pensadora-infancia_0_1545445880.html'
p11
a.