(lp0
S'https://www.clarin.com/politica/Lazaro-Baez-Tribunales-supuesta-Cristina-Casanello_0_1601239889.html'
p1
aS'https://www.clarin.com/ieco/economia/Gobierno-designo-autoridades-UIF_0_1601239896.html'
p2
aS'https://www.clarin.com/politica/Ercolini-Cristobal-Lopez-Ricardo-Echegaray_0_1601239891.html'
p3
a.