(lp0
Vhttps://www.clarin.com/politica/fortuna-Lazaro-Baez-patrimonio-millones_0_1690631009.html
p1
aVhttps://www.clarin.com/politica/fortuna-Lazaro-Baez-patrimonio-millones_0_1690631009.html
p2
aVhttps://www.clarin.com/sociedad/Encontro-pareja-calle-mato-suicido_0_1690631008.html
p3
aVhttps://www.clarin.com/sociedad/Encontro-pareja-calle-mato-suicido_0_1690631008.html
p4
aVhttps://www.clarin.com/politica/emergencia-social-Diputados-calienta-Congreso_0_1690630982.html
p5
aVhttps://www.clarin.com/politica/emergencia-social-Diputados-calienta-Congreso_0_1690630982.html
p6
aVhttps://www.clarin.com/politica/Elaskar-prestado-departamento-Puerto-Madero_0_1690630988.html
p7
aVhttps://www.clarin.com/politica/Elaskar-prestado-departamento-Puerto-Madero_0_1690630988.html
p8
aVhttps://www.clarin.com/politica/Gobierno-CGT-empresarios-mesa-miercoles_0_1690630992.html
p9
aVhttps://www.clarin.com/politica/Gobierno-CGT-empresarios-mesa-miercoles_0_1690630992.html
p10
a.