(lp0
S'https://www.clarin.com/politica/Michetti-vera-manana-Papa_0_1688231277.html'
p1
aS'https://www.clarin.com/politica/Aprobo-Senado-inversiones-Casa-Rosada_0_1688231275.html'
p2
aS'https://www.clarin.com/sociedad/Ahora-tragos-cocinan_0_1687631365.html'
p3
aS'https://www.clarin.com/politica/Caballo-Suarez-piquetes-acuaticos-extorsion_0_1688231246.html'
p4
aS'https://www.clarin.com/sociedad/guerra-gaucha-siglo-XXII_0_1688231263.html'
p5
a.