(lp0
S'https://www.clarin.com/sociedad/Turbulencias-peligro-fenomeno-vez-frecuente_0_1590441107.html'
p1
aS'https://www.clarin.com/politica/Primer-examen-Malcorra-Naciones-Unidas_0_1590441100.html'
p2
aS'https://www.clarin.com/politica/reves-Echegaray-Justicia_0_1590441101.html'
p3
aS'https://www.clarin.com/politica/Rechazaron-recurso-amigo-Farina-Corte_0_1590441105.html'
p4
a.