(lp0
S'https://www.clarin.com/sociedad/barba-Cipolletti-empleados_municipales-Rio_Negro-prohibe-afeitar_0_1498050443.html'
p1
aS'https://www.clarin.com/sociedad/gato-mono-desato-polemica-Facebook_0_1498050486.html'
p2
aS'https://www.clarin.com/sociedad/presentadora-tiempo-disparo-rating_0_1498050454.html'
p3
a.