(lp0
Vhttps://www.clarin.com/politica/senadores-peronistas-Arribas-Majdalani-AFI_0_1630037050.html
p1
aVhttps://www.clarin.com/politica/senadores-peronistas-Arribas-Majdalani-AFI_0_1630037050.html
p2
aVhttps://www.clarin.com/sociedad/Incendiaron-escuela-Hurlingham_0_1630037047.html
p3
aVhttps://www.clarin.com/sociedad/Incendiaron-escuela-Hurlingham_0_1630037047.html
p4
aVhttps://www.clarin.com/sociedad/Denuncia-jovenes-violaron-departamento-Recoleta_0_1630037042.html
p5
aVhttps://www.clarin.com/sociedad/Denuncia-jovenes-violaron-departamento-Recoleta_0_1630037042.html
p6
aVhttps://www.clarin.com/ieco/Fuga-talentos-Google-Capital-Riesgo_0_1630037040.html
p7
aVhttps://www.clarin.com/politica/Vido-mano-Macri-tema-tarifas_0_1630037037.html
p8
aVhttps://www.clarin.com/politica/Vido-mano-Macri-tema-tarifas_0_1630037037.html
p9
aVhttps://www.clarin.com/sociedad/Hallan-genetica-dificulta-propagacion-VIH_0_1630037025.html
p10
aVhttps://www.clarin.com/sociedad/Hallan-genetica-dificulta-propagacion-VIH_0_1630037025.html
p11
a.