(lp0
S'https://www.clarin.com/sociedad/Imputaron-Gustavo-Cordera-apologia-crimen_0_1634836569.html'
p1
aS'https://www.clarin.com/sociedad/Imputaron-Gustavo-Cordera-apologia-crimen_0_1634836569.html'
p2
aS'https://www.clarin.com/ieco/Banco-Provincia-invertira-millones-sucursales_0_1634836560.html'
p3
aS'https://www.clarin.com/ieco/Banco-Provincia-invertira-millones-sucursales_0_1634836560.html'
p4
aS'https://www.clarin.com/politica/Bonadio-peritaje-Sauces-inmobiliaria-Kirchner_0_1634236585.html'
p5
aS'https://www.clarin.com/politica/Bonadio-peritaje-Sauces-inmobiliaria-Kirchner_0_1634236585.html'
p6
aS'https://www.clarin.com/ieco/economia/Agroindustria-afirman-prorrogara-retenciones-soja_0_1634836556.html'
p7
aS'https://www.clarin.com/ieco/economia/Agroindustria-afirman-prorrogara-retenciones-soja_0_1634836556.html'
p8
aS'https://www.clarin.com/ieco/Sturzenegger-descarto-nueva-devaluacion_0_1634836555.html'
p9
aS'https://www.clarin.com/ieco/Sturzenegger-descarto-nueva-devaluacion_0_1634836555.html'
p10
aS'https://www.clarin.com/sociedad/Chocotorta-dulce-polemica_0_1634836513.html'
p11
aS'https://www.clarin.com/sociedad/Chocotorta-dulce-polemica_0_1634836513.html'
p12
a.