(lp0
S'https://www.clarin.com/opinion/Gobierno-marcha-velocidades_0_1549045497.html'
p1
aS'https://www.clarin.com/opinion/explosivo-coctel-islamismo-terrorismo_0_1549045485.html'
p2
aS'https://www.clarin.com/politica/Austral-constructora-Baez-operar-quiebra_0_1549045570.html'
p3
aS'https://www.clarin.com/politica/Austral-constructora-Baez-operar-quiebra_0_1549045570.html'
p4
aS'https://www.clarin.com/sociedad/colectivo-ex-mato-punaladas_0_1549045573.html'
p5
aS'https://www.clarin.com/politica/Ganancias-sindicalismo-oposicion-apuran-cambios_0_1549045566.html'
p6
aS'https://www.clarin.com/politica/Ganancias-sindicalismo-oposicion-apuran-cambios_0_1549045566.html'
p7
aS'https://www.clarin.com/politica/Cristobal-Lopez-Justicia-medida-AFIP_0_1549045499.html'
p8
aS'https://www.clarin.com/politica/Cristobal-Lopez-Justicia-medida-AFIP_0_1549045499.html'
p9
aS'https://www.clarin.com/politica/corrupcion-incordio-Macri_0_1549045595.html'
p10
aS'https://www.clarin.com/politica/corrupcion-incordio-Macri_0_1549045595.html'
p11
a.