(lp0
Vhttps://www.clarin.com/sociedad/granadero-selfie-caballo-ahora-video_0_1612038793.html
p1
aVhttps://www.clarin.com/sociedad/granadero-selfie-caballo-ahora-video_0_1612038793.html
p2
aVhttps://www.clarin.com/politica/Vidal-cuenta-conocio-separo-marido_0_1612038813.html
p3
aVhttps://www.clarin.com/politica/Vidal-cuenta-conocio-separo-marido_0_1612038813.html
p4
aVhttps://www.clarin.com/sociedad/ANMAT-chocolates-presencia-sustancias-cancerigenas_0_1612038807.html
p5
aVhttps://www.clarin.com/sociedad/ANMAT-chocolates-presencia-sustancias-cancerigenas_0_1612038807.html
p6
aVhttps://www.clarin.com/politica/Macri-Voy-obsesivamente-consumir-energia_0_1612038809.html
p7
aVhttps://www.clarin.com/politica/Macri-Voy-obsesivamente-consumir-energia_0_1612038809.html
p8
aVhttps://www.clarin.com/politica/Baez-volver-Sur-excepcion-Martin_0_1612038804.html
p9
aVhttps://www.clarin.com/politica/Baez-volver-Sur-excepcion-Martin_0_1612038804.html
p10
a.