(lp0
S'https://www.clarin.com/politica/Prat-Gay-seguramente-aguinaldo-pagara-ganancias_0_1660034158.html'
p1
aS'https://www.clarin.com/politica/Designaron-nuevas-autoridades-ADEPA_0_1660034156.html'
p2
aS'https://www.clarin.com/politica/Baez-pidio-pericia-psiquiatrica-Farina_0_1660034099.html'
p3
aS'https://www.clarin.com/politica/Bullrich-presento-protocolo-proteger-periodistas_0_1660034155.html'
p4
aS'https://www.clarin.com/politica/acuerdos-pais-pais-recortaran-campana-antartica_0_1660034138.html'
p5
a.