(lp0
S'https://www.clarin.com/politica/Peluquero-oficial-Chucky-reclama_0_1673832709.html'
p1
aS'https://www.clarin.com/sociedad/Asesinaron-abuela-oculto-logro-sobrevivir_0_1673832704.html'
p2
aS'https://www.clarin.com/sociedad/Bautizaran-primera-calle-nombre-victima_0_1673832701.html'
p3
aS'https://www.clarin.com/sociedad/instructor-artes-marciales-destrozo-familia_0_1673832703.html'
p4
aS'https://www.clarin.com/sociedad/NiUnaMenos-desgarradora-historia-Karina-Abregu_0_1674432543.html'
p5
aS'https://www.clarin.com/politica/Lanata-insulto-Cristina-dicho-hombre_0_1673832705.html'
p6
aS'https://www.clarin.com/politica/Negociar-mirada-frente-social_0_1674432545.html'
p7
aS'https://www.clarin.com/sociedad/Mendoza-provincia-conmocionada-femicidios_0_1673832702.html'
p8
a.