(lp0
S'https://www.clarin.com/politica/Roberto_Garcia_Moritan-cancilleria-cumbre_nuclear_0_1507649524.html'
p1
aS'https://www.clarin.com/sociedad/pico-arana-jardin-casa-murio_0_1507649525.html'
p2
aS'https://www.clarin.com/politica/Davos-New_York_Times-Macri-Biden-Trudeau_0_1507649538.html'
p3
aS'https://www.clarin.com/politica/Petroleras-Mauricio_Macri-despidos-Casa_Rosada-Mario_Das_Neves_0_1507649518.html'
p4
aS'https://www.clarin.com/sociedad/espanol-segunda-lengua-usada-sociales_0_1507649531.html'
p5
aS'https://www.clarin.com/sociedad/Video-magico-grande-dificil-mundo_0_1507649498.html'
p6
aS'https://www.clarin.com/ieco/tecnologia/bitcoin-hora-dificil_0_1507649532.html'
p7
aS'https://www.clarin.com/politica/Imputaron-Perez-Corradi-Triple-Crimen_0_1507649527.html'
p8
aS'https://www.clarin.com/politica/Agustin-Rossi-derribo-asemeja-instaurar_0_1507649533.html'
p9
a.