(lp0
Vhttps://www.clarin.com/sociedad/tierra-ciudad-meditacion-grande-historia_0_1538246429.html
p1
aVhttps://www.clarin.com/sociedad/tierra-ciudad-meditacion-grande-historia_0_1538246429.html
p2
aVhttps://www.clarin.com/ieco/economia/Oficializan-subsidio-exportacion-petroleo_0_1538246426.html
p3
aVhttps://www.clarin.com/ieco/economia/Oficializan-subsidio-exportacion-petroleo_0_1538246426.html
p4
aVhttps://www.clarin.com/ieco/economia/dolar-baja-tercera-jornada-consecutiva_0_1538246423.html
p5
aVhttps://www.clarin.com/ieco/economia/dolar-baja-tercera-jornada-consecutiva_0_1538246423.html
p6
aVhttps://www.clarin.com/sociedad/Aerolineas-aterrizo-emergencia-amenaza-bomba_0_1538246401.html
p7
aVhttps://www.clarin.com/sociedad/Aerolineas-aterrizo-emergencia-amenaza-bomba_0_1538246401.html
p8
aVhttps://www.clarin.com/sociedad/Argentinos-meditacion-historia-energia-fuerte_0_1538246385.html
p9
aVhttps://www.clarin.com/sociedad/Argentinos-meditacion-historia-energia-fuerte_0_1538246385.html
p10
aVhttps://www.clarin.com/politica/Maximo-Cristina-ahora-disfrutando-nietos_0_1538246404.html
p11
aVhttps://www.clarin.com/politica/Maximo-Cristina-ahora-disfrutando-nietos_0_1538246404.html
p12
a.