(lp0
S'https://www.clarin.com/sociedad/China-termino-mayor-represa-mundo_0_1653434691.html'
p1
aS'https://www.clarin.com/sociedad/China-termino-mayor-represa-mundo_0_1653434691.html'
p2
aS'https://www.clarin.com/politica/Gobierno-maquinas-cambia-negocio-electronico_0_1653434684.html'
p3
aS'https://www.clarin.com/politica/Gobierno-maquinas-cambia-negocio-electronico_0_1653434684.html'
p4
aS'https://www.clarin.com/politica/Pinedo-aclara-Malvinas-viajar-negociacion_0_1653434683.html'
p5
aS'https://www.clarin.com/politica/Pinedo-aclara-Malvinas-viajar-negociacion_0_1653434683.html'
p6
aS'https://www.clarin.com/sociedad/Rio-celebraron-Juegos-Olimpicos-perros_0_1653434677.html'
p7
aS'https://www.clarin.com/sociedad/Rio-celebraron-Juegos-Olimpicos-perros_0_1653434677.html'
p8
a.