(lp0
S'https://www.clarin.com/politica/Efedrina-Anibal-Fernandez-Perez-Corradi_0_1609639137.html'
p1
aS'https://www.clarin.com/politica/Bicentenario-Macri-conformarse-Juan-Carlos_0_1609639127.html'
p2
aS'https://www.clarin.com/sociedad/Presentan-solucion-matematica-llevaria-millones_0_1609639131.html'
p3
aS'https://www.clarin.com/politica/ministro-Macri-intendente-Massa-previa_0_1609639135.html'
p4
aS'https://www.clarin.com/ieco/clase-media-sufre-suba-precios_0_1609639143.html'
p5
a.