(lp0
Vhttps://www.clarin.com/ieco/economia/pymes-ley-antidespidos_0_1562843836.html
p1
aVhttps://www.clarin.com/sociedad/cirujano-Lotocki-acusa-mala-praxis_0_1562843835.html
p2
aVhttps://www.clarin.com/sociedad/cirujano-Lotocki-acusa-mala-praxis_0_1562843835.html
p3
aVhttps://www.clarin.com/sociedad/Afirman-drogas-ONU-oportunidad-perdida_0_1562843833.html
p4
aVhttps://www.clarin.com/sociedad/Afirman-drogas-ONU-oportunidad-perdida_0_1562843833.html
p5
aVhttps://www.clarin.com/sociedad/Costa-Salguero-piden-indagatoria-electronica_0_1562843829.html
p6
aVhttps://www.clarin.com/sociedad/Costa-Salguero-piden-indagatoria-electronica_0_1562843829.html
p7
aVhttps://www.clarin.com/ieco/economia/Cae-confianza-consumidor_0_1562843827.html
p8
aVhttps://www.clarin.com/ieco/economia/Cae-confianza-consumidor_0_1562843827.html
p9
aVhttps://www.clarin.com/sociedad/Dengue-confirman-muertos-sola-ciudad_0_1562843824.html
p10
aVhttps://www.clarin.com/sociedad/Dengue-confirman-muertos-sola-ciudad_0_1562843824.html
p11
aVhttps://www.clarin.com/sociedad/grave-derrumbe-instituto-menores-Balcarce_0_1562843823.html
p12
aVhttps://www.clarin.com/sociedad/grave-derrumbe-instituto-menores-Balcarce_0_1562843823.html
p13
a.