(lp0
Vhttps://www.clarin.com/sociedad/Recoleta-apunalo-novia-modelo-profugo_0_1679232116.html
p1
aVhttps://www.clarin.com/sociedad/Recoleta-apunalo-novia-modelo-profugo_0_1679232116.html
p2
aVhttps://www.clarin.com/politica/Frigerio-Massa-Messi-Boateng-Macri_0_1679232113.html
p3
aVhttps://www.clarin.com/politica/Frigerio-Massa-Messi-Boateng-Macri_0_1679232113.html
p4
aVhttps://www.clarin.com/sociedad/mayores-misterios-aviacion-cerca-resolverse_0_1679232110.html
p5
aVhttps://www.clarin.com/sociedad/mayores-misterios-aviacion-cerca-resolverse_0_1679232110.html
p6
aVhttps://www.clarin.com/sociedad/time-lapse-NASA-muestra-perdio-Artico_0_1679232111.html
p7
aVhttps://www.clarin.com/sociedad/time-lapse-NASA-muestra-perdio-Artico_0_1679232111.html
p8
aVhttps://www.clarin.com/ieco/reservas-debajo-US-millones-BCRA_0_1679232108.html
p9
aVhttps://www.clarin.com/ieco/reservas-debajo-US-millones-BCRA_0_1679232108.html
p10
aVhttps://www.clarin.com/sociedad/apenas-monto-estafa-millones-abundancia_0_1679232102.html
p11
aVhttps://www.clarin.com/sociedad/apenas-monto-estafa-millones-abundancia_0_1679232102.html
p12
a.