(lp0
S'https://www.clarin.com/politica/Ahora-viajar-Fragata-Libertad-Internet_0_1563443805.html'
p1
aS'https://www.clarin.com/politica/Ahora-viajar-Fragata-Libertad-Internet_0_1563443805.html'
p2
aS'https://www.clarin.com/ieco/economia/Tesoro-EEUU-felicito-Argentina-conflicto_0_1563443808.html'
p3
a.