(lp0
Vhttps://www.clarin.com/politica/Cristina-declaro-patrimonio-millones-pesos_0_1588641210.html
p1
aVhttps://www.clarin.com/politica/Cristina-declaro-patrimonio-millones-pesos_0_1588641210.html
p2
aVhttps://www.clarin.com/sociedad/Presentan-proyecto-desembocar-creacion-laboratorio_0_1588641209.html
p3
aVhttps://www.clarin.com/sociedad/Presentan-proyecto-desembocar-creacion-laboratorio_0_1588641209.html
p4
aVhttps://www.clarin.com/politica/Prat-Gay-Cabrera-Aranguren-declaraciones_0_1588641208.html
p5
aVhttps://www.clarin.com/politica/Prat-Gay-Cabrera-Aranguren-declaraciones_0_1588641208.html
p6
aVhttps://www.clarin.com/politica/Colegio-Abogados-suspendio-licencia-Zaffaroni_0_1588641205.html
p7
aVhttps://www.clarin.com/politica/Colegio-Abogados-suspendio-licencia-Zaffaroni_0_1588641205.html
p8
aVhttps://www.clarin.com/sociedad/Nuevos-macabros-hallazgos-Templo-Tigre_0_1588641199.html
p9
aVhttps://www.clarin.com/sociedad/Nuevos-macabros-hallazgos-Templo-Tigre_0_1588641199.html
p10
aVhttps://www.clarin.com/politica/riesgos-embargo-Fragata-Libertad-EEUU_0_1588641197.html
p11
aVhttps://www.clarin.com/politica/riesgos-embargo-Fragata-Libertad-EEUU_0_1588641197.html
p12
a.