(lp0
S'https://www.clarin.com/sociedad/Video-presentaron-tiernos-cachorros-panda_0_1660034046.html'
p1
aS'https://www.clarin.com/sociedad/Video-presentaron-tiernos-cachorros-panda_0_1660034046.html'
p2
aS'https://www.clarin.com/ieco/Isela-Costantini-Aerolineas-US-millones_0_1660034045.html'
p3
aS'https://www.clarin.com/ieco/Isela-Costantini-Aerolineas-US-millones_0_1660034045.html'
p4
aS'https://www.clarin.com/politica/Francisco-Sigo-argentino-todavia-pasaporte_0_1660034040.html'
p5
aS'https://www.clarin.com/politica/Francisco-Sigo-argentino-todavia-pasaporte_0_1660034040.html'
p6
aS'https://www.clarin.com/politica/Papa-vendra-Argentina_0_1660034038.html'
p7
aS'https://www.clarin.com/politica/Papa-vendra-Argentina_0_1660034038.html'
p8
aS'https://www.clarin.com/sociedad/colegio-Bruce-Springsteen-justificar-falta_0_1660034037.html'
p9
aS'https://www.clarin.com/sociedad/colegio-Bruce-Springsteen-justificar-falta_0_1660034037.html'
p10
a.