(lp0
S'https://www.clarin.com/politica/provocador-Ottavis-Vidal-quedes-chiquita_0_1641435859.html'
p1
aS'https://www.clarin.com/politica/provocador-Ottavis-Vidal-quedes-chiquita_0_1641435859.html'
p2
aS'https://www.clarin.com/sociedad/Union-Europea-Apple-US-millones_0_1641435853.html'
p3
aS'https://www.clarin.com/sociedad/Union-Europea-Apple-US-millones_0_1641435853.html'
p4
aS'https://www.clarin.com/politica/Convocar-convocar-acuerdo-social-cuestion_0_1640836081.html'
p5
aS'https://www.clarin.com/ieco/Ciudad-desocupacion-mayor-INDEC_0_1640836016.html'
p6
aS'https://www.clarin.com/ieco/Ciudad-desocupacion-mayor-INDEC_0_1640836016.html'
p7
a.