(lp0
Vhttps://www.clarin.com/ieco/economia/Breve-guia-ley-blanqueo-capitales_0_1606639343.html
p1
aVhttps://www.clarin.com/ieco/economia/Premios-escasos-cumplidores_0_1606639342.html
p2
aVhttps://www.clarin.com/ieco/economia/fuga-capitales-mantuvo-pesar-cepo_0_1606639341.html
p3
aVhttps://www.clarin.com/ieco/economia/capitales-tasas-negativas_0_1606639340.html
p4
aVhttps://www.clarin.com/ieco/economia/capitales-tasas-negativas_0_1606639340.html
p5
aVhttps://www.clarin.com/ieco/economia/Brexit-politico-adicional-impensado-centrales_0_1606639339.html
p6
aVhttps://www.clarin.com/ieco/economia/Brexit-politico-adicional-impensado-centrales_0_1606639339.html
p7
aVhttps://www.clarin.com/sociedad/misterioso-iglesias-organos-grabarse-cantando_0_1606039504.html
p8
aVhttps://www.clarin.com/sociedad/misterioso-iglesias-organos-grabarse-cantando_0_1606039504.html
p9
aVhttps://www.clarin.com/sociedad/increible-historia-Basilica-Lujan-silencio_0_1606039502.html
p10
aVhttps://www.clarin.com/sociedad/increible-historia-Basilica-Lujan-silencio_0_1606039502.html
p11
aVhttps://www.clarin.com/ieco/Gobierno-falta-control-deuda-provincias_0_1606039559.html
p12
a.