(lp0
Vhttps://www.clarin.com/sociedad/adolescentes-jovenes-vulnerables-violencia-genero_0_1577842389.html
p1
aVhttps://www.clarin.com/sociedad/pico-femicidios-da-anos_0_1577842386.html
p2
aVhttps://www.clarin.com/politica/cortocircuitos-FpV-oposicion-posiciones-Congreso_0_1577842385.html
p3
aVhttps://www.clarin.com/politica/cortocircuitos-FpV-oposicion-posiciones-Congreso_0_1577842385.html
p4
aVhttps://www.clarin.com/ieco/CEO-interino-YPF-volvera-aumenta_0_1577842383.html
p5
aVhttps://www.clarin.com/ieco/CEO-interino-YPF-volvera-aumenta_0_1577842383.html
p6
aVhttps://www.clarin.com/ieco/bancos-blanqueo-alcanzara-US-millones_0_1577842382.html
p7
aVhttps://www.clarin.com/ieco/bancos-blanqueo-alcanzara-US-millones_0_1577842382.html
p8
aVhttps://www.clarin.com/politica/dirigente-aparece-video-Oyarbide-esconder_0_1577842379.html
p9
aVhttps://www.clarin.com/politica/dirigente-aparece-video-Oyarbide-esconder_0_1577842379.html
p10
aVhttps://www.clarin.com/politica/Consejo-Nacional-PJ-gobernadores-Gobierno_0_1577842367.html
p11
aVhttps://www.clarin.com/politica/Consejo-Nacional-PJ-gobernadores-Gobierno_0_1577842367.html
p12
a.