(lp0
Vhttps://www.clarin.com/opinion/Uber-ley-progreso-abre-paso_0_1600040129.html
p1
aVhttps://www.clarin.com/opinion/Jorge-Luis-Borges-escritor-caminante_0_1600040127.html
p2
aVhttps://www.clarin.com/politica/Ahora-quieren-celebrities_0_1600639921.html
p3
aVhttps://www.clarin.com/politica/paritaria-Camioneros-trabo-arrancan-paros_0_1600040146.html
p4
aVhttps://www.clarin.com/politica/paritaria-Camioneros-trabo-arrancan-paros_0_1600040146.html
p5
aVhttps://www.clarin.com/politica/Caso-Lopez-Diputados-trata-arrepentido_0_1600040169.html
p6
aVhttps://www.clarin.com/politica/Caso-Lopez-Diputados-trata-arrepentido_0_1600040169.html
p7
aVhttps://www.clarin.com/sociedad/decreto-buscan-mejorar-servicio-celulares_0_1600040157.html
p8
aVhttps://www.clarin.com/sociedad/decreto-buscan-mejorar-servicio-celulares_0_1600040157.html
p9
aVhttps://www.clarin.com/opinion/sutil-arte-venta-ambulante_0_1600040106.html
p10
aVhttps://www.clarin.com/politica/Gobierno-esperan-rompa-pacto-silencio_0_1600040165.html
p11
a.