(lp0
S'https://www.clarin.com/sociedad/Cigarrillos-electronicos-descubren-podrian-provocar_0_1623437794.html'
p1
aS'https://www.clarin.com/politica/presidenta-indagada-vinculo-hotel-Aerolineas_0_1613838693.html'
p2
a.