(lp0
S'https://www.clarin.com/ieco/economia/Economico-politico-analisis-discusion-ideas_0_1672632897.html'
p1
aS'https://www.clarin.com/politica/agravo-situacion-judicial-Cristina-patrimonio_0_1673832607.html'
p2
aS'https://www.clarin.com/ieco/atractivo-bonos-argentinos-mundo-cero_0_1672632900.html'
p3
aS'https://www.clarin.com/ieco/economia/Pagani-Reflotar-Mercosur-prioridad_0_1672632899.html'
p4
aS'https://www.clarin.com/ieco/economia/America-Latina-direccion-Papa-quiere_0_1672632888.html'
p5
aS'https://www.clarin.com/ieco/Frenkel-atrasado-nivel-abrir-economia_0_1673232824.html'
p6
a.