(lp0
S'https://www.clarin.com/politica/Senti-aprovechaban-investigara-Alba-Ines_0_1616838331.html'
p1
aS'https://www.clarin.com/politica/Rafecas-inspeccion-convento-detenido-Lopez_0_1616838318.html'
p2
aS'https://www.clarin.com/sociedad/hotel-hizo-broma-veganos-termino_0_1616838323.html'
p3
aS'https://www.clarin.com/ieco/Advierten-triplicara-partir-proxima-semana_0_1616838330.html'
p4
aS'https://www.clarin.com/sociedad/Facebook-quiere-cambiar-Dia-Amigo_0_1616838320.html'
p5
aS'https://www.clarin.com/ieco/Gobierno-busca-millones-atado-inflacion_0_1616838329.html'
p6
a.