(lp0
S'https://www.clarin.com/sociedad/Violencia-genero-mujeres-anos-afectadas_0_1654634692.html'
p1
aS'https://www.clarin.com/politica/Pichetto-presupuesto-articulos-trampa_0_1654634681.html'
p2
aS'https://www.clarin.com/ieco/economia/Autorizan-ANSeS-retroactivos-Fondo-Garantia_0_1654634688.html'
p3
aS'https://www.clarin.com/ieco/economia/Autorizan-ANSeS-retroactivos-Fondo-Garantia_0_1654634688.html'
p4
aS'https://www.clarin.com/ieco/economia/ventas-shoppings-supermercados-subieron-inflacion_0_1654634682.html'
p5
aS'https://www.clarin.com/ieco/economia/ventas-shoppings-supermercados-subieron-inflacion_0_1654634682.html'
p6
aS'https://www.clarin.com/politica/Ahora-Carrio-denuncio-Loteria-Scioli_0_1654634687.html'
p7
aS'https://www.clarin.com/politica/Ahora-Carrio-denuncio-Loteria-Scioli_0_1654634687.html'
p8
aS'https://www.clarin.com/politica/Macri-faltaba-presentacion-formal-mundo_0_1654634686.html'
p9
aS'https://www.clarin.com/politica/Macri-faltaba-presentacion-formal-mundo_0_1654634686.html'
p10
aS'https://www.clarin.com/opinion/Defensoria-Pueblo-esperando-cubrir-vacante_0_1654634684.html'
p11
aS'https://www.clarin.com/politica/filtracion-revela-offshore-Grupo-Socma_0_1654634678.html'
p12
aS'https://www.clarin.com/politica/filtracion-revela-offshore-Grupo-Socma_0_1654634678.html'
p13
aS'https://www.clarin.com/opinion/Podremos-ver-claro-estadisticas-laborales_0_1654634679.html'
p14
aS'https://www.clarin.com/opinion/Podremos-ver-claro-estadisticas-laborales_0_1654634679.html'
p15
a.