(lp0
S'https://www.clarin.com/sociedad/escenario-usar-Rolling-Stones-Plata_0_1516048699.html'
p1
aS'https://www.clarin.com/sociedad/escenario-usar-Rolling-Stones-Plata_0_1516048699.html'
p2
aS'https://www.clarin.com/sociedad/polemica-marcha-ultramachista-sabado-mundo_0_1516048678.html'
p3
aS'https://www.clarin.com/sociedad/polemica-marcha-ultramachista-sabado-mundo_0_1516048678.html'
p4
aS'https://www.clarin.com/politica/Triple_Crimen-tiroteo-Ranchos-Cristian_Lanatta_0_1516048693.html'
p5
aS'https://www.clarin.com/politica/Triple_Crimen-tiroteo-Ranchos-Cristian_Lanatta_0_1516048693.html'
p6
a.