(lp0
Vhttps://www.clarin.com/sociedad/Juliana-repitio-vestido_0_1627037380.html
p1
aVhttps://www.clarin.com/sociedad/Juliana-repitio-vestido_0_1627037380.html
p2
aVhttps://www.clarin.com/politica/DAIA-decision-Rafecas-Nisman-CFK_0_1627037384.html
p3
aVhttps://www.clarin.com/politica/DAIA-decision-Rafecas-Nisman-CFK_0_1627037384.html
p4
aVhttps://www.clarin.com/politica/Amenaza-bomba-departamento-Macri-Libertador_0_1627037383.html
p5
aVhttps://www.clarin.com/politica/Amenaza-bomba-departamento-Macri-Libertador_0_1627037383.html
p6
aVhttps://www.clarin.com/sociedad/Rio-cocina-pobres-desperdicio-comida_0_1627037374.html
p7
aVhttps://www.clarin.com/sociedad/Rio-cocina-pobres-desperdicio-comida_0_1627037374.html
p8
aVhttps://www.clarin.com/politica/Caso-Lopez-pokemones-dediquen-justicia_0_1627037375.html
p9
aVhttps://www.clarin.com/politica/Caso-Lopez-pokemones-dediquen-justicia_0_1627037375.html
p10
a.