(lp0
S'https://www.clarin.com/politica/macri-intimo-de8a8_0_1518448173.html'
p1
aS'https://www.clarin.com/politica/macri-intimo-de8a8_0_1518448173.html'
p2
aS'https://www.clarin.com/sociedad/Premio-Goya-mejor-Ricardo-Darin_0_1517848608.html'
p3
aS'https://www.clarin.com/sociedad/Premio-Goya-mejor-Ricardo-Darin_0_1517848608.html'
p4
aS'https://www.clarin.com/opinion/Cancer-esperanza-fuerza_de_voluntad-quimioterapia-metastasis-colon_0_1518448172.html'
p5
aS'https://www.clarin.com/opinion/Cancer-esperanza-fuerza_de_voluntad-quimioterapia-metastasis-colon_0_1518448172.html'
p6
aS'https://www.clarin.com/opinion/Silvia_Fesquet-Pasiones_argentinas_0_1518448171.html'
p7
aS'https://www.clarin.com/politica/Randazzo-quiere-volver-politica-contactos_0_1517848601.html'
p8
aS'https://www.clarin.com/politica/Gobierno-avanza-casos-corrupcion-Provincia_0_1517848598.html'
p9
aS'https://www.clarin.com/politica/Gobierno-avanza-casos-corrupcion-Provincia_0_1517848598.html'
p10
aS'https://www.clarin.com/politica/debut-macrismo-denuncias_0_1517848597.html'
p11
aS'https://www.clarin.com/ieco/economia/Deuda-Wall-Street-alerta-fondos_0_1517848595.html'
p12
aS'https://www.clarin.com/ieco/economia/Deuda-Wall-Street-alerta-fondos_0_1517848595.html'
p13
aS'https://www.clarin.com/politica/Inflacion-cruce-Gobierno-consultoras_0_1517848575.html'
p14
aS'https://www.clarin.com/politica/Inflacion-cruce-Gobierno-consultoras_0_1517848575.html'
p15
aS'https://www.clarin.com/politica/canciller-Malcorra-candidata-presidir-ONU_0_1517848557.html'
p16
aS'https://www.clarin.com/politica/canciller-Malcorra-candidata-presidir-ONU_0_1517848557.html'
p17
aS'https://www.clarin.com/politica/vuelta-Randazzo-barba-planes-electorales_0_1518448169.html'
p18
aS'https://www.clarin.com/politica/vuelta-Randazzo-barba-planes-electorales_0_1518448169.html'
p19
aS'https://www.clarin.com/ieco/economia/San-Valentin-fecha-comercial-descorazonadora_0_1518448343.html'
p20
aS'https://www.clarin.com/ieco/economia/dolar-vuelve-llamen_0_1518448341.html'
p21
a.