(lp0
S'https://www.clarin.com/politica/Vidal-inversiones-EEUU-olvida-conurbano_0_1583841707.html'
p1
aS'https://www.clarin.com/politica/Vidal-inversiones-EEUU-olvida-conurbano_0_1583841707.html'
p2
aS'https://www.clarin.com/ieco/economia/Amplian-emision-Bonar-deudas-CIADI_0_1583841658.html'
p3
aS'https://www.clarin.com/ieco/economia/Amplian-emision-Bonar-deudas-CIADI_0_1583841658.html'
p4
aS'https://www.clarin.com/ieco/economia/Cambios-personales-elevaria-reemplazarian-herencia_0_1583841757.html'
p5
aS'https://www.clarin.com/ieco/economia/Cambios-personales-elevaria-reemplazarian-herencia_0_1583841757.html'
p6
aS'https://www.clarin.com/politica/plan-pago-situacion-jubilado_0_1583841809.html'
p7
aS'https://www.clarin.com/politica/plan-pago-situacion-jubilado_0_1583841809.html'
p8
aS'https://www.clarin.com/ieco/economia/combatir-inflacion-Banco-Central-encajes_0_1583841783.html'
p9
a.