(lp0
S'https://www.clarin.com/politica/Macri-primera-entrevista-TV-Publica_0_1543645982.html'
p1
aS'https://www.clarin.com/politica/Vialidad-Nacional-Martin-Baez-irregulares_0_1543646010.html'
p2
aS'https://www.clarin.com/sociedad/combatir-ponen-perchero-social-Ciudad_0_1543645965.html'
p3
aS'https://www.clarin.com/ieco/deuda-crecer-representa-mitad-PBI_0_1543645961.html'
p4
aS'https://www.clarin.com/sociedad/NASA-lanzara-mensaje-terricola-espacio_0_1543645966.html'
p5
aS'https://www.clarin.com/politica/Revelan-Cristobal-Lopez-autopresto-millones_0_1544245570.html'
p6
aS'https://www.clarin.com/ieco/agro-aportaria-US-millones_0_1543645951.html'
p7
aS'https://www.clarin.com/ieco/soga-cuello-tamberos-movilizan_0_1543645934.html'
p8
aS'https://www.clarin.com/politica/Macri-eligio-Lopez-enemigo-empresariado_0_1543645954.html'
p9
aS'https://www.clarin.com/ieco/Argentina-extender-regimen-automotor-Brasil_0_1543645943.html'
p10
aS'https://www.clarin.com/sociedad/Nino-debilita-llovera-fin-otono_0_1543645963.html'
p11
a.