(lp0
Vhttps://www.clarin.com/ieco/Macri-pais-energia-puede-crecer_0_1629437063.html
p1
aVhttps://www.clarin.com/ieco/Macri-pais-energia-puede-crecer_0_1629437063.html
p2
aVhttps://www.clarin.com/politica/Casanello-analiza-Declaraciones-Juradas-Macri_0_1629437060.html
p3
aVhttps://www.clarin.com/politica/Casanello-analiza-Declaraciones-Juradas-Macri_0_1629437060.html
p4
aVhttps://www.clarin.com/sociedad/Discusion-vecinos-skaters-termino-cuchilladas_0_1629437058.html
p5
aVhttps://www.clarin.com/politica/Macri-responde-preguntas-traves-Facebook_0_1629437056.html
p6
aVhttps://www.clarin.com/politica/Macri-responde-preguntas-traves-Facebook_0_1629437056.html
p7
aVhttps://www.clarin.com/politica/futuros-CGT-unificada-advierte-nacional_0_1629437054.html
p8
aVhttps://www.clarin.com/politica/futuros-CGT-unificada-advierte-nacional_0_1629437054.html
p9
aVhttps://www.clarin.com/sociedad/Docentes-bonaerenses-definen-mediodia-manana_0_1629437048.html
p10
aVhttps://www.clarin.com/sociedad/Docentes-bonaerenses-definen-mediodia-manana_0_1629437048.html
p11
a.