(lp0
S'https://www.clarin.com/sociedad/reparos-consumidores-apoyan-boom_0_1562843932.html'
p1
aS'https://www.clarin.com/politica/Cristina-bloquear-candidatos-Macri-Corte_0_1562843948.html'
p2
aS'https://www.clarin.com/politica/Cambiemos-busca-capitalizar-division-massista_0_1562843956.html'
p3
aS'https://www.clarin.com/sociedad/festival-doble-gente-dijo-Ciudad_0_1562843949.html'
p4
aS'https://www.clarin.com/sociedad/polemica-Uber-impone-consumo-cotidiano_0_1562843936.html'
p5
aS'https://www.clarin.com/politica/Malcorra-descarta-candidata-ONU_0_1562843926.html'
p6
aS'https://www.clarin.com/politica/Gobierno-empresas-buscan-inversiones-tecnologia_0_1562843945.html'
p7
a.