(lp0
S'https://www.clarin.com/politica/Mauricio_Macri-Sergio_Massa-Gerardo_Morales-Juan_Manuel_Urtubey_0_1516048396.html'
p1
aS'https://www.clarin.com/ieco/Paritarias-Macri-Ganancias-Jorge_Velazquez_0_1516048399.html'
p2
aS'https://www.clarin.com/ieco/Paritarias-Docentes-Eugenia_Vidal-Baradel_0_1516048403.html'
p3
aS'https://www.clarin.com/ieco/Paritarias-Pena-Macri-CGT-Moyano-UIA-CAC_0_1516048401.html'
p4
aS'https://www.clarin.com/opinion/Decretos-Ejecutivo-peronismo-gobernabilidad_0_1516048409.html'
p5
aS'https://www.clarin.com/ieco/Paritarias-Pena-Macri-CGT-Moyano-UIA-CAC_0_1516048400.html'
p6
aS'https://www.clarin.com/opinion/Triple_fuga-sistema_carcelario-delito-reinsercion_social_0_1516048408.html'
p7
a.