(lp0
Vhttps://www.clarin.com/ieco/contribuyentes-pueden-consultar-AFIP-sabe_0_1628237188.html
p1
aVhttps://www.clarin.com/ieco/contribuyentes-pueden-consultar-AFIP-sabe_0_1628237188.html
p2
aVhttps://www.clarin.com/ieco/Edenor-confirmo-llegar-facturas-saldos_0_1628237187.html
p3
aVhttps://www.clarin.com/ieco/Edenor-confirmo-llegar-facturas-saldos_0_1628237187.html
p4
aVhttps://www.clarin.com/sociedad/iglesia-hombre-recibio-corazon-padre_0_1628237184.html
p5
aVhttps://www.clarin.com/sociedad/iglesia-hombre-recibio-corazon-padre_0_1628237184.html
p6
aVhttps://www.clarin.com/sociedad/Prohiben-cremas-depilatorias-denuncias-reacciones_0_1628237179.html
p7
aVhttps://www.clarin.com/sociedad/Prohiben-cremas-depilatorias-denuncias-reacciones_0_1628237179.html
p8
aVhttps://www.clarin.com/politica/Denuncian-juez-vive-lujo-asiatico_0_1628237174.html
p9
aVhttps://www.clarin.com/politica/Denuncian-juez-vive-lujo-asiatico_0_1628237174.html
p10
aVhttps://www.clarin.com/ieco/corrupcion-revolear-bolsos-paraisos-fiscales_0_1628237173.html
p11
aVhttps://www.clarin.com/politica/Cynthia-Garcia-denuncio-desvalijaron-computadora_0_1628237172.html
p12
aVhttps://www.clarin.com/politica/Cynthia-Garcia-denuncio-desvalijaron-computadora_0_1628237172.html
p13
a.