(lp0
Vhttps://www.clarin.com/sociedad/Crimen-Chiara-novio-penalmente-responsable_0_1630037141.html
p1
aVhttps://www.clarin.com/sociedad/Crimen-Chiara-novio-penalmente-responsable_0_1630037141.html
p2
aVhttps://www.clarin.com/politica/gobierno-responde-dichos-Macri-dictadura_0_1630037136.html
p3
aVhttps://www.clarin.com/politica/gobierno-responde-dichos-Macri-dictadura_0_1630037136.html
p4
aVhttps://www.clarin.com/ieco/economia/Gobierno-publica-licitaron-obras-millones_0_1630037128.html
p5
aVhttps://www.clarin.com/politica/declaracion-completa-Jose-Lopez-Justicia_0_1630037134.html
p6
aVhttps://www.clarin.com/politica/declaracion-completa-Jose-Lopez-Justicia_0_1630037134.html
p7
aVhttps://www.clarin.com/politica/Rio-Turbio-usina-funcionara-carbon_0_1630037119.html
p8
aVhttps://www.clarin.com/politica/Rio-Turbio-usina-funcionara-carbon_0_1630037119.html
p9
a.