(lp0
S'https://www.clarin.com/sociedad/Gobierno-telefonicas-prohibido-TV-satelital_0_1651035068.html'
p1
aS'https://www.clarin.com/politica/Macri-debuta-ONU-pesca-inversores_0_1651035040.html'
p2
aS'https://www.clarin.com/politica/Gils-Carbo-oxigeno-politico-agosto_0_1651035071.html'
p3
aS'https://www.clarin.com/sociedad/volo-Europa-EEUU-paises-vecinos_0_1651035077.html'
p4
a.