(lp0
Vhttps://www.clarin.com/politica/Marijuan-Cancilleria-exigir-informacion-Suiza_0_1580841994.html
p1
aVhttps://www.clarin.com/politica/Marijuan-Cancilleria-exigir-informacion-Suiza_0_1580841994.html
p2
aVhttps://www.clarin.com/sociedad/tendencia-fiestas-electronicas-hora-desayuno_0_1580841981.html
p3
aVhttps://www.clarin.com/sociedad/tendencia-fiestas-electronicas-hora-desayuno_0_1580841981.html
p4
aVhttps://www.clarin.com/sociedad/barrio-arremango-escuela-recupere_0_1580841992.html
p5
aVhttps://www.clarin.com/sociedad/barrio-arremango-escuela-recupere_0_1580841992.html
p6
a.