(lp0
S'https://www.clarin.com/ieco/economia/demora-venta-mayor-transportadora-gas_0_1603039853.html'
p1
aS'https://www.clarin.com/politica/medida-rapida-corazon-coartada_0_1603639627.html'
p2
aS'https://www.clarin.com/politica/Argentina-elegida-sede-G-20_0_1603039808.html'
p3
aS'https://www.clarin.com/politica/Oficializan-formula-calcular-nuevas-jubilaciones_0_1603639634.html'
p4
aS'https://www.clarin.com/politica/Justicia-levanto-secreto-familia-Kirchner_0_1603039822.html'
p5
aS'https://www.clarin.com/politica/Hector-Mendez-compania-maneja-silencio_0_1603039764.html'
p6
a.