(lp0
S'https://www.clarin.com/politica/Mostraron-TV-cheque-probaria-Rosadita_0_1547845544.html'
p1
aS'https://www.clarin.com/politica/Mostraron-TV-cheque-probaria-Rosadita_0_1547845544.html'
p2
aS'https://www.clarin.com/politica/Fabrica-Aviones-Cordoba-investigan-millonarias_0_1547845553.html'
p3
aS'https://www.clarin.com/politica/Fabrica-Aviones-Cordoba-investigan-millonarias_0_1547845553.html'
p4
aS'https://www.clarin.com/politica/Tension-Aerolineas-nuevas-ventajas-competidoras_0_1548445143.html'
p5
aS'https://www.clarin.com/politica/Tension-Aerolineas-nuevas-ventajas-competidoras_0_1548445143.html'
p6
aS'https://www.clarin.com/politica/Tension-Aerolineas-nuevas-ventajas-competidoras_0_1548445142.html'
p7
aS'https://www.clarin.com/politica/Tension-Aerolineas-nuevas-ventajas-competidoras_0_1548445142.html'
p8
aS'https://www.clarin.com/politica/techo-senadores-responden-gobernadores_0_1547845550.html'
p9
aS'https://www.clarin.com/politica/techo-senadores-responden-gobernadores_0_1547845550.html'
p10
aS'https://www.clarin.com/politica/Limpieza-AFI-Gobierno-lanzara-espias_0_1547845528.html'
p11
aS'https://www.clarin.com/politica/Limpieza-AFI-Gobierno-lanzara-espias_0_1547845528.html'
p12
a.