(lp0
Vhttps://www.clarin.com/ieco/economia/Extienden-meses-programa-Ahora_0_1550245135.html
p1
aVhttps://www.clarin.com/ieco/economia/Extienden-meses-programa-Ahora_0_1550245135.html
p2
aVhttps://www.clarin.com/sociedad/General-Madrid-cultivar-marihuana-medicinal_0_1550245123.html
p3
aVhttps://www.clarin.com/sociedad/General-Madrid-cultivar-marihuana-medicinal_0_1550245123.html
p4
aVhttps://www.clarin.com/politica/Ahora-Scioli-elogia-Elisa-Carrio_0_1550245120.html
p5
aVhttps://www.clarin.com/politica/Ahora-Scioli-elogia-Elisa-Carrio_0_1550245120.html
p6
aVhttps://www.clarin.com/politica/protesta-estatales-suspendio-anuncio-colectivos_0_1550245116.html
p7
aVhttps://www.clarin.com/politica/protesta-estatales-suspendio-anuncio-colectivos_0_1550245116.html
p8
aVhttps://www.clarin.com/politica/Pichetto-votacion-Recupere-capacidad-pienso_0_1550245102.html
p9
aVhttps://www.clarin.com/politica/Pichetto-votacion-Recupere-capacidad-pienso_0_1550245102.html
p10
aVhttps://www.clarin.com/sociedad/jubilada-nado-horas-alcanzar-crucero_0_1550245100.html
p11
aVhttps://www.clarin.com/sociedad/jubilada-nado-horas-alcanzar-crucero_0_1550245100.html
p12
a.