(lp0
S'https://www.clarin.com/sociedad/rio-fatalidad_0_1552645134.html'
p1
aS'https://www.clarin.com/sociedad/rio-fatalidad_0_1552645134.html'
p2
aS'https://www.clarin.com/politica/Malcorra-escandalo-Panama-Papers-Argentina_0_1552645104.html'
p3
aS'https://www.clarin.com/politica/Malcorra-escandalo-Panama-Papers-Argentina_0_1552645104.html'
p4
aS'https://www.clarin.com/ieco/economia/Entra-circulacion-nuevo-billete_0_1552645099.html'
p5
aS'https://www.clarin.com/ieco/economia/Entra-circulacion-nuevo-billete_0_1552645099.html'
p6
a.