(lp0
S'https://www.clarin.com/sociedad/Kate-Moss-cumple-anos_0_1505249742.html'
p1
aS'https://www.clarin.com/politica/Protesta-Capital-liberen-Milagro-Sala_0_1505249781.html'
p2
aS'https://www.clarin.com/sociedad/tragedia-uruguay-familia_0_1505249782.html'
p3
aS'https://www.clarin.com/politica/Milagro-calabozo-lleva-huelga-hambre_0_1505249787.html'
p4
aS'https://www.clarin.com/politica/Milagro_Sala-Gerardo_Morales_0_1505249777.html'
p5
a.