(lp0
S'https://www.clarin.com/politica/Rogelio-Frigerio-Plan-Belgrano-Diputados_0_1662433927.html'
p1
aS'https://www.clarin.com/politica/Macri-bajar-tension-Vidal-Bullrich_0_1662433931.html'
p2
aS'https://www.clarin.com/sociedad/quejas-Barrick-volvio-operar-Veladero_0_1662433928.html'
p3
aS'https://www.clarin.com/politica/bancarios-paran-horas-miercoles-jueves_0_1662433934.html'
p4
aS'https://www.clarin.com/sociedad/Ley-Dislexia-nuevo-paso-Congreso_0_1662433929.html'
p5
aS'https://www.clarin.com/sociedad/Queria-youtuber-acumulo-deuda-Google_0_1662433903.html'
p6
a.