(lp0
S'https://www.clarin.com/sociedad/Video-rescataron-perros-ambientes-Once_0_1544845660.html'
p1
aS'https://www.clarin.com/sociedad/Video-rescataron-perros-ambientes-Once_0_1544845660.html'
p2
aS'https://www.clarin.com/politica/diputado-mosca-quiere-aclarar-voto_0_1544845710.html'
p3
aS'https://www.clarin.com/sociedad/prision-hombre-acosar-sexualmente-Facebook_0_1544845708.html'
p4
aS'https://www.clarin.com/sociedad/prision-hombre-acosar-sexualmente-Facebook_0_1544845708.html'
p5
aS'https://www.clarin.com/sociedad/Murio-Andy-Grove-computadoras-personales_0_1544845698.html'
p6
aS'https://www.clarin.com/sociedad/Murio-Andy-Grove-computadoras-personales_0_1544845698.html'
p7
aS'https://www.clarin.com/ieco/economia/Dietrich-Aerolineas-terminara-US-millones_0_1544845697.html'
p8
aS'https://www.clarin.com/politica/Macri-Bruselas-reitera-compromiso-terrorismo_0_1544845689.html'
p9
aS'https://www.clarin.com/politica/Macri-Bruselas-reitera-compromiso-terrorismo_0_1544845689.html'
p10
aS'https://www.clarin.com/politica/izquierda-movilizara-Rural-presencia-Obama_0_1544845687.html'
p11
aS'https://www.clarin.com/politica/izquierda-movilizara-Rural-presencia-Obama_0_1544845687.html'
p12
a.