(lp0
Vhttps://www.clarin.com/ieco/economia/dolar-avanza-centavos_0_1549045345.html
p1
aVhttps://www.clarin.com/ieco/economia/dolar-avanza-centavos_0_1549045345.html
p2
aVhttps://www.clarin.com/sociedad/Confirmaron-procesamiento-Vicky-Xipolitakis-escandalo_0_1549045421.html
p3
aVhttps://www.clarin.com/sociedad/Confirmaron-procesamiento-Vicky-Xipolitakis-escandalo_0_1549045421.html
p4
aVhttps://www.clarin.com/sociedad/leon-sudafrica-Sylvester-Spook-escapa-matar_0_1549045389.html
p5
aVhttps://www.clarin.com/sociedad/leon-sudafrica-Sylvester-Spook-escapa-matar_0_1549045389.html
p6
a.