(lp0
S'https://www.clarin.com/sociedad/nene-anos-murio-picado-alacran_0_1555044850.html'
p1
aS'https://www.clarin.com/sociedad/nene-anos-murio-picado-alacran_0_1555044850.html'
p2
aS'https://www.clarin.com/sociedad/Provincia-conciliacion-conflicto-auxiliares-docentes_0_1555044846.html'
p3
aS'https://www.clarin.com/sociedad/Provincia-conciliacion-conflicto-auxiliares-docentes_0_1555044846.html'
p4
aS'https://www.clarin.com/sociedad/Inundaciones-situacion-Rios-siguen-cortadas_0_1555044840.html'
p5
aS'https://www.clarin.com/sociedad/Inundaciones-situacion-Rios-siguen-cortadas_0_1555044840.html'
p6
aS'https://www.clarin.com/politica/Llamativa-Farina-Tribunales-chaleco-antibalas_0_1555044829.html'
p7
aS'https://www.clarin.com/politica/Llamativa-Farina-Tribunales-chaleco-antibalas_0_1555044829.html'
p8
a.