(lp0
Vhttps://www.clarin.com/ieco/Naftas-Aumentos-Devaluacion-Aranguren_0_1498650149.html
p1
aVhttps://www.clarin.com/politica/Tarifas-Aranguren-Subsidios_0_1498650147.html
p2
aVhttps://www.clarin.com/politica/Ernestina_Herrera_de_Noble-Arroyo_Salgado-ADN-Marcela_Noble_Herrera-Felipe_Noble_Herrera_0_1498650146.html
p3
aVhttps://www.clarin.com/opinion/Cerebro-Educacion-Ciencias_Cognitivas-Conciencia_0_1498650145.html
p4
aVhttps://www.clarin.com/sociedad/inundacion-concordia_0_1498650144.html
p5
aVhttps://www.clarin.com/sociedad/jugueterias_0_1498650143.html
p6
aVhttps://www.clarin.com/opinion/Familia_Noble_Herrera-Jueza_Arroyo_Salgado-Cristina_Fernandez_de_Kirchner-Banco_Nacional_de_Datos_Geneticos_0_1498650141.html
p7
aVhttps://www.clarin.com/opinion/Familia_Noble_Herrera-Jueza_Arroyo_Salgado-Cristina_Fernandez_de_Kirchner-Banco_Nacional_de_Datos_Geneticos_0_1498650141.html
p8
aVhttps://www.clarin.com/politica/Senado-Gabriela_Michetti-Amado_Boudou_0_1498650139.html
p9
aVhttps://www.clarin.com/politica/Senado-Gabriela_Michetti-Amado_Boudou_0_1498650138.html
p10
aVhttps://www.clarin.com/ieco/Aerolineas-Costantini-Perdidas-Recalde_0_1498650137.html
p11
aVhttps://www.clarin.com/politica/Triple_crimen-Anibal_Fernandez-Julian_Dominguez-interna_0_1498650136.html
p12
aVhttps://www.clarin.com/politica/Triple_crimen-Anibal_Fernandez-Julian_Dominguez-interna_0_1498650136.html
p13
aVhttps://www.clarin.com/opinion/fuga-teorias_0_1498650135.html
p14
aVhttps://www.clarin.com/sociedad/Comer-mariscos-Pinamar-mismo-chorizo_0_1498050605.html
p15
aVhttps://www.clarin.com/sociedad/Comer-mariscos-Pinamar-mismo-chorizo_0_1498050605.html
p16
aVhttps://www.clarin.com/sociedad/Punta-saldo-seducir-argentinos_0_1498050607.html
p17
aVhttps://www.clarin.com/sociedad/Punta-saldo-seducir-argentinos_0_1498050607.html
p18
a.