(lp0
Vhttps://www.clarin.com/politica/Pese-anuncio-Gobierno-Izquierda-tarifazo_0_1612038801.html
p1
aVhttps://www.clarin.com/politica/Pese-anuncio-Gobierno-Izquierda-tarifazo_0_1612038801.html
p2
aVhttps://www.clarin.com/sociedad/Dock-Sud-decirle-cirujano-disparado_0_1612038802.html
p3
aVhttps://www.clarin.com/sociedad/Dock-Sud-decirle-cirujano-disparado_0_1612038802.html
p4
aVhttps://www.clarin.com/sociedad/Hackers-lograron-automaticos-escupieran-millones_0_1612038798.html
p5
aVhttps://www.clarin.com/sociedad/Hackers-lograron-automaticos-escupieran-millones_0_1612038798.html
p6
aVhttps://www.clarin.com/politica/Encuesta-kirchnerista-imagen-Anibal-Fernandez_0_1612038796.html
p7
aVhttps://www.clarin.com/politica/Encuesta-kirchnerista-imagen-Anibal-Fernandez_0_1612038796.html
p8
aVhttps://www.clarin.com/ieco/Aranguren-renuncias-evaluan-producen_0_1612038797.html
p9
aVhttps://www.clarin.com/ieco/Aranguren-renuncias-evaluan-producen_0_1612038797.html
p10
aVhttps://www.clarin.com/politica/dirigente-Movimiento-Evita-estallido-recibida_0_1612038791.html
p11
aVhttps://www.clarin.com/politica/dirigente-Movimiento-Evita-estallido-recibida_0_1612038791.html
p12
aVhttps://www.clarin.com/politica/Pinedo-atinado-andar-patas-remera_0_1612038789.html
p13
aVhttps://www.clarin.com/politica/Pinedo-atinado-andar-patas-remera_0_1612038789.html
p14
aVhttps://www.clarin.com/politica/Peronismo-medio-crisis-unidos-macrismo_0_1612038787.html
p15
aVhttps://www.clarin.com/politica/Peronismo-medio-crisis-unidos-macrismo_0_1612038787.html
p16
a.