(lp0
S'https://www.clarin.com/politica/UCR-bonaerense-acuerdo-interna-caliente_0_1670833012.html'
p1
aS'https://www.clarin.com/politica/UCR-bonaerense-acuerdo-interna-caliente_0_1670833012.html'
p2
aS'https://www.clarin.com/politica/Tabare-Vazquez-reunira-Macri-Olivos_0_1670832997.html'
p3
a.