(lp0
Vhttps://www.clarin.com/politica/rol-clave-Vido-negocios-kirchnerismo_0_1555644820.html
p1
aVhttps://www.clarin.com/ieco/petroleras-precio-nafta-subira-ano_0_1555644813.html
p2
aVhttps://www.clarin.com/sociedad/premio-Clarin-Zurich-educacion-nueva-convocatoria_0_1555644726.html
p3
aVhttps://www.clarin.com/sociedad/Sigue-polemica-PAMI-remedios-gratuitos_0_1555644766.html
p4
aVhttps://www.clarin.com/sociedad/Sigue-polemica-PAMI-remedios-gratuitos_0_1555644766.html
p5
a.