(lp0
Vhttps://www.clarin.com/sociedad/premio-Nobel-Literatura-Dario-Fo_0_1667833205.html
p1
aVhttps://www.clarin.com/sociedad/premio-Nobel-Literatura-Dario-Fo_0_1667833205.html
p2
aVhttps://www.clarin.com/politica/Maxima-medidas-Macri-advirtio-inclusion_0_1667233396.html
p3
aVhttps://www.clarin.com/politica/Maxima-medidas-Macri-advirtio-inclusion_0_1667233396.html
p4
aVhttps://www.clarin.com/opinion/Tributo-viejas-figuritas_0_1667833202.html
p5
aVhttps://www.clarin.com/politica/Disparen-Seleccion_0_1667833201.html
p6
aVhttps://www.clarin.com/politica/Lan-Argentina-actividades-reclamo-sindical_0_1667233479.html
p7
aVhttps://www.clarin.com/politica/Lan-Argentina-actividades-reclamo-sindical_0_1667233479.html
p8
aVhttps://www.clarin.com/ieco/economia/asistencia-perfecta-buscaron-acercarse-Presidente_0_1667233478.html
p9
aVhttps://www.clarin.com/ieco/economia/asistencia-perfecta-buscaron-acercarse-Presidente_0_1667233478.html
p10
aVhttps://www.clarin.com/ieco/economia/Macri-generosidad-empresarios-elogio-sindicalistas_0_1667233476.html
p11
aVhttps://www.clarin.com/ieco/economia/Macri-generosidad-empresarios-elogio-sindicalistas_0_1667233476.html
p12
aVhttps://www.clarin.com/politica/Lousteau-armo-acto-diferenciarse-Cambiemos_0_1667233475.html
p13
aVhttps://www.clarin.com/politica/Lousteau-armo-acto-diferenciarse-Cambiemos_0_1667233475.html
p14
a.