(lp0
Vhttps://www.clarin.com/politica/Cristina-Kirchner-parroquia-Isla-Maciel_0_1561643926.html
p1
aVhttps://www.clarin.com/politica/Cristina-Kirchner-parroquia-Isla-Maciel_0_1561643926.html
p2
aVhttps://www.clarin.com/politica/Piden-Cristobal-Lopez-Echegaray-AFIP_0_1561643924.html
p3
aVhttps://www.clarin.com/politica/Piden-Cristobal-Lopez-Echegaray-AFIP_0_1561643924.html
p4
aVhttps://www.clarin.com/sociedad/Casanello-Prefectura-exige-Bullrich-medidas_0_1561643921.html
p5
aVhttps://www.clarin.com/sociedad/Casanello-Prefectura-exige-Bullrich-medidas_0_1561643921.html
p6
aVhttps://www.clarin.com/sociedad/Gigante-mujer-argentina-pilotea-Hercules_0_1561044163.html
p7
aVhttps://www.clarin.com/sociedad/Gigante-mujer-argentina-pilotea-Hercules_0_1561044163.html
p8
aVhttps://www.clarin.com/politica/carta-Carrio-vuelve-carga-Echegaray_0_1561643917.html
p9
aVhttps://www.clarin.com/politica/carta-Carrio-vuelve-carga-Echegaray_0_1561643917.html
p10
a.