(lp0
S'https://www.clarin.com/politica/Macri-Nieto-Casa-Rosada-Mexico_0_1622237836.html'
p1
aS'https://www.clarin.com/ieco/Google-aumento-beneficios-primer-semestre_0_1622237823.html'
p2
aS'https://www.clarin.com/ieco/Blanqueo-CNV-reglamento-armarse-inversion_0_1622237825.html'
p3
aS'https://www.clarin.com/ieco/dueno-Amazon-convierte-tercer-hombre_0_1622237824.html'
p4
aS'https://www.clarin.com/sociedad/nuevos-formatos-consumir-poniendo-moda_0_1622237820.html'
p5
aS'https://www.clarin.com/sociedad/Pelea-alumnas-salida-escuela-Mendoza_0_1622237835.html'
p6
aS'https://www.clarin.com/politica/Piumato-jueces-control-emocional-psiquiatrico_0_1622237832.html'
p7
aS'https://www.clarin.com/ieco/economia/Aranguren-mantuvo-precio-maximo-garrafa_0_1622237830.html'
p8
a.