(lp0
Vhttps://www.clarin.com/sociedad/Video-montana-record-primera-persona_0_1576642427.html
p1
aVhttps://www.clarin.com/sociedad/Video-montana-record-primera-persona_0_1576642427.html
p2
aVhttps://www.clarin.com/sociedad/Denuncian-argentinos-atrapados-recibieron-asistencia_0_1576642420.html
p3
aVhttps://www.clarin.com/sociedad/Denuncian-argentinos-atrapados-recibieron-asistencia_0_1576642420.html
p4
a.