(lp0
Vhttps://www.clarin.com/ieco/economia/Pymes-cautelares-resistir-tarifazo-Corte_0_1634236713.html
p1
aVhttps://www.clarin.com/politica/Enriquecimiento-ilicito-causa-radioactiva-Boudou_0_1634236704.html
p2
aVhttps://www.clarin.com/politica/Enriquecimiento-ilicito-causa-radioactiva-Boudou_0_1634236704.html
p3
aVhttps://www.clarin.com/sociedad/Condenaron-perpetua-Maira-Belen-Moran_0_1634236697.html
p4
aVhttps://www.clarin.com/sociedad/Condenaron-perpetua-Maira-Belen-Moran_0_1634236697.html
p5
aVhttps://www.clarin.com/ieco/economia/volumen-record-dolar-trepo-centavos_0_1634236696.html
p6
aVhttps://www.clarin.com/politica/Cristina-campana-quiero-conduccion-militante_0_1634236693.html
p7
aVhttps://www.clarin.com/politica/Cristina-campana-quiero-conduccion-militante_0_1634236693.html
p8
aVhttps://www.clarin.com/sociedad/Aseguran-descubierto-pictogramas-antiguos_0_1634236691.html
p9
aVhttps://www.clarin.com/sociedad/Aseguran-descubierto-pictogramas-antiguos_0_1634236691.html
p10
aVhttps://www.clarin.com/sociedad/Podria-descubierto-militar-residuos-peligrosos_0_1634236688.html
p11
aVhttps://www.clarin.com/sociedad/Podria-descubierto-militar-residuos-peligrosos_0_1634236688.html
p12
a.