(lp0
S'https://www.clarin.com/politica/Macri-Defensioria-Pueblo-Graciela-Ocana_0_1634836660.html'
p1
aS'https://www.clarin.com/politica/Macri-Defensioria-Pueblo-Graciela-Ocana_0_1634836660.html'
p2
aS'https://www.clarin.com/ieco/emprendedores/Convocan-pymes-tecnologicas-ronda-exportadores_0_1634836653.html'
p3
aS'https://www.clarin.com/ieco/economia/inversiones-empezarian-reaccionar-recien-ano_0_1634836646.html'
p4
aS'https://www.clarin.com/ieco/economia/empresas-buscan-congelen-tarifa-gas_0_1634836642.html'
p5
a.