(lp0
Vhttps://www.clarin.com/politica/Jose-Lopez-Insaurralde-Puerto-Madero_0_1604239655.html
p1
aVhttps://www.clarin.com/politica/Jose-Lopez-Insaurralde-Puerto-Madero_0_1604239655.html
p2
aVhttps://www.clarin.com/sociedad/Insolito-drone-capturo-pareja-monasterio_0_1604239651.html
p3
aVhttps://www.clarin.com/sociedad/Insolito-drone-capturo-pareja-monasterio_0_1604239651.html
p4
aVhttps://www.clarin.com/ieco/economia/Cortan-venta-GNC_0_1604239650.html
p5
aVhttps://www.clarin.com/ieco/economia/Cortan-venta-GNC_0_1604239650.html
p6
aVhttps://www.clarin.com/politica/Baez-volvio-pedir-aparten-Casanello_0_1604239647.html
p7
aVhttps://www.clarin.com/politica/Baez-volvio-pedir-aparten-Casanello_0_1604239647.html
p8
aVhttps://www.clarin.com/politica/Oficina-Anticorrupcion-Justicia-expediente-Aranguren_0_1604239646.html
p9
aVhttps://www.clarin.com/politica/Oficina-Anticorrupcion-Justicia-expediente-Aranguren_0_1604239646.html
p10
a.