(lp0
S'https://www.clarin.com/sociedad/comieron-hijas-Obama-resto-Palermo_0_1546045547.html'
p1
aS'https://www.clarin.com/sociedad/comieron-hijas-Obama-resto-Palermo_0_1546045547.html'
p2
aS'https://www.clarin.com/ieco/maiz-primer-cultivo-resucita-Macri_0_1546045533.html'
p3
aS'https://www.clarin.com/ieco/maiz-primer-cultivo-resucita-Macri_0_1546045533.html'
p4
aS'https://www.clarin.com/politica/Obama-Macri-Parque-Memoria_0_1546045543.html'
p5
aS'https://www.clarin.com/politica/Obama-Macri-Parque-Memoria_0_1546045543.html'
p6
aS'https://www.clarin.com/politica/Aseguran-documentos-desclasificados-informacion-justicia_0_1546045532.html'
p7
aS'https://www.clarin.com/politica/Aseguran-documentos-desclasificados-informacion-justicia_0_1546045532.html'
p8
aS'https://www.clarin.com/politica/Tiempo-Argentino-vuelve-salir-calle_0_1546045527.html'
p9
aS'https://www.clarin.com/politica/Tiempo-Argentino-vuelve-salir-calle_0_1546045527.html'
p10
a.