(lp0
S'https://www.clarin.com/sociedad/nasa-facebook-video-360-marte_0_1516048562.html'
p1
aS'https://www.clarin.com/sociedad/nasa-facebook-video-360-marte_0_1516048562.html'
p2
aS'https://www.clarin.com/politica/Piumato-Diana-Conti-joda-jueces_0_1516048567.html'
p3
aS'https://www.clarin.com/politica/Piumato-Diana-Conti-joda-jueces_0_1516048567.html'
p4
aS'https://www.clarin.com/sociedad/Aseguran-transmision-zika-sexual-frecuente_0_1516048570.html'
p5
aS'https://www.clarin.com/sociedad/Aseguran-transmision-zika-sexual-frecuente_0_1516048570.html'
p6
aS'https://www.clarin.com/politica/Milagro-Sala-repartio-televisores-LCD_0_1516048554.html'
p7
aS'https://www.clarin.com/politica/Milagro-Sala-repartio-televisores-LCD_0_1516048554.html'
p8
aS'https://www.clarin.com/politica/Universidad-Avellaneda-da-precisiones-numeros_0_1516048558.html'
p9
aS'https://www.clarin.com/ieco/economia/Tercerizados-Aerolineas-marchan-hoy-Aeroparque_0_1516048560.html'
p10
aS'https://www.clarin.com/politica/Massa-advirtio-paritaria-puede-techo_0_1516048553.html'
p11
aS'https://www.clarin.com/politica/Massa-advirtio-paritaria-puede-techo_0_1516048553.html'
p12
aS'https://www.clarin.com/ieco/economia/ChemChina-US-millones-quedarse-Syngenta_0_1516048542.html'
p13
aS'https://www.clarin.com/politica/Santa-Cruz-sitiada-UOCRA-Baez_0_1516048522.html'
p14
aS'https://www.clarin.com/politica/Santa-Cruz-sitiada-UOCRA-Baez_0_1516048522.html'
p15
a.