(lp0
S'https://www.clarin.com/politica/Cristina-visita-Bonafini-ronda-Madres_0_1630037033.html'
p1
aS'https://www.clarin.com/politica/Cristina-visita-Bonafini-ronda-Madres_0_1630037033.html'
p2
aS'https://www.clarin.com/ieco/provincia-obtuvo-millones-colocacion-Letras_0_1630037028.html'
p3
aS'https://www.clarin.com/ieco/provincia-obtuvo-millones-colocacion-Letras_0_1630037028.html'
p4
aS'https://www.clarin.com/politica/Cristina-campana-intendencias-Conurbano-Ensenada_0_1630037020.html'
p5
aS'https://www.clarin.com/politica/Cristina-campana-intendencias-Conurbano-Ensenada_0_1630037020.html'
p6
aS'https://www.clarin.com/sociedad/nutricionistas-ahora-consejos-redes-sociales_0_1630037023.html'
p7
aS'https://www.clarin.com/sociedad/nutricionistas-ahora-consejos-redes-sociales_0_1630037023.html'
p8
aS'https://www.clarin.com/sociedad/presentaron-deuncias-Cordera-apologia-delito_0_1630037024.html'
p9
aS'https://www.clarin.com/sociedad/presentaron-deuncias-Cordera-apologia-delito_0_1630037024.html'
p10
aS'https://www.clarin.com/ieco/incertidumbre-politica-mundial-crece-interes_0_1630037021.html'
p11
aS'https://www.clarin.com/ieco/incertidumbre-politica-mundial-crece-interes_0_1630037021.html'
p12
aS'https://www.clarin.com/ieco/discusiones-tarifarias-asisten-millones-distribuidoras_0_1630037022.html'
p13
aS'https://www.clarin.com/ieco/discusiones-tarifarias-asisten-millones-distribuidoras_0_1630037022.html'
p14
aS'https://www.clarin.com/politica/dura-cancion-Vido-agrupacion-macrista_0_1630037017.html'
p15
aS'https://www.clarin.com/politica/dura-cancion-Vido-agrupacion-macrista_0_1630037017.html'
p16
a.