(lp0
Vhttps://www.clarin.com/sociedad/mueve-amperimetro-calidad-educativa_0_1643235810.html
p1
aVhttps://www.clarin.com/sociedad/Garantizan-igualdad-oportunidades-transicion-digital_0_1643235808.html
p2
aVhttps://www.clarin.com/ieco/Bancos-proponen-comercios-informen-efectivo_0_1643235804.html
p3
aVhttps://www.clarin.com/ieco/Bancos-proponen-comercios-informen-efectivo_0_1643235804.html
p4
aVhttps://www.clarin.com/sociedad/docente-sintio-maestros-admiten-desgaste_0_1643235774.html
p5
aVhttps://www.clarin.com/sociedad/docente-sintio-maestros-admiten-desgaste_0_1643235774.html
p6
aVhttps://www.clarin.com/politica/Hugo-Yasky-Empezo-regresiva-nacional_0_1643235803.html
p7
aVhttps://www.clarin.com/politica/Hugo-Yasky-Empezo-regresiva-nacional_0_1643235803.html
p8
aVhttps://www.clarin.com/ieco/economia/Expectativas-inflacion-baja-esperan-setiembre_0_1643235801.html
p9
aVhttps://www.clarin.com/ieco/economia/Expectativas-inflacion-baja-esperan-setiembre_0_1643235801.html
p10
aVhttps://www.clarin.com/politica/Pablo-Micheli-Macri-Ajuste-pelotas_0_1643235794.html
p11
aVhttps://www.clarin.com/politica/Pablo-Micheli-Macri-Ajuste-pelotas_0_1643235794.html
p12
aVhttps://www.clarin.com/politica/marcha-bloqueo-Puerto-Madero-kirchnerismo_0_1643235788.html
p13
aVhttps://www.clarin.com/politica/marcha-bloqueo-Puerto-Madero-kirchnerismo_0_1643235788.html
p14
a.