(lp0
Vhttps://www.clarin.com/politica/Gobierno-participacion-Macri-empresa-paraiso_0_1552045127.html
p1
aVhttps://www.clarin.com/politica/Gobierno-participacion-Macri-empresa-paraiso_0_1552045127.html
p2
aVhttps://www.clarin.com/sociedad/anos-prision-atropellar-matar-chicos_0_1552045113.html
p3
aVhttps://www.clarin.com/sociedad/anos-prision-atropellar-matar-chicos_0_1552045113.html
p4
a.