(lp0
S'https://www.clarin.com/sociedad/Lograron-separar-siamesas-pequenas_0_1515448660.html'
p1
aS'https://www.clarin.com/ieco/economia/Prat-Gay-preacuerdo-bonistas-italianos_0_1515448654.html'
p2
aS'https://www.clarin.com/ieco/empresas-y-negocios/Bodegueros-argentinos-atraidos-vinedos-franceses_0_1515448674.html'
p3
aS'https://www.clarin.com/ieco/empresas-y-negocios/Pena-Hablamos-inflacion-poner-paritarias_0_1515448650.html'
p4
aS'https://www.clarin.com/sociedad/verian-edificios-series-peliculas-reales_0_1515448662.html'
p5
aS'https://www.clarin.com/sociedad/Conmovedor-escucho-latidos-corazon-cuerpo_0_1515448670.html'
p6
a.