(lp0
Vhttps://www.clarin.com/sociedad/fierros-negocio-Rural-fascinacion-chicos_0_1616838478.html
p1
aVhttps://www.clarin.com/sociedad/fierros-negocio-Rural-fascinacion-chicos_0_1616838478.html
p2
aVhttps://www.clarin.com/opinion/salud-derecho-colectivo-individual_0_1616838430.html
p3
aVhttps://www.clarin.com/opinion/salud-derecho-colectivo-individual_0_1616838430.html
p4
aVhttps://www.clarin.com/opinion/previsible-derrota-Podemos_0_1616838417.html
p5
aVhttps://www.clarin.com/opinion/satisfaccion-politica-territorio-genero-ingresos_0_1616838420.html
p6
a.