(lp0
S'https://www.clarin.com/politica/obras-senaladas-fiscales-complican-Baez_0_1679832041.html'
p1
aS'https://www.clarin.com/politica/obras-senaladas-fiscales-complican-Baez_0_1679832041.html'
p2
aS'https://www.clarin.com/sociedad/Condenan-incumplir-deber-seguridad-femicidio_0_1679832042.html'
p3
aS'https://www.clarin.com/sociedad/Condenan-incumplir-deber-seguridad-femicidio_0_1679832042.html'
p4
aS'https://www.clarin.com/ieco/Presupuesto-deparara_0_1679832038.html'
p5
aS'https://www.clarin.com/ieco/Presupuesto-deparara_0_1679832038.html'
p6
aS'https://www.clarin.com/politica/presidencial-Macri-hashtag-polemica-Mirtha_0_1679832028.html'
p7
aS'https://www.clarin.com/politica/presidencial-Macri-hashtag-polemica-Mirtha_0_1679832028.html'
p8
aS'https://www.clarin.com/sociedad/Zarate-sufrido-bullying-escuela-suicidar_0_1679832034.html'
p9
aS'https://www.clarin.com/sociedad/entrego-acusado-abuso-sexual-menores_0_1679832030.html'
p10
a.