(lp0
S'https://www.clarin.com/politica/Piden-fundacion-Michetti-Macri-apoyo_0_1649835131.html'
p1
aS'https://www.clarin.com/ieco/economia/Levy-Yeyati-inversion-publica-acelerando_0_1649835134.html'
p2
aS'https://www.clarin.com/politica/Preocupacion-CGT-UIA-perdida-empleos_0_1649835140.html'
p3
aS'https://www.clarin.com/ieco/Vivo-Foro-Mini-Davos_0_1649835124.html'
p4
aS'https://www.clarin.com/politica/Celulares-Aguad-admitio-calidad-servicio_0_1649835145.html'
p5
aS'https://www.clarin.com/politica/Vidal-sumo-campana-mujeres-listas_0_1649835136.html'
p6
aS'https://www.clarin.com/sociedad/Mini-Cooper-debera-cursar-educacion_0_1649835130.html'
p7
a.