(lp0
Vhttps://www.clarin.com/sociedad/reunirse-gremios-Bullrich-saco-ministros_0_1523247903.html
p1
aVhttps://www.clarin.com/sociedad/reunirse-gremios-Bullrich-saco-ministros_0_1523247903.html
p2
aVhttps://www.clarin.com/sociedad/Autorizan-manejar-hombre-Kevin-Sedano_0_1523247877.html
p3
aVhttps://www.clarin.com/sociedad/Autorizan-manejar-hombre-Kevin-Sedano_0_1523247877.html
p4
aVhttps://www.clarin.com/politica/INDEC-precios-inflacion-Rogelio_Frigerio_0_1523247894.html
p5
aVhttps://www.clarin.com/politica/INDEC-precios-inflacion-Rogelio_Frigerio_0_1523247894.html
p6
aVhttps://www.clarin.com/politica/Elevan-asociacion-ilicita-Juan-Suris_0_1523247893.html
p7
aVhttps://www.clarin.com/politica/Elevan-asociacion-ilicita-Juan-Suris_0_1523247893.html
p8
aVhttps://www.clarin.com/sociedad/Conmovedora-historia-cumplieron-ultimo-deseo_0_1523247884.html
p9
aVhttps://www.clarin.com/sociedad/Conmovedora-historia-cumplieron-ultimo-deseo_0_1523247884.html
p10
aVhttps://www.clarin.com/politica/GobIerno-Macri-retiro-Sergio-Berni_0_1523247885.html
p11
aVhttps://www.clarin.com/politica/GobIerno-Macri-retiro-Sergio-Berni_0_1523247885.html
p12
aVhttps://www.clarin.com/ieco/economia/dolar-blue-vuelve-superar-oficial_0_1523247887.html
p13
a.