(lp0
S'https://www.clarin.com/ieco/Emiten-Letra-millones-amplian-US_0_1683431674.html'
p1
aS'https://www.clarin.com/ieco/Emiten-Letra-millones-amplian-US_0_1683431674.html'
p2
aS'https://www.clarin.com/ieco/fabricantes-Tierra-Fuego-amenazan-despidos_0_1683431672.html'
p3
aS'https://www.clarin.com/ieco/fabricantes-Tierra-Fuego-amenazan-despidos_0_1683431672.html'
p4
aS'https://www.clarin.com/sociedad/Incendiaron-prefecto-detenido-doble-femicidio_0_1683431668.html'
p5
aS'https://www.clarin.com/sociedad/Incendiaron-prefecto-detenido-doble-femicidio_0_1683431668.html'
p6
aS'https://www.clarin.com/politica/Intendentes-peronistas-reunen-Presupuesto-bonaerense_0_1683431666.html'
p7
aS'https://www.clarin.com/politica/Intendentes-peronistas-reunen-Presupuesto-bonaerense_0_1683431666.html'
p8
aS'https://www.clarin.com/sociedad/llevar-DNI-viajar-micros-distancia_0_1683431664.html'
p9
aS'https://www.clarin.com/sociedad/llevar-DNI-viajar-micros-distancia_0_1683431664.html'
p10
aS'https://www.clarin.com/sociedad/chocolate-Toblerone-separo-triangulos-desato_0_1683431659.html'
p11
aS'https://www.clarin.com/sociedad/chocolate-Toblerone-separo-triangulos-desato_0_1683431659.html'
p12
aS'https://www.clarin.com/politica/denuncio-Esteche-Utilizo-lenguaje-intimidatorio_0_1683431658.html'
p13
aS'https://www.clarin.com/politica/denuncio-Esteche-Utilizo-lenguaje-intimidatorio_0_1683431658.html'
p14
aS'https://www.clarin.com/sociedad/diminuto-vestido-simbolo-explotacion-sexual_0_1683431656.html'
p15
aS'https://www.clarin.com/sociedad/diminuto-vestido-simbolo-explotacion-sexual_0_1683431656.html'
p16
aS'https://www.clarin.com/politica/presentan-dream-filas-Boudou-Esteche_0_1682831858.html'
p17
aS'https://www.clarin.com/politica/presentan-dream-filas-Boudou-Esteche_0_1682831858.html'
p18
a.