(lp0
S'https://www.clarin.com/sociedad/Vuelo-escandalo-Vicky-Xipolitakis-juicio_0_1577842320.html'
p1
aS'https://www.clarin.com/politica/Chubut-convenio-Nacion-devolvera-coparticipacion_0_1577842325.html'
p2
aS'https://www.clarin.com/politica/Descubren-propiedades-Lazaro-Baez-Chubut_0_1577842331.html'
p3
aS'https://www.clarin.com/ieco/Estiman-inflacion-abril-seguira-mayo_0_1577842329.html'
p4
aS'https://www.clarin.com/politica/Mira-cuarteto-intendente-detenido-borracho_0_1577842313.html'
p5
a.