(lp0
Vhttps://www.clarin.com/politica/Pobreza-uso-imagen_0_1660034002.html
p1
aVhttps://www.clarin.com/politica/Pobreza-uso-imagen_0_1660034002.html
p2
aVhttps://www.clarin.com/ieco/Creditos-ProCreAr-eligieron-primeros-beneficiarios_0_1660034004.html
p3
aVhttps://www.clarin.com/sociedad/Exclusivo-Che-Guevara-conocia-ahora_0_1658834183.html
p4
aVhttps://www.clarin.com/sociedad/Exclusivo-Che-Guevara-conocia-ahora_0_1658834183.html
p5
aVhttps://www.clarin.com/politica/Pagaran-suma-fija-pide-CGT_0_1659434253.html
p6
aVhttps://www.clarin.com/politica/Pagaran-suma-fija-pide-CGT_0_1659434253.html
p7
aVhttps://www.clarin.com/ieco/economia/actividad-industrial-construccion-caen_0_1659434164.html
p8
aVhttps://www.clarin.com/ieco/economia/actividad-industrial-construccion-caen_0_1659434164.html
p9
a.