(lp0
Vhttps://www.clarin.com/politica/Francisco-Peron-hablar-mujer-iglesia_0_1602439870.html
p1
aVhttps://www.clarin.com/politica/Francisco-Peron-hablar-mujer-iglesia_0_1602439870.html
p2
aVhttps://www.clarin.com/politica/Recuerdan-Kosteki-Santillan-masacre-Avellaneda_0_1602439865.html
p3
aVhttps://www.clarin.com/politica/Recuerdan-Kosteki-Santillan-masacre-Avellaneda_0_1602439865.html
p4
aVhttps://www.clarin.com/politica/Martin-Lanatta-recaudaba-Anibal-Fernandez_0_1602439861.html
p5
aVhttps://www.clarin.com/politica/Martin-Lanatta-recaudaba-Anibal-Fernandez_0_1602439861.html
p6
aVhttps://www.clarin.com/sociedad/Manana-clases-atencion-hospitales_0_1602439850.html
p7
aVhttps://www.clarin.com/politica/Macri-Julian-debate-presidencial-ensayado_0_1602439852.html
p8
aVhttps://www.clarin.com/politica/Macri-Julian-debate-presidencial-ensayado_0_1602439852.html
p9
aVhttps://www.clarin.com/politica/corrupcion-grande-menemismo_0_1602439851.html
p10
aVhttps://www.clarin.com/politica/corrupcion-grande-menemismo_0_1602439851.html
p11
a.