(lp0
Vhttps://www.clarin.com/politica/Macri-Colombia-promesas-inversiones-Lopez_0_1596440446.html
p1
aVhttps://www.clarin.com/politica/Macri-Colombia-promesas-inversiones-Lopez_0_1596440446.html
p2
aVhttps://www.clarin.com/sociedad/Volvio-enfermera-hospital-salvo-bebe_0_1596440435.html
p3
aVhttps://www.clarin.com/sociedad/Volvio-enfermera-hospital-salvo-bebe_0_1596440435.html
p4
aVhttps://www.clarin.com/politica/Chueco-seguira-detenido-fugarse-Paraguay_0_1596440438.html
p5
aVhttps://www.clarin.com/politica/Vido-Lopez-Barragan-programa-obras_0_1596440437.html
p6
aVhttps://www.clarin.com/politica/Vido-Lopez-Barragan-programa-obras_0_1596440437.html
p7
aVhttps://www.clarin.com/sociedad/disenador-mato-mujer-entrego-Policia_0_1596440432.html
p8
aVhttps://www.clarin.com/sociedad/disenador-mato-mujer-entrego-Policia_0_1596440432.html
p9
aVhttps://www.clarin.com/politica/muerte-Nisman-vuelve-justicia-ordinaria_0_1596440434.html
p10
aVhttps://www.clarin.com/politica/muerte-Nisman-vuelve-justicia-ordinaria_0_1596440434.html
p11
a.