(lp0
S'https://www.clarin.com/sociedad/Aparecio-funeral-sorprendio-mandado-matarla_0_1517248501.html'
p1
aS'https://www.clarin.com/sociedad/Denuncian-Miss-Argentina-atropello-seguro_0_1517248477.html'
p2
aS'https://www.clarin.com/politica/Capitanich-arrepiento-Clarin-volveria-hacerlo_0_1517248478.html'
p3
aS'https://www.clarin.com/sociedad/mapa-asado-comprarlo-barato_0_1517248495.html'
p4
aS'https://www.clarin.com/politica/Setenta-combustible-conflicto-Austral-Construcciones_0_1517248483.html'
p5
aS'https://www.clarin.com/politica/efedrina-Anibal_Fernandez-denuncia-Carlos_Ahumada_Kurtz-mexicano_0_1517248506.html'
p6
aS'https://www.clarin.com/politica/Massa-presidente-derecha-formacion-empresaria_0_1517248503.html'
p7
a.