(lp0
Vhttps://www.clarin.com/politica/penal-atajado-nacio-fana-Boca_0_1677432349.html
p1
aVhttps://www.clarin.com/politica/penal-atajado-nacio-fana-Boca_0_1677432349.html
p2
aVhttps://www.clarin.com/politica/verdadera-grieta-judicial-honesto-corrupto_0_1677432348.html
p3
aVhttps://www.clarin.com/politica/verdadera-grieta-judicial-honesto-corrupto_0_1677432348.html
p4
aVhttps://www.clarin.com/sociedad/refugiada-victima-viveza-criolla-asado_0_1677432344.html
p5
aVhttps://www.clarin.com/sociedad/refugiada-victima-viveza-criolla-asado_0_1677432344.html
p6
aVhttps://www.clarin.com/politica/presidenta-abogados-preparo-Santa-Cruz_0_1677432346.html
p7
aVhttps://www.clarin.com/politica/familia-Baez-reunirse-concertar-estrategia_0_1676232521.html
p8
aVhttps://www.clarin.com/politica/familia-Baez-reunirse-concertar-estrategia_0_1676232521.html
p9
aVhttps://www.clarin.com/politica/Ahora-Gobierno-aceptaria-Asignacion-Universal_0_1677432343.html
p10
aVhttps://www.clarin.com/sociedad/Pokemon-Go-evaporo-apenas-meses_0_1677432342.html
p11
aVhttps://www.clarin.com/sociedad/Pokemon-Go-evaporo-apenas-meses_0_1677432342.html
p12
aVhttps://www.clarin.com/sociedad/ensenanza-empresario-mujer-leones-africanos_0_1677432340.html
p13
aVhttps://www.clarin.com/sociedad/ensenanza-empresario-mujer-leones-africanos_0_1677432340.html
p14
aVhttps://www.clarin.com/sociedad/Animales-millones-personas-viajan-busca_0_1677432338.html
p15
aVhttps://www.clarin.com/sociedad/Animales-millones-personas-viajan-busca_0_1677432338.html
p16
a.