(lp0
S'https://www.clarin.com/ieco/economia/Macri-CEO-promesas-inversion-claras_0_1508249500.html'
p1
aS'https://www.clarin.com/ieco/economia/Macri-CEO-promesas-inversion-claras_0_1508249500.html'
p2
aS'https://www.clarin.com/ieco/Departamento_del_Tesoro-EE-UU-_creditos-veto-Jack_Lew-Prat-Gay_0_1508249504.html'
p3
aS'https://www.clarin.com/ieco/Departamento_del_Tesoro-EE-UU-_creditos-veto-Jack_Lew-Prat-Gay_0_1508249504.html'
p4
aS'https://www.clarin.com/sociedad/incendia-zona-Parque-Nacional-Alerces_0_1508249498.html'
p5
aS'https://www.clarin.com/sociedad/incendia-zona-Parque-Nacional-Alerces_0_1508249498.html'
p6
aS'https://www.clarin.com/ieco/economia/dolar-sube-centavos_0_1508249433.html'
p7
aS'https://www.clarin.com/politica/Macri-Netanyahu-Davos-Foro_0_1508249488.html'
p8
aS'https://www.clarin.com/politica/Macri-Netanyahu-Davos-Foro_0_1508249488.html'
p9
a.