(lp0
S'https://www.clarin.com/opinion/universo-vez-intrigante-misterioso-fascinante_0_1534646861.html'
p1
aS'https://www.clarin.com/opinion/reina-varias-misticas-muchas-brujas_0_1534646879.html'
p2
aS'https://www.clarin.com/opinion/reyes-quedan-desnudos_0_1535246489.html'
p3
aS'https://www.clarin.com/opinion/calle-lugar-chicos-malviven-sobreviven_0_1534646867.html'
p4
aS'https://www.clarin.com/opinion/Macri-quiere-dar-gustos_0_1535246483.html'
p5
aS'https://www.clarin.com/opinion/Calavera-chilla_0_1535246533.html'
p6
aS'https://www.clarin.com/opinion/Generosas-lecciones-hielos-antarticos_0_1534646874.html'
p7
aS'https://www.clarin.com/sociedad/Montanita-gente-crimen-argentinas_0_1534646891.html'
p8
aS'https://www.clarin.com/opinion/dolar-ahora-dolor-cabeza-Macri_0_1535246486.html'
p9
a.