(lp0
Vhttps://www.clarin.com/politica/Procrear-ultimos-anotarse-creditos-ANSeS_0_1640236074.html
p1
aVhttps://www.clarin.com/politica/Procrear-ultimos-anotarse-creditos-ANSeS_0_1640236074.html
p2
aVhttps://www.clarin.com/politica/periodistas-amigos-Cristina-Kirchner-informarse_0_1640235990.html
p3
aVhttps://www.clarin.com/politica/periodistas-amigos-Cristina-Kirchner-informarse_0_1640235990.html
p4
aVhttps://www.clarin.com/sociedad/Marcha-construccion-Metrobus-Lanus_0_1638436318.html
p5
aVhttps://www.clarin.com/sociedad/Marcha-construccion-Metrobus-Lanus_0_1638436318.html
p6
a.