(lp0
Vhttps://www.clarin.com/sociedad/Papa-selfie-youtubers-acercarse-jovenes_0_1585641547.html
p1
aVhttps://www.clarin.com/sociedad/Papa-selfie-youtubers-acercarse-jovenes_0_1585641547.html
p2
aVhttps://www.clarin.com/politica/Cristina-conozco-Casanello-vi-vida_0_1585641536.html
p3
aVhttps://www.clarin.com/politica/Cristina-conozco-Casanello-vi-vida_0_1585641536.html
p4
a.