(lp0
Vhttps://www.clarin.com/opinion/raices-comida-casera_0_1663033782.html
p1
aVhttps://www.clarin.com/sociedad/Tutorial-distinguir-juegos-llaves_0_1663033770.html
p2
aVhttps://www.clarin.com/sociedad/Tutorial-distinguir-juegos-llaves_0_1663033770.html
p3
aVhttps://www.clarin.com/politica/Gobierno-descarta-fuerzas-federales-provincias_0_1663033780.html
p4
aVhttps://www.clarin.com/politica/Gobierno-descarta-fuerzas-federales-provincias_0_1663033780.html
p5
aVhttps://www.clarin.com/sociedad/Desbordes-festejos-estudiantiles-apunto-padres_0_1663033776.html
p6
aVhttps://www.clarin.com/ieco/Nuevo-negociaciones-restablecer-exportaciones-EEUU_0_1663033773.html
p7
aVhttps://www.clarin.com/ieco/Nuevo-negociaciones-restablecer-exportaciones-EEUU_0_1663033773.html
p8
aVhttps://www.clarin.com/ieco/economia/Paritaria-comercio-ofrecen-aumento-bono_0_1663033771.html
p9
aVhttps://www.clarin.com/ieco/economia/Paritaria-comercio-ofrecen-aumento-bono_0_1663033771.html
p10
a.