(lp0
S'https://www.clarin.com/ieco/Avanza-reduccion-comisiones-operaciones-tarjetas_0_1646835326.html'
p1
aS'https://www.clarin.com/politica/Caso-Nisman-solicitada-destitucion-Rafecas_0_1646835315.html'
p2
aS'https://www.clarin.com/sociedad/juez-penal-hija-cultiva-marihuana_0_1646835324.html'
p3
aS'https://www.clarin.com/ieco/ruidos-implementacion-blanqueo-advierte-CIPPEC_0_1646835318.html'
p4
aS'https://www.clarin.com/ieco/combatir-inflacion-Banco-Central-Europeo_0_1646835327.html'
p5
aS'https://www.clarin.com/sociedad/Pellegrini-justifico-autorizo-charla-aborto_0_1646835319.html'
p6
aS'https://www.clarin.com/ieco/AGN-reviso-gasto-discrecionalidad-provincias_0_1646835323.html'
p7
a.