(lp0
Vhttps://www.clarin.com/politica/Lopez-convento-camara-detecto-Pilar_0_1597640318.html
p1
aVhttps://www.clarin.com/politica/Lopez-convento-camara-detecto-Pilar_0_1597640318.html
p2
aVhttps://www.clarin.com/politica/Angelici-construye-lujosa-casa-Pilar_0_1597640310.html
p3
aVhttps://www.clarin.com/politica/Angelici-construye-lujosa-casa-Pilar_0_1597640310.html
p4
a.