(lp0
Vhttps://www.clarin.com/ieco/economia/Gobierno-extendio-Precios-Cuidados-promedio_0_1499850420.html
p1
aVhttps://www.clarin.com/ieco/economia/Brasil-recesion-cae-produccion-automoviles_0_1499850394.html
p2
a.