(lp0
Vhttps://www.clarin.com/politica/Garavano-importante-Justicia-tener-Oyarbide_0_1556244649.html
p1
aVhttps://www.clarin.com/politica/Garavano-importante-Justicia-tener-Oyarbide_0_1556244649.html
p2
aVhttps://www.clarin.com/politica/Bossio-pegarle-Campora-Anibal-Fernandez_0_1556244629.html
p3
aVhttps://www.clarin.com/politica/Bossio-pegarle-Campora-Anibal-Fernandez_0_1556244629.html
p4
a.