(lp0
S'https://www.clarin.com/politica/Malcorra-Francisco-animosidad-Papa-Macri_0_1594640610.html'
p1
aS'https://www.clarin.com/politica/Jorge-Macri-intendentes-agresivos-camporista_0_1594640607.html'
p2
aS'https://www.clarin.com/sociedad/Descubren-medieval-vegetacion-jungla-Camboya_0_1594640604.html'
p3
aS'https://www.clarin.com/politica/financiamiento-colectivo-reflotaron-proyecto-Campora_0_1594640612.html'
p4
aS'https://www.clarin.com/politica/inhibir-bienes-Hipodromo-Casino-Club_0_1594640611.html'
p5
aS'https://www.clarin.com/politica/Malcorra-foto-sonrisa-Papa-Francisco_0_1594640598.html'
p6
a.