(lp0
S'https://www.clarin.com/politica/Triple_Crimen-fuga-Mallo_0_1497450543.html'
p1
aS'https://www.clarin.com/politica/Triple_Crimen-fuga-Mallo_0_1497450543.html'
p2
aS'https://www.clarin.com/politica/Malvinas-conflicto-Cancilleria_0_1497450533.html'
p3
aS'https://www.clarin.com/politica/Malvinas-conflicto-Cancilleria_0_1497450533.html'
p4
aS'https://www.clarin.com/sociedad/Cordoba-acueducto-evacuados-consecuencias-temporal_0_1497450519.html'
p5
aS'https://www.clarin.com/sociedad/Cordoba-acueducto-evacuados-consecuencias-temporal_0_1497450519.html'
p6
aS'https://www.clarin.com/politica/Obama-Macri-Estados_Unidos-visita_0_1497450506.html'
p7
aS'https://www.clarin.com/politica/Obama-Macri-Estados_Unidos-visita_0_1497450506.html'
p8
aS'https://www.clarin.com/sociedad/Alerta-meteorologica-provincias-tormentas-granizo_0_1497450447.html'
p9
aS'https://www.clarin.com/sociedad/Alerta-meteorologica-provincias-tormentas-granizo_0_1497450447.html'
p10
aS'https://www.clarin.com/politica/Caso_Nisman-DAIA_0_1497450446.html'
p11
aS'https://www.clarin.com/politica/Caso_Nisman-DAIA_0_1497450446.html'
p12
aS'https://www.clarin.com/ieco/Ventas_minoristas-CAME_0_1497450441.html'
p13
a.