(lp0
S'https://www.clarin.com/sociedad/Grupo-Clarin-presento-nuevo-institucional_0_1636636442.html'
p1
aS'https://www.clarin.com/sociedad/Grupo-Clarin-presento-nuevo-institucional_0_1636636442.html'
p2
aS'https://www.clarin.com/sociedad/Imputan-homicidio-futbolista-evadio-alcoholemia_0_1636636441.html'
p3
aS'https://www.clarin.com/sociedad/Imputan-homicidio-futbolista-evadio-alcoholemia_0_1636636441.html'
p4
aS'https://www.clarin.com/politica/Ruta-dinero-Casanello-exhorto-Suiza_0_1636636438.html'
p5
aS'https://www.clarin.com/politica/Ruta-dinero-Casanello-exhorto-Suiza_0_1636636438.html'
p6
aS'https://www.clarin.com/politica/CGT-conduccion-unificada-repartieron-cargos_0_1636636432.html'
p7
aS'https://www.clarin.com/politica/CGT-conduccion-unificada-repartieron-cargos_0_1636636432.html'
p8
aS'https://www.clarin.com/politica/fiscal-Marijuan-imputo-Gomez-Centurion_0_1636636427.html'
p9
aS'https://www.clarin.com/politica/fiscal-Marijuan-imputo-Gomez-Centurion_0_1636636427.html'
p10
a.