(lp0
S'https://www.clarin.com/sociedad/universidades-apenas-recibe-tiempo-forma_0_1611439005.html'
p1
aS'https://www.clarin.com/sociedad/universidades-apenas-recibe-tiempo-forma_0_1611439005.html'
p2
aS'https://www.clarin.com/politica/desfile-Aldo-Rico-kirchnerismo-proyecto_0_1611439003.html'
p3
aS'https://www.clarin.com/politica/desfile-Aldo-Rico-kirchnerismo-proyecto_0_1611439003.html'
p4
aS'https://www.clarin.com/sociedad/Viajaron-America-Alaska-propuso-casamiento_0_1611439004.html'
p5
aS'https://www.clarin.com/sociedad/Viajaron-America-Alaska-propuso-casamiento_0_1611439004.html'
p6
aS'https://www.clarin.com/sociedad/Pokemon-juego-tiempo-WhatsApp-Instagram_0_1611439002.html'
p7
aS'https://www.clarin.com/sociedad/Pokemon-juego-tiempo-WhatsApp-Instagram_0_1611439002.html'
p8
aS'https://www.clarin.com/sociedad/recibio-anos-abogado_0_1611439001.html'
p9
aS'https://www.clarin.com/sociedad/recibio-anos-abogado_0_1611439001.html'
p10
aS'https://www.clarin.com/politica/Reaparecio-Stiuso-apunto-contesto-Parrilli_0_1611438993.html'
p11
aS'https://www.clarin.com/politica/Reaparecio-Stiuso-apunto-contesto-Parrilli_0_1611438993.html'
p12
aS'https://www.clarin.com/politica/Cristina-denuncio-persiguen-encarcelarla_0_1611438964.html'
p13
aS'https://www.clarin.com/politica/Cristina-denuncio-persiguen-encarcelarla_0_1611438964.html'
p14
aS'https://www.clarin.com/politica/va-pasar-facturas-gas_0_1611438989.html'
p15
aS'https://www.clarin.com/politica/va-pasar-facturas-gas_0_1611438989.html'
p16
aS'https://www.clarin.com/sociedad/Bariloche-blanco-vuelve-optimismo-centros_0_1611438980.html'
p17
aS'https://www.clarin.com/sociedad/Bariloche-blanco-vuelve-optimismo-centros_0_1611438980.html'
p18
a.