(lp0
Vhttps://www.clarin.com/opinion/Salta-narcoescandalo-funcionarios-procesados-trafico_0_1555644520.html
p1
aVhttps://www.clarin.com/opinion/Salta-narcoescandalo-funcionarios-procesados-trafico_0_1555644520.html
p2
aVhttps://www.clarin.com/politica/Rossi-admitio-plata-Rosadita-videos_0_1555644504.html
p3
aVhttps://www.clarin.com/politica/barrio-platense-valijas-fama-carcel_0_1555644503.html
p4
aVhttps://www.clarin.com/politica/barrio-platense-valijas-fama-carcel_0_1555644503.html
p5
aVhttps://www.clarin.com/politica/Solo-aumenta-riesgo-sancionado-corrupcion_0_1555045005.html
p6
aVhttps://www.clarin.com/opinion/pobreza-relato-realidad_0_1555044938.html
p7
aVhttps://www.clarin.com/opinion/pobreza-relato-realidad_0_1555044899.html
p8
aVhttps://www.clarin.com/opinion/Lacan-ultima-pelicula-Adrian-Suar_0_1555044941.html
p9
aVhttps://www.clarin.com/opinion/ahora-calla-Farina_0_1555644491.html
p10
aVhttps://www.clarin.com/sociedad/Viaje-ciego-tragedia-conmociono-Delta_0_1555044970.html
p11
aVhttps://www.clarin.com/sociedad/Inundaciones-rutas-complica-regreso-Paz_0_1555044959.html
p12
aVhttps://www.clarin.com/sociedad/Inundaciones-rutas-complica-regreso-Paz_0_1555044959.html
p13
aVhttps://www.clarin.com/sociedad/Ira-resentimiento-Farre-matar-pareja_0_1555044967.html
p14
aVhttps://www.clarin.com/sociedad/Ira-resentimiento-Farre-matar-pareja_0_1555044967.html
p15
a.