(lp0
S'https://www.clarin.com/politica/macri-desparecidos-cifra_0_1528047563.html'
p1
aS'https://www.clarin.com/opinion/presion_alta-comer_sin_sal_0_1528047561.html'
p2
aS'https://www.clarin.com/sociedad/Emotiva-despedida-enfermedad-hombre-elefante_0_1528047553.html'
p3
aS'https://www.clarin.com/sociedad/Derrame-San-Juan-afirman-contaminados_0_1528047543.html'
p4
aS'https://www.clarin.com/politica/Paritarias-Gobierno-convoco-docentes-manana_0_1528047571.html'
p5
aS'https://www.clarin.com/sociedad/Hallan-Francia-mensajes-botella-EEUU_0_1528047585.html'
p6
aS'https://www.clarin.com/politica/San-Luis-aumento-docentes-estatales_0_1528047554.html'
p7
a.