(lp0
S'https://www.clarin.com/sociedad/multitud-celebro-beatificacion-Mama-Antula_0_1639636102.html'
p1
aS'https://www.clarin.com/sociedad/multitud-celebro-beatificacion-Mama-Antula_0_1639636102.html'
p2
aS'https://www.clarin.com/politica/Todesca-inflacion-Corte-encendio-alarmas_0_1639636107.html'
p3
aS'https://www.clarin.com/politica/Todesca-inflacion-Corte-encendio-alarmas_0_1639636107.html'
p4
aS'https://www.clarin.com/sociedad/polista-argentino-casa-multimillonaria-Espana_0_1639636091.html'
p5
aS'https://www.clarin.com/sociedad/polista-argentino-casa-multimillonaria-Espana_0_1639636091.html'
p6
aS'https://www.clarin.com/politica/Macri-recibio-petrolero-Pereyra-Olivos_0_1639636104.html'
p7
aS'https://www.clarin.com/politica/Macri-recibio-petrolero-Pereyra-Olivos_0_1639636104.html'
p8
aS'https://www.clarin.com/sociedad/murio-derrumbe-pared-Lomas-Zamora_0_1639636101.html'
p9
aS'https://www.clarin.com/sociedad/murio-derrumbe-pared-Lomas-Zamora_0_1639636101.html'
p10
a.