(lp0
S'https://www.clarin.com/politica/Cristina-financia-Instituto-Patria-militantes_0_1654034800.html'
p1
aS'https://www.clarin.com/politica/Cristina-financia-Instituto-Patria-militantes_0_1654034800.html'
p2
aS'https://www.clarin.com/politica/Corte-traspie-Gils-Carbo-espias_0_1654034782.html'
p3
aS'https://www.clarin.com/politica/Corte-traspie-Gils-Carbo-espias_0_1654034782.html'
p4
aS'https://www.clarin.com/politica/Corte-devolvio-Nisman-Justicia-Federal_0_1654034771.html'
p5
aS'https://www.clarin.com/politica/Corte-devolvio-Nisman-Justicia-Federal_0_1654034771.html'
p6
aS'https://www.clarin.com/politica/zar-juego-petroleo-fierros-mediaticos_0_1654034796.html'
p7
aS'https://www.clarin.com/politica/zar-juego-petroleo-fierros-mediaticos_0_1654034796.html'
p8
aS'https://www.clarin.com/politica/Llamaron-indagatoria-Milani-enriquecimiento-ilicito_0_1654034795.html'
p9
aS'https://www.clarin.com/sociedad/Facebook-ataco-tiros-causo-masacre_0_1654034793.html'
p10
aS'https://www.clarin.com/sociedad/Facebook-ataco-tiros-causo-masacre_0_1654034793.html'
p11
aS'https://www.clarin.com/sociedad/Buscan-seducir-turistas-visiten-Argentina_0_1654034791.html'
p12
aS'https://www.clarin.com/politica/canciller-Malcorra-dichos-Macri-Malvinas_0_1654034790.html'
p13
aS'https://www.clarin.com/politica/canciller-Malcorra-dichos-Macri-Malvinas_0_1654034790.html'
p14
a.