(lp0
S'https://www.clarin.com/ieco/economia/construccion-marca-aspiracional_0_1568243334.html'
p1
aS'https://www.clarin.com/ieco/economia/construccion-marca-aspiracional_0_1568243334.html'
p2
aS'https://www.clarin.com/ieco/economia/Radiografia-china-desafia-Silicon-Valley_0_1568243332.html'
p3
aS'https://www.clarin.com/ieco/economia/Horizonte-despejado-llegar-millones-toneladas_0_1568243331.html'
p4
aS'https://www.clarin.com/ieco/economia/Horizonte-despejado-llegar-millones-toneladas_0_1568243331.html'
p5
aS'https://www.clarin.com/ieco/economia/Cafe-crece-guerra-capsulas_0_1568243329.html'
p6
aS'https://www.clarin.com/ieco/economia/Cafe-crece-guerra-capsulas_0_1568243329.html'
p7
aS'https://www.clarin.com/ieco/economia/fundador-Despegarcom-mundial-emprendedores_0_1568243328.html'
p8
aS'https://www.clarin.com/ieco/economia/fundador-Despegarcom-mundial-emprendedores_0_1568243328.html'
p9
aS'https://www.clarin.com/ieco/economia/derrumbe-exportaciones-fabriles_0_1568243326.html'
p10
aS'https://www.clarin.com/ieco/economia/Internet-inventa-nueva-economia_0_1568243325.html'
p11
a.