(lp0
Vhttps://www.clarin.com/politica/Macri-Cristina-magia-decir-palabras_0_1625237560.html
p1
aVhttps://www.clarin.com/politica/Macri-Cristina-magia-decir-palabras_0_1625237560.html
p2
aVhttps://www.clarin.com/politica/Ahora-Vidal-desayunar-casa-Stolbizer_0_1625237558.html
p3
aVhttps://www.clarin.com/politica/Ahora-Vidal-desayunar-casa-Stolbizer_0_1625237558.html
p4
aVhttps://www.clarin.com/politica/Dolar-Citaron-audiencia-procesamiento-Cristina_0_1625237554.html
p5
aVhttps://www.clarin.com/politica/Dolar-Citaron-audiencia-procesamiento-Cristina_0_1625237554.html
p6
aVhttps://www.clarin.com/ieco/economia/CGT-inflacion-julio_0_1625237553.html
p7
aVhttps://www.clarin.com/ieco/economia/CGT-inflacion-julio_0_1625237553.html
p8
aVhttps://www.clarin.com/sociedad/Ampliaron-supermercados-plan-oficial-celulares_0_1625237549.html
p9
aVhttps://www.clarin.com/sociedad/Ampliaron-supermercados-plan-oficial-celulares_0_1625237549.html
p10
a.