(lp0
S'https://www.clarin.com/sociedad/Marchan-libertad-condenada-aborto-espontaneo_0_1630637093.html'
p1
aS'https://www.clarin.com/sociedad/intendencia-Plata-organizo-pokejuntada-Catedral_0_1630637091.html'
p2
aS'https://www.clarin.com/ieco/economia/pesar-aguinaldo-cae-consumo-julio_0_1630637092.html'
p3
aS'https://www.clarin.com/ieco/economia/Arman-comision-seguimiento-blanqueo_0_1630637106.html'
p4
a.