(lp0
S'https://www.clarin.com/ieco/Vence-plazo-depositar-dinero-blanqueo_0_1689431204.html'
p1
aS'https://www.clarin.com/sociedad/Nombran-Juan-Cruz-Avila-universitarios_0_1689431210.html'
p2
aS'https://www.clarin.com/opinion/Educacion-vs-Guerra-Fria_0_1689431212.html'
p3
aS'https://www.clarin.com/sociedad/OMS-dejo-emergencia-salud-internacional_0_1689431207.html'
p4
aS'https://www.clarin.com/ieco/equipo-economico-defiende-proyectos-Congreso_0_1689431213.html'
p5
a.