(lp0
Vhttps://www.clarin.com/politica/Cristina-coincidencia-mensaje-Papa_0_1610239025.html
p1
aVhttps://www.clarin.com/politica/Cristina-coincidencia-mensaje-Papa_0_1610239025.html
p2
aVhttps://www.clarin.com/politica/Alicia-Kirchner-ausente-festejos-Bicentenario_0_1610239028.html
p3
aVhttps://www.clarin.com/politica/Alicia-Kirchner-ausente-festejos-Bicentenario_0_1610239028.html
p4
aVhttps://www.clarin.com/politica/Sergio-Szpolski-dedica-seguridad-privada_0_1610239021.html
p5
aVhttps://www.clarin.com/politica/Sergio-Szpolski-dedica-seguridad-privada_0_1610239021.html
p6
aVhttps://www.clarin.com/sociedad/Segui-vivo-celebracion-Bicentenario-Tucuman_0_1610239022.html
p7
a.