(lp0
Vhttps://www.clarin.com/opinion/Educating-Mr-Macri_0_1657034282.html
p1
aVhttps://www.clarin.com/politica/Cartera-bonos-Nacion-provincias_0_1656434466.html
p2
aVhttps://www.clarin.com/politica/Cartera-bonos-Nacion-provincias_0_1656434466.html
p3
aVhttps://www.clarin.com/politica/ocultaba-Kirchner-plata-Santa-Cruz_0_1656434465.html
p4
aVhttps://www.clarin.com/politica/ocultaba-Kirchner-plata-Santa-Cruz_0_1656434465.html
p5
aVhttps://www.clarin.com/politica/Inseguridad-bonaerense-policias-locales-preparados_0_1656434464.html
p6
aVhttps://www.clarin.com/politica/Inseguridad-bonaerense-policias-locales-preparados_0_1656434464.html
p7
aVhttps://www.clarin.com/politica/Tomo-Massa-Maria-Eugenia-absolutamente_0_1656434463.html
p8
aVhttps://www.clarin.com/politica/Tomo-Massa-Maria-Eugenia-absolutamente_0_1656434463.html
p9
aVhttps://www.clarin.com/politica/Macri-noticias-monitorea-radios-TV_0_1656434462.html
p10
aVhttps://www.clarin.com/politica/Macri-noticias-monitorea-radios-TV_0_1656434462.html
p11
aVhttps://www.clarin.com/politica/politicos-famosos-Urtubey-Macedo-Salta_0_1656434461.html
p12
aVhttps://www.clarin.com/politica/bonaerenses-cree-policia-bien-capacitada_0_1656434460.html
p13
aVhttps://www.clarin.com/sociedad/Amistad-posible-alquilar-compania-amigo_0_1656434458.html
p14
aVhttps://www.clarin.com/sociedad/Amistad-posible-alquilar-compania-amigo_0_1656434458.html
p15
a.