(lp0
S'https://www.clarin.com/sociedad/carta-acusados-vender-Costa-Salguero_0_1563443848.html'
p1
aS'https://www.clarin.com/sociedad/carta-acusados-vender-Costa-Salguero_0_1563443848.html'
p2
aS'https://www.clarin.com/ieco/economia/anos-Argentina-sale-default_0_1563443843.html'
p3
aS'https://www.clarin.com/politica/kelpers-festejaron-Reina-Gran-Bretana_0_1563443830.html'
p4
aS'https://www.clarin.com/politica/kelpers-festejaron-Reina-Gran-Bretana_0_1563443830.html'
p5
aS'https://www.clarin.com/politica/nueva-ruta-Jujuy-Quinta-Olivos_0_1563443833.html'
p6
aS'https://www.clarin.com/politica/nueva-ruta-Jujuy-Quinta-Olivos_0_1563443833.html'
p7
aS'https://www.clarin.com/ieco/Hoy-empieza-Macri-salida-default_0_1563443831.html'
p8
aS'https://www.clarin.com/ieco/Hoy-empieza-Macri-salida-default_0_1563443831.html'
p9
aS'https://www.clarin.com/sociedad/temporada-orcas-Chubut-mejor-ultimos_0_1563443829.html'
p10
aS'https://www.clarin.com/sociedad/temporada-orcas-Chubut-mejor-ultimos_0_1563443829.html'
p11
a.