(lp0
Vhttps://www.clarin.com/politica/Narcotrafico-informes-Papa-impacto-politico_0_1644435669.html
p1
aVhttps://www.clarin.com/politica/Mensajes-Macri_0_1644435677.html
p2
aVhttps://www.clarin.com/politica/Corrupcion-narcotrafico-ahora-disfraces-tribunales_0_1644435665.html
p3
aVhttps://www.clarin.com/politica/Corrupcion-narcotrafico-ahora-disfraces-tribunales_0_1644435665.html
p4
aVhttps://www.clarin.com/politica/Leves-indices-optimismo-economico-politico_0_1644435657.html
p5
aVhttps://www.clarin.com/politica/Leves-indices-optimismo-economico-politico_0_1644435657.html
p6
a.