(lp0
S'https://www.clarin.com/sociedad/Detienen-jovenes-enganaba-drogarlas-violarlas_0_1636036506.html'
p1
aS'https://www.clarin.com/politica/Revelan-millonaria-Ministerio-Salud-sciolista_0_1636036517.html'
p2
aS'https://www.clarin.com/politica/Rua-Macri-dejaron-riesgo-explosion_0_1636036501.html'
p3
aS'https://www.clarin.com/sociedad/presion-catolicos-suspenden-diversidad-Mendoza_0_1636036497.html'
p4
a.