(lp0
S'https://www.clarin.com/sociedad/Reunieron-dolares-restaurar-famoso-zapatos_0_1674432621.html'
p1
aS'https://www.clarin.com/sociedad/Reunieron-dolares-restaurar-famoso-zapatos_0_1674432621.html'
p2
aS'https://www.clarin.com/ieco/Jorge-Brito-blanqueo-US-millones_0_1674432620.html'
p3
aS'https://www.clarin.com/ieco/Jorge-Brito-blanqueo-US-millones_0_1674432620.html'
p4
aS'https://www.clarin.com/politica/Corte-convoca-narcotrafico-corrupcion-violencia_0_1674432619.html'
p5
aS'https://www.clarin.com/politica/Corte-convoca-narcotrafico-corrupcion-violencia_0_1674432619.html'
p6
aS'https://www.clarin.com/sociedad/ExoMars-modulo-estrello-Marte-explotado_0_1674432616.html'
p7
aS'https://www.clarin.com/sociedad/ExoMars-modulo-estrello-Marte-explotado_0_1674432616.html'
p8
aS'https://www.clarin.com/sociedad/hundio-barco-derramo-petroleo-Parana_0_1674432614.html'
p9
aS'https://www.clarin.com/sociedad/hundio-barco-derramo-petroleo-Parana_0_1674432614.html'
p10
aS'https://www.clarin.com/politica/Carrio-corta-presentacion-Gils-Carbo_0_1674432606.html'
p11
aS'https://www.clarin.com/politica/Carrio-corta-presentacion-Gils-Carbo_0_1674432606.html'
p12
aS'https://www.clarin.com/sociedad/Aterrador-arana-gigante-cazo-raton_0_1674432604.html'
p13
aS'https://www.clarin.com/sociedad/Aterrador-arana-gigante-cazo-raton_0_1674432604.html'
p14
a.