(lp0
S'https://www.clarin.com/politica/Causa-Nisman-buscaron-testigo-muerto_0_1563443794.html'
p1
aS'https://www.clarin.com/sociedad/Video-insolito-garaje-bicicletas-calle_0_1563443782.html'
p2
aS'https://www.clarin.com/ieco/economia/Gobierno-apoyar-emprendedores-empresas-software_0_1563443778.html'
p3
aS'https://www.clarin.com/sociedad/expedicion-argentina-bandera-Polo-Norte_0_1563443780.html'
p4
a.