(lp0
S'https://www.clarin.com/politica/Reforma-electoral-Gobierno-Senado-demora_0_1687031480.html'
p1
aS'https://www.clarin.com/opinion/Carolina-ministra-presupuesto-planes-sociales_0_1687631227.html'
p2
aS'https://www.clarin.com/ieco/economia/efecto-Trump-dolar-derrumbaron-bonos_0_1687031485.html'
p3
aS'https://www.clarin.com/politica/fiscal-denuncio-universidades_0_1687031476.html'
p4
aS'https://www.clarin.com/politica/Scioli-gente-sexo-crisis-economica_0_1687631225.html'
p5
aS'https://www.clarin.com/politica/Dolar-futuro-Cristina-quiere-juicio_0_1687031433.html'
p6
aS'https://www.clarin.com/politica/Cristina-vinculada-negocios-ilegales-Correo_0_1687031477.html'
p7
aS'https://www.clarin.com/politica/Mauricio-Macri-Olivos-Elisa-Carrio_0_1687031483.html'
p8
aS'https://www.clarin.com/politica/Messi-amigos-enemigos_0_1687631226.html'
p9
a.