(lp0
S'https://www.clarin.com/ieco/economia/Macri-Rural-camioneta_0_1616838468.html'
p1
aS'https://www.clarin.com/sociedad/Vuelve-compra-online-exterior-puerta_0_1616838470.html'
p2
aS'https://www.clarin.com/politica/UCR-rechaza-peronista-desafiar-Vidal_0_1616838464.html'
p3
aS'https://www.clarin.com/politica/Declaran-nulo-operativo-supuestamente-dinero_0_1616838462.html'
p4
aS'https://www.clarin.com/politica/Macri-parece-locura-segundo-mandato_0_1616838472.html'
p5
aS'https://www.clarin.com/politica/Detectan-faltante-millones-ART-SUTERH_0_1616838467.html'
p6
a.