(lp0
Vhttps://www.clarin.com/opinion/Amores-duplicado_0_1543046050.html
p1
aVhttps://www.clarin.com/sociedad/Prometen-km-autovias-anos_0_1543046086.html
p2
aVhttps://www.clarin.com/sociedad/pozos-corrupcion_0_1543046083.html
p3
aVhttps://www.clarin.com/sociedad/Profesor-vs-celular-batalla-perdida_0_1543046067.html
p4
aVhttps://www.clarin.com/politica/Macri-Espero-entiendan-demanda-impunidad_0_1543046106.html
p5
aVhttps://www.clarin.com/politica/Macri-Espero-entiendan-demanda-impunidad_0_1543046106.html
p6
aVhttps://www.clarin.com/sociedad/Apagon-mundial-cambio-climatico_0_1543046104.html
p7
a.