(lp0
S'https://www.clarin.com/sociedad/Primer-Parque-Nacional-hectareas-patagonicas_0_1570643050.html'
p1
aS'https://www.clarin.com/ieco/economia/tasas-Central-dolar-mantuvo-estable_0_1570643045.html'
p2
aS'https://www.clarin.com/sociedad/Arriesgan-salvar-orcas-atrapadas-hielo_0_1570643037.html'
p3
aS'https://www.clarin.com/politica/Victor-Hugo-Cristobal-Lopez-C5N_0_1570643040.html'
p4
aS'https://www.clarin.com/sociedad/Policias-aceptan-desafio-hombre-corriendo_0_1570643017.html'
p5
a.