(lp0
S'https://www.clarin.com/politica/Amplian-denuncia-Sabbatella-abuso-autoridad_0_1496250616.html'
p1
aS'https://www.clarin.com/sociedad/La_Plata-ahogada-fiesta_privada_0_1496250612.html'
p2
aS'https://www.clarin.com/ieco/finanzas/Central-prorroga-creditos-pymes-CAME_0_1496250570.html'
p3
a.