(lp0
S'https://www.clarin.com/sociedad/Vegansexuales-jamas-acostarian-carnivoro_0_1624037703.html'
p1
aS'https://www.clarin.com/ieco/Tarifas-Aranguren-pide-esfuerzo-votado_0_1624037699.html'
p2
aS'https://www.clarin.com/politica/Familiares-victimas-AMIA-querellantes-Timerman_0_1624037691.html'
p3
aS'https://www.clarin.com/sociedad/Julian-Weich-importante-UNICEF-Salta_0_1624037686.html'
p4
a.