(lp0
S'https://www.clarin.com/sociedad/espectacular-festival-hielo-chino-harbin_0_1498050415.html'
p1
aS'https://www.clarin.com/politica/Triple-Ritondo-podrian-recambios-Bonaerense_0_1498050439.html'
p2
aS'https://www.clarin.com/sociedad/caras-arbol-lideres_nacionales-ilusion_optica-redes_sociales-internet_0_1498050417.html'
p3
aS'https://www.clarin.com/politica/Gobierno-ENaCom-modificacion-Ley-Medios_0_1498050440.html'
p4
aS'https://www.clarin.com/sociedad/hombres-mataron-parejas-despues-entregaron_0_1498050436.html'
p5
a.