(lp0
Vhttps://www.clarin.com/ieco/Caputo-ve-panorama-financiero-calmo_0_1580241994.html
p1
aVhttps://www.clarin.com/ieco/Caputo-ve-panorama-financiero-calmo_0_1580241994.html
p2
aVhttps://www.clarin.com/ieco/Fuerte-respaldo-Macri-campo-confio_0_1580241992.html
p3
aVhttps://www.clarin.com/sociedad/prefectos-suspendidos-Time-Warp-funciones_0_1580241985.html
p4
aVhttps://www.clarin.com/sociedad/prefectos-suspendidos-Time-Warp-funciones_0_1580241985.html
p5
a.