(lp0
Vhttps://www.clarin.com/politica/Rivolo-Frigerio-Justicia-deseable-funcionario_0_1674432602.html
p1
aVhttps://www.clarin.com/politica/Rivolo-Frigerio-Justicia-deseable-funcionario_0_1674432602.html
p2
aVhttps://www.clarin.com/sociedad/horas-baul-asesino-intentaba-abrirlo_0_1674432600.html
p3
aVhttps://www.clarin.com/sociedad/horas-baul-asesino-intentaba-abrirlo_0_1674432600.html
p4
aVhttps://www.clarin.com/politica/Stolbizer-Cristina-Kirchner-insolvencia-fraudulenta_0_1674432597.html
p5
aVhttps://www.clarin.com/politica/Stolbizer-Cristina-Kirchner-insolvencia-fraudulenta_0_1674432597.html
p6
aVhttps://www.clarin.com/sociedad/increible-abrazo-hombre-cuido-cachorro_0_1674432596.html
p7
aVhttps://www.clarin.com/sociedad/increible-abrazo-hombre-cuido-cachorro_0_1674432596.html
p8
aVhttps://www.clarin.com/sociedad/Denuncian-estafa-millones-flor-abundancia_0_1674432591.html
p9
aVhttps://www.clarin.com/sociedad/Denuncian-estafa-millones-flor-abundancia_0_1674432591.html
p10
a.