(lp0
S'https://www.clarin.com/sociedad/Video-transmitia-TV-avisaron-gente_0_1634836634.html'
p1
aS'https://www.clarin.com/ieco/economia/Ciudad-credito-hipotecario-combina-UVI_0_1634836637.html'
p2
aS'https://www.clarin.com/politica/Cumbre-Macri-Olivos-buscar-tarifas_0_1634836630.html'
p3
aS'https://www.clarin.com/ieco/economia/canasta-portena-llego-jubilados_0_1634836627.html'
p4
a.