(lp0
S'https://www.clarin.com/ieco/economia/China-devalua-yuan-niveles-Brexit_0_1603039809.html'
p1
aS'https://www.clarin.com/ieco/economia/China-devalua-yuan-niveles-Brexit_0_1603039809.html'
p2
aS'https://www.clarin.com/politica/Contrabandoprohiben-salir-pais-Negro-Tata_0_1603039821.html'
p3
aS'https://www.clarin.com/politica/Manana-jura-Rosatti-nuevo-Corte_0_1603039823.html'
p4
aS'https://www.clarin.com/politica/Manana-jura-Rosatti-nuevo-Corte_0_1603039823.html'
p5
aS'https://www.clarin.com/politica/justicia-levanto-secreto-familia-Kirchner_0_1603039807.html'
p6
aS'https://www.clarin.com/politica/justicia-levanto-secreto-familia-Kirchner_0_1603039807.html'
p7
aS'https://www.clarin.com/ieco/economia/Calificadora-Standard-Poors-Reino-Unido_0_1603039784.html'
p8
aS'https://www.clarin.com/ieco/economia/Calificadora-Standard-Poors-Reino-Unido_0_1603039784.html'
p9
a.