(lp0
S'https://www.clarin.com/ieco/ganancias-YPF-caen_0_1574242757.html'
p1
aS'https://www.clarin.com/sociedad/INADI-acusado-prender-carcel-volvio_0_1574242755.html'
p2
aS'https://www.clarin.com/sociedad/INADI-acusado-prender-carcel-volvio_0_1574242755.html'
p3
aS'https://www.clarin.com/sociedad/nacionales-recorrer-Google-Street-View_0_1574242747.html'
p4
aS'https://www.clarin.com/sociedad/nacionales-recorrer-Google-Street-View_0_1574242747.html'
p5
aS'https://www.clarin.com/sociedad/madre-abuela-primer-bebe-anos_0_1574242738.html'
p6
aS'https://www.clarin.com/sociedad/madre-abuela-primer-bebe-anos_0_1574242738.html'
p7
aS'https://www.clarin.com/sociedad/busqueda-aparecio-muerta-Gisela-Lopez_0_1574242742.html'
p8
aS'https://www.clarin.com/sociedad/busqueda-aparecio-muerta-Gisela-Lopez_0_1574242742.html'
p9
aS'https://www.clarin.com/sociedad/tabletas-derrumban-ventas-celulares-grandes_0_1574242741.html'
p10
aS'https://www.clarin.com/sociedad/tabletas-derrumban-ventas-celulares-grandes_0_1574242741.html'
p11
a.