(lp0
Vhttps://www.clarin.com/politica/AFI-desarmado-estacion-espionaje-ilegal_0_1640236095.html
p1
aVhttps://www.clarin.com/politica/AFI-desarmado-estacion-espionaje-ilegal_0_1640236095.html
p2
aVhttps://www.clarin.com/politica/abogado-Baez-mucha-deberia-presa_0_1640236085.html
p3
aVhttps://www.clarin.com/politica/abogado-Baez-mucha-deberia-presa_0_1640236085.html
p4
a.