(lp0
Vhttps://www.clarin.com/politica/Cristina-busca-PJ-defensa-propia_0_1561043907.html
p1
aVhttps://www.clarin.com/sociedad/decadas-Fleco-Male_0_1561043906.html
p2
aVhttps://www.clarin.com/opinion/Desfachatez_0_1561043904.html
p3
aVhttps://www.clarin.com/opinion/nuevas-intervenciones-militares_0_1560444271.html
p4
aVhttps://www.clarin.com/opinion/nuevas-intervenciones-militares_0_1560444271.html
p5
aVhttps://www.clarin.com/opinion/evaluar-gobierno-comunica-bien_0_1560444269.html
p6
aVhttps://www.clarin.com/opinion/Pobreza-impuestos-justicia-social_0_1560444267.html
p7
aVhttps://www.clarin.com/politica/Lavado-casos-Baez-Lopez-paradigmaticos_0_1560444273.html
p8
aVhttps://www.clarin.com/sociedad/llegamos-encontramos-temblando-ojos-blancos_0_1560444386.html
p9
aVhttps://www.clarin.com/sociedad/llegamos-encontramos-temblando-ojos-blancos_0_1560444386.html
p10
aVhttps://www.clarin.com/sociedad/Fiesta-Costanera-investigan-liberada-vender_0_1560444384.html
p11
aVhttps://www.clarin.com/politica/Marco-Lavagna-deficit-gobierno-Macri_0_1560444365.html
p12
a.