(lp0
S'https://www.clarin.com/politica/perdieron-millones-apostando-dolar-futuro_0_1662433747.html'
p1
aS'https://www.clarin.com/politica/Malcorra-titular-ONU-juego-mundo_0_1662433746.html'
p2
aS'https://www.clarin.com/politica/Malcorra-titular-ONU-juego-mundo_0_1662433746.html'
p3
aS'https://www.clarin.com/politica/ministerio-Seguridad-insolito-concurso-cachorros_0_1662433741.html'
p4
aS'https://www.clarin.com/politica/ministerio-Seguridad-insolito-concurso-cachorros_0_1662433741.html'
p5
aS'https://www.clarin.com/politica/Fondos-Santa-Cruz-dinero-faltaba_0_1661833943.html'
p6
aS'https://www.clarin.com/politica/Fondos-Santa-Cruz-dinero-faltaba_0_1661833943.html'
p7
aS'https://www.clarin.com/ieco/economia/Gobierno-metido-enredo_0_1662433743.html'
p8
aS'https://www.clarin.com/politica/domingo-Garcia-Marquez_0_1662433742.html'
p9
aS'https://www.clarin.com/politica/Fuerte-Intratables-Brancatelli-diputado-izquierda_0_1661833964.html'
p10
aS'https://www.clarin.com/politica/Fuerte-Intratables-Brancatelli-diputado-izquierda_0_1661833964.html'
p11
aS'https://www.clarin.com/sociedad/desarrollo-clave-extender-vida_0_1661833968.html'
p12
aS'https://www.clarin.com/sociedad/Nobel-biologo-descubrio-recicla-sobrevivir_0_1661833967.html'
p13
aS'https://www.clarin.com/sociedad/Nobel-biologo-descubrio-recicla-sobrevivir_0_1661833967.html'
p14
aS'https://www.clarin.com/sociedad/Descubren-secreto-Napoleon-invadir-Inglaterra_0_1661833966.html'
p15
aS'https://www.clarin.com/sociedad/Descubren-secreto-Napoleon-invadir-Inglaterra_0_1661833966.html'
p16
a.