(lp0
Vhttps://www.clarin.com/ieco/economia/tormenta-YPF-emite-US-millones_0_1541846064.html
p1
aVhttps://www.clarin.com/ieco/economia/tormenta-YPF-emite-US-millones_0_1541846064.html
p2
aVhttps://www.clarin.com/sociedad/primer-cientifico-argentino-TED-mundial_0_1541846061.html
p3
aVhttps://www.clarin.com/sociedad/primer-cientifico-argentino-TED-mundial_0_1541846061.html
p4
aVhttps://www.clarin.com/politica/personajes-clave-ruta-dinero_0_1541846053.html
p5
aVhttps://www.clarin.com/politica/personajes-clave-ruta-dinero_0_1541846053.html
p6
aVhttps://www.clarin.com/ieco/FMI-dijo-sigue-cerca-Brasil_0_1541846051.html
p7
aVhttps://www.clarin.com/ieco/FMI-dijo-sigue-cerca-Brasil_0_1541846051.html
p8
aVhttps://www.clarin.com/sociedad/Confirmado-salas-ocultas-tumba-Tutankamon_0_1541846050.html
p9
aVhttps://www.clarin.com/sociedad/Confirmado-salas-ocultas-tumba-Tutankamon_0_1541846050.html
p10
aVhttps://www.clarin.com/politica/gobernadores-presionan-Senado-aprobar-buitre_0_1541846048.html
p11
aVhttps://www.clarin.com/politica/gobernadores-presionan-Senado-aprobar-buitre_0_1541846048.html
p12
aVhttps://www.clarin.com/sociedad/Montanita-detuvieron-venezolano-acusado-crimen_0_1541846028.html
p13
aVhttps://www.clarin.com/sociedad/Montanita-detuvieron-venezolano-acusado-crimen_0_1541846028.html
p14
aVhttps://www.clarin.com/ieco/economia/firmo-paritaria-comercio-aumento-meses_0_1541846040.html
p15
aVhttps://www.clarin.com/ieco/economia/firmo-paritaria-comercio-aumento-meses_0_1541846040.html
p16
a.