(lp0
Vhttps://www.clarin.com/sociedad/Reconquista-durmio-semanas-cadaver-mujer_0_1613238700.html
p1
aVhttps://www.clarin.com/sociedad/Reconquista-durmio-semanas-cadaver-mujer_0_1613238700.html
p2
aVhttps://www.clarin.com/politica/Intendente-General-Rodriguez-agrupaciones-Lopez_0_1613238696.html
p3
aVhttps://www.clarin.com/politica/Intendente-General-Rodriguez-agrupaciones-Lopez_0_1613238696.html
p4
aVhttps://www.clarin.com/politica/Cristina-Stolbizer-adelantaron-tomaran-mediacion_0_1613238695.html
p5
aVhttps://www.clarin.com/politica/Cristina-Stolbizer-adelantaron-tomaran-mediacion_0_1613238695.html
p6
aVhttps://www.clarin.com/sociedad/Europa-vuelve-Google-posicion-dominante_0_1613238689.html
p7
aVhttps://www.clarin.com/sociedad/Europa-vuelve-Google-posicion-dominante_0_1613238689.html
p8
aVhttps://www.clarin.com/sociedad/videos-virales-enganaron-mundo_0_1613238686.html
p9
aVhttps://www.clarin.com/sociedad/videos-virales-enganaron-mundo_0_1613238686.html
p10
a.