(lp0
S'https://www.clarin.com/sociedad/estudio-revela-humanos-pueden-Spiderman_0_1507049550.html'
p1
aS'https://www.clarin.com/sociedad/estudio-revela-humanos-pueden-Spiderman_0_1507049550.html'
p2
aS'https://www.clarin.com/sociedad/comisario-golpeo-hirio-despues-suicido_0_1507049587.html'
p3
aS'https://www.clarin.com/politica/Carta-Abierta-Balcarce-perro-Macri_0_1507049577.html'
p4
aS'https://www.clarin.com/politica/Carta-Abierta-Balcarce-perro-Macri_0_1507049577.html'
p5
aS'https://www.clarin.com/sociedad/incendio-estacion-varios-barrios-Cordoba_0_1507049570.html'
p6
aS'https://www.clarin.com/politica/ministro-Seguridad-jujeno-desalojar-letales_0_1507049566.html'
p7
aS'https://www.clarin.com/politica/ministro-Seguridad-jujeno-desalojar-letales_0_1507049566.html'
p8
a.