(lp0
Vhttps://www.clarin.com/sociedad/festival-asado-llega-fiesta-pastafrola_0_1673832629.html
p1
aVhttps://www.clarin.com/sociedad/festival-asado-llega-fiesta-pastafrola_0_1673832629.html
p2
aVhttps://www.clarin.com/opinion/florecen-brotes-verdes_0_1673232801.html
p3
aVhttps://www.clarin.com/opinion/florecen-brotes-verdes_0_1673232801.html
p4
aVhttps://www.clarin.com/sociedad/chica-San-Isidro-mochilera-Alaska_0_1673832623.html
p5
aVhttps://www.clarin.com/sociedad/chica-San-Isidro-mochilera-Alaska_0_1673832623.html
p6
aVhttps://www.clarin.com/sociedad/Creo-aplicacion-facilitar-celular-ciegos_0_1673832619.html
p7
aVhttps://www.clarin.com/sociedad/Creo-aplicacion-facilitar-celular-ciegos_0_1673832619.html
p8
a.