(lp0
Vhttps://www.clarin.com/ieco/Jubilaciones-consultar-corresponde-recibir-reajuste_0_1621637906.html
p1
aVhttps://www.clarin.com/ieco/Jubilaciones-consultar-corresponde-recibir-reajuste_0_1621637906.html
p2
aVhttps://www.clarin.com/ieco/Jubilados-amplian-limites-acceder-social_0_1621637904.html
p3
aVhttps://www.clarin.com/ieco/Jubilados-amplian-limites-acceder-social_0_1621637904.html
p4
aVhttps://www.clarin.com/sociedad/capas-maquillaje-ultimo-viral-YouTube_0_1621637897.html
p5
aVhttps://www.clarin.com/sociedad/capas-maquillaje-ultimo-viral-YouTube_0_1621637897.html
p6
aVhttps://www.clarin.com/sociedad/Mega-operativo-Interpol-rescatan-victimas_0_1621637902.html
p7
a.