(lp0
Vhttps://www.clarin.com/sociedad/pesada-herencia_0_1580841956.html
p1
aVhttps://www.clarin.com/politica/Pena-insiste-inflacion-fuerte-constante_0_1580841955.html
p2
aVhttps://www.clarin.com/opinion/Diseno-democratico-Justicia_0_1580242125.html
p3
aVhttps://www.clarin.com/opinion/maestra-escuela-equipo-publico-maravillan_0_1580242124.html
p4
aVhttps://www.clarin.com/opinion/va-Cristobal_0_1580841954.html
p5
aVhttps://www.clarin.com/opinion/silbidos-indiferentes_0_1580841953.html
p6
aVhttps://www.clarin.com/sociedad/Habito-peligroso-empleados-saltea-almuerzo_0_1580242083.html
p7
aVhttps://www.clarin.com/sociedad/Habito-peligroso-empleados-saltea-almuerzo_0_1580242083.html
p8
a.