(lp0
S'https://www.clarin.com/politica/columna-Pagni-corrupcion-sistema_0_1561643899.html'
p1
aS'https://www.clarin.com/politica/columna-Pagni-corrupcion-sistema_0_1561643899.html'
p2
aS'https://www.clarin.com/politica/Gobierno-impulsara-Echegaray-Casanello-procesa_0_1561643896.html'
p3
aS'https://www.clarin.com/politica/Gobierno-impulsara-Echegaray-Casanello-procesa_0_1561643896.html'
p4
aS'https://www.clarin.com/ieco/financiara-reduccion-IVA-consumidores-recursos_0_1561643892.html'
p5
aS'https://www.clarin.com/ieco/financiara-reduccion-IVA-consumidores-recursos_0_1561643892.html'
p6
aS'https://www.clarin.com/sociedad/turista-frances-practicaba-parapente-Bariloche_0_1561643887.html'
p7
aS'https://www.clarin.com/sociedad/turista-frances-practicaba-parapente-Bariloche_0_1561643887.html'
p8
aS'https://www.clarin.com/sociedad/Recuperaron-valiosos-cuadros-robados-nazis_0_1561643886.html'
p9
aS'https://www.clarin.com/sociedad/Recuperaron-valiosos-cuadros-robados-nazis_0_1561643886.html'
p10
aS'https://www.clarin.com/ieco/emision-US-millones-fuerte-cotizar_0_1561643885.html'
p11
aS'https://www.clarin.com/ieco/emision-US-millones-fuerte-cotizar_0_1561643885.html'
p12
a.