(lp0
Vhttps://www.clarin.com/opinion/Pobreza-cero-educacion_0_1584441685.html
p1
aVhttps://www.clarin.com/ieco/Avianca-quiera-empezar-volar-diciembre_0_1584441775.html
p2
aVhttps://www.clarin.com/opinion/Obra-publica-calidad-provincias-sometidas_0_1584441714.html
p3
aVhttps://www.clarin.com/opinion/caras-pago-jubilados_0_1585041532.html
p4
aVhttps://www.clarin.com/opinion/queremos_0_1585041531.html
p5
aVhttps://www.clarin.com/politica/blanqueo-necesario-genera-bronca-impuestos_0_1584441772.html
p6
aVhttps://www.clarin.com/opinion/mania-discutirlo_0_1584441736.html
p7
a.