(lp0
Vhttps://www.clarin.com/politica/Sobreseyeron-ex-gobernador-peronista-Chubut_0_1592840916.html
p1
aVhttps://www.clarin.com/politica/Sobreseyeron-ex-gobernador-peronista-Chubut_0_1592840916.html
p2
aVhttps://www.clarin.com/politica/Ruta-descubren-offshore-Mossack-Fonseca_0_1592840919.html
p3
aVhttps://www.clarin.com/politica/Ruta-descubren-offshore-Mossack-Fonseca_0_1592840919.html
p4
aVhttps://www.clarin.com/opinion/bendicion-cae-Maria-Eugenia_0_1594040587.html
p5
aVhttps://www.clarin.com/opinion/bendicion-cae-Maria-Eugenia_0_1594040587.html
p6
aVhttps://www.clarin.com/opinion/Gas-embrollo-camino-Corte_0_1594040586.html
p7
aVhttps://www.clarin.com/opinion/Reforma-politica-transparencia-participacion-ciudadana_0_1593440795.html
p8
a.