(lp0
S'https://www.clarin.com/ieco/economia/carne-precios-supermercados-carnicerias-inflacion_0_1519648357.html'
p1
aS'https://www.clarin.com/opinion/crisis_educativa-modelo_pedagogico-escuelas_del_siglo_XXI_0_1520247994.html'
p2
aS'https://www.clarin.com/opinion/Resistencia-kirchnerismo-oposicion-Relato_K_0_1520247996.html'
p3
aS'https://www.clarin.com/sociedad/mail-chat-video-usado-Internet_0_1519648442.html'
p4
aS'https://www.clarin.com/politica/Libertad-opinion-caracteres_0_1520247998.html'
p5
aS'https://www.clarin.com/ieco/economia/Subio-costo-transporte-enero_0_1519648396.html'
p6
aS'https://www.clarin.com/ieco/economia/silobolsas-ataque_0_1519648356.html'
p7
aS'https://www.clarin.com/sociedad/Youtubers-estrellas-hoy-simbolos-nueva_0_1519648444.html'
p8
aS'https://www.clarin.com/opinion/Papa_Francisco-Obispo_de_Moscu-acercamiento_religioso-Iglesia_catolica-Iglesia_ortodoxa_0_1520247995.html'
p9
aS'https://www.clarin.com/sociedad/comunidad-nudista-portena-propio-Carnaval_0_1520247990.html'
p10
a.