(lp0
S'https://www.clarin.com/politica/Marcos-Pena-Julio-Martinez-Armada_0_1578442279.html'
p1
aS'https://www.clarin.com/ieco/economia/Consultoras-esperan-inflacion-caida-PBI_0_1578442286.html'
p2
aS'https://www.clarin.com/sociedad/Campanella-crisis-inspiro-Luna-Avellaneda_0_1578442291.html'
p3
aS'https://www.clarin.com/sociedad/Tarifazo-universidad-fueguina-paso-pagar_0_1578442288.html'
p4
aS'https://www.clarin.com/politica/Corte-Suprema-intereses-cobran-tarjeta_0_1578442294.html'
p5
aS'https://www.clarin.com/politica/Despues-premier-Renzi-mision-comercial_0_1578442283.html'
p6
a.