(lp0
S'https://www.clarin.com/politica/Macri-Tinelli-Twitter-peleando-robots_0_1621638008.html'
p1
aS'https://www.clarin.com/sociedad/culito-audios-Farre-llevarlo-juicio_0_1621637993.html'
p2
aS'https://www.clarin.com/politica/Despues-polemica-Lousteau-posibilidad-Massa_0_1621638005.html'
p3
aS'https://www.clarin.com/ieco/Manana-arranca-blanqueo_0_1621637994.html'
p4
aS'https://www.clarin.com/politica/Denuncian-Camara-Federal-Casacion-Penal_0_1621637967.html'
p5
aS'https://www.clarin.com/politica/Insolito-actoral-Guillermo-Moreno-Cambiemos_0_1621637990.html'
p6
aS'https://www.clarin.com/sociedad/baldazos-virales-consiguen-avance-cientifico_0_1621638015.html'
p7
a.