(lp0
Vhttps://www.clarin.com/sociedad/preso-finalmente-consiguio-trabajo-modelo_0_1595840486.html
p1
aVhttps://www.clarin.com/sociedad/preso-finalmente-consiguio-trabajo-modelo_0_1595840486.html
p2
aVhttps://www.clarin.com/politica/Camioneros-protestan-Callao-prometen-companeros_0_1595840495.html
p3
aVhttps://www.clarin.com/politica/Camioneros-protestan-Callao-prometen-companeros_0_1595840495.html
p4
aVhttps://www.clarin.com/sociedad/Disney-playas-resorts-ataque-cocodrilo_0_1595840491.html
p5
aVhttps://www.clarin.com/sociedad/Disney-playas-resorts-ataque-cocodrilo_0_1595840491.html
p6
aVhttps://www.clarin.com/politica/Carrio-telefonos-Jose-Lopez-operativos_0_1595840490.html
p7
aVhttps://www.clarin.com/politica/Carrio-telefonos-Jose-Lopez-operativos_0_1595840490.html
p8
a.