(lp0
S'https://www.clarin.com/sociedad/Provincia-inmobiliario-sube_0_1663633671.html'
p1
aS'https://www.clarin.com/ieco/Nueva-jornada-atencion-limitada-bancos_0_1663633664.html'
p2
aS'https://www.clarin.com/sociedad/Rugbier-atacado-dicen-rivalidad-clubes_0_1663633666.html'
p3
a.