(lp0
Vhttps://www.clarin.com/politica/italiano-Francisco-felicito-Casanello-adelante_0_1591640882.html
p1
aVhttps://www.clarin.com/politica/italiano-Francisco-felicito-Casanello-adelante_0_1591640882.html
p2
aVhttps://www.clarin.com/sociedad/come-restaurante-chef-Presidente_0_1590441033.html
p3
aVhttps://www.clarin.com/sociedad/come-restaurante-chef-Presidente_0_1590441033.html
p4
aVhttps://www.clarin.com/politica/Corte-Suprema-concedio-salarial-judiciales_0_1591640880.html
p5
aVhttps://www.clarin.com/politica/Corte-Suprema-concedio-salarial-judiciales_0_1591640880.html
p6
aVhttps://www.clarin.com/ieco/economia/Google-supero-Apple-valiosa-mundo_0_1591640877.html
p7
aVhttps://www.clarin.com/ieco/economia/Google-supero-Apple-valiosa-mundo_0_1591640877.html
p8
aVhttps://www.clarin.com/ieco/economia/soja-toca-US-Chicago_0_1591640873.html
p9
aVhttps://www.clarin.com/politica/sorpresa-Lazaro-Baez-Dia-Padre_0_1591640862.html
p10
aVhttps://www.clarin.com/politica/sorpresa-Lazaro-Baez-Dia-Padre_0_1591640862.html
p11
aVhttps://www.clarin.com/sociedad/cuestan-principales-servicios-streaming-musica_0_1591640872.html
p12
aVhttps://www.clarin.com/sociedad/cuestan-principales-servicios-streaming-musica_0_1591640872.html
p13
aVhttps://www.clarin.com/sociedad/Video-ayuda-policia-inundados-Paris_0_1591640871.html
p14
aVhttps://www.clarin.com/sociedad/Video-ayuda-policia-inundados-Paris_0_1591640871.html
p15
aVhttps://www.clarin.com/politica/Macri-quiere-reglamentar-transicion-Gobierno_0_1591640870.html
p16
aVhttps://www.clarin.com/politica/Macri-quiere-reglamentar-transicion-Gobierno_0_1591640870.html
p17
aVhttps://www.clarin.com/politica/PRO-Moron-prometer-bandera-alumnos_0_1591640869.html
p18
aVhttps://www.clarin.com/politica/PRO-Moron-prometer-bandera-alumnos_0_1591640869.html
p19
a.