(lp0
Vhttps://www.clarin.com/politica/Olivos-Quinta-Presidencial-llego-Macri_0_1521447982.html
p1
aVhttps://www.clarin.com/politica/Olivos-Quinta-Presidencial-llego-Macri_0_1521447982.html
p2
aVhttps://www.clarin.com/sociedad/Pierden-esperanzas-recuperar-contacto-Rosetta_0_1521448141.html
p3
aVhttps://www.clarin.com/sociedad/Pierden-esperanzas-recuperar-contacto-Rosetta_0_1521448141.html
p4
aVhttps://www.clarin.com/politica/autoridades-paraguayas-confirman-Perez-Corradi_0_1521448134.html
p5
aVhttps://www.clarin.com/politica/autoridades-paraguayas-confirman-Perez-Corradi_0_1521448134.html
p6
aVhttps://www.clarin.com/ieco/economia/dolar-trepa-centavos_0_1521448071.html
p7
aVhttps://www.clarin.com/politica/Tupac-Amaru-ocupante-Plaza-Mayo_0_1521448116.html
p8
aVhttps://www.clarin.com/ieco/economia/Diputados-FpV-presentan-amparo-tarifas_0_1521448107.html
p9
aVhttps://www.clarin.com/ieco/economia/Diputados-FpV-presentan-amparo-tarifas_0_1521448107.html
p10
a.