(lp0
S'https://www.clarin.com/politica/Inflacion-febrero-Ciudad-Congreso_0_1537646695.html'
p1
aS'https://www.clarin.com/ieco/economia/volvio-impulso-muestra-campo_0_1537646702.html'
p2
aS'https://www.clarin.com/sociedad/aumentos-come-carne-barata_0_1537646674.html'
p3
aS'https://www.clarin.com/politica/Acuerdo-gobernadores-plata-fondos-buitre_0_1537646659.html'
p4
aS'https://www.clarin.com/politica/Rosada-Maximo-Kirchner-convencer-dialoguistas_0_1537646677.html'
p5
aS'https://www.clarin.com/sociedad/mitad-smartphone-usa-comprar_0_1537646638.html'
p6
a.