(lp0
S'https://www.clarin.com/politica/Ahora-Bonadio-congelo-bancarias-Cristina_0_1609039260.html'
p1
aS'https://www.clarin.com/ieco/Proyectan-crecimiento_0_1609039312.html'
p2
aS'https://www.clarin.com/ieco/economia/Gobierno-capto-US-millones-Letes_0_1609039269.html'
p3
aS'https://www.clarin.com/ieco/economia/IRSA-control-predio-Rural-Palermo_0_1609039277.html'
p4
aS'https://www.clarin.com/ieco/Primer-cortocircuito-administracion-Macri-desplante_0_1609039282.html'
p5
aS'https://www.clarin.com/ieco/hacer-inversiones-reclaman-suba-peajes_0_1609039328.html'
p6
aS'https://www.clarin.com/politica/Fondo-Conurbano-Vidal-oposicion-Senado_0_1609039322.html'
p7
a.