(lp0
Vhttps://www.clarin.com/sociedad/EEUU-perfiles-sociales-admitir-turistas_0_1604239712.html
p1
aVhttps://www.clarin.com/ieco/economia/Macri-empresarios-ejercer-libertades-responsable_0_1604239718.html
p2
aVhttps://www.clarin.com/ieco/economia/Macri-empresarios-ejercer-libertades-responsable_0_1604239718.html
p3
aVhttps://www.clarin.com/sociedad/Gobierno-importar-remedios-gastos-polemica_0_1604239717.html
p4
aVhttps://www.clarin.com/politica/Camara-federal-investigar-Casanello-Olivos_0_1604239673.html
p5
aVhttps://www.clarin.com/politica/Camara-federal-investigar-Casanello-Olivos_0_1604239673.html
p6
aVhttps://www.clarin.com/politica/Casanello-analizar-Declaraciones-Juradas-Macri_0_1604239713.html
p7
aVhttps://www.clarin.com/politica/Casanello-analizar-Declaraciones-Juradas-Macri_0_1604239713.html
p8
a.