(lp0
S'https://www.clarin.com/sociedad/redefinir-educacion-secundaria_0_1646835439.html'
p1
aS'https://www.clarin.com/politica/Denuncian-Vido-Alperovich-millonario-Tucuman_0_1646835428.html'
p2
aS'https://www.clarin.com/sociedad/compro-bidones-hallaran-cuerpo-calcinado_0_1646835429.html'
p3
aS'https://www.clarin.com/politica/Bonafini-Lorenzetti-quiere-Presidente-grande_0_1646835440.html'
p4
aS'https://www.clarin.com/ieco/economia/podran-cajas-ahorro-traves-Internet_0_1646835434.html'
p5
aS'https://www.clarin.com/sociedad/chicos-necesitan-reordenemos-escuela_0_1646835441.html'
p6
aS'https://www.clarin.com/ieco/economia/Sexta-jornada-subas-Bolsa-especulativas_0_1646835426.html'
p7
aS'https://www.clarin.com/ieco/economia/Crecio-salida-turistas-argentinos-exterior_0_1646835433.html'
p8
a.