(lp0
Vhttps://www.clarin.com/politica/Decisivo-EEUU-Argentina-salir-default_0_1547245350.html
p1
aVhttps://www.clarin.com/politica/Decisivo-EEUU-Argentina-salir-default_0_1547245350.html
p2
aVhttps://www.clarin.com/opinion/Ley-arrepentido-bala-plata-corrupcion_0_1546645629.html
p3
aVhttps://www.clarin.com/opinion/Brasil-da-batalla-virus-Zika_0_1546645598.html
p4
aVhttps://www.clarin.com/opinion/Plan-abre-nueva-brecha_0_1547245333.html
p5
aVhttps://www.clarin.com/sociedad/Perdidos-crecen-alarmas-redes-resuelven_0_1546645692.html
p6
aVhttps://www.clarin.com/sociedad/Perdidos-crecen-alarmas-redes-resuelven_0_1546645692.html
p7
aVhttps://www.clarin.com/opinion/Lula-Dilma-Mani-Pulite-brasilena_0_1547245328.html
p8
a.