(lp0
S'https://www.clarin.com/politica/mujer-Maximo-Kirchner-declaro-pesos_0_1684031798.html'
p1
aS'https://www.clarin.com/sociedad/amarga-dicha-fermentar-propia-birra_0_1684631678.html'
p2
aS'https://www.clarin.com/opinion/inflacion-sigue-viva-recesion_0_1685231461.html'
p3
aS'https://www.clarin.com/opinion/casa-propia-aspiracion-aleja_0_1685231462.html'
p4
aS'https://www.clarin.com/ieco/economia/Apuran-plan-Ahora-lanzarlo-Navidad_0_1684631705.html'
p5
aS'https://www.clarin.com/ieco/Ribeiro-tecnologia-cara_0_1684631654.html'
p6
aS'https://www.clarin.com/sociedad/Norman-eterno-habitante-noche-portena_0_1684631671.html'
p7
aS'https://www.clarin.com/ieco/FMI-advierte-cambiario-presiones-inflacionarias_0_1684631700.html'
p8
aS'https://www.clarin.com/opinion/Historia-incomoda-relacion-Trump-Macri_0_1684631679.html'
p9
a.