(lp0
S'https://www.clarin.com/politica/Avanza-acuerdo-limites-Gils-Carbo_0_1603639813.html'
p1
aS'https://www.clarin.com/politica/Avanza-acuerdo-limites-Gils-Carbo_0_1603639813.html'
p2
aS'https://www.clarin.com/opinion/placer-buenas-historias_0_1603639775.html'
p3
aS'https://www.clarin.com/sociedad/mujeres-asesinadas-denunciado-agresor_0_1603639782.html'
p4
aS'https://www.clarin.com/sociedad/mujeres-asesinadas-denunciado-agresor_0_1603639782.html'
p5
aS'https://www.clarin.com/politica/Senado-sancion-omnibus-apoyo-opositor_0_1603639824.html'
p6
aS'https://www.clarin.com/politica/Senado-sancion-omnibus-apoyo-opositor_0_1603639824.html'
p7
aS'https://www.clarin.com/politica/Stolbizer-matrimonio-Kirchner-sistema-corrupcion_0_1603639821.html'
p8
aS'https://www.clarin.com/politica/Stolbizer-matrimonio-Kirchner-sistema-corrupcion_0_1603639821.html'
p9
aS'https://www.clarin.com/politica/diputado-oficialista-adolescentes-embarazan-AUH_0_1603639816.html'
p10
aS'https://www.clarin.com/politica/PJ-numeros-ruptura-bloques-legislativos_0_1603639811.html'
p11
a.