(lp0
Vhttps://www.clarin.com/politica/Respaldo-Buenos-Aires-incertidumbre-Brasilia_0_1582041957.html
p1
aVhttps://www.clarin.com/politica/Respaldo-Buenos-Aires-incertidumbre-Brasilia_0_1582041957.html
p2
a.