(lp0
Vhttps://www.clarin.com/sociedad/chicos-cuarto-propio_0_1613238818.html
p1
aVhttps://www.clarin.com/sociedad/Mundos-intimos-Despues-padres-querian_0_1613238816.html
p2
aVhttps://www.clarin.com/politica/Investigan-secretario-Kirchner-US-millones_0_1618638180.html
p3
aVhttps://www.clarin.com/sociedad/beba-protagonista-trasplante-record-Garrahan_0_1618038361.html
p4
aVhttps://www.clarin.com/sociedad/beba-protagonista-trasplante-record-Garrahan_0_1618038361.html
p5
aVhttps://www.clarin.com/opinion/Seguridad-emergencia-necesita-plan-efectivo_0_1618038352.html
p6
aVhttps://www.clarin.com/opinion/Resabios-Guerra-Civil-Espanola_0_1618038314.html
p7
aVhttps://www.clarin.com/opinion/haran-preservar-lado-secreto-amnistia_0_1618638179.html
p8
aVhttps://www.clarin.com/opinion/va-Cristobal-paga-juego_0_1618638178.html
p9
aVhttps://www.clarin.com/opinion/Cristina-presa_0_1618638177.html
p10
aVhttps://www.clarin.com/politica/Bonadio-congelo-sucesion-Nestor-Kirchner_0_1618038294.html
p11
aVhttps://www.clarin.com/politica/Bonadio-congelo-sucesion-Nestor-Kirchner_0_1618038294.html
p12
aVhttps://www.clarin.com/politica/dano-equipo-enojo-Prat-Gay_0_1618038384.html
p13
aVhttps://www.clarin.com/politica/monja-declaro-Lopez-esperando-convento_0_1618038366.html
p14
a.