(lp0
Vhttps://www.clarin.com/sociedad/policia-miembros-Federal-miedo-matara_0_1677432291.html
p1
aVhttps://www.clarin.com/sociedad/policia-miembros-Federal-miedo-matara_0_1677432291.html
p2
aVhttps://www.clarin.com/politica/ministros-Vidal-salieron-politica-seguridad_0_1677432288.html
p3
aVhttps://www.clarin.com/politica/ministros-Vidal-salieron-politica-seguridad_0_1677432288.html
p4
aVhttps://www.clarin.com/politica/dialogo-Iglesia-reclama-politicas-activas_0_1677432283.html
p5
aVhttps://www.clarin.com/politica/dialogo-Iglesia-reclama-politicas-activas_0_1677432283.html
p6
aVhttps://www.clarin.com/politica/Cristina-defiende-Twitter-compara-Lula_0_1677432280.html
p7
aVhttps://www.clarin.com/politica/Cristina-defiende-Twitter-compara-Lula_0_1677432280.html
p8
a.