(lp0
S'https://www.clarin.com/sociedad/pelea-seguridad-ideal-libertad_0_1525047933.html'
p1
aS'https://www.clarin.com/opinion/Obama-EEUU-URSS-dictadura_0_1525647471.html'
p2
aS'https://www.clarin.com/opinion/Acuerdos_con_China-Neuquen-estacion_espacial-clausulas_secretas-politica_exterior_0_1525647467.html'
p3
aS'https://www.clarin.com/opinion/Macri-gabinete_economico-Ganancias-Prat_Gay-empresarios_0_1525647468.html'
p4
aS'https://www.clarin.com/sociedad/Misiones-confirman-casos-dengue-hora_0_1525647492.html'
p5
aS'https://www.clarin.com/sociedad/Diluvia-Buenos-Aires-varias-provincias_0_1525647460.html'
p6
aS'https://www.clarin.com/politica/Guillermo-Moreno-Milani-crearon-pancheria_0_1525047937.html'
p7
aS'https://www.clarin.com/opinion/mascotas-derechos_de_los_animales-vida_cotidiana_0_1525647469.html'
p8
a.