(lp0
Vhttps://www.clarin.com/sociedad/Confirman-dengue-Capital-podrian-doble_0_1532846981.html
p1
aVhttps://www.clarin.com/sociedad/Confirman-dengue-Capital-podrian-doble_0_1532846981.html
p2
aVhttps://www.clarin.com/sociedad/escuchaste-hablar-joven-rica-mundo_0_1532846979.html
p3
aVhttps://www.clarin.com/sociedad/escuchaste-hablar-joven-rica-mundo_0_1532846979.html
p4
aVhttps://www.clarin.com/sociedad/mejores-imagenes-astronauta-record-espacio_0_1532846943.html
p5
aVhttps://www.clarin.com/sociedad/mejores-imagenes-astronauta-record-espacio_0_1532846943.html
p6
aVhttps://www.clarin.com/ieco/economia/numeros-herencia-Macri_0_1532846974.html
p7
aVhttps://www.clarin.com/ieco/economia/numeros-herencia-Macri_0_1532846974.html
p8
aVhttps://www.clarin.com/politica/Senado-pliegos-ascensos-cupula-militar_0_1532846968.html
p9
aVhttps://www.clarin.com/politica/Senado-pliegos-ascensos-cupula-militar_0_1532846968.html
p10
aVhttps://www.clarin.com/sociedad/Descubren-primera-vez-vinculado-canas_0_1532846970.html
p11
aVhttps://www.clarin.com/sociedad/Descubren-primera-vez-vinculado-canas_0_1532846970.html
p12
aVhttps://www.clarin.com/politica/Macri-discurso-motivacional-Tecnopolis_0_1532846967.html
p13
aVhttps://www.clarin.com/politica/Macri-discurso-motivacional-Tecnopolis_0_1532846967.html
p14
a.