(lp0
Vhttps://www.clarin.com/sociedad/Patovicas-atacaron-disculparon-ofrecieron-entradas_0_1628837121.html
p1
aVhttps://www.clarin.com/sociedad/Patovicas-atacaron-disculparon-ofrecieron-entradas_0_1628837121.html
p2
aVhttps://www.clarin.com/politica/Peronismo-Scioli-Lamberto-AGN-Massa_0_1628837112.html
p3
aVhttps://www.clarin.com/politica/Peronismo-Scioli-Lamberto-AGN-Massa_0_1628837112.html
p4
aVhttps://www.clarin.com/ieco/economia/empresas-dicen-facturar-garantizan-servicio_0_1628237342.html
p5
aVhttps://www.clarin.com/ieco/economia/empresas-dicen-facturar-garantizan-servicio_0_1628237342.html
p6
aVhttps://www.clarin.com/ieco/economia/crisis-tarifas-Gobierno-audiencia-publica_0_1628237331.html
p7
aVhttps://www.clarin.com/ieco/economia/crisis-tarifas-Gobierno-audiencia-publica_0_1628237331.html
p8
aVhttps://www.clarin.com/ieco/Coto-invirtio-millones-nueva-sucursal_0_1628237336.html
p9
aVhttps://www.clarin.com/ieco/Coto-invirtio-millones-nueva-sucursal_0_1628237336.html
p10
a.