(lp0
Vhttps://www.clarin.com/sociedad/arranco-espera-invierno-normal-Ciudad_0_1599440108.html
p1
aVhttps://www.clarin.com/sociedad/arranco-espera-invierno-normal-Ciudad_0_1599440108.html
p2
aVhttps://www.clarin.com/ieco/economia/BCE-prepara-enfrentar-Brexit_0_1599440106.html
p3
aVhttps://www.clarin.com/ieco/economia/BCE-prepara-enfrentar-Brexit_0_1599440106.html
p4
aVhttps://www.clarin.com/sociedad/Macri-rosarino-hacer-tarea-escuela_0_1599440100.html
p5
aVhttps://www.clarin.com/sociedad/Macri-rosarino-hacer-tarea-escuela_0_1599440100.html
p6
aVhttps://www.clarin.com/sociedad/Video-flotando-Artico-alertar-deshielo_0_1599440095.html
p7
aVhttps://www.clarin.com/sociedad/Video-flotando-Artico-alertar-deshielo_0_1599440095.html
p8
a.