(lp0
Vhttps://www.clarin.com/politica/miedos-llevaron-Lazaro-Baez-cortarse_0_1591040954.html
p1
aVhttps://www.clarin.com/politica/miedos-llevaron-Lazaro-Baez-cortarse_0_1591040954.html
p2
aVhttps://www.clarin.com/sociedad/Video-quiso-perdio-celular-montana_0_1591040949.html
p3
aVhttps://www.clarin.com/sociedad/Video-quiso-perdio-celular-montana_0_1591040949.html
p4
aVhttps://www.clarin.com/sociedad/anos-llamo-mama-manejaba-borracha_0_1591040944.html
p5
aVhttps://www.clarin.com/sociedad/anos-llamo-mama-manejaba-borracha_0_1591040944.html
p6
aVhttps://www.clarin.com/sociedad/secreto-trucos-famosos-David-Copperfield_0_1591040946.html
p7
aVhttps://www.clarin.com/sociedad/secreto-trucos-famosos-David-Copperfield_0_1591040946.html
p8
aVhttps://www.clarin.com/politica/Macri-siguio-agenda-dedicada-jubilados_0_1591040943.html
p9
aVhttps://www.clarin.com/politica/Macri-siguio-agenda-dedicada-jubilados_0_1591040943.html
p10
a.