(lp0
Vhttps://www.clarin.com/opinion/Mafalda-criatura-global_0_1637836352.html
p1
aVhttps://www.clarin.com/sociedad/Llega-Savoir-fiesta-sentidos_0_1637236355.html
p2
aVhttps://www.clarin.com/sociedad/Llega-Savoir-fiesta-sentidos_0_1637236355.html
p3
aVhttps://www.clarin.com/politica/Rogelio-Frigerio-Recien-lograr-evitar_0_1637836419.html
p4
aVhttps://www.clarin.com/politica/Rogelio-Frigerio-Recien-lograr-evitar_0_1637836419.html
p5
aVhttps://www.clarin.com/sociedad/viejo-zaguan-vuelve_0_1637836415.html
p6
aVhttps://www.clarin.com/sociedad/Petting-franeleo-critico-defienden-sexologos_0_1637836414.html
p7
aVhttps://www.clarin.com/sociedad/Petting-franeleo-critico-defienden-sexologos_0_1637836414.html
p8
a.