(lp0
Vhttps://www.clarin.com/politica/Macri-celebro-elogios-Papa-relacion_0_1606639420.html
p1
aVhttps://www.clarin.com/politica/operador-Lopez-Espana-suma-viajes_0_1606639422.html
p2
aVhttps://www.clarin.com/politica/operador-Lopez-Espana-suma-viajes_0_1606639422.html
p3
aVhttps://www.clarin.com/opinion/cansado-historias-militantes-fraguadas-poder_0_1606639410.html
p4
aVhttps://www.clarin.com/opinion/cansado-historias-militantes-fraguadas-poder_0_1606639410.html
p5
aVhttps://www.clarin.com/politica/Macri-Bruselas-negociar-Union-Europea_0_1606639407.html
p6
aVhttps://www.clarin.com/politica/Macri-Bruselas-negociar-Union-Europea_0_1606639407.html
p7
aVhttps://www.clarin.com/politica/Ernesto-Sanz-Lopez-kirchnerismo-gobierno_0_1606639406.html
p8
aVhttps://www.clarin.com/politica/Ernesto-Sanz-Lopez-kirchnerismo-gobierno_0_1606639406.html
p9
aVhttps://www.clarin.com/politica/Milani-miedo-Justicia-determinar-inocencia_0_1606639405.html
p10
aVhttps://www.clarin.com/politica/Milani-miedo-Justicia-determinar-inocencia_0_1606639405.html
p11
a.