(lp0
Vhttps://www.clarin.com/ieco/economia/produccion-pymes-mayor-caida-medio_0_1603039731.html
p1
aVhttps://www.clarin.com/sociedad/Rescates-suspension-evacuados-intensas-nevadas_0_1603039730.html
p2
aVhttps://www.clarin.com/sociedad/Rescates-suspension-evacuados-intensas-nevadas_0_1603039730.html
p3
aVhttps://www.clarin.com/ieco/economia/INDEC-informara-primera-medicion-PBI_0_1603039726.html
p4
aVhttps://www.clarin.com/ieco/economia/INDEC-informara-primera-medicion-PBI_0_1603039726.html
p5
aVhttps://www.clarin.com/sociedad/Intentan-rescatar-ballena-austral-viernes_0_1603039711.html
p6
aVhttps://www.clarin.com/sociedad/Intentan-rescatar-ballena-austral-viernes_0_1603039711.html
p7
a.