(lp0
Vhttps://www.clarin.com/sociedad/acortan-viajes-crecen-escapadas-exterior_0_1520848330.html
p1
aVhttps://www.clarin.com/sociedad/acortan-viajes-crecen-escapadas-exterior_0_1520848330.html
p2
aVhttps://www.clarin.com/sociedad/locos-Einstein-contento_0_1520848321.html
p3
a.