(lp0
Vhttps://www.clarin.com/politica/Avanzan-obras-hoteles-Cristobal-Lopez_0_1659434217.html
p1
aVhttps://www.clarin.com/politica/Avanzan-obras-hoteles-Cristobal-Lopez_0_1659434217.html
p2
aVhttps://www.clarin.com/opinion/busca-acuerdo-aliviar-cuadro-social_0_1659434223.html
p3
aVhttps://www.clarin.com/opinion/Agenda-urgencias-cerrar-ano_0_1660033992.html
p4
aVhttps://www.clarin.com/opinion/Navidad-Macri-keynesiano_0_1660033991.html
p5
aVhttps://www.clarin.com/politica/Hebe-Bonafini-comparar-Macri-Mussolini_0_1659434257.html
p6
aVhttps://www.clarin.com/politica/Hebe-Bonafini-comparar-Macri-Mussolini_0_1659434257.html
p7
aVhttps://www.clarin.com/ieco/economia/Caputo-deuda-problema_0_1659434258.html
p8
aVhttps://www.clarin.com/ieco/economia/Caputo-deuda-problema_0_1659434258.html
p9
aVhttps://www.clarin.com/ieco/economia/quieren-quitar-empresa-asegura-OCA_0_1659434255.html
p10
aVhttps://www.clarin.com/ieco/economia/quieren-quitar-empresa-asegura-OCA_0_1659434255.html
p11
aVhttps://www.clarin.com/sociedad/Logro-mama-pelear-cancer-embarazo_0_1659434251.html
p12
aVhttps://www.clarin.com/sociedad/Logro-mama-pelear-cancer-embarazo_0_1659434251.html
p13
aVhttps://www.clarin.com/sociedad/Rosetta-apaga-revelar-claves-origen_0_1659434250.html
p14
aVhttps://www.clarin.com/sociedad/Rosetta-apaga-revelar-claves-origen_0_1659434250.html
p15
a.