(lp0
Vhttps://www.clarin.com/politica/Arranco-reunion-Rosada-Pablo-Moyano_0_1671432874.html
p1
aVhttps://www.clarin.com/politica/Arranco-reunion-Rosada-Pablo-Moyano_0_1671432874.html
p2
aVhttps://www.clarin.com/sociedad/Marte-obsesion-anos_0_1671432872.html
p3
aVhttps://www.clarin.com/sociedad/Marte-obsesion-anos_0_1671432872.html
p4
aVhttps://www.clarin.com/politica/Insaurralde-relacion-Jesica-Cirio-llegando_0_1671432868.html
p5
aVhttps://www.clarin.com/politica/Insaurralde-relacion-Jesica-Cirio-llegando_0_1671432868.html
p6
aVhttps://www.clarin.com/politica/Esmeralda-Fenix-Establo-intendentes-PJ_0_1671432869.html
p7
aVhttps://www.clarin.com/politica/Esmeralda-Fenix-Establo-intendentes-PJ_0_1671432869.html
p8
aVhttps://www.clarin.com/politica/Presupuesto-oposicion-pretensiones-acercamiento-oficialismo_0_1670833050.html
p9
aVhttps://www.clarin.com/politica/Presupuesto-oposicion-pretensiones-acercamiento-oficialismo_0_1670833050.html
p10
aVhttps://www.clarin.com/sociedad/estudiantes-atacaron-golpes-escuela-Chascomus_0_1671432856.html
p11
aVhttps://www.clarin.com/sociedad/estudiantes-atacaron-golpes-escuela-Chascomus_0_1671432856.html
p12
aVhttps://www.clarin.com/sociedad/horas-temporal-lluvia-granizo-Misiones_0_1671432862.html
p13
aVhttps://www.clarin.com/sociedad/horas-temporal-lluvia-granizo-Misiones_0_1671432862.html
p14
a.