(lp0
S'https://www.clarin.com/ieco/pedido-interpelacion-Aranguren_0_1633636812.html'
p1
aS'https://www.clarin.com/ieco/Gestiones-acuerdo-automotriz-Brasil_0_1633636824.html'
p2
aS'https://www.clarin.com/politica/Corte-reclamara-ajustes-razonables-audiencias_0_1633636839.html'
p3
aS'https://www.clarin.com/politica/Corte-reclamara-ajustes-razonables-audiencias_0_1633636839.html'
p4
aS'https://www.clarin.com/opinion/tolerancia-sigue-cero_0_1634236567.html'
p5
aS'https://www.clarin.com/politica/Gobierno-apelara-prisiones-domiciliarias-represores_0_1633636808.html'
p6
aS'https://www.clarin.com/politica/Gobierno-apelara-prisiones-domiciliarias-represores_0_1633636808.html'
p7
aS'https://www.clarin.com/opinion/federalismo-justo_0_1633636767.html'
p8
aS'https://www.clarin.com/ieco/economia/pobre-Capital-hacen-falta_0_1634236566.html'
p9
aS'https://www.clarin.com/opinion/Guerra-tarjetas-amor-dolar_0_1634236565.html'
p10
aS'https://www.clarin.com/sociedad/manejar-cuatriciclo-verano-tener-registro_0_1633636818.html'
p11
aS'https://www.clarin.com/sociedad/manejar-cuatriciclo-verano-tener-registro_0_1633636818.html'
p12
aS'https://www.clarin.com/opinion/Gritos-susurros-Mercosur_0_1634236564.html'
p13
a.