(lp0
Vhttps://www.clarin.com/sociedad/festejar-doble-escarapela-Avenida-Mayo_0_1609639121.html
p1
aVhttps://www.clarin.com/sociedad/festejar-doble-escarapela-Avenida-Mayo_0_1609639121.html
p2
aVhttps://www.clarin.com/ieco/economia/Pinedo-Gobierno-acompanar-razonable-argentinos_0_1609639118.html
p3
aVhttps://www.clarin.com/ieco/economia/Pinedo-Gobierno-acompanar-razonable-argentinos_0_1609639118.html
p4
aVhttps://www.clarin.com/ieco/economia/Petroleras-importar-petroleo-advertencia-Gobierno_0_1609639113.html
p5
aVhttps://www.clarin.com/ieco/economia/Petroleras-importar-petroleo-advertencia-Gobierno_0_1609639113.html
p6
aVhttps://www.clarin.com/politica/Papa-advierte-Madre-Patria-vender_0_1609639107.html
p7
aVhttps://www.clarin.com/politica/Papa-advierte-Madre-Patria-vender_0_1609639107.html
p8
a.