(lp0
S'https://www.clarin.com/sociedad/resistencia-The-Who_0_1591041056.html'
p1
aS'https://www.clarin.com/sociedad/Argentina-Tidal-competir-Apple-Spotify_0_1591041055.html'
p2
aS'https://www.clarin.com/sociedad/divorcios-dia-pico-crisis-pareja_0_1591041047.html'
p3
aS'https://www.clarin.com/politica/Aprobaron-dictamen-Diputados-allanar-Vido_0_1591041041.html'
p4
aS'https://www.clarin.com/politica/Aprobaron-dictamen-Diputados-allanar-Vido_0_1591041041.html'
p5
aS'https://www.clarin.com/sociedad/Primer-concurso-diseno-realidad-virtual_0_1591041026.html'
p6
aS'https://www.clarin.com/sociedad/Primer-concurso-diseno-realidad-virtual_0_1591041026.html'
p7
a.