(lp0
S'https://www.clarin.com/sociedad/Murieron-animales-Mendoza-piden-cierre_0_1578442257.html'
p1
aS'https://www.clarin.com/sociedad/Murieron-animales-Mendoza-piden-cierre_0_1578442257.html'
p2
aS'https://www.clarin.com/ieco/economia/Limitan-compras-Lebacs-inversores-extranjeros_0_1578442253.html'
p3
aS'https://www.clarin.com/sociedad/Intenet-mil-argentinos-independizaron_0_1578442248.html'
p4
aS'https://www.clarin.com/sociedad/Intenet-mil-argentinos-independizaron_0_1578442248.html'
p5
aS'https://www.clarin.com/politica/Salta-adelantos-millones-Gobierno-nacional_0_1578442226.html'
p6
aS'https://www.clarin.com/politica/Salta-adelantos-millones-Gobierno-nacional_0_1578442226.html'
p7
aS'https://www.clarin.com/politica/Guelar-presento-cartas-credenciales-presidente_0_1578442243.html'
p8
a.