(lp0
S'https://www.clarin.com/politica/Justicia-rechazo-buscaba-intervencion-AFSCA_0_1499850379.html'
p1
aS'https://www.clarin.com/politica/Malcorra-Cancilleria-contratos_K-militantes_0_1499850371.html'
p2
a.