(lp0
Vhttps://www.clarin.com/sociedad/Planetario-vive-noche-Luna_0_1664833663.html
p1
aVhttps://www.clarin.com/sociedad/Planetario-vive-noche-Luna_0_1664833663.html
p2
aVhttps://www.clarin.com/politica/semana-furia-politica-Carrio-stents_0_1664833660.html
p3
aVhttps://www.clarin.com/politica/semana-furia-politica-Carrio-stents_0_1664833660.html
p4
aVhttps://www.clarin.com/sociedad/Hijos-Tinder-primera-generacion-Baby_0_1664833659.html
p5
aVhttps://www.clarin.com/sociedad/Hijos-Tinder-primera-generacion-Baby_0_1664833659.html
p6
aVhttps://www.clarin.com/sociedad/apps-citas-quiere_0_1664833658.html
p7
aVhttps://www.clarin.com/sociedad/apps-citas-quiere_0_1664833658.html
p8
aVhttps://www.clarin.com/sociedad/Rompimos-prejuicio-ves-solo-noche_0_1664833657.html
p9
aVhttps://www.clarin.com/sociedad/Rompimos-prejuicio-ves-solo-noche_0_1664833657.html
p10
aVhttps://www.clarin.com/sociedad/Tinder-toda-culpa-embarazo-feliz_0_1664833656.html
p11
aVhttps://www.clarin.com/sociedad/Tinder-toda-culpa-embarazo-feliz_0_1664833656.html
p12
aVhttps://www.clarin.com/sociedad/Revelaciones-frente-aguja-brujula_0_1664833655.html
p13
aVhttps://www.clarin.com/politica/emergencia-problemas-estructurales-sacan-chispas_0_1664833653.html
p14
aVhttps://www.clarin.com/politica/emergencia-problemas-estructurales-sacan-chispas_0_1664833653.html
p15
aVhttps://www.clarin.com/politica/Alfonsin-adolescentes-radicales-Cristina-Kirchner_0_1664833648.html
p16
aVhttps://www.clarin.com/politica/Alfonsin-adolescentes-radicales-Cristina-Kirchner_0_1664833648.html
p17
a.