(lp0
Vhttps://www.clarin.com/opinion/lugar-encierro-adolescentes-embargo-puertas_0_1664833636.html
p1
aVhttps://www.clarin.com/opinion/lugar-encierro-adolescentes-embargo-puertas_0_1664833636.html
p2
aVhttps://www.clarin.com/politica/Guillermo-Moreno-Cesar-Milani-pancherias_0_1664833632.html
p3
aVhttps://www.clarin.com/politica/Guillermo-Moreno-Cesar-Milani-pancherias_0_1664833632.html
p4
aVhttps://www.clarin.com/sociedad/Oktoberfest-espera-multitud-semana-largo_0_1664833628.html
p5
aVhttps://www.clarin.com/sociedad/Oktoberfest-espera-multitud-semana-largo_0_1664833628.html
p6
aVhttps://www.clarin.com/sociedad/Web-prostitucion-clientes-mujeres-muertas_0_1664833619.html
p7
aVhttps://www.clarin.com/sociedad/Web-prostitucion-clientes-mujeres-muertas_0_1664833619.html
p8
a.