(lp0
S'https://www.clarin.com/politica/Nueva-amenaza-bomba-Casa-Rosada_0_1630637062.html'
p1
aS'https://www.clarin.com/ieco/economia/INDEC-desacelera-inflacion-julio-subio_0_1630637068.html'
p2
aS'https://www.clarin.com/politica/Obras-sociales-gremios-preparan-pasar_0_1630637063.html'
p3
aS'https://www.clarin.com/ieco/Oficial-inflacion-julio_0_1630637054.html'
p4
aS'https://www.clarin.com/politica/Massa-Desconfiamos-fanaticos-mercado_0_1630637059.html'
p5
aS'https://www.clarin.com/sociedad/EEUU-publicidad-Web-baja-papel_0_1630637061.html'
p6
a.