(lp0
Vhttps://www.clarin.com/sociedad/restaurante-argentino-sexto-mejor-mundo_0_1595240485.html
p1
aVhttps://www.clarin.com/sociedad/restaurante-argentino-sexto-mejor-mundo_0_1595240485.html
p2
aVhttps://www.clarin.com/ieco/economia/Gobierno-busca-todas-bolsa-pais_0_1594640719.html
p3
aVhttps://www.clarin.com/ieco/economia/Gobierno-busca-todas-bolsa-pais_0_1594640719.html
p4
aVhttps://www.clarin.com/politica/inhibio-bienes-Hipodromo-Cristobal-Lopez_0_1594640712.html
p5
aVhttps://www.clarin.com/politica/inhibio-bienes-Hipodromo-Cristobal-Lopez_0_1594640712.html
p6
aVhttps://www.clarin.com/politica/Radio-America-control-intimo-comprador_0_1594640684.html
p7
aVhttps://www.clarin.com/politica/Radio-America-control-intimo-comprador_0_1594640684.html
p8
a.