(lp0
Vhttps://www.clarin.com/opinion/perro-sabe_0_1683431792.html
p1
aVhttps://www.clarin.com/politica/DAIA-preocupada-intencion-Nisman-Cristina_0_1683431791.html
p2
aVhttps://www.clarin.com/sociedad/Tragedia-Campana-murieron-derrumbe-construccion_0_1683431788.html
p3
aVhttps://www.clarin.com/sociedad/Tragedia-Campana-murieron-derrumbe-construccion_0_1683431788.html
p4
aVhttps://www.clarin.com/politica/AFIP-moratoria-petrolera-Cristobal-Lopez_0_1683431779.html
p5
aVhttps://www.clarin.com/politica/AFIP-moratoria-petrolera-Cristobal-Lopez_0_1683431779.html
p6
a.