(lp0
S'https://www.clarin.com/sociedad/tragedia-Germanwings-familias-muertos-argentinos_0_1546045614.html'
p1
aS'https://www.clarin.com/politica/Obama-Bariloche-curiosos-seguridad-alfombra_0_1546045644.html'
p2
aS'https://www.clarin.com/sociedad/cantidad-turistas-operativo-especial-Cataratas_0_1546045641.html'
p3
aS'https://www.clarin.com/sociedad/Polemica-pueden-hablar-gatos_0_1546045630.html'
p4
a.