(lp0
Vhttps://www.clarin.com/sociedad/presidente-Ecuador-muerte-argentinas-Patria_0_1531047202.html
p1
aVhttps://www.clarin.com/sociedad/presidente-Ecuador-muerte-argentinas-Patria_0_1531047202.html
p2
aVhttps://www.clarin.com/ieco/economia/Agro-satelites-Bariloche-India_0_1531047182.html
p3
aVhttps://www.clarin.com/sociedad/familias-chicas-cautela-informacion-confirmada_0_1531047184.html
p4
aVhttps://www.clarin.com/sociedad/familias-chicas-cautela-informacion-confirmada_0_1531047184.html
p5
aVhttps://www.clarin.com/sociedad/Ecuador-encontraron-muertas-turistas-argentinas_0_1531047168.html
p6
aVhttps://www.clarin.com/sociedad/Ecuador-encontraron-muertas-turistas-argentinas_0_1531047168.html
p7
aVhttps://www.clarin.com/politica/Juventud-radical-Campora-afiches-Cristina_0_1531047158.html
p8
aVhttps://www.clarin.com/politica/Juventud-radical-Campora-afiches-Cristina_0_1531047158.html
p9
aVhttps://www.clarin.com/politica/Gobierno-mirando-pasado-demonizar-kirchnerismo_0_1531047147.html
p10
aVhttps://www.clarin.com/politica/Gobierno-mirando-pasado-demonizar-kirchnerismo_0_1531047147.html
p11
a.