(lp0
Vhttps://www.clarin.com/ieco/economia/canasta-determina-pobreza-febrero-interanual_0_1536446698.html
p1
aVhttps://www.clarin.com/ieco/economia/canasta-determina-pobreza-febrero-interanual_0_1536446698.html
p2
aVhttps://www.clarin.com/politica/Miguel-Schiariti-precios-mantener-estables_0_1536446722.html
p3
aVhttps://www.clarin.com/ieco/economia/Fintech-Telecom-Argentina-US-millones_0_1536446718.html
p4
aVhttps://www.clarin.com/politica/Caso-Nisman-estallo-guerra-abogados_0_1536446695.html
p5
aVhttps://www.clarin.com/sociedad/Crimen-argentinas-Montanita-desconfian-investigacion_0_1536446684.html
p6
aVhttps://www.clarin.com/sociedad/Pura-ternura-videos-animales-Twitter_0_1536446616.html
p7
aVhttps://www.clarin.com/sociedad/Pura-ternura-videos-animales-Twitter_0_1536446616.html
p8
a.