(lp0
S'https://www.clarin.com/ieco/economia/INDEC-comienza-relevar-indice-precios_0_1550245369.html'
p1
aS'https://www.clarin.com/sociedad/papel-pasa-diario-puramente-digital_0_1550245438.html'
p2
aS'https://www.clarin.com/politica/Fuerte-suba-tarifas-agua-transporte_0_1550245439.html'
p3
aS'https://www.clarin.com/opinion/voto-Senado-lecturas_0_1550844962.html'
p4
aS'https://www.clarin.com/ieco/subas-familia-Capital-pagara_0_1550844951.html'
p5
aS'https://www.clarin.com/ieco/economia/Reunion-industriales-Gobierno_0_1550245429.html'
p6
aS'https://www.clarin.com/politica/suman-despidos-protestas_0_1550844970.html'
p7
aS'https://www.clarin.com/ieco/Claves-acceder-alcanza-tarifa-social_0_1550245446.html'
p8
aS'https://www.clarin.com/opinion/Peronismo-hoy-renovacion-desquicio_0_1550844964.html'
p9
a.