(lp0
S'https://www.clarin.com/politica/Periodismo-grieta-Jorge_Lanata_0_1515448443.html'
p1
aS'https://www.clarin.com/politica/Periodismo-grieta-Jorge_Lanata_0_1515448443.html'
p2
aS'https://www.clarin.com/politica/Unidad_AMIA-juicio_en_ausencia_0_1515448442.html'
p3
aS'https://www.clarin.com/ieco/economia/Gobierno-suman-economista-JP-Morgan_0_1515448640.html'
p4
aS'https://www.clarin.com/ieco/economia/Gobierno-suman-economista-JP-Morgan_0_1515448640.html'
p5
aS'https://www.clarin.com/sociedad/adolescentes-empieza-fumar-cine_0_1514848894.html'
p6
aS'https://www.clarin.com/sociedad/Permiten-primera-manipulen-genes-humanos_0_1514848919.html'
p7
a.