(lp0
S'https://www.clarin.com/sociedad/FuerzaEdu-mensaje-famosos-alentar-apunalado_0_1583841729.html'
p1
aS'https://www.clarin.com/sociedad/ciclo-cultural-AcercArte-parada-Lanus_0_1583841727.html'
p2
aS'https://www.clarin.com/sociedad/gripe-aconsejan-besarse_0_1583841725.html'
p3
aS'https://www.clarin.com/politica/Despouy-representante-Derechos-Humanos_0_1583841711.html'
p4
a.