(lp0
S'https://www.clarin.com/ieco/economia/empresas-retrotraer-tarifas-devolver-cobraron_0_1609639101.html'
p1
aS'https://www.clarin.com/ieco/economia/empresas-retrotraer-tarifas-devolver-cobraron_0_1609639101.html'
p2
aS'https://www.clarin.com/ieco/YPF-cerro-paritaria-aumento_0_1609639099.html'
p3
aS'https://www.clarin.com/ieco/YPF-cerro-paritaria-aumento_0_1609639099.html'
p4
aS'https://www.clarin.com/ieco/economia/Efecto-Brexit-supera-moneda-devaluo_0_1609639096.html'
p5
aS'https://www.clarin.com/ieco/economia/Efecto-Brexit-supera-moneda-devaluo_0_1609639096.html'
p6
aS'https://www.clarin.com/politica/Milagro-Sala-juicio-amenazar-comisaria_0_1609639094.html'
p7
aS'https://www.clarin.com/politica/Milagro-Sala-juicio-amenazar-comisaria_0_1609639094.html'
p8
aS'https://www.clarin.com/sociedad/Ex-divorcio-millonario-necesitaba-US1_0_1609639092.html'
p9
aS'https://www.clarin.com/sociedad/Ex-divorcio-millonario-necesitaba-US1_0_1609639092.html'
p10
a.