(lp0
Vhttps://www.clarin.com/sociedad/disfrazarse-deben-aprender-Museo-Holocausto_0_1638436365.html
p1
aVhttps://www.clarin.com/sociedad/disfrazarse-deben-aprender-Museo-Holocausto_0_1638436365.html
p2
aVhttps://www.clarin.com/politica/kirchnerismo-duro-marcha-Macri_0_1638436366.html
p3
aVhttps://www.clarin.com/sociedad/Arranca-puerta-permitira-ahorrar_0_1638436362.html
p4
aVhttps://www.clarin.com/sociedad/Arranca-puerta-permitira-ahorrar_0_1638436362.html
p5
a.