(lp0
S'https://www.clarin.com/politica/Dolar-Bonadio-rechazo-Cristina-juicio_0_1689431167.html'
p1
aS'https://www.clarin.com/sociedad/Bandejas-fanas-vinilo_0_1689431169.html'
p2
aS'https://www.clarin.com/opinion/Concursos-ingresar_0_1689431173.html'
p3
aS'https://www.clarin.com/politica/Gobierno-decidio-destino-Antonini-Wilson_0_1689431175.html'
p4
aS'https://www.clarin.com/opinion/viento-sol-patria_0_1689431177.html'
p5
aS'https://www.clarin.com/politica/Mario-Negri-kirchnerismo-dinamita-Gobierno_0_1689431160.html'
p6
aS'https://www.clarin.com/politica/Schmid-trabajador-capitales-rebolea-millones_0_1689431168.html'
p7
a.