(lp0
Vhttps://www.clarin.com/ieco/escandalo-motores-VW-registro-historia_0_1563443727.html
p1
aVhttps://www.clarin.com/ieco/escandalo-motores-VW-registro-historia_0_1563443727.html
p2
aVhttps://www.clarin.com/sociedad/internados-volvieron-mostrar-mejorias-graves_0_1563443724.html
p3
aVhttps://www.clarin.com/sociedad/internados-volvieron-mostrar-mejorias-graves_0_1563443724.html
p4
aVhttps://www.clarin.com/politica/Schiavi-reconoce-investigaban-funcionario-ahora_0_1563443718.html
p5
aVhttps://www.clarin.com/politica/Schiavi-reconoce-investigaban-funcionario-ahora_0_1563443718.html
p6
aVhttps://www.clarin.com/sociedad/defendido-Papa-aprietes-intendente-Merlo_0_1563443716.html
p7
aVhttps://www.clarin.com/sociedad/defendido-Papa-aprietes-intendente-Merlo_0_1563443716.html
p8
aVhttps://www.clarin.com/sociedad/declarar-detenidos-acusados-Time-Warp_0_1563443715.html
p9
aVhttps://www.clarin.com/sociedad/declarar-detenidos-acusados-Time-Warp_0_1563443715.html
p10
aVhttps://www.clarin.com/politica/Cordoba-primer-electoral-Macri-Presidente_0_1563443714.html
p11
aVhttps://www.clarin.com/politica/Cordoba-primer-electoral-Macri-Presidente_0_1563443714.html
p12
aVhttps://www.clarin.com/ieco/UIA-antidespidos-efecto-contrario-buscado_0_1563443712.html
p13
aVhttps://www.clarin.com/ieco/UIA-antidespidos-efecto-contrario-buscado_0_1563443712.html
p14
a.