(lp0
Vhttps://www.clarin.com/ieco/Dietrich-Vidal-US-Puerto-Quequen_0_1661833866.html
p1
aVhttps://www.clarin.com/ieco/Dietrich-Vidal-US-Puerto-Quequen_0_1661833866.html
p2
aVhttps://www.clarin.com/sociedad/conocio-Internet-caso-saber-nieta_0_1661833864.html
p3
aVhttps://www.clarin.com/sociedad/conocio-Internet-caso-saber-nieta_0_1661833864.html
p4
aVhttps://www.clarin.com/ieco/bancarios-reclaman-siguen-medidas-fuerza_0_1661833857.html
p5
aVhttps://www.clarin.com/ieco/bancarios-reclaman-siguen-medidas-fuerza_0_1661833857.html
p6
aVhttps://www.clarin.com/politica/diputados-senadores-admitieron-titulo-universitario_0_1660033994.html
p7
aVhttps://www.clarin.com/politica/diputados-senadores-admitieron-titulo-universitario_0_1660033994.html
p8
aVhttps://www.clarin.com/sociedad/Facebook-compra-online-plataforma-propia_0_1661833851.html
p9
aVhttps://www.clarin.com/sociedad/Facebook-compra-online-plataforma-propia_0_1661833851.html
p10
a.