(lp0
S'https://www.clarin.com/sociedad/sudestada-Costa-clases-suspendidas-metros_0_1645635595.html'
p1
aS'https://www.clarin.com/sociedad/Ahora-Internet-Cosas_0_1645635596.html'
p2
aS'https://www.clarin.com/sociedad/Siempre-dejaba-aprendizaje_0_1645635593.html'
p3
aS'https://www.clarin.com/sociedad/Star-Trek-futuro-profecias-cumplidas_0_1645635599.html'
p4
aS'https://www.clarin.com/politica/paraguas-siguen-entrando_0_1645635600.html'
p5
aS'https://www.clarin.com/ieco/economia/Gas-luz-alivio-Casa-Rosada_0_1645635597.html'
p6
aS'https://www.clarin.com/sociedad/escandalo-crisis-historia-Nobel-Medicina_0_1645635598.html'
p7
a.