(lp0
Vhttps://www.clarin.com/sociedad/crimenes-Montanita-Ecuador-peritos-argentinos_0_1533446819.html
p1
aVhttps://www.clarin.com/sociedad/crimenes-Montanita-Ecuador-peritos-argentinos_0_1533446819.html
p2
aVhttps://www.clarin.com/sociedad/viralizo-memoria-chicas-mendocinas-asesinadas_0_1533446820.html
p3
aVhttps://www.clarin.com/sociedad/viralizo-memoria-chicas-mendocinas-asesinadas_0_1533446820.html
p4
aVhttps://www.clarin.com/politica/Augusto-Costa-justifico-trituradoras-papel_0_1533446821.html
p5
aVhttps://www.clarin.com/politica/Augusto-Costa-justifico-trituradoras-papel_0_1533446821.html
p6
aVhttps://www.clarin.com/ieco/Chevrolet-Volkswagen-Ford-marcas-vendidas_0_1533446807.html
p7
aVhttps://www.clarin.com/sociedad/gobierno-admite-dengue-llego-quedarse_0_1533446798.html
p8
aVhttps://www.clarin.com/sociedad/gobierno-admite-dengue-llego-quedarse_0_1533446798.html
p9
a.