(lp0
S'https://www.clarin.com/politica/Casanello-indagatoria-Elaskar-Farina-Baez_0_1548445598.html'
p1
aS'https://www.clarin.com/politica/Casanello-indagatoria-Elaskar-Farina-Baez_0_1548445598.html'
p2
aS'https://www.clarin.com/sociedad/denunciar-renuncia-director-hospital-Misiones_0_1548445575.html'
p3
aS'https://www.clarin.com/sociedad/denunciar-renuncia-director-hospital-Misiones_0_1548445575.html'
p4
aS'https://www.clarin.com/sociedad/Foro-Mundial-Bicicleta-ciclistas-Chile_0_1548445571.html'
p5
aS'https://www.clarin.com/sociedad/Foro-Mundial-Bicicleta-ciclistas-Chile_0_1548445571.html'
p6
aS'https://www.clarin.com/ieco/emprendedores/Pymes_exportadoras_0_1548445562.html'
p7
aS'https://www.clarin.com/ieco/emprendedores/Pymes_exportadoras_0_1548445562.html'
p8
aS'https://www.clarin.com/politica/Piden-Firmenich-Vaca-Narvaja-Rucci_0_1548445564.html'
p9
aS'https://www.clarin.com/politica/Piden-Firmenich-Vaca-Narvaja-Rucci_0_1548445564.html'
p10
aS'https://www.clarin.com/sociedad/Rosario-quitado-vida-matar-pareja_0_1548445558.html'
p11
a.