(lp0
S'https://www.clarin.com/sociedad/emocionante-Oscar-perro-revoluciona-Web_0_1573042760.html'
p1
aS'https://www.clarin.com/politica/Mauricio-Macri-transicion-dolorosa_0_1573042771.html'
p2
aS'https://www.clarin.com/politica/Hugo-Moyano-CGT-postularia-AFA_0_1573042774.html'
p3
aS'https://www.clarin.com/politica/Vido-postergaran-indagatoria-desmarcarse-Jaime_0_1573042767.html'
p4
a.