(lp0
S'https://www.clarin.com/politica/Aparecio-alquiler-Lopez-Lazaro-Baez_0_1597640391.html'
p1
aS'https://www.clarin.com/ieco/economia/refugiados-elegido-mejor-emprendedor-mundo_0_1598240206.html'
p2
aS'https://www.clarin.com/politica/Caso-Lopez-gente-Cristina-sabia_0_1597640356.html'
p3
aS'https://www.clarin.com/ieco/economia/Arranca-Procrear-Macri_0_1598240212.html'
p4
aS'https://www.clarin.com/ieco/economia/Desesperados-titulos-pesos_0_1598240239.html'
p5
aS'https://www.clarin.com/ieco/economia/cine-herramienta-mejorar-gestion-cambio_0_1598240211.html'
p6
aS'https://www.clarin.com/ieco/economia/Fanaticos-Bengala-Pakistan-India_0_1598240241.html'
p7
aS'https://www.clarin.com/ieco/economia/Argentina-central-nuclear-empresa-estatal_0_1598240204.html'
p8
aS'https://www.clarin.com/ieco/economia/trabajos-repetitivos-van-desaparecer_0_1598240205.html'
p9
aS'https://www.clarin.com/politica/carcel-Ezeiza-crisis-cortes-escapar_0_1597640395.html'
p10
aS'https://www.clarin.com/ieco/economia/Aprovechando-paz-cambiaria_0_1598240237.html'
p11
aS'https://www.clarin.com/ieco/economia/Marketing-digital-pymes_0_1598240215.html'
p12
aS'https://www.clarin.com/politica/Confirman-procesamiento-hermanos-Zacarias_0_1597640396.html'
p13
aS'https://www.clarin.com/ieco/economia/abiertos-horas_0_1598240213.html'
p14
aS'https://www.clarin.com/politica/Expectativa-onda-expansiva-investigacion_0_1597640341.html'
p15
a.