(lp0
S'https://www.clarin.com/politica/Gas-incrementos_0_1550844947.html'
p1
aS'https://www.clarin.com/politica/Agua-aumentos-llegan_0_1550844946.html'
p2
aS'https://www.clarin.com/politica/Subtes-viaje-costara-mayo_0_1550844943.html'
p3
aS'https://www.clarin.com/politica/Trenes-ramales-suben_0_1550844941.html'
p4
aS'https://www.clarin.com/politica/Colectivos-boleto-minimo-pasa_0_1550844940.html'
p5
aS'https://www.clarin.com/politica/Acoso-Clarin-procesamientos-Vanoli-Moreno_0_1550245427.html'
p6
aS'https://www.clarin.com/politica/Acoso-Clarin-procesamientos-Vanoli-Moreno_0_1550245427.html'
p7
aS'https://www.clarin.com/opinion/Preocupacion-empresaria-baja-actividad_0_1550245373.html'
p8
aS'https://www.clarin.com/opinion/Preocupacion-empresaria-baja-actividad_0_1550245373.html'
p9
aS'https://www.clarin.com/opinion/Indiferentes-horror-matanza-cristianos_0_1550245317.html'
p10
aS'https://www.clarin.com/opinion/Nueva-politica-basada-cooperacion_0_1550245314.html'
p11
aS'https://www.clarin.com/politica/gas-aumenta-hoy-promedio_0_1550245442.html'
p12
aS'https://www.clarin.com/politica/gas-aumenta-hoy-promedio_0_1550245442.html'
p13
a.