(lp0
S'https://www.clarin.com/politica/Macri-Llao-Obama-partio-aeropuerto_0_1546045776.html'
p1
aS'https://www.clarin.com/politica/Macri-Llao-Obama-partio-aeropuerto_0_1546045776.html'
p2
aS'https://www.clarin.com/sociedad/Premiaron-virologa-argentina-lucha-dengue_0_1546045796.html'
p3
aS'https://www.clarin.com/sociedad/Premiaron-virologa-argentina-lucha-dengue_0_1546045791.html'
p4
aS'https://www.clarin.com/politica/horarios-lugares-marchas-aniversario-golpe_0_1546045510.html'
p5
aS'https://www.clarin.com/politica/horarios-lugares-marchas-aniversario-golpe_0_1546045510.html'
p6
aS'https://www.clarin.com/politica/Plaza-Mayo-vez-abierta-Rosada_0_1546045779.html'
p7
aS'https://www.clarin.com/politica/Plaza-Mayo-vez-abierta-Rosada_0_1546045779.html'
p8
a.