(lp0
Vhttps://www.clarin.com/sociedad/Motoqueras-compran-motos-venden-pais_0_1649835232.html
p1
aVhttps://www.clarin.com/sociedad/Motoqueras-compran-motos-venden-pais_0_1649835232.html
p2
aVhttps://www.clarin.com/politica/Impulsan-acuerdo-vecinos-division-Matanza_0_1649835230.html
p3
aVhttps://www.clarin.com/politica/Impulsan-acuerdo-vecinos-division-Matanza_0_1649835230.html
p4
aVhttps://www.clarin.com/sociedad/Instagram-copia-redes-popular_0_1649835228.html
p5
aVhttps://www.clarin.com/ieco/Duncan-Argentina-Reino-Unido-negocios_0_1649835220.html
p6
aVhttps://www.clarin.com/ieco/Duncan-Argentina-Reino-Unido-negocios_0_1649835220.html
p7
a.