(lp0
Vhttps://www.clarin.com/politica/Fernando-Iglesias-Manuel-Abal-Medina_0_1670233142.html
p1
aVhttps://www.clarin.com/politica/Fernando-Iglesias-Manuel-Abal-Medina_0_1670233142.html
p2
aVhttps://www.clarin.com/politica/Cristina-fustigo-Macri-bomba-tiempo_0_1670233139.html
p3
aVhttps://www.clarin.com/politica/Cristina-fustigo-Macri-bomba-tiempo_0_1670233139.html
p4
aVhttps://www.clarin.com/sociedad/big-data-suerte-pesa-deportes_0_1670233138.html
p5
aVhttps://www.clarin.com/ieco/economia/Monotributistas-autonomos-ayudaron-compensar-empleo_0_1670233136.html
p6
aVhttps://www.clarin.com/politica/Arancedo-relacion-Gobierno-madura-positiva_0_1670233135.html
p7
aVhttps://www.clarin.com/politica/Arancedo-relacion-Gobierno-madura-positiva_0_1670233135.html
p8
aVhttps://www.clarin.com/politica/Blanqueo-adhesion-cuentagotas-contexto-adverso_0_1670233132.html
p9
aVhttps://www.clarin.com/politica/Blanqueo-adhesion-cuentagotas-contexto-adverso_0_1670233132.html
p10
a.