(lp0
Vhttps://www.clarin.com/sociedad/lugares-paises-sabado-observara-Luna_0_1664233589.html
p1
aVhttps://www.clarin.com/sociedad/lugares-paises-sabado-observara-Luna_0_1664233589.html
p2
aVhttps://www.clarin.com/politica/Gobierno-advirtio-bono-solo-ganan_0_1663633832.html
p3
aVhttps://www.clarin.com/ieco/economia/noruegos-aterrizan-aerolinea-low-cost_0_1663633822.html
p4
aVhttps://www.clarin.com/ieco/economia/noruegos-aterrizan-aerolinea-low-cost_0_1663633822.html
p5
aVhttps://www.clarin.com/ieco/economia/Telecom-consiguio-US-Banco-Mundial_0_1663633677.html
p6
aVhttps://www.clarin.com/ieco/economia/Telecom-consiguio-US-Banco-Mundial_0_1663633677.html
p7
a.