(lp0
Vhttps://www.clarin.com/ieco/economia/CAME-semana-viajaron-personas-ventas_0_1598840220.html
p1
aVhttps://www.clarin.com/ieco/economia/CAME-semana-viajaron-personas-ventas_0_1598840220.html
p2
aVhttps://www.clarin.com/ieco/economia/Subieron-ADRs-euforia-mercados-europeos_0_1598840218.html
p3
aVhttps://www.clarin.com/ieco/economia/Subieron-ADRs-euforia-mercados-europeos_0_1598840218.html
p4
aVhttps://www.clarin.com/politica/Fallecio-Ricardo-Obregon-Cano-Cordoba_0_1598840215.html
p5
aVhttps://www.clarin.com/politica/Fallecio-Ricardo-Obregon-Cano-Cordoba_0_1598840215.html
p6
aVhttps://www.clarin.com/politica/Sigue-sangria-gobernador-kirchnerismo-paso_0_1598840203.html
p7
aVhttps://www.clarin.com/politica/Sigue-sangria-gobernador-kirchnerismo-paso_0_1598840203.html
p8
aVhttps://www.clarin.com/sociedad/China-sacrificar-polemico-festival-Yulin_0_1598840202.html
p9
aVhttps://www.clarin.com/sociedad/China-sacrificar-polemico-festival-Yulin_0_1598840202.html
p10
aVhttps://www.clarin.com/sociedad/reacciones-comunidad-subasta-objetos-Hitler_0_1598840199.html
p11
aVhttps://www.clarin.com/sociedad/reacciones-comunidad-subasta-objetos-Hitler_0_1598840199.html
p12
a.