(lp0
Vhttps://www.clarin.com/sociedad/chico-autista-llora-show-Coldplay_0_1564043646.html
p1
aVhttps://www.clarin.com/politica/Ceferino-Reato-Abuelas-Madres-Gobierno_0_1563443731.html
p2
aVhttps://www.clarin.com/politica/Ceferino-Reato-Abuelas-Madres-Gobierno_0_1563443731.html
p3
aVhttps://www.clarin.com/politica/ovacion-Rodriguez-Saa-abrazos-Prat-Gay_0_1564043652.html
p4
aVhttps://www.clarin.com/politica/pago-efectivo-EEUU-llevo-hora_0_1564043650.html
p5
aVhttps://www.clarin.com/politica/llovizna-Fragata-Libertad-seguir-Web_0_1564043644.html
p6
aVhttps://www.clarin.com/politica/llovizna-Fragata-Libertad-seguir-Web_0_1564043644.html
p7
a.