(lp0
S'https://www.clarin.com/sociedad/perro-gatito-mascota-oso-kilos_0_1587441257.html'
p1
aS'https://www.clarin.com/ieco/economia/Avanza-venta-Citi-definen-ofertas_0_1586841392.html'
p2
aS'https://www.clarin.com/sociedad/aumento-demanda-vacunas-antigripales-privado_0_1587441252.html'
p3
a.