(lp0
S'https://www.clarin.com/sociedad/busqueda-Storani-siguio-noche-resultados_0_1551445022.html'
p1
aS'https://www.clarin.com/sociedad/busqueda-Storani-siguio-noche-resultados_0_1551445022.html'
p2
aS'https://www.clarin.com/politica/pedido-detencion-Jaime_0_1551445008.html'
p3
aS'https://www.clarin.com/politica/pedido-detencion-Jaime_0_1551445008.html'
p4
aS'https://www.clarin.com/politica/Carrio-dia-feliz_0_1551445004.html'
p5
aS'https://www.clarin.com/politica/Carrio-dia-feliz_0_1551445004.html'
p6
aS'https://www.clarin.com/politica/condenas-penales-pesan-Jaime_0_1551444998.html'
p7
aS'https://www.clarin.com/politica/condenas-penales-pesan-Jaime_0_1551444998.html'
p8
aS'https://www.clarin.com/politica/Ordenan-Ricardo-Jaime-Transporte-kirchnerista_0_1551444991.html'
p9
aS'https://www.clarin.com/politica/Ordenan-Ricardo-Jaime-Transporte-kirchnerista_0_1551444991.html'
p10
a.