(lp0
S'https://www.clarin.com/politica/Entregaron-Hector-Magnetto-Libertad-Expresion_0_1583241661.html'
p1
aS'https://www.clarin.com/ieco/economia/gobierno-porteno-coloco-US-millones_0_1582641882.html'
p2
aS'https://www.clarin.com/politica/Inhiben-funcionarios-empresas-Grupo-Plaza_0_1582641957.html'
p3
aS'https://www.clarin.com/politica/Lino-Baranao-Paenza-llamara-traidor_0_1582641960.html'
p4
aS'https://www.clarin.com/sociedad/sorpresivo-dejo-millon-chicos-clases_0_1582641953.html'
p5
aS'https://www.clarin.com/politica/Examen-Marcos-Pena-senadores-preguntas_0_1582641955.html'
p6
aS'https://www.clarin.com/politica/UCR-acuerdo-PJ-Macri-resiste_0_1582641954.html'
p7
aS'https://www.clarin.com/opinion/mate-ensena_0_1582641910.html'
p8
a.