(lp0
S'https://www.clarin.com/ieco/dolar-opera-estable_0_1607839246.html'
p1
aS'https://www.clarin.com/ieco/exportaciones-Brasil-picada-cayeron-semestre_0_1607839240.html'
p2
aS'https://www.clarin.com/ieco/Gobierno-emitira-millones-financiar-Procrear_0_1607839251.html'
p3
aS'https://www.clarin.com/politica/Cristina-cambia-cruzarse-Baez-Tribunales_0_1607839239.html'
p4
aS'https://www.clarin.com/sociedad/Advierten-antibioticos-chileno-generar-superbacterias_0_1607839242.html'
p5
aS'https://www.clarin.com/politica/completo-Martin-Baez-imputado-responder_0_1607839247.html'
p6
a.