(lp0
S'https://www.clarin.com/politica/inflacion-Congreso-julio-ano_0_1630037008.html'
p1
aS'https://www.clarin.com/sociedad/historia-Mimi-Sosa-olimpica-comunidad_0_1630037011.html'
p2
aS'https://www.clarin.com/sociedad/colectivo-futuro-chino-podria-fraude_0_1630037014.html'
p3
aS'https://www.clarin.com/politica/Reflotan-propuesta-Matanza-PJ-resistir_0_1630037015.html'
p4
aS'https://www.clarin.com/politica/Carlotto-Perez-Esquivel-Cortinas-Macri_0_1630037004.html'
p5
aS'https://www.clarin.com/politica/estatales-despidos-complicara-transito-porteno_0_1630037003.html'
p6
aS'https://www.clarin.com/sociedad/Cordera-ignorante-denuncio-abuso-musico_0_1630037012.html'
p7
a.