(lp0
S'https://www.clarin.com/sociedad/Academia-Sueca-abandono-Bob-Dylan_0_1670233013.html'
p1
aS'https://www.clarin.com/sociedad/Vivir-esperando-corazon-ilusion-chicos_0_1670233000.html'
p2
aS'https://www.clarin.com/ieco/Gobierno-emite-millones-financiar-transporte_0_1670233006.html'
p3
aS'https://www.clarin.com/sociedad/tierno-video-elefanta-rescatista_0_1670233010.html'
p4
aS'https://www.clarin.com/sociedad/padre-inconsciente-ensena-manejar-autopista_0_1670233004.html'
p5
aS'https://www.clarin.com/politica/Hablo-Andrea-Boca-Tribunales-Aca_0_1670233012.html'
p6
a.