(lp0
S'https://www.clarin.com/sociedad/Bullrich-fiesta-electronica-estrictos-pasamos_0_1561044064.html'
p1
aS'https://www.clarin.com/sociedad/Bullrich-fiesta-electronica-estrictos-pasamos_0_1561044064.html'
p2
aS'https://www.clarin.com/ieco/medio-emision-pagarle-buitres-mercado_0_1561044063.html'
p3
aS'https://www.clarin.com/ieco/medio-emision-pagarle-buitres-mercado_0_1561044063.html'
p4
aS'https://www.clarin.com/politica/Recoleta-Lazaro-Baez-garantizo-Cristina_0_1561044023.html'
p5
aS'https://www.clarin.com/politica/Recoleta-Lazaro-Baez-garantizo-Cristina_0_1561044023.html'
p6
aS'https://www.clarin.com/sociedad/Vuelta-Obligado-aislado-Vialidad-arreglar_0_1561044056.html'
p7
aS'https://www.clarin.com/sociedad/Vuelta-Obligado-aislado-Vialidad-arreglar_0_1561044056.html'
p8
a.