(lp0
Vhttps://www.clarin.com/sociedad/bomba-Moron-chico-encontro-guardaba_0_1619238098.html
p1
aVhttps://www.clarin.com/sociedad/bomba-Moron-chico-encontro-guardaba_0_1619238098.html
p2
aVhttps://www.clarin.com/politica/Babi-Wilde-jubilada-devolucion-IVA_0_1619238103.html
p3
aVhttps://www.clarin.com/politica/Babi-Wilde-jubilada-devolucion-IVA_0_1619238103.html
p4
aVhttps://www.clarin.com/sociedad/cartero-Vicente-Lopez-recorrio-mundo_0_1619238101.html
p5
aVhttps://www.clarin.com/sociedad/cartero-Vicente-Lopez-recorrio-mundo_0_1619238101.html
p6
aVhttps://www.clarin.com/politica/Indice-optimismo-cayendo-indicadores-Gobierno_0_1619238099.html
p7
aVhttps://www.clarin.com/politica/Indice-optimismo-cayendo-indicadores-Gobierno_0_1619238099.html
p8
aVhttps://www.clarin.com/sociedad/muerte-fiesta-electronica_0_1619238094.html
p9
aVhttps://www.clarin.com/sociedad/muerte-fiesta-electronica_0_1619238094.html
p10
aVhttps://www.clarin.com/ieco/campus-ieco/estudiante-escuela-Subiela-gano-DirecTV_0_1618038329.html
p11
aVhttps://www.clarin.com/ieco/campus-ieco/estudiante-escuela-Subiela-gano-DirecTV_0_1618038329.html
p12
a.