(lp0
S'https://www.clarin.com/sociedad/Suspenden-presentadoras-egipcias-TV-adelgacen_0_1634236664.html'
p1
aS'https://www.clarin.com/sociedad/Suspenden-presentadoras-egipcias-TV-adelgacen_0_1634236664.html'
p2
aS'https://www.clarin.com/politica/Pena-semanas-podrian-realizar-audiencias_0_1634236662.html'
p3
aS'https://www.clarin.com/politica/Pena-semanas-podrian-realizar-audiencias_0_1634236662.html'
p4
a.