(lp0
Vhttps://www.clarin.com/sociedad/Facebook-millon-solo-amigos_0_1510049253.html
p1
aVhttps://www.clarin.com/sociedad/Facebook-millon-solo-amigos_0_1510049253.html
p2
aVhttps://www.clarin.com/sociedad/bodas-emociono-pareja-volvio-viral_0_1510049194.html
p3
aVhttps://www.clarin.com/sociedad/bodas-emociono-pareja-volvio-viral_0_1510049194.html
p4
aVhttps://www.clarin.com/politica/Urtubey-pidio-incluya-coparticipacion_0_1510049182.html
p5
aVhttps://www.clarin.com/politica/Capitanich-Unidad-Basica-Davos-justicialista_0_1510049191.html
p6
aVhttps://www.clarin.com/politica/Capitanich-Unidad-Basica-Davos-justicialista_0_1510049191.html
p7
aVhttps://www.clarin.com/politica/Busti-Massa-Sota-indicado-PJ_0_1509449319.html
p8
aVhttps://www.clarin.com/politica/Busti-Massa-Sota-indicado-PJ_0_1509449319.html
p9
aVhttps://www.clarin.com/sociedad/Rescatan-jubilado-atrapado-montana-basura_0_1510049190.html
p10
aVhttps://www.clarin.com/ieco/economia/Ganancias-vence-plazo-presentar-deducciones_0_1510049179.html
p11
aVhttps://www.clarin.com/ieco/economia/Vamos-fuerte-impulso-creditos-hipotecarios_0_1510049176.html
p12
aVhttps://www.clarin.com/politica/fotos-insolitas-dejo-Foro-Davos_0_1510049148.html
p13
aVhttps://www.clarin.com/politica/fotos-insolitas-dejo-Foro-Davos_0_1510049148.html
p14
a.