(lp0
Vhttps://www.clarin.com/sociedad/China-inauguro-telescopio-buscar-extraterrestre_0_1657034359.html
p1
aVhttps://www.clarin.com/sociedad/China-inauguro-telescopio-buscar-extraterrestre_0_1657034359.html
p2
aVhttps://www.clarin.com/politica/Palmaghini-Stiuso-aporto-relevante-Nisman_0_1657034358.html
p3
aVhttps://www.clarin.com/politica/Palmaghini-Stiuso-aporto-relevante-Nisman_0_1657034358.html
p4
aVhttps://www.clarin.com/sociedad/pasajeros-varados-Miami-paro-Aerolineas_0_1657034317.html
p5
aVhttps://www.clarin.com/sociedad/pasajeros-varados-Miami-paro-Aerolineas_0_1657034317.html
p6
aVhttps://www.clarin.com/politica/Anibal-Fernandez-Bossio-Cristina-superada_0_1657034306.html
p7
aVhttps://www.clarin.com/politica/Anibal-Fernandez-Bossio-Cristina-superada_0_1657034306.html
p8
a.