(lp0
S'https://www.clarin.com/politica/Vidal-Massa-Medina-Bossio-Vendimia_0_1535246806.html'
p1
aS'https://www.clarin.com/politica/Pinas-gremialistas-publico-fiesta-Vendimia_0_1535246803.html'
p2
aS'https://www.clarin.com/sociedad/chicos-cuentos-perros-abandonados-refugio_0_1531047250.html'
p3
a.