(lp0
S'https://www.clarin.com/sociedad/Detuvieron-acusado-quemar-molotov-pareja_0_1577842228.html'
p1
aS'https://www.clarin.com/politica/FpV-insiste-buscar-acuerdo-massismo_0_1577242432.html'
p2
aS'https://www.clarin.com/politica/abogado-Cristina-Bonadio-Comete-venganza_0_1577842222.html'
p3
aS'https://www.clarin.com/politica/justificar-Amado-Boudou-falsifico-facturas_0_1577842224.html'
p4
a.