(lp0
S'https://www.clarin.com/politica/Garavano-Queremos-relacion-Justicia-politico_0_1599440111.html'
p1
aS'https://www.clarin.com/sociedad/Hablo-nene-horas-bosque-hojas_0_1599440125.html'
p2
aS'https://www.clarin.com/politica/vice-UIA-diferencia-Mendez-escuche_0_1599440127.html'
p3
aS'https://www.clarin.com/sociedad/Ahora-ataco-mato-San-Luis_0_1599440113.html'
p4
aS'https://www.clarin.com/politica/Macri-sufrio-esguince-rodilla_0_1599440120.html'
p5
aS'https://www.clarin.com/sociedad/renovaron-concesion-famosos-balnearios-Pinamar_0_1599440115.html'
p6
aS'https://www.clarin.com/sociedad/Indagan-intendente-manejando-borracho-quedar_0_1599440117.html'
p7
aS'https://www.clarin.com/politica/seguimiento-permitio-detener-Perez-Corradi_0_1599440116.html'
p8
a.