(lp0
S'https://www.clarin.com/ieco/economia/Fracaso-bonos-capto-US-milones_0_1507649668.html'
p1
aS'https://www.clarin.com/ieco/economia/davos-buitres_0_1507649726.html'
p2
aS'https://www.clarin.com/politica/Macri-pregunta-Milagro-Sala-Davos_0_1508249301.html'
p3
aS'https://www.clarin.com/opinion/Fernando_Sendra_0_1508249218.html'
p4
aS'https://www.clarin.com/politica/Prat_Gay-FMI-articulo_IV-Lagarde-Davos_0_1507649478.html'
p5
aS'https://www.clarin.com/ieco/economia/Gobierno-busca-bajarle-debate-coparticipacion_0_1508249321.html'
p6
aS'https://www.clarin.com/ieco/Fondos_buitre-holdouts-oferta-Daniel_Pollack-Luis_Caputo_0_1507649586.html'
p7
aS'https://www.clarin.com/politica/Mauricio_Macri-Hernan_Iglesias_Illa-Jaime_Duran_Barba-libro-campana_0_1508249300.html'
p8
aS'https://www.clarin.com/politica/Macri-Davos-Coca-Cola-US_0_1508249287.html'
p9
aS'https://www.clarin.com/ieco/economia/en_foco-canedo_0_1507649728.html'
p10
a.