(lp0
Vhttps://www.clarin.com/politica/AFIP-responsable-Buenos-AIres-Herald_0_1688231247.html
p1
aVhttps://www.clarin.com/politica/AFIP-responsable-Buenos-AIres-Herald_0_1688231247.html
p2
aVhttps://www.clarin.com/sociedad/Mars-One-disena-retorno-Marte_0_1688231228.html
p3
aVhttps://www.clarin.com/sociedad/Mars-One-disena-retorno-Marte_0_1688231228.html
p4
aVhttps://www.clarin.com/politica/Justicia-embestida-intendente-Berazategui-federal_0_1688231241.html
p5
aVhttps://www.clarin.com/politica/Justicia-embestida-intendente-Berazategui-federal_0_1688231241.html
p6
aVhttps://www.clarin.com/ieco/economia/Convocan-audiencia-publica-revision-tarifaria_0_1688231239.html
p7
aVhttps://www.clarin.com/ieco/economia/Convocan-audiencia-publica-revision-tarifaria_0_1688231239.html
p8
a.