(lp0
S'https://www.clarin.com/opinion/Fondos_de_inversion-Deficit_Fiscal-Reservas_del_Banco_Central-Inflacion_0_1500449979.html'
p1
aS'https://www.clarin.com/politica/Primer-paso-rebeldia-peronista_0_1500449973.html'
p2
aS'https://www.clarin.com/politica/Presupuesto_2016-Provincia-Vidal-FPV-Intendentes_0_1500449984.html'
p3
aS'https://www.clarin.com/sociedad/feria-Vegas-drones-viaje-persona_0_1499850441.html'
p4
aS'https://www.clarin.com/ieco/AFIP-Alberto_Abad-Ganancias-Turismo_0_1500449983.html'
p5
aS'https://www.clarin.com/politica/Senado-FpV-PJ-kirchnerismo-PRO-Miguel_Pichetto_0_1500449978.html'
p6
aS'https://www.clarin.com/politica/Triple_Crimen-provincia_de_Buenos_Aires-allanamientos-detenidos-profugos_0_1500449974.html'
p7
aS'https://www.clarin.com/opinion/Automovilismo-Chile-Peru-Fenomeno_de_El_Nino_0_1500449993.html'
p8
aS'https://www.clarin.com/politica/Triple_Crimen-triple_fuga-Santa_Fe-aguantadero_0_1500449975.html'
p9
aS'https://www.clarin.com/politica/Mauricio_Macri-Davos-vuelo-Tango_01_0_1500449976.html'
p10
aS'https://www.clarin.com/opinion/Capitalismo-Izquierda-Produccion_de_riqueza-Burocracia-Sectarismo-Trabajadores_0_1500449992.html'
p11
aS'https://www.clarin.com/politica/triple_crimen-vidal_0_1500449986.html'
p12
a.