(lp0
Vhttps://www.clarin.com/politica/Macri-Malcorra-Garcia_Moritan-ONU_0_1525047498.html
p1
aVhttps://www.clarin.com/politica/calienta-pelea-comisiones-Congreso_0_1524448001.html
p2
aVhttps://www.clarin.com/sociedad/Cumplio-sueno-Brasil-mataron-plena_0_1524447977.html
p3
aVhttps://www.clarin.com/sociedad/Cumplio-sueno-Brasil-mataron-plena_0_1524447977.html
p4
aVhttps://www.clarin.com/politica/Macri-acomoda-Olivos_0_1524448013.html
p5
aVhttps://www.clarin.com/sociedad/Copacabana-zonas-crimenes-violentos-turistas_0_1524447984.html
p6
aVhttps://www.clarin.com/sociedad/pueblo-Laura-conmovido-Todavia-podemos_0_1524447981.html
p7
aVhttps://www.clarin.com/sociedad/pueblo-Laura-conmovido-Todavia-podemos_0_1524447981.html
p8
aVhttps://www.clarin.com/politica/Macri-bloques-propios-Quinta-Presidencial_0_1524448018.html
p9
aVhttps://www.clarin.com/politica/Macri-bloques-propios-Quinta-Presidencial_0_1524448018.html
p10
aVhttps://www.clarin.com/politica/Servini-denuncio-allano-Perez_Corradi_0_1525047487.html
p11
aVhttps://www.clarin.com/politica/macri-ganancias-columna_0_1525047486.html
p12
a.