(lp0
Vhttps://www.clarin.com/opinion/Mamas-mil-formas-dia_0_1669033086.html
p1
aVhttps://www.clarin.com/opinion/Peron-peronista-justo-querian-serlo_0_1669033084.html
p2
aVhttps://www.clarin.com/opinion/Cristina-Andrea-universidad_0_1669033083.html
p3
aVhttps://www.clarin.com/opinion/CEO-militantes_0_1669033082.html
p4
aVhttps://www.clarin.com/ieco/coloquioidea/Vidal-IDEA-amenazas-vamos-parar_0_1668433366.html
p5
aVhttps://www.clarin.com/ieco/coloquioidea/Vidal-IDEA-amenazas-vamos-parar_0_1668433366.html
p6
aVhttps://www.clarin.com/ieco/coloquioidea/economistas-PBI-crecera_0_1668433365.html
p7
aVhttps://www.clarin.com/ieco/coloquioidea/economistas-PBI-crecera_0_1668433365.html
p8
aVhttps://www.clarin.com/ieco/coloquioidea/Sturzenegger-paritarias-debajo-inflacion-pasada_0_1668433364.html
p9
aVhttps://www.clarin.com/ieco/coloquioidea/Sturzenegger-paritarias-debajo-inflacion-pasada_0_1668433364.html
p10
aVhttps://www.clarin.com/sociedad/Invasion-adolescentes-Rural-iconos-retro_0_1668433363.html
p11
aVhttps://www.clarin.com/sociedad/Invasion-adolescentes-Rural-iconos-retro_0_1668433363.html
p12
a.