(lp0
Vhttps://www.clarin.com/politica/Cristina-Buenos-Chavez-Instituto-Patria_0_1621637882.html
p1
aVhttps://www.clarin.com/politica/Cristina-Buenos-Chavez-Instituto-Patria_0_1621637882.html
p2
aVhttps://www.clarin.com/ieco/Fed-volvio-mantener-podria-subirlas_0_1621637881.html
p3
aVhttps://www.clarin.com/ieco/Fed-volvio-mantener-podria-subirlas_0_1621637881.html
p4
aVhttps://www.clarin.com/politica/Macri-presidente-Peru-participa-asuncion_0_1621637868.html
p5
aVhttps://www.clarin.com/politica/Macri-presidente-Peru-participa-asuncion_0_1621637868.html
p6
aVhttps://www.clarin.com/sociedad/conocieron-detalles-compras-puerta_0_1621637877.html
p7
aVhttps://www.clarin.com/sociedad/conocieron-detalles-compras-puerta_0_1621637877.html
p8
aVhttps://www.clarin.com/sociedad/Querian-adoptar-criando-entrego-familia_0_1621637875.html
p9
aVhttps://www.clarin.com/sociedad/Querian-adoptar-criando-entrego-familia_0_1621637875.html
p10
aVhttps://www.clarin.com/ieco/Gobierno-reglamento-blanqueo-capitales_0_1621637876.html
p11
aVhttps://www.clarin.com/ieco/Gobierno-reglamento-blanqueo-capitales_0_1621637876.html
p12
aVhttps://www.clarin.com/politica/Derechos-Humanos-Carlotto-Avruj-Tucuman_0_1621637872.html
p13
aVhttps://www.clarin.com/politica/Derechos-Humanos-Carlotto-Avruj-Tucuman_0_1621637872.html
p14
aVhttps://www.clarin.com/sociedad/farmaceuticos-plan-congelar-precios-medicamentos_0_1621637870.html
p15
aVhttps://www.clarin.com/sociedad/farmaceuticos-plan-congelar-precios-medicamentos_0_1621637870.html
p16
a.