(lp0
Vhttps://www.clarin.com/ieco/economia/Paro-Goldcorp-Santa-Cruz-Cristina_0_1576042452.html
p1
aVhttps://www.clarin.com/ieco/economia/Productores-biodiesel-esperan-levantamiento-Europa_0_1576042451.html
p2
aVhttps://www.clarin.com/ieco/economia/Productores-biodiesel-esperan-levantamiento-Europa_0_1576042451.html
p3
aVhttps://www.clarin.com/sociedad/Hot-Sale-rebajas-megaofertas-descuento_0_1576042453.html
p4
aVhttps://www.clarin.com/sociedad/Hot-Sale-rebajas-megaofertas-descuento_0_1576042453.html
p5
aVhttps://www.clarin.com/sociedad/Video-argentinos-atrapados-horas-montana_0_1576042449.html
p6
aVhttps://www.clarin.com/sociedad/Video-argentinos-atrapados-horas-montana_0_1576042449.html
p7
aVhttps://www.clarin.com/sociedad/Nico-Volta-perro-cambio-autismo_0_1576042444.html
p8
aVhttps://www.clarin.com/sociedad/Nico-Volta-perro-cambio-autismo_0_1576042444.html
p9
aVhttps://www.clarin.com/ieco/economia/comprar-Petrobras-Pampa-yacimientos-YPF_0_1576042445.html
p10
aVhttps://www.clarin.com/ieco/economia/comprar-Petrobras-Pampa-yacimientos-YPF_0_1576042445.html
p11
aVhttps://www.clarin.com/politica/antidespidos-diputados-sindicales-saltan-bloque_0_1576042443.html
p12
aVhttps://www.clarin.com/politica/antidespidos-diputados-sindicales-saltan-bloque_0_1576042443.html
p13
a.