(lp0
S'https://www.clarin.com/politica/Justicia-Echegaray-Auditoria-General-Nacion_0_1590441045.html'
p1
aS'https://www.clarin.com/politica/Baez-echo-abogada-escuchas-Casanello_0_1590441041.html'
p2
aS'https://www.clarin.com/ieco/economia/motos-vendidas-ano_0_1590441038.html'
p3
aS'https://www.clarin.com/sociedad/Norma-cumple-sueno-termina-secundaria_0_1588041333.html'
p4
aS'https://www.clarin.com/politica/Presiono-PJ-Scioli-Banco-Provincia_0_1590441043.html'
p5
a.