(lp0
Vhttps://www.clarin.com/ieco/Monsanto-amenaza-quemar-toneladas-transgenica_0_1579642081.html
p1
aVhttps://www.clarin.com/ieco/Monsanto-amenaza-quemar-toneladas-transgenica_0_1579642081.html
p2
aVhttps://www.clarin.com/sociedad/cultural-Acercarte-llega-Bahia-Blanca_0_1579642083.html
p3
aVhttps://www.clarin.com/sociedad/cultural-Acercarte-llega-Bahia-Blanca_0_1579642083.html
p4
aVhttps://www.clarin.com/politica/unicos-diputados-votaron-ley-antidespidos_0_1579642080.html
p5
aVhttps://www.clarin.com/politica/unicos-diputados-votaron-ley-antidespidos_0_1579642080.html
p6
aVhttps://www.clarin.com/sociedad/Vuelven-detener-borracho-provoco-accidente_0_1579642079.html
p7
aVhttps://www.clarin.com/sociedad/Vuelven-detener-borracho-provoco-accidente_0_1579642079.html
p8
aVhttps://www.clarin.com/politica/Eliminan-fondo-Santa-Cruz-facturas_0_1579642069.html
p9
aVhttps://www.clarin.com/politica/Eliminan-fondo-Santa-Cruz-facturas_0_1579642069.html
p10
aVhttps://www.clarin.com/sociedad/meteoritos-causaron-tsunamis-arrasadores-Marte_0_1579642071.html
p11
aVhttps://www.clarin.com/sociedad/meteoritos-causaron-tsunamis-arrasadores-Marte_0_1579642071.html
p12
aVhttps://www.clarin.com/politica/Despidos-Macri-imita-Illia-despues_0_1579642073.html
p13
aVhttps://www.clarin.com/politica/Despidos-Macri-imita-Illia-despues_0_1579642073.html
p14
a.