(lp0
Vhttps://www.clarin.com/ieco/Denuncian-Aranguren-importaciones-gas-Chile_0_1579642108.html
p1
aVhttps://www.clarin.com/ieco/Denuncian-Aranguren-importaciones-gas-Chile_0_1579642108.html
p2
aVhttps://www.clarin.com/ieco/economia/Declaran-emergencia-agropecuaria-Rio-Negro_0_1579642099.html
p3
aVhttps://www.clarin.com/sociedad/Logro-sobrevivir-cocodrilos-defendiendose-inglesa_0_1579642098.html
p4
aVhttps://www.clarin.com/sociedad/Logro-sobrevivir-cocodrilos-defendiendose-inglesa_0_1579642098.html
p5
aVhttps://www.clarin.com/politica/Crisis-Santa-Cruz-gremios-Gobierno_0_1579642061.html
p6
aVhttps://www.clarin.com/politica/Crisis-Santa-Cruz-gremios-Gobierno_0_1579642061.html
p7
aVhttps://www.clarin.com/sociedad/impactante-carta-mujer-libero-violador_0_1579642082.html
p8
aVhttps://www.clarin.com/sociedad/impactante-carta-mujer-libero-violador_0_1579642082.html
p9
aVhttps://www.clarin.com/sociedad/Hablo-medica-recibio-hermanitos-condiciones_0_1579642089.html
p10
aVhttps://www.clarin.com/sociedad/Hablo-medica-recibio-hermanitos-condiciones_0_1579642089.html
p11
a.