(lp0
S'https://www.clarin.com/politica/Scioli-extracciones-efectivo-reclama-pruebas_0_1624637714.html'
p1
aS'https://www.clarin.com/politica/Scioli-extracciones-efectivo-reclama-pruebas_0_1624637714.html'
p2
aS'https://www.clarin.com/sociedad/WhatsApp-dicen-chats-pueden-borrar_0_1624637689.html'
p3
aS'https://www.clarin.com/sociedad/WhatsApp-dicen-chats-pueden-borrar_0_1624637689.html'
p4
aS'https://www.clarin.com/ieco/cobertura-medica-hoy_0_1624637709.html'
p5
aS'https://www.clarin.com/politica/mujer-Lopez-declaro-bolsos-dolares_0_1624637699.html'
p6
aS'https://www.clarin.com/politica/mujer-Lopez-declaro-bolsos-dolares_0_1624637699.html'
p7
aS'https://www.clarin.com/politica/Carrio-ratifico-Scioli-Leonardo-Farina_0_1624637696.html'
p8
aS'https://www.clarin.com/politica/Carrio-ratifico-Scioli-Leonardo-Farina_0_1624637696.html'
p9
aS'https://www.clarin.com/politica/Manana-define-apelacion-gobierno_0_1624637687.html'
p10
a.