(lp0
S'https://www.clarin.com/politica/Bonadio-Cristina-garantias-pistolero-genera_0_1619838017.html'
p1
aS'https://www.clarin.com/politica/Bonadio-Cristina-garantias-pistolero-genera_0_1619838017.html'
p2
aS'https://www.clarin.com/sociedad/Alerta-meteorologico-lluvias-fuertes-Ciudad_0_1619838016.html'
p3
aS'https://www.clarin.com/sociedad/Alerta-meteorologico-lluvias-fuertes-Ciudad_0_1619838016.html'
p4
aS'https://www.clarin.com/ieco/Protesta-Chile-jubilacion-privada_0_1619838015.html'
p5
a.