(lp0
S'https://www.clarin.com/ieco/Avanzan-gestiones-volver-exportar-EEUU_0_1660034035.html'
p1
aS'https://www.clarin.com/ieco/Avanzan-gestiones-volver-exportar-EEUU_0_1660034035.html'
p2
aS'https://www.clarin.com/politica/Argentina-Unidos-firman-acuerdo-militares_0_1660034025.html'
p3
aS'https://www.clarin.com/politica/Argentina-Unidos-firman-acuerdo-militares_0_1660034025.html'
p4
aS'https://www.clarin.com/politica/Kicillof-choca-realidad-limite-relato_0_1660034024.html'
p5
aS'https://www.clarin.com/politica/Kicillof-choca-realidad-limite-relato_0_1660034024.html'
p6
aS'https://www.clarin.com/politica/Macri-intendentes-dialogo-hacemos-electorales_0_1660034023.html'
p7
aS'https://www.clarin.com/politica/Macri-intendentes-dialogo-hacemos-electorales_0_1660034023.html'
p8
aS'https://www.clarin.com/sociedad/Rosetta-estrello-seguia-termino-espacio_0_1660034011.html'
p9
aS'https://www.clarin.com/sociedad/Rosetta-estrello-seguia-termino-espacio_0_1660034011.html'
p10
a.