(lp0
S'https://www.clarin.com/politica/China-preocupacion-buque-pesquero-hundido_0_1541246259.html'
p1
aS'https://www.clarin.com/politica/China-preocupacion-buque-pesquero-hundido_0_1541246259.html'
p2
aS'https://www.clarin.com/ieco/campus-ieco/equipos-argentinos-final-mundial-programacion_0_1541246251.html'
p3
aS'https://www.clarin.com/ieco/campus-ieco/equipos-argentinos-final-mundial-programacion_0_1541246251.html'
p4
aS'https://www.clarin.com/politica/Senado-debate-salida-default-podria_0_1541246245.html'
p5
aS'https://www.clarin.com/politica/Senado-debate-salida-default-podria_0_1541246245.html'
p6
a.