(lp0
Vhttps://www.clarin.com/politica/dinero-publico-amor-duro_0_1547245660.html
p1
aVhttps://www.clarin.com/politica/dinero-publico-amor-duro_0_1547245660.html
p2
aVhttps://www.clarin.com/politica/corrupcion-estallo-pelea-entorno-Cristina_0_1547245636.html
p3
aVhttps://www.clarin.com/politica/corrupcion-estallo-pelea-entorno-Cristina_0_1547245636.html
p4
aVhttps://www.clarin.com/politica/Kirchner-millones-negocios-Lazaro-Baez_0_1547245611.html
p5
aVhttps://www.clarin.com/politica/Kirchner-millones-negocios-Lazaro-Baez_0_1547245611.html
p6
aVhttps://www.clarin.com/opinion/Museo-Corrupcion_0_1547845210.html
p7
aVhttps://www.clarin.com/opinion/generacion-llegara-conocer-vida-Tierra_0_1547245673.html
p8
aVhttps://www.clarin.com/opinion/Ojala-pudieramos-encontrar-microbio-Marte_0_1547245669.html
p9
aVhttps://www.clarin.com/politica/ONU-Argentina-agranda-plataforma-maritima_0_1547245617.html
p10
aVhttps://www.clarin.com/politica/ONU-Argentina-agranda-plataforma-maritima_0_1547245617.html
p11
aVhttps://www.clarin.com/opinion/argentinos-dorada-espacio_0_1547245666.html
p12
aVhttps://www.clarin.com/opinion/momento-creando-universos_0_1547245656.html
p13
aVhttps://www.clarin.com/opinion/argentinos-espacio_0_1547245652.html
p14
aVhttps://www.clarin.com/opinion/Recobrar-valor-palabra_0_1547245609.html
p15
aVhttps://www.clarin.com/opinion/Recobrar-valor-palabra_0_1547245609.html
p16
a.