(lp0
Vhttps://www.clarin.com/politica/Scioli-Gobierno-resultados-pobres-Vidal_0_1568243247.html
p1
aVhttps://www.clarin.com/politica/Lazaro-Baez-allanamientos-Mar-Plata_0_1568243244.html
p2
aVhttps://www.clarin.com/politica/Lazaro-Baez-allanamientos-Mar-Plata_0_1568243244.html
p3
aVhttps://www.clarin.com/politica/Casanello-conoce-Cristina-Jamas-contacto_0_1568243243.html
p4
aVhttps://www.clarin.com/politica/Frigerio-gremios-plantearon-marcha-Gobierno_0_1568243235.html
p5
aVhttps://www.clarin.com/sociedad/choque-fin-semana-vez-Costanera_0_1568243228.html
p6
a.