(lp0
S'https://www.clarin.com/politica/Ibar_Perez_Corradi-anonimo-allanamiento_0_1520248220.html'
p1
aS'https://www.clarin.com/politica/Ibar_Perez_Corradi-anonimo-allanamiento_0_1520248220.html'
p2
aS'https://www.clarin.com/ieco/economia/tarifas-Gobierno-mantiene-salvataje-empresas_0_1520248215.html'
p3
aS'https://www.clarin.com/ieco/economia/economista-Scioli-ano-crecimiento-demasiado_0_1520248212.html'
p4
aS'https://www.clarin.com/ieco/economia/economista-Scioli-ano-crecimiento-demasiado_0_1520248212.html'
p5
aS'https://www.clarin.com/politica/Impediran-Telam-gerentes-Campora-documentacion_0_1520248110.html'
p6
aS'https://www.clarin.com/politica/Impediran-Telam-gerentes-Campora-documentacion_0_1520248110.html'
p7
aS'https://www.clarin.com/politica/Telam-Ariel_Lijo-investigara-robo_de_datos_0_1520248203.html'
p8
aS'https://www.clarin.com/ieco/economia/Aranguren-dijo-definida-suba-gas_0_1520248155.html'
p9
aS'https://www.clarin.com/ieco/economia/Aranguren-dijo-definida-suba-gas_0_1520248155.html'
p10
aS'https://www.clarin.com/sociedad/Estudio-revela-caballos-entienden-personas_0_1520248195.html'
p11
aS'https://www.clarin.com/sociedad/Estudio-revela-caballos-entienden-personas_0_1520248195.html'
p12
a.