(lp0
S'https://www.clarin.com/politica/bloque-mismo-pais-vaya-mal_0_1539446400.html'
p1
aS'https://www.clarin.com/politica/bloque-mismo-pais-vaya-mal_0_1539446400.html'
p2
aS'https://www.clarin.com/opinion/playas-infancia_0_1540046007.html'
p3
aS'https://www.clarin.com/politica/Buitres-provincias-suspenso-tension_0_1540046005.html'
p4
aS'https://www.clarin.com/opinion/Cerro-escribania_0_1540046001.html'
p5
aS'https://www.clarin.com/opinion/Francisco-Papa-misericordia_0_1539446291.html'
p6
aS'https://www.clarin.com/opinion/Macri-abre-debate-necesitamos_0_1539446297.html'
p7
aS'https://www.clarin.com/opinion/Macri-abre-debate-necesitamos_0_1539446297.html'
p8
aS'https://www.clarin.com/opinion/Argentina-EE-UU-dejando-resquemores_0_1539446294.html'
p9
aS'https://www.clarin.com/politica/reforma-judicial-primeros-pasos-Senado_0_1539446397.html'
p10
aS'https://www.clarin.com/politica/reforma-judicial-primeros-pasos-Senado_0_1539446397.html'
p11
a.