(lp0
S'https://www.clarin.com/opinion/regulacion-informacion-publica_0_1552045097.html'
p1
aS'https://www.clarin.com/opinion/regulacion-informacion-publica_0_1552045097.html'
p2
aS'https://www.clarin.com/opinion/nuevas-agendas-politicas-desarrollo_0_1552045094.html'
p3
aS'https://www.clarin.com/opinion/pulmotor-Mercosur_0_1552045092.html'
p4
aS'https://www.clarin.com/sociedad/Francisco-envio-senal-acercamiento-divorciados_0_1552045188.html'
p5
aS'https://www.clarin.com/politica/Ordenan-embargar-fondos-Austral-Construcciones_0_1552644733.html'
p6
aS'https://www.clarin.com/politica/Ordenan-embargar-fondos-Austral-Construcciones_0_1552644733.html'
p7
aS'https://www.clarin.com/politica/especialista-ocultar-fortunas-empresas-fantasmas_0_1552045199.html'
p8
aS'https://www.clarin.com/sociedad/maestros-paran-pais-pujas-salariales_0_1552045190.html'
p9
aS'https://www.clarin.com/sociedad/maestros-paran-pais-pujas-salariales_0_1552045190.html'
p10
aS'https://www.clarin.com/sociedad/UBA-campeona-torneo-derecho-internacional_0_1552045194.html'
p11
aS'https://www.clarin.com/politica/familia-Kirchner-desvinculo-denuncias_0_1552045209.html'
p12
aS'https://www.clarin.com/politica/Kicillof-marcha-aguante-Tribunales_0_1552045167.html'
p13
aS'https://www.clarin.com/politica/Kicillof-marcha-aguante-Tribunales_0_1552045167.html'
p14
aS'https://www.clarin.com/politica/Gobierno-defendio-aparicion-Macri-directorio_0_1552045152.html'
p15
aS'https://www.clarin.com/politica/Gobierno-defendio-aparicion-Macri-directorio_0_1552045152.html'
p16
a.