(lp0
S'https://www.clarin.com/ieco/economia/Mercados-octubre-ganan-acciones-pesos_0_1676832413.html'
p1
aS'https://www.clarin.com/ieco/economia/Mercados-octubre-ganan-acciones-pesos_0_1676832413.html'
p2
aS'https://www.clarin.com/sociedad/Famosos-colaboran-campana-detectar-ACV_0_1676832406.html'
p3
aS'https://www.clarin.com/sociedad/Famosos-colaboran-campana-detectar-ACV_0_1676832406.html'
p4
aS'https://www.clarin.com/politica/Avruj-Milagro-Sala-ONU-vinculante_0_1676832401.html'
p5
aS'https://www.clarin.com/politica/Avruj-Milagro-Sala-ONU-vinculante_0_1676832401.html'
p6
a.