(lp0
S'https://www.clarin.com/politica/cobran-paga-abogados-Martin-Lanatta_0_1501650160.html'
p1
aS'https://www.clarin.com/ieco/economia/Came-precio-gondola-diciembre-productor_0_1501650168.html'
p2
aS'https://www.clarin.com/politica/buscan-Cristian-Lanatta-Victor-Schillaci_0_1501650183.html'
p3
aS'https://www.clarin.com/politica/Indagaran-Martin-Lanatta-penal-Ezeiza_0_1501650200.html'
p4
a.