(lp0
S'https://www.clarin.com/politica/Encuesta-Cristina_Kirchner-Mauricio_Macri_0_1502849868.html'
p1
aS'https://www.clarin.com/politica/Encuesta-Cristina_Kirchner-Mauricio_Macri_0_1502849868.html'
p2
aS'https://www.clarin.com/sociedad/viajar-madre-hijo-ex-divoricio-separados-negativa-oposicion-padre-autorizaciones_0_1502849844.html'
p3
aS'https://www.clarin.com/ieco/economia/petroleo-arranco-jornada-baja_0_1502849853.html'
p4
aS'https://www.clarin.com/ieco/economia/Preocupa-puja-distributiva_0_1502849858.html'
p5
aS'https://www.clarin.com/ieco/economia/petroleo-menor-precio-anos_0_1502849856.html'
p6
aS'https://www.clarin.com/politica/Triple_Fuga-Mauricio_Macri-conferencia_de_prensa_0_1502849852.html'
p7
aS'https://www.clarin.com/politica/Triple_Fuga-Mauricio_Macri-conferencia_de_prensa_0_1502849852.html'
p8
aS'https://www.clarin.com/politica/Baltasar_Garzon-Cristina_Kirchner_0_1502849841.html'
p9
aS'https://www.clarin.com/politica/Baltasar_Garzon-Cristina_Kirchner_0_1502849841.html'
p10
a.