(lp0
Vhttps://www.clarin.com/politica/Escracharon-Gonzalez-Fraga-Melconian-Rosario_0_1586841515.html
p1
aVhttps://www.clarin.com/politica/Guillermo-Marijuan-Cristina-investigacion_0_1586841514.html
p2
aVhttps://www.clarin.com/politica/Guillermo-Marijuan-Cristina-investigacion_0_1586841514.html
p3
aVhttps://www.clarin.com/politica/Idas-vueltas-Gobierno-tratar-apurar_0_1586841513.html
p4
aVhttps://www.clarin.com/politica/Pago-jubilados-vueltas-proyecto-Diputados_0_1586841510.html
p5
aVhttps://www.clarin.com/politica/Pago-jubilados-vueltas-proyecto-Diputados_0_1586841510.html
p6
aVhttps://www.clarin.com/politica/Malcorra-lanza-oficialmente-candidatura-ONU_0_1586841506.html
p7
aVhttps://www.clarin.com/politica/Malcorra-lanza-oficialmente-candidatura-ONU_0_1586841506.html
p8
aVhttps://www.clarin.com/sociedad/Afirman-Ciudad-mortalidad-infantil-anos_0_1586841504.html
p9
aVhttps://www.clarin.com/sociedad/Afirman-Ciudad-mortalidad-infantil-anos_0_1586841504.html
p10
aVhttps://www.clarin.com/sociedad/pais-infectan-personas-mayoria-varones_0_1586841502.html
p11
aVhttps://www.clarin.com/sociedad/Dar-tratamiento-frenara-epidemia_0_1586841501.html
p12
aVhttps://www.clarin.com/sociedad/Virus-sida-casos-nuevos-mundo_0_1586841500.html
p13
aVhttps://www.clarin.com/sociedad/Virus-sida-casos-nuevos-mundo_0_1586841500.html
p14
a.