(lp0
S'https://www.clarin.com/sociedad/acusado-chicos-violacion-desistio-denuncia_0_1634836547.html'
p1
aS'https://www.clarin.com/sociedad/Audiencia-suba-inscribirse-formar-parte_0_1634836551.html'
p2
aS'https://www.clarin.com/ieco/economia/Tarifas-podra-pagar-cuotas-consumido_0_1634836552.html'
p3
aS'https://www.clarin.com/politica/Trasladan-millones-dolares-Jose-Lopez_0_1634836541.html'
p4
aS'https://www.clarin.com/ieco/UIA-Gobierno-revise-tarifazos-industria_0_1634836545.html'
p5
a.