(lp0
Vhttps://www.clarin.com/politica/DElia-juicio-oral-causa-discriminacion_0_1662433893.html
p1
aVhttps://www.clarin.com/politica/DElia-juicio-oral-causa-discriminacion_0_1662433893.html
p2
aVhttps://www.clarin.com/opinion/educacion-mejor-capital-humano_0_1662433896.html
p3
aVhttps://www.clarin.com/opinion/educacion-mejor-capital-humano_0_1662433896.html
p4
aVhttps://www.clarin.com/politica/visita-Temer-Macri-planea-Brasil_0_1662433885.html
p5
aVhttps://www.clarin.com/politica/visita-Temer-Macri-planea-Brasil_0_1662433885.html
p6
aVhttps://www.clarin.com/ieco/economia/ANSeS-negocia-asociarse-emirato-Qatar_0_1662433894.html
p7
aVhttps://www.clarin.com/ieco/economia/ANSeS-negocia-asociarse-emirato-Qatar_0_1662433894.html
p8
aVhttps://www.clarin.com/opinion/Trump-llega-Casa-Blanca_0_1662433892.html
p9
aVhttps://www.clarin.com/sociedad/tromba-provoco-graves-destrozos-Rioja_0_1662433881.html
p10
aVhttps://www.clarin.com/sociedad/tromba-provoco-graves-destrozos-Rioja_0_1662433881.html
p11
aVhttps://www.clarin.com/ieco/economia/Cautela-Central-tasas-lebacs-cambios_0_1662433880.html
p12
aVhttps://www.clarin.com/ieco/economia/Cautela-Central-tasas-lebacs-cambios_0_1662433880.html
p13
a.