(lp0
Vhttps://www.clarin.com/politica/Empujones-jubilados-policias-Puente-Pueyrredon_0_1633036746.html
p1
aVhttps://www.clarin.com/politica/Empujones-jubilados-policias-Puente-Pueyrredon_0_1633036746.html
p2
aVhttps://www.clarin.com/ieco/economia/inflacion-ejecutivos-julio-vacaciones-prepagas_0_1633036745.html
p3
aVhttps://www.clarin.com/ieco/economia/inflacion-ejecutivos-julio-vacaciones-prepagas_0_1633036745.html
p4
aVhttps://www.clarin.com/politica/Cristina-invito-Madres-lider-asistira_0_1633036744.html
p5
aVhttps://www.clarin.com/politica/Cristina-invito-Madres-lider-asistira_0_1633036744.html
p6
aVhttps://www.clarin.com/sociedad/Cayo-ultraliviano-quedo-atrapado-noche_0_1633036743.html
p7
aVhttps://www.clarin.com/sociedad/Cayo-ultraliviano-quedo-atrapado-noche_0_1633036743.html
p8
aVhttps://www.clarin.com/sociedad/Revelan-familia-aparecio-muerta-casa_0_1633036741.html
p9
aVhttps://www.clarin.com/sociedad/Revelan-familia-aparecio-muerta-casa_0_1633036741.html
p10
aVhttps://www.clarin.com/politica/diputada-jujena-Milagro-Sala-pueblo_0_1633036739.html
p11
aVhttps://www.clarin.com/sociedad/consejos-perfecta-pastelero-America-Latina_0_1633036738.html
p12
aVhttps://www.clarin.com/sociedad/consejos-perfecta-pastelero-America-Latina_0_1633036738.html
p13
aVhttps://www.clarin.com/ieco/Proponen-tarifas-aumenten-variaciones-salariales_0_1633036737.html
p14
aVhttps://www.clarin.com/ieco/Proponen-tarifas-aumenten-variaciones-salariales_0_1633036737.html
p15
a.