(lp0
Vhttps://www.clarin.com/sociedad/Cuantas-galaxias-universo_0_1668433191.html
p1
aVhttps://www.clarin.com/sociedad/Cuantas-galaxias-universo_0_1668433191.html
p2
aVhttps://www.clarin.com/politica/Massa-Lifschitz-desayuno-politico-menu_0_1667833318.html
p3
aVhttps://www.clarin.com/politica/Massa-Lifschitz-desayuno-politico-menu_0_1667833318.html
p4
aVhttps://www.clarin.com/ieco/Todesca-inflacion-tardara-domarse_0_1668433183.html
p5
aVhttps://www.clarin.com/ieco/Todesca-inflacion-tardara-domarse_0_1668433183.html
p6
aVhttps://www.clarin.com/politica/SIGEN-Centro-Cultural-Nestor-Kirchner_0_1668433178.html
p7
aVhttps://www.clarin.com/politica/SIGEN-Centro-Cultural-Nestor-Kirchner_0_1668433178.html
p8
aVhttps://www.clarin.com/sociedad/Bob-Dylan-Vegas-Nobel-Literatura_0_1668433181.html
p9
aVhttps://www.clarin.com/sociedad/Bob-Dylan-Vegas-Nobel-Literatura_0_1668433181.html
p10
aVhttps://www.clarin.com/politica/Malvinas-consideran-vuelo-continente-Brasil_0_1668433173.html
p11
aVhttps://www.clarin.com/politica/Malvinas-consideran-vuelo-continente-Brasil_0_1668433173.html
p12
a.