(lp0
S'https://www.clarin.com/politica/Telesur-derecho-pantallas-Argentina_0_1645035649.html'
p1
aS'https://www.clarin.com/politica/Once-llego-Vido_0_1645635421.html'
p2
aS'https://www.clarin.com/politica/Blanqueo-pica-punta-pagar-impuesto_0_1645635422.html'
p3
aS'https://www.clarin.com/politica/jueces-rebelion-fiscales-presion-Camara_0_1645035652.html'
p4
aS'https://www.clarin.com/ieco/economia/McDonalds-linea-premium-precios-populares_0_1645035648.html'
p5
aS'https://www.clarin.com/politica/Santa-Cruz-recibio-financiera-millones_0_1645035619.html'
p6
aS'https://www.clarin.com/sociedad/besos-protestaron-discriminacion-Recoleta_0_1645035650.html'
p7
aS'https://www.clarin.com/politica/Scioli-quede-angustiado-oportunidad-presidente_0_1645035653.html'
p8
a.