(lp0
S'https://www.clarin.com/politica/Escracharon-Gonzalez-Fraga-Melconian-Rosario_0_1586841515.html'
p1
aS'https://www.clarin.com/politica/Guillermo-Marijuan-Cristina-investigacion_0_1586841514.html'
p2
aS'https://www.clarin.com/politica/Guillermo-Marijuan-Cristina-investigacion_0_1586841514.html'
p3
aS'https://www.clarin.com/politica/Idas-vueltas-Gobierno-tratar-apurar_0_1586841513.html'
p4
aS'https://www.clarin.com/politica/Pago-jubilados-vueltas-proyecto-Diputados_0_1586841510.html'
p5
aS'https://www.clarin.com/politica/Pago-jubilados-vueltas-proyecto-Diputados_0_1586841510.html'
p6
aS'https://www.clarin.com/politica/Malcorra-lanza-oficialmente-candidatura-ONU_0_1586841506.html'
p7
aS'https://www.clarin.com/politica/Malcorra-lanza-oficialmente-candidatura-ONU_0_1586841506.html'
p8
aS'https://www.clarin.com/sociedad/Afirman-Ciudad-mortalidad-infantil-anos_0_1586841504.html'
p9
aS'https://www.clarin.com/sociedad/Afirman-Ciudad-mortalidad-infantil-anos_0_1586841504.html'
p10
aS'https://www.clarin.com/sociedad/pais-infectan-personas-mayoria-varones_0_1586841502.html'
p11
aS'https://www.clarin.com/sociedad/Dar-tratamiento-frenara-epidemia_0_1586841501.html'
p12
aS'https://www.clarin.com/sociedad/Virus-sida-casos-nuevos-mundo_0_1586841500.html'
p13
aS'https://www.clarin.com/sociedad/Virus-sida-casos-nuevos-mundo_0_1586841500.html'
p14
a.