(lp0
Vhttps://www.clarin.com/sociedad/chico-convulsiones-piso-quince-minutos_0_1559844244.html
p1
aVhttps://www.clarin.com/sociedad/chico-convulsiones-piso-quince-minutos_0_1559844244.html
p2
aVhttps://www.clarin.com/sociedad/Fiestas-electronicas-consumo-sustancias_0_1559844238.html
p3
aVhttps://www.clarin.com/sociedad/Fiestas-electronicas-consumo-sustancias_0_1559844238.html
p4
aVhttps://www.clarin.com/sociedad/postal-mediodia-botellitas-vacias-apiladas_0_1559844237.html
p5
aVhttps://www.clarin.com/sociedad/postal-mediodia-botellitas-vacias-apiladas_0_1559844237.html
p6
aVhttps://www.clarin.com/sociedad/Fernandez-desfile-padres-busca-hijos_0_1559844236.html
p7
aVhttps://www.clarin.com/sociedad/Fernandez-desfile-padres-busca-hijos_0_1559844236.html
p8
aVhttps://www.clarin.com/politica/Boudou-vecino-destacado-Mar-Plata_0_1559844227.html
p9
aVhttps://www.clarin.com/politica/Boudou-vecino-destacado-Mar-Plata_0_1559844227.html
p10
aVhttps://www.clarin.com/politica/Bullrich-ministerio-ordenes-custodiar-Chueco_0_1559844226.html
p11
aVhttps://www.clarin.com/politica/Bullrich-ministerio-ordenes-custodiar-Chueco_0_1559844226.html
p12
aVhttps://www.clarin.com/sociedad/fiesta_electronica-Costa_Salguero_0_1559844207.html
p13
aVhttps://www.clarin.com/sociedad/fiesta_electronica-Costa_Salguero_0_1559844207.html
p14
aVhttps://www.clarin.com/politica/Sigue-Puerto-Iguazu-Lazaro-Baez_0_1559844220.html
p15
aVhttps://www.clarin.com/politica/Sigue-Puerto-Iguazu-Lazaro-Baez_0_1559844220.html
p16
a.