(lp0
S'https://www.clarin.com/politica/Citan-Milani-indagatoria-enriquecimiento-ilicito_0_1654034684.html'
p1
aS'https://www.clarin.com/politica/Confirmaron-embargo-inhibicion-Lazaro-Baez_0_1654034695.html'
p2
aS'https://www.clarin.com/sociedad/multimillonario-compro-iPhone-perra_0_1654034690.html'
p3
aS'https://www.clarin.com/politica/primer-discurso-Cristina-Kirchner-ONU_0_1654034688.html'
p4
aS'https://www.clarin.com/politica/discurso-Nestor-Kirchner-ONU-asumido_0_1654034687.html'
p5
aS'https://www.clarin.com/politica/Macri-ONU-Vamos-recepcion-refugiados_0_1654034699.html'
p6
aS'https://www.clarin.com/politica/Corte-informes-San-Juan-Veladero_0_1654034679.html'
p7
a.