(lp0
S'https://www.clarin.com/politica/Grindetti-rompio-silencio-Panama-Papers_0_1554444986.html'
p1
aS'https://www.clarin.com/politica/Grindetti-rompio-silencio-Panama-Papers_0_1554444986.html'
p2
aS'https://www.clarin.com/politica/Frigerio-politicas-duelen_0_1554444983.html'
p3
aS'https://www.clarin.com/politica/Frigerio-politicas-duelen_0_1554444983.html'
p4
aS'https://www.clarin.com/politica/amenaza-bomba-hizo-desalojar-ESMA_0_1554444979.html'
p5
a.