(lp0
S'https://www.clarin.com/sociedad/denuncio-drogada-violada-fiesta-clandestina_0_1498050401.html'
p1
aS'https://www.clarin.com/politica/Granados-llevo-Bonaerense-trabajar-Ezeiza_0_1498050410.html'
p2
aS'https://www.clarin.com/politica/Granados-llevo-Bonaerense-trabajar-Ezeiza_0_1498050410.html'
p3
aS'https://www.clarin.com/sociedad/Descubrio-esposo-amante-mira-reacciono_0_1498050399.html'
p4
aS'https://www.clarin.com/sociedad/Descubrio-esposo-amante-mira-reacciono_0_1498050399.html'
p5
aS'https://www.clarin.com/sociedad/Cayeron-reservas-Mar-Plata-quincena_0_1498050395.html'
p6
aS'https://www.clarin.com/sociedad/Cayeron-reservas-Mar-Plata-quincena_0_1498050395.html'
p7
aS'https://www.clarin.com/politica/Piden-informes-AFIP-Migraciones-espionaje_0_1498050388.html'
p8
aS'https://www.clarin.com/politica/Piden-informes-AFIP-Migraciones-espionaje_0_1498050388.html'
p9
aS'https://www.clarin.com/sociedad/video-leon-rescate-india-mar-agua_0_1498050365.html'
p10
aS'https://www.clarin.com/sociedad/video-leon-rescate-india-mar-agua_0_1498050365.html'
p11
a.