(lp0
Vhttps://www.clarin.com/ieco/economia/Busca-socios-mision-comercial-brasilena_0_1679232214.html
p1
aVhttps://www.clarin.com/ieco/economia/Busca-socios-mision-comercial-brasilena_0_1679232214.html
p2
aVhttps://www.clarin.com/politica/Vaca-Muerta-negocian-empresas-sindicatos_0_1679232227.html
p3
aVhttps://www.clarin.com/opinion/impone-interes-venta-dolares-moda_0_1679232203.html
p4
aVhttps://www.clarin.com/politica/Casacion-recibe-denuncia-Cristina-AMIA_0_1679832005.html
p5
aVhttps://www.clarin.com/politica/Casacion-recibe-denuncia-Cristina-AMIA_0_1679832005.html
p6
aVhttps://www.clarin.com/opinion/kirchnerismo-hizo-demasiado-obvio_0_1679832004.html
p7
aVhttps://www.clarin.com/opinion/show-violencia-genero_0_1679832003.html
p8
aVhttps://www.clarin.com/politica/primera-Justicia-mete-casa-Cristina_0_1679232171.html
p9
aVhttps://www.clarin.com/politica/primera-Justicia-mete-casa-Cristina_0_1679232171.html
p10
a.