(lp0
Vhttps://www.clarin.com/ieco/Paolo-Rocca-oportunidades-inigualables-inversion_0_1649835062.html
p1
aVhttps://www.clarin.com/ieco/Paolo-Rocca-oportunidades-inigualables-inversion_0_1649835062.html
p2
aVhttps://www.clarin.com/ieco/economia/Mendoza-deflacion-agosto_0_1649835058.html
p3
aVhttps://www.clarin.com/ieco/economia/Mendoza-deflacion-agosto_0_1649835058.html
p4
aVhttps://www.clarin.com/sociedad/Inspeccion-Exactas-presunta-amenaza-terrorista_0_1649835051.html
p5
aVhttps://www.clarin.com/sociedad/Inspeccion-Exactas-presunta-amenaza-terrorista_0_1649835051.html
p6
aVhttps://www.clarin.com/sociedad/muerto-heridos-crucero-grande-mundo_0_1649835049.html
p7
aVhttps://www.clarin.com/sociedad/muerto-heridos-crucero-grande-mundo_0_1649835049.html
p8
aVhttps://www.clarin.com/politica/intimidad-Colon-Piazzolla-catering-prohibido_0_1649835050.html
p9
aVhttps://www.clarin.com/politica/intimidad-Colon-Piazzolla-catering-prohibido_0_1649835050.html
p10
aVhttps://www.clarin.com/politica/Vidal-apura-adhesion-blanqueo-capitales_0_1649835045.html
p11
aVhttps://www.clarin.com/politica/Vidal-apura-adhesion-blanqueo-capitales_0_1649835045.html
p12
a.