(lp0
S'https://www.clarin.com/politica/Macri-Norte-Manzur-Urtubey-Morales_0_1517248349.html'
p1
aS'https://www.clarin.com/ieco/empresas-y-negocios/estadounidense-Duke-centrales-electricas-Argentina_0_1516648553.html'
p2
aS'https://www.clarin.com/sociedad/espera-semana-largo-tiempo-inestable_0_1517248405.html'
p3
aS'https://www.clarin.com/sociedad/regreso-colegio-canasta-escolar-aumento_0_1516648744.html'
p4
aS'https://www.clarin.com/sociedad/reedicion-mitica-reavivo-pasion-ovnis_0_1516648747.html'
p5
aS'https://www.clarin.com/ieco/economia/Hector-Torres-representar-Argentina-FMI_0_1516648511.html'
p6
a.