(lp0
S'https://www.clarin.com/politica/Polemica-intendente-nombro-familia-municipio_0_1499250206.html'
p1
aS'https://www.clarin.com/politica/Gobierno-Macri-Venezuela-derechos-humanos_0_1499250230.html'
p2
aS'https://www.clarin.com/ieco/economia/Gobierno-espera-dolares-cerealeras_0_1499250210.html'
p3
aS'https://www.clarin.com/ieco/economia/Apple-analiza-tienda-oficial-Argentina_0_1499250232.html'
p4
aS'https://www.clarin.com/politica/Cesar-Melazo-militante-libero-Anibal_0_1499250226.html'
p5
a.