(lp0
S'https://www.clarin.com/sociedad/escenarios-Segundo-Cernadas-ANSeS-Tigre_0_1551445115.html'
p1
aS'https://www.clarin.com/politica/Jaime-entrego-prohiben-Schiavi-declarar_0_1551445148.html'
p2
a.