(lp0
Vhttps://www.clarin.com/sociedad/Condenan-medico-abusar-hijos_0_1567043403.html
p1
aVhttps://www.clarin.com/sociedad/Condenan-medico-abusar-hijos_0_1567043403.html
p2
aVhttps://www.clarin.com/politica/primer-allanamiento-Calafate-Lazaro-Baez_0_1567043395.html
p3
aVhttps://www.clarin.com/politica/primer-allanamiento-Calafate-Lazaro-Baez_0_1567043395.html
p4
aVhttps://www.clarin.com/sociedad/Intentan-rescatar-elefante-marino-Gualeguaychu_0_1567043384.html
p5
aVhttps://www.clarin.com/sociedad/Intentan-rescatar-elefante-marino-Gualeguaychu_0_1567043384.html
p6
aVhttps://www.clarin.com/politica/Confirmaron-prueba-valida-video-Rosadita_0_1567043378.html
p7
aVhttps://www.clarin.com/politica/Confirmaron-prueba-valida-video-Rosadita_0_1567043378.html
p8
aVhttps://www.clarin.com/ieco/Allanamiento-decomiso-frigorifico-Alberto-Samid_0_1567043380.html
p9
aVhttps://www.clarin.com/politica/Confirmaron-Bonadio-causa-Cristina_0_1567043370.html
p10
aVhttps://www.clarin.com/politica/Confirmaron-Bonadio-causa-Cristina_0_1567043370.html
p11
a.