(lp0
S'https://www.clarin.com/politica/ovacion-Rodriguez-Saa-abrazos-Prat-Gay_0_1564043652.html'
p1
aS'https://www.clarin.com/sociedad/chico-autista-llora-show-Coldplay_0_1564043646.html'
p2
aS'https://www.clarin.com/politica/llovizna-Fragata-Libertad-seguir-Web_0_1564043644.html'
p3
aS'https://www.clarin.com/politica/pago-efectivo-EEUU-llevo-hora_0_1564043650.html'
p4
aS'https://www.clarin.com/politica/Ceferino-Reato-Abuelas-Madres-Gobierno_0_1563443731.html'
p5
a.