(lp0
S'https://www.clarin.com/sociedad/Paso-cancer-hallado-Talon-Aquiles_0_1534047054.html'
p1
aS'https://www.clarin.com/sociedad/Paso-cancer-hallado-Talon-Aquiles_0_1534047054.html'
p2
aS'https://www.clarin.com/sociedad/denunciados-violencia-genero-violan-restricciones_0_1534047064.html'
p3
aS'https://www.clarin.com/ieco/dolar-rebota-centavos_0_1534046847.html'
p4
aS'https://www.clarin.com/ieco/economia/deficit-comercial-US-millones-enero_0_1534047046.html'
p5
aS'https://www.clarin.com/ieco/economia/deficit-comercial-US-millones-enero_0_1534047046.html'
p6
a.