(lp0
S'https://www.clarin.com/sociedad/medicamentos-aumentaron-diciembre_0_1582641792.html'
p1
aS'https://www.clarin.com/sociedad/medicamentos-aumentaron-diciembre_0_1582641792.html'
p2
aS'https://www.clarin.com/sociedad/Logro-argentino-malbec-puntaje-perfecto_0_1582641791.html'
p3
aS'https://www.clarin.com/sociedad/Logro-argentino-malbec-puntaje-perfecto_0_1582641791.html'
p4
aS'https://www.clarin.com/politica/Milagro-Sala-Buenos-Aires-armaban_0_1582641790.html'
p5
aS'https://www.clarin.com/politica/Milagro-Sala-Buenos-Aires-armaban_0_1582641790.html'
p6
aS'https://www.clarin.com/politica/Maximo-Kirchner-particular-Lazaro-Baez_0_1582641787.html'
p7
aS'https://www.clarin.com/politica/Maximo-Kirchner-particular-Lazaro-Baez_0_1582641787.html'
p8
aS'https://www.clarin.com/politica/Piden-Quinta-Olivos-Milagro-Sala_0_1582641779.html'
p9
aS'https://www.clarin.com/politica/Piden-Quinta-Olivos-Milagro-Sala_0_1582641779.html'
p10
aS'https://www.clarin.com/sociedad/Paro-Vidal-maestros-dirigentes-gremiales_0_1582641778.html'
p11
aS'https://www.clarin.com/sociedad/Paro-Vidal-maestros-dirigentes-gremiales_0_1582641778.html'
p12
aS'https://www.clarin.com/ieco/economia/Frigerio-ratifico-inflacion-drasticamente-semestre_0_1582641777.html'
p13
aS'https://www.clarin.com/ieco/economia/Frigerio-ratifico-inflacion-drasticamente-semestre_0_1582641777.html'
p14
aS'https://www.clarin.com/politica/Investigacion-Clarin-clausuran-preferido-contrabandistas_0_1579642157.html'
p15
aS'https://www.clarin.com/politica/Investigacion-Clarin-clausuran-preferido-contrabandistas_0_1579642157.html'
p16
a.