(lp0
S'https://www.clarin.com/sociedad/Tribunal-impone-multas-artista-vagina_0_1573642660.html'
p1
aS'https://www.clarin.com/politica/Michetti-distinguida-Honoris-Causa-Daegu_0_1573642657.html'
p2
aS'https://www.clarin.com/sociedad/Murio-joven-haciendo-parkour-Rosario_0_1573642666.html'
p3
aS'https://www.clarin.com/ieco/Rige-descuento-regularizar-deudas-Provincia_0_1573642671.html'
p4
aS'https://www.clarin.com/sociedad/Zarate-prohibe-mujeres-iglesia-calzas_0_1573642668.html'
p5
a.