(lp0
S'https://www.clarin.com/opinion/ninez-desprotegida_0_1556244797.html'
p1
aS'https://www.clarin.com/ieco/Fondos-buitres-arranca-regresiva-EEUU_0_1556244735.html'
p2
aS'https://www.clarin.com/sociedad/ultima-Halley-cometa-aterrorizo-Tierra_0_1556244809.html'
p3
aS'https://www.clarin.com/politica/ex-Presidenta-debut-recusacion-salvadora_0_1556244795.html'
p4
aS'https://www.clarin.com/politica/Ocana-Cristina-maniobra-lavado-dinero_0_1556244835.html'
p5
aS'https://www.clarin.com/ieco/mexicana-global-CEO-argentino_0_1556244709.html'
p6
aS'https://www.clarin.com/politica/Farina-seguridad-proteccion-ampliar-declaracion_0_1556244817.html'
p7
a.