(lp0
Vhttps://www.clarin.com/ieco/economia/Gobierno-rebajar-puntos-retenciones-soja_0_1612638896.html
p1
aVhttps://www.clarin.com/ieco/economia/Gobierno-rebajar-puntos-retenciones-soja_0_1612638896.html
p2
aVhttps://www.clarin.com/sociedad/Quieren-arrestar-padres-agredan-maestros_0_1612638893.html
p3
aVhttps://www.clarin.com/sociedad/Medicos-conflicto-abierto-facultad-Plata_0_1612638891.html
p4
aVhttps://www.clarin.com/sociedad/Medicos-conflicto-abierto-facultad-Plata_0_1612638891.html
p5
aVhttps://www.clarin.com/politica/gremios-transporte-impulsan-medidas-fuerza_0_1612638887.html
p6
aVhttps://www.clarin.com/politica/gremios-transporte-impulsan-medidas-fuerza_0_1612638887.html
p7
aVhttps://www.clarin.com/politica/Murio-Cachito-Fukman-sobreviviente-ESMA_0_1612638886.html
p8
aVhttps://www.clarin.com/politica/Murio-Cachito-Fukman-sobreviviente-ESMA_0_1612638886.html
p9
aVhttps://www.clarin.com/politica/reactivacion-Vidal-financia-Banco-Provincia_0_1612638883.html
p10
aVhttps://www.clarin.com/politica/reactivacion-Vidal-financia-Banco-Provincia_0_1612638883.html
p11
aVhttps://www.clarin.com/sociedad/Argentina-encontro-Internet-llegara-refugiada_0_1612638880.html
p12
aVhttps://www.clarin.com/sociedad/Argentina-encontro-Internet-llegara-refugiada_0_1612638880.html
p13
a.