(lp0
S'https://www.clarin.com/politica/medio-denuncias-Oyarbide-confirmo-renuncia_0_1554444739.html'
p1
aS'https://www.clarin.com/politica/medio-denuncias-Oyarbide-confirmo-renuncia_0_1554444739.html'
p2
aS'https://www.clarin.com/ieco/Fed-subiria-tasas-abril_0_1554444734.html'
p3
aS'https://www.clarin.com/ieco/Fed-subiria-tasas-abril_0_1554444734.html'
p4
aS'https://www.clarin.com/sociedad/cantante-mordio-cobra-recital-escenario_0_1554444732.html'
p5
aS'https://www.clarin.com/sociedad/cantante-mordio-cobra-recital-escenario_0_1554444732.html'
p6
aS'https://www.clarin.com/ieco/tensa-disputa-Monsanto-productores_0_1554444715.html'
p7
aS'https://www.clarin.com/ieco/tensa-disputa-Monsanto-productores_0_1554444715.html'
p8
aS'https://www.clarin.com/sociedad/Violencia-genero-restriccion-acercamiento-panelista_0_1554444710.html'
p9
aS'https://www.clarin.com/sociedad/Violencia-genero-restriccion-acercamiento-panelista_0_1554444710.html'
p10
a.