(lp0
S'https://www.clarin.com/sociedad/intendente-manejando-borracho-declarar-preso_0_1599440155.html'
p1
aS'https://www.clarin.com/sociedad/Video-hombre-arrojo-Garganta-Diablo_0_1599440157.html'
p2
aS'https://www.clarin.com/politica/Monsenor-Radrizzani-bovedas-llenas-fantasia_0_1599440156.html'
p3
aS'https://www.clarin.com/politica/Costilla-corazon-rodilla-problemas-Macri_0_1599440166.html'
p4
aS'https://www.clarin.com/sociedad/Convocan-voluntarios-Buenos-Aires-Neuquen_0_1599440154.html'
p5
a.