(lp0
Vhttps://www.clarin.com/opinion/cocina-cosa-hombres_0_1655834510.html
p1
aVhttps://www.clarin.com/sociedad/Encontraron-muerto-andinista-perdido_0_1655834507.html
p2
aVhttps://www.clarin.com/sociedad/Encontraron-muerto-andinista-perdido_0_1655834507.html
p3
aVhttps://www.clarin.com/ieco/CGT-espero-reunion-Prat-Gay_0_1655834504.html
p4
aVhttps://www.clarin.com/ieco/CGT-espero-reunion-Prat-Gay_0_1655834504.html
p5
a.