(lp0
S'https://www.clarin.com/sociedad/empleada-limpieza-error-parte-arte_0_1516648595.html'
p1
aS'https://www.clarin.com/ieco/FMI-negociaciones-Gobierno-buitres-alentadoras_0_1516648616.html'
p2
aS'https://www.clarin.com/ieco/empresas-y-negocios/Venezuela-Argentina-ranking-economias-desdichadas_0_1516648599.html'
p3
aS'https://www.clarin.com/ieco/economia/Cresta-Roja-trabajadores-movilizan-definicion_0_1516648534.html'
p4
aS'https://www.clarin.com/sociedad/Rechazan-Bill-Cosby-agresion-sexual_0_1516648607.html'
p5
aS'https://www.clarin.com/sociedad/Murio-Jose-Maria-Stella-investigaba_0_1516648612.html'
p6
a.