(lp0
S'https://www.clarin.com/politica/Rechazan-Casacion-deciden-denuncia-Nisman_0_1687031473.html'
p1
aS'https://www.clarin.com/sociedad/Giro-femicidio-Montanita-nuevos-detenidos_0_1687031475.html'
p2
aS'https://www.clarin.com/sociedad/Guia-viajero-saluda-distintos-lugares_0_1687031472.html'
p3
a.