(lp0
Vhttps://www.clarin.com/politica/Macri-Temer-agenda-Mercosur-Venezuela_0_1661233995.html
p1
aVhttps://www.clarin.com/politica/Macri-Temer-agenda-Mercosur-Venezuela_0_1661233995.html
p2
aVhttps://www.clarin.com/ieco/economia/Macri-anuncia-campo-bajaria-retenciones_0_1661234029.html
p3
aVhttps://www.clarin.com/ieco/economia/Macri-anuncia-campo-bajaria-retenciones_0_1661234029.html
p4
aVhttps://www.clarin.com/ieco/economia/Empresas-creen-ventas-ganancias_0_1661234027.html
p5
aVhttps://www.clarin.com/ieco/economia/Empresas-creen-ventas-ganancias_0_1661234027.html
p6
aVhttps://www.clarin.com/politica/Interna-CGT-jueves-reunion-discutir_0_1661234025.html
p7
aVhttps://www.clarin.com/politica/Interna-CGT-jueves-reunion-discutir_0_1661234025.html
p8
aVhttps://www.clarin.com/politica/Santa-Cruz-situacion-limite-rechazan_0_1661234018.html
p9
aVhttps://www.clarin.com/politica/Santa-Cruz-situacion-limite-rechazan_0_1661234018.html
p10
aVhttps://www.clarin.com/politica/Iglesia-llamo-indiferentes-aumento-pobreza_0_1661234016.html
p11
aVhttps://www.clarin.com/politica/Iglesia-llamo-indiferentes-aumento-pobreza_0_1661234016.html
p12
aVhttps://www.clarin.com/politica/Gobernadores-intendentes-alerta-bono-ano_0_1661234012.html
p13
aVhttps://www.clarin.com/politica/Gobernadores-intendentes-alerta-bono-ano_0_1661234012.html
p14
aVhttps://www.clarin.com/politica/Empresarios-gobernadores-plata_0_1661833801.html
p15
aVhttps://www.clarin.com/opinion/dias-octubre_0_1661234040.html
p16
aVhttps://www.clarin.com/opinion/dias-octubre_0_1661234040.html
p17
aVhttps://www.clarin.com/politica/Video-Lanata-recorrio-funcionarios-kirchneristas_0_1661234038.html
p18
aVhttps://www.clarin.com/politica/Video-Lanata-recorrio-funcionarios-kirchneristas_0_1661234038.html
p19
aVhttps://www.clarin.com/politica/Frigerio-camionero-Dolina-peronista_0_1661234037.html
p20
aVhttps://www.clarin.com/politica/Frigerio-camionero-Dolina-peronista_0_1661234037.html
p21
a.