(lp0
S'https://www.clarin.com/sociedad/Hacen-falta-periodistas_0_1664233766.html'
p1
aS'https://www.clarin.com/sociedad/enamorados-Luna-podran-tener-noche_0_1664233768.html'
p2
aS'https://www.clarin.com/sociedad/Twitter-encuentra-vuelta-negocio-reinventarse_0_1664233763.html'
p3
aS'https://www.clarin.com/sociedad/Abrazar-corazon-brazos-logro-normal_0_1664233769.html'
p4
aS'https://www.clarin.com/ieco/economia/Energias-renovables-adjudicaron-proyectos-US_0_1664233756.html'
p5
aS'https://www.clarin.com/sociedad/Parir-anestesia-impulsan-famosas-polemica_0_1664233771.html'
p6
aS'https://www.clarin.com/sociedad/Layla-aparecio-golpeada-hipotesis-trata_0_1664233765.html'
p7
a.