(lp0
Vhttps://www.clarin.com/politica/Debate-buitre-clima-cortaba-navaja_0_1550245186.html
p1
aVhttps://www.clarin.com/politica/Debate-buitre-clima-cortaba-navaja_0_1550245186.html
p2
aVhttps://www.clarin.com/ieco/podra-acceder-tarifa-social_0_1550245180.html
p3
aVhttps://www.clarin.com/sociedad/combatiente-Malvinas-recuperara-casco-despues_0_1550245173.html
p4
aVhttps://www.clarin.com/sociedad/combatiente-Malvinas-recuperara-casco-despues_0_1550245173.html
p5
aVhttps://www.clarin.com/politica/Corte-seguir-corrupcion-Rodriguez-Larreta_0_1550245170.html
p6
aVhttps://www.clarin.com/politica/Corte-seguir-corrupcion-Rodriguez-Larreta_0_1550245170.html
p7
aVhttps://www.clarin.com/politica/Pablo-Moyano-termino-luna-Gobierno_0_1550245164.html
p8
aVhttps://www.clarin.com/politica/Pablo-Moyano-termino-luna-Gobierno_0_1550245164.html
p9
aVhttps://www.clarin.com/sociedad/Despiden-chicas-asesinadas-Ecuador_0_1550245161.html
p10
aVhttps://www.clarin.com/sociedad/Despiden-chicas-asesinadas-Ecuador_0_1550245161.html
p11
aVhttps://www.clarin.com/politica/Protesta-Hacienda-cesantia-contratados_0_1550245159.html
p12
aVhttps://www.clarin.com/politica/Protesta-Hacienda-cesantia-contratados_0_1550245159.html
p13
a.