(lp0
S'https://www.clarin.com/politica/Gobierno-explora-alianzas-gobernadores-PJ_0_1617438428.html'
p1
aS'https://www.clarin.com/sociedad/Toro-campeon-Rural-negocio-millon_0_1617438410.html'
p2
aS'https://www.clarin.com/sociedad/cuota-mensual-costara-alquiler_0_1617438419.html'
p3
aS'https://www.clarin.com/politica/estrategia-Perez-Corradi-siembra-Justicia_0_1617438400.html'
p4
aS'https://www.clarin.com/opinion/incorrecto-amamantar-espacio-publico_0_1617438373.html'
p5
aS'https://www.clarin.com/politica/Macri-respaldar-Aranguren-matando-mensajero_0_1618038191.html'
p6
aS'https://www.clarin.com/opinion/Reproches-pujas-internas-gabinete-economico_0_1617438406.html'
p7
aS'https://www.clarin.com/opinion/futuro-Argentina-Pacifico_0_1617438359.html'
p8
aS'https://www.clarin.com/opinion/ruleta-blanqueo_0_1618038192.html'
p9
aS'https://www.clarin.com/opinion/Macri-Papa-general-estrellas_0_1618038193.html'
p10
aS'https://www.clarin.com/sociedad/Nuevos-creditos-vivienda-consultas-dia_0_1617438421.html'
p11
aS'https://www.clarin.com/politica/Rosadita-sola-Baez-investigan-financieras_0_1617438369.html'
p12
a.