(lp0
Vhttps://www.clarin.com/politica/causa-complica-ex-Presidenta_0_1555644684.html
p1
aVhttps://www.clarin.com/politica/causa-complica-ex-Presidenta_0_1555644684.html
p2
aVhttps://www.clarin.com/politica/Imputaron-Cristina-Kirchner-lavado-dinero_0_1555644672.html
p3
aVhttps://www.clarin.com/politica/Imputaron-Cristina-Kirchner-lavado-dinero_0_1555644672.html
p4
aVhttps://www.clarin.com/politica/Pinedo-ruta-dinero-pruebas-contundentes_0_1555644655.html
p5
aVhttps://www.clarin.com/politica/Pinedo-ruta-dinero-pruebas-contundentes_0_1555644655.html
p6
a.