(lp0
Vhttps://www.clarin.com/politica/discurso-Peron-Cafiero-Museo-Evita_0_1594040732.html
p1
aVhttps://www.clarin.com/politica/discurso-Peron-Cafiero-Museo-Evita_0_1594040732.html
p2
aVhttps://www.clarin.com/politica/Sorpresa-cautela-macrista-desplante-Papa_0_1594040739.html
p3
aVhttps://www.clarin.com/politica/Sorpresa-cautela-macrista-desplante-Papa_0_1594040739.html
p4
aVhttps://www.clarin.com/ieco/Pymes-industriales-advierten-amenaza-importaciones_0_1594040699.html
p5
aVhttps://www.clarin.com/ieco/Pymes-industriales-advierten-amenaza-importaciones_0_1594040699.html
p6
aVhttps://www.clarin.com/ieco/va-ano-exporto-trigo_0_1594040688.html
p7
a.