(lp0
S'https://www.clarin.com/politica/Schoklender-principal-detractor-Jose-Lopez_0_1595240561.html'
p1
aS'https://www.clarin.com/politica/Schoklender-principal-detractor-Jose-Lopez_0_1595240561.html'
p2
aS'https://www.clarin.com/ieco/economia/Tarifas-Gobierno-analiza-nuevos-aumentos_0_1595240559.html'
p3
aS'https://www.clarin.com/politica/Llevaron-maquinas-contar-convento-dolares_0_1595240535.html'
p4
aS'https://www.clarin.com/politica/Llevaron-maquinas-contar-convento-dolares_0_1595240535.html'
p5
aS'https://www.clarin.com/ieco/economia/Prorrogan-consulta-licitacion-energias-renovables_0_1595240557.html'
p6
aS'https://www.clarin.com/politica/EsKrachados-incomodo-Jose-Lopez-Facebook_0_1595240552.html'
p7
aS'https://www.clarin.com/politica/EsKrachados-incomodo-Jose-Lopez-Facebook_0_1595240552.html'
p8
aS'https://www.clarin.com/sociedad/discapacitada-adopcion-Corte-ordeno-volviera_0_1595240550.html'
p9
aS'https://www.clarin.com/sociedad/discapacitada-adopcion-Corte-ordeno-volviera_0_1595240550.html'
p10
a.