(lp0
Vhttps://www.clarin.com/ieco/ventas-minoristas-cayeron-julio_0_1632436755.html
p1
aVhttps://www.clarin.com/ieco/ventas-minoristas-cayeron-julio_0_1632436755.html
p2
aVhttps://www.clarin.com/sociedad/Asesino-balazos-esposa-suicido-discusion_0_1632436751.html
p3
aVhttps://www.clarin.com/sociedad/Asesino-balazos-esposa-suicido-discusion_0_1632436751.html
p4
aVhttps://www.clarin.com/politica/Aranguren-Congreso-oposicion-aumentos-tarifas_0_1631836952.html
p5
aVhttps://www.clarin.com/politica/Aranguren-Congreso-oposicion-aumentos-tarifas_0_1631836952.html
p6
aVhttps://www.clarin.com/politica/Corte-tarifas-dilema-voto-Rosenkrantz_0_1631836926.html
p7
aVhttps://www.clarin.com/politica/Corte-tarifas-dilema-voto-Rosenkrantz_0_1631836926.html
p8
aVhttps://www.clarin.com/politica/deficit-designan-coordinador-empresas-estatales_0_1631836939.html
p9
aVhttps://www.clarin.com/politica/deficit-designan-coordinador-empresas-estatales_0_1631836939.html
p10
aVhttps://www.clarin.com/opinion/Autos-gama-niveles-velocidad-letales_0_1631836899.html
p11
a.