(lp0
S'https://www.clarin.com/sociedad/pizza-podria-patrimonio-humanidad_0_1534046984.html'
p1
aS'https://www.clarin.com/sociedad/pizza-podria-patrimonio-humanidad_0_1534046984.html'
p2
aS'https://www.clarin.com/sociedad/Murio-creador-R2-D2-Star-Wars_0_1534046976.html'
p3
aS'https://www.clarin.com/sociedad/Murio-creador-R2-D2-Star-Wars_0_1534046976.html'
p4
aS'https://www.clarin.com/politica/Problemas-PJ-Justicia-rechazo-afiliaciones_0_1534046968.html'
p5
aS'https://www.clarin.com/politica/Problemas-PJ-Justicia-rechazo-afiliaciones_0_1534046968.html'
p6
aS'https://www.clarin.com/sociedad/Rusia-construira-enviar-turistas-espacio_0_1534046967.html'
p7
aS'https://www.clarin.com/sociedad/Rusia-construira-enviar-turistas-espacio_0_1534046967.html'
p8
aS'https://www.clarin.com/ieco/economia/Prat-Gay-Kicillof-cruzaron-Diputados-acuerdo_0_1534046963.html'
p9
aS'https://www.clarin.com/ieco/economia/Prat-Gay-Kicillof-cruzaron-Diputados-acuerdo_0_1534046963.html'
p10
aS'https://www.clarin.com/politica/Presentaron-denuncia-sabotaje-ascensores-Telam_0_1534046957.html'
p11
aS'https://www.clarin.com/politica/Presentaron-denuncia-sabotaje-ascensores-Telam_0_1534046957.html'
p12
aS'https://www.clarin.com/politica/Todesca-detectaron-linfoma-sigue-INDEC_0_1534046954.html'
p13
aS'https://www.clarin.com/politica/Todesca-detectaron-linfoma-sigue-INDEC_0_1534046954.html'
p14
a.