(lp0
S'https://www.clarin.com/politica/Alicia-nombro-fiscalia-controlar-gestion_0_1522647992.html'
p1
aS'https://www.clarin.com/politica/Alicia-nombro-fiscalia-controlar-gestion_0_1522647992.html'
p2
aS'https://www.clarin.com/politica/Gonzalez-Fraga-optimista-aumento-precios_0_1522648029.html'
p3
aS'https://www.clarin.com/politica/Gonzalez-Fraga-optimista-aumento-precios_0_1522648029.html'
p4
aS'https://www.clarin.com/politica/Angry-Buitres-infantil-Plaza-artistas_0_1522648023.html'
p5
aS'https://www.clarin.com/politica/Angry-Buitres-infantil-Plaza-artistas_0_1522648023.html'
p6
aS'https://www.clarin.com/sociedad/salame-largo-pesado-argentino_0_1522648026.html'
p7
aS'https://www.clarin.com/ieco/economia/Radiografia-oferta-pago-argentina-acreedores_0_1522647919.html'
p8
aS'https://www.clarin.com/ieco/economia/Radiografia-oferta-pago-argentina-acreedores_0_1522647919.html'
p9
aS'https://www.clarin.com/ieco/economia/Problemas-Impuesto-Ganancias_0_1522647925.html'
p10
aS'https://www.clarin.com/ieco/economia/Problemas-Impuesto-Ganancias_0_1522647925.html'
p11
aS'https://www.clarin.com/politica/Massa-inflacion-importante-resolver-Gobierno_0_1522647984.html'
p12
aS'https://www.clarin.com/politica/Massa-inflacion-importante-resolver-Gobierno_0_1522647984.html'
p13
a.