(lp0
S'https://www.clarin.com/politica/Denuncian-Milagro-Sala-Parlasur-presa_0_1568243224.html'
p1
aS'https://www.clarin.com/politica/hace-falta-cuidar-Cristina_0_1568243216.html'
p2
aS'https://www.clarin.com/politica/hace-falta-cuidar-Cristina_0_1568243216.html'
p3
aS'https://www.clarin.com/politica/peculiaridades-Lazaro-Baez-futbol-Peron_0_1567643240.html'
p4
aS'https://www.clarin.com/politica/peculiaridades-Lazaro-Baez-futbol-Peron_0_1567643240.html'
p5
aS'https://www.clarin.com/politica/Marijuan-vuelve-Buenos-Aires_0_1567643398.html'
p6
aS'https://www.clarin.com/politica/Marijuan-vuelve-Buenos-Aires_0_1567643398.html'
p7
a.