(lp0
Vhttps://www.clarin.com/ieco/bonistas-acordo-Gobierno-US-millones_0_1542445976.html
p1
aVhttps://www.clarin.com/ieco/bonistas-acordo-Gobierno-US-millones_0_1542445976.html
p2
aVhttps://www.clarin.com/sociedad/Aseguran-cambiara-forma-consumimos-TV_0_1542445968.html
p3
aVhttps://www.clarin.com/sociedad/Aseguran-cambiara-forma-consumimos-TV_0_1542445968.html
p4
aVhttps://www.clarin.com/sociedad/Zuckerberg-correr-Tiananmen-llovieron-criticas_0_1542445964.html
p5
aVhttps://www.clarin.com/sociedad/Zuckerberg-correr-Tiananmen-llovieron-criticas_0_1542445964.html
p6
aVhttps://www.clarin.com/politica/buitres-Cristina-hermano-Pinedo-reorganizar_0_1542445963.html
p7
aVhttps://www.clarin.com/politica/buitres-Cristina-hermano-Pinedo-reorganizar_0_1542445963.html
p8
aVhttps://www.clarin.com/politica/dolares-Vidal-sale-seducir-intendentes_0_1542445956.html
p9
aVhttps://www.clarin.com/politica/dolares-Vidal-sale-seducir-intendentes_0_1542445956.html
p10
aVhttps://www.clarin.com/sociedad/ministro-Justicia-despenalizacion-absoluta-drogas_0_1542445951.html
p11
aVhttps://www.clarin.com/sociedad/ministro-Justicia-despenalizacion-absoluta-drogas_0_1542445951.html
p12
a.