(lp0
S'https://www.clarin.com/sociedad/Vuelven-subir-prepagas-acumulan-ultimo_0_1513049099.html'
p1
aS'https://www.clarin.com/sociedad/Vuelven-subir-prepagas-acumulan-ultimo_0_1513049099.html'
p2
aS'https://www.clarin.com/ieco/Dolar-Tasas-Inversiones-Merval-Acciones-Electricas-Enero_0_1513648687.html'
p3
aS'https://www.clarin.com/ieco/Carne-Precio-Buryaile-Mesa-Enlace_0_1513648686.html'
p4
aS'https://www.clarin.com/ieco/Prestamo-Bancos-BCRA-5-000-Millones_0_1513648685.html'
p5
aS'https://www.clarin.com/politica/Gas-energia-Chile-Argentina_0_1513648684.html'
p6
aS'https://www.clarin.com/politica/Gobierno-despidos-Estado-contratos-recorte_de_gastos_0_1513648683.html'
p7
aS'https://www.clarin.com/politica/Gobierno-despidos-Estado-contratos-recorte_de_gastos_0_1513648683.html'
p8
aS'https://www.clarin.com/politica/Gobierno-Agencia_Federal_de_Inteligencia-La_Campora-despidos-Estado_0_1513648682.html'
p9
aS'https://www.clarin.com/politica/Gobierno-Agencia_Federal_de_Inteligencia-La_Campora-despidos-Estado_0_1513648682.html'
p10
a.