(lp0
Vhttps://www.clarin.com/ieco/Venden-US-millones-frenar-disparada_0_1550845049.html
p1
aVhttps://www.clarin.com/ieco/Venden-US-millones-frenar-disparada_0_1550845049.html
p2
aVhttps://www.clarin.com/politica/Dietrich-terminos-plata-aumento-transporte_0_1550845042.html
p3
aVhttps://www.clarin.com/politica/Dietrich-terminos-plata-aumento-transporte_0_1550845042.html
p4
aVhttps://www.clarin.com/ieco/Aranguren-justifico-herencia-gobierno-anterior_0_1550845040.html
p5
aVhttps://www.clarin.com/ieco/Aranguren-justifico-herencia-gobierno-anterior_0_1550845040.html
p6
aVhttps://www.clarin.com/politica/Gobierno-promulgo-ley-pago-holdouts_0_1550845024.html
p7
aVhttps://www.clarin.com/politica/Gobierno-promulgo-ley-pago-holdouts_0_1550845024.html
p8
a.