(lp0
S'https://www.clarin.com/ieco/Bolsa-portena-cae_0_1684031669.html'
p1
aS'https://www.clarin.com/ieco/Bolsa-portena-cae_0_1684031669.html'
p2
aS'https://www.clarin.com/sociedad/Van-cambiar-Toblerone-venden-Argentina_0_1684031646.html'
p3
aS'https://www.clarin.com/sociedad/Van-cambiar-Toblerone-venden-Argentina_0_1684031646.html'
p4
aS'https://www.clarin.com/politica/Duran-Barba-Trump-triunfo-circulo_0_1684031666.html'
p5
aS'https://www.clarin.com/politica/Duran-Barba-Trump-triunfo-circulo_0_1684031666.html'
p6
aS'https://www.clarin.com/ieco/economia/inflacion-Mendoza-llego-octubre_0_1684031663.html'
p7
aS'https://www.clarin.com/ieco/economia/inflacion-Mendoza-llego-octubre_0_1684031663.html'
p8
aS'https://www.clarin.com/politica/Hotesur-piden-careo-Cristina-sobrina_0_1684031657.html'
p9
aS'https://www.clarin.com/politica/Hotesur-piden-careo-Cristina-sobrina_0_1684031657.html'
p10
a.