(lp0
S'https://www.clarin.com/politica/Abren-policia-protegido-Anibal-Fernandez_0_1634836665.html'
p1
aS'https://www.clarin.com/politica/Desplazaron-jefe-Aduana_0_1634836666.html'
p2
aS'https://www.clarin.com/politica/fallo-Corte-Macri-sale-timbrear_0_1634836663.html'
p3
aS'https://www.clarin.com/politica/Procesan-funcionarios-actos-Grupo-Clarin_0_1634836664.html'
p4
a.