(lp0
Vhttps://www.clarin.com/politica/Rafecas-denuncia-Nisman-encubrimiento-Cristina_0_1537646590.html
p1
aVhttps://www.clarin.com/politica/Rafecas-denuncia-Nisman-encubrimiento-Cristina_0_1537646590.html
p2
aVhttps://www.clarin.com/politica/Congreso-Judio-Mundial-Buenos-Aires_0_1537646545.html
p3
aVhttps://www.clarin.com/politica/Congreso-Judio-Mundial-Buenos-Aires_0_1537646545.html
p4
aVhttps://www.clarin.com/sociedad/intendente-acusado-esposa-declaro-inocente_0_1537646575.html
p5
aVhttps://www.clarin.com/sociedad/intendente-acusado-esposa-declaro-inocente_0_1537646575.html
p6
aVhttps://www.clarin.com/politica/Magistratura-reactivo-juicio-Oyarbide_0_1537646576.html
p7
aVhttps://www.clarin.com/politica/Magistratura-reactivo-juicio-Oyarbide_0_1537646576.html
p8
a.