(lp0
S'https://www.clarin.com/politica/DElia-ANSES-Tierra-Fuego-Macri_0_1675032591.html'
p1
aS'https://www.clarin.com/politica/DElia-ANSES-Tierra-Fuego-Macri_0_1675032591.html'
p2
aS'https://www.clarin.com/ieco/Argentina-puestos-mejores-paises-negocios_0_1675032589.html'
p3
aS'https://www.clarin.com/ieco/Argentina-puestos-mejores-paises-negocios_0_1675032589.html'
p4
aS'https://www.clarin.com/politica/Paraguay-proyecto-EEUU-comparte-Argentina_0_1675032575.html'
p5
aS'https://www.clarin.com/politica/Paraguay-proyecto-EEUU-comparte-Argentina_0_1675032575.html'
p6
aS'https://www.clarin.com/sociedad/Dengue-mosquitos-transmisores-Ciudad-crecen_0_1675032581.html'
p7
aS'https://www.clarin.com/sociedad/Dengue-mosquitos-transmisores-Ciudad-crecen_0_1675032581.html'
p8
aS'https://www.clarin.com/politica/Imputan-Anibal-supuestos-publicos-destinados_0_1675032583.html'
p9
aS'https://www.clarin.com/politica/Imputan-Anibal-supuestos-publicos-destinados_0_1675032583.html'
p10
aS'https://www.clarin.com/politica/Blanqueo-Gobierno-apertura-cuentas-expectativas_0_1675032574.html'
p11
aS'https://www.clarin.com/politica/Blanqueo-Gobierno-apertura-cuentas-expectativas_0_1675032574.html'
p12
a.