(lp0
Vhttps://www.clarin.com/ieco/economia/Pymes-AFIP-amplio-planes-permitidos_0_1565843436.html
p1
aVhttps://www.clarin.com/ieco/economia/Pymes-AFIP-amplio-planes-permitidos_0_1565843436.html
p2
aVhttps://www.clarin.com/sociedad/Profugo-Conci-espera-defina-situacion_0_1565843428.html
p3
aVhttps://www.clarin.com/sociedad/Profugo-Conci-espera-defina-situacion_0_1565843428.html
p4
aVhttps://www.clarin.com/politica/Roberto-Navarro-millones-secretaria-Medios_0_1565843430.html
p5
aVhttps://www.clarin.com/politica/Roberto-Navarro-millones-secretaria-Medios_0_1565843430.html
p6
aVhttps://www.clarin.com/sociedad/Provincia-quiere-suspender-fiestas-electronicas_0_1565843425.html
p7
aVhttps://www.clarin.com/sociedad/Provincia-quiere-suspender-fiestas-electronicas_0_1565843425.html
p8
a.