(lp0
S'https://www.clarin.com/politica/triple_crimen-vidal-perez_corradi_0_1504049624.html'
p1
aS'https://www.clarin.com/opinion/Marcelo_Guerrero_0_1504049642.html'
p2
aS'https://www.clarin.com/politica/triple_crimen-vidal_0_1504049622.html'
p3
aS'https://www.clarin.com/politica/triple_crimen-vidal_0_1504049626.html'
p4
aS'https://www.clarin.com/politica/triple_crimen-vidal-perez_corradi_0_1504049625.html'
p5
aS'https://www.clarin.com/politica/triple_crimen-vidal-bullrich_0_1504049623.html'
p6
aS'https://www.clarin.com/opinion/Bosques_nativos-Desmonte-Ley_de_Bosques-Agricultura_sustentable_0_1504049614.html'
p7
aS'https://www.clarin.com/politica/Alicia-ayuda-Rosada-Santa-Cruz_0_1504049645.html'
p8
a.