(lp0
Vhttps://www.clarin.com/ieco/economia/tasas-enfrio-dolar-intervencion-Central_0_1533446768.html
p1
aVhttps://www.clarin.com/politica/Fondos-Gobierno-negocia-proyecto-Massa_0_1532847187.html
p2
aVhttps://www.clarin.com/ieco/Griesa-clave-Argentina-salga-default_0_1532847185.html
p3
aVhttps://www.clarin.com/ieco/Fuerte-suba-peajes-rutas-nacionales_0_1533446764.html
p4
aVhttps://www.clarin.com/ieco/Fuerte-suba-peajes-rutas-nacionales_0_1533446764.html
p5
aVhttps://www.clarin.com/politica/Mensaje-Macri-concesiones-salir-default_0_1532847177.html
p6
aVhttps://www.clarin.com/ieco/economia/Aerolineas-deja-volar-Brasilia-abril_0_1532847150.html
p7
aVhttps://www.clarin.com/ieco/economia/Aerolineas-deja-volar-Brasilia-abril_0_1532847150.html
p8
aVhttps://www.clarin.com/sociedad/Sala-obligatoria-deberan-incorporar-chicos_0_1532847144.html
p9
aVhttps://www.clarin.com/sociedad/Sala-obligatoria-deberan-incorporar-chicos_0_1532847144.html
p10
aVhttps://www.clarin.com/opinion/Necesario-suficiente_0_1533446665.html
p11
aVhttps://www.clarin.com/opinion/Alguien-aclarara-murio-Nisman_0_1533446660.html
p12
aVhttps://www.clarin.com/opinion/Conadep-causa-AMIA_0_1532847066.html
p13
aVhttps://www.clarin.com/opinion/equipo-Macri-instalo-centro-ring_0_1532847075.html
p14
aVhttps://www.clarin.com/opinion/equipo-Macri-instalo-centro-ring_0_1532847075.html
p15
a.