(lp0
S'https://www.clarin.com/politica/Papa-Francisco-recibio-Hebe-Bonafini_0_1584441648.html'
p1
aS'https://www.clarin.com/ieco/economia/Prat-Gay-jubilatorio-acciones-ANSES_0_1584441649.html'
p2
aS'https://www.clarin.com/politica/Dolar-futuro-confirman-Bonadio-frente_0_1584441661.html'
p3
aS'https://www.clarin.com/sociedad/hospital-Ninos-duplicaron-casos-gripe_0_1584441646.html'
p4
aS'https://www.clarin.com/politica/Reves-Cristina-confirman-Bonadio-futuro_0_1584441662.html'
p5
aS'https://www.clarin.com/sociedad/Convirtieron-vacaciones-viajes-ayudar-guaranies_0_1583841776.html'
p6
a.