(lp0
Vhttps://www.clarin.com/ieco/economia/empresarios-Argentina-Brasil-China-problema_0_1646835494.html
p1
aVhttps://www.clarin.com/ieco/economia/empresarios-Argentina-Brasil-China-problema_0_1646835494.html
p2
aVhttps://www.clarin.com/ieco/economia/Importaciones-invasion-numeros-desmienten_0_1646835454.html
p3
aVhttps://www.clarin.com/ieco/economia/Importaciones-invasion-numeros-desmienten_0_1646835454.html
p4
aVhttps://www.clarin.com/ieco/precios-yerba-productor-subiran-marzo_0_1646835328.html
p5
aVhttps://www.clarin.com/ieco/precios-yerba-productor-subiran-marzo_0_1646835328.html
p6
aVhttps://www.clarin.com/politica/Centurion-escandalo-reivindicacion-interna_0_1647435256.html
p7
aVhttps://www.clarin.com/politica/Centurion-escandalo-reivindicacion-interna_0_1647435256.html
p8
aVhttps://www.clarin.com/opinion/Club-Paris-hacer-acuerdo-pesimo_0_1646835467.html
p9
aVhttps://www.clarin.com/opinion/Club-Paris-hacer-acuerdo-pesimo_0_1646835467.html
p10
aVhttps://www.clarin.com/opinion/renovacion-peronista-panales_0_1647435254.html
p11
aVhttps://www.clarin.com/politica/Insaurralde-Brancatelli-Intratables-panelista-tibio_0_1646835516.html
p12
aVhttps://www.clarin.com/politica/Insaurralde-Brancatelli-Intratables-panelista-tibio_0_1646835516.html
p13
aVhttps://www.clarin.com/sociedad/Gobierno-reponer-Telesur-TV-digital_0_1646835514.html
p14
aVhttps://www.clarin.com/sociedad/Gobierno-reponer-Telesur-TV-digital_0_1646835514.html
p15
a.