(lp0
S'https://www.clarin.com/ieco/Protesta-camioneros-Trabajo-conflicto-Maxiconsumo_0_1574842584.html'
p1
aS'https://www.clarin.com/politica/Amplian-procesamiento-Sbatella-divulgar-Clarin_0_1574842593.html'
p2
aS'https://www.clarin.com/sociedad/anos-despues-condenaron-violar-hijastra_0_1574842590.html'
p3
aS'https://www.clarin.com/politica/Urtubey-aseguro-rechazaria-ley-antidespidos_0_1574842589.html'
p4
aS'https://www.clarin.com/sociedad/emocionante-foto-mama-quintillizos_0_1574842583.html'
p5
aS'https://www.clarin.com/politica/Baez-decidio-definitivamente-Austral-Construcciones_0_1574842528.html'
p6
a.