(lp0
S'https://www.clarin.com/politica/Macri-inversiones-US-millones-infraestructura_0_1571242970.html'
p1
aS'https://www.clarin.com/politica/Macri-inversiones-US-millones-infraestructura_0_1571242970.html'
p2
aS'https://www.clarin.com/sociedad/busqueda-Carina-Drigani-hallan-cadaver_0_1571242968.html'
p3
aS'https://www.clarin.com/sociedad/busqueda-Carina-Drigani-hallan-cadaver_0_1571242968.html'
p4
aS'https://www.clarin.com/politica/sindicales-Diputados-comenzo-analizar-antidespidos_0_1571242966.html'
p5
aS'https://www.clarin.com/politica/sindicales-Diputados-comenzo-analizar-antidespidos_0_1571242966.html'
p6
aS'https://www.clarin.com/sociedad/Video-mujer-reencontro-acosador-paso_0_1571242962.html'
p7
aS'https://www.clarin.com/sociedad/Video-mujer-reencontro-acosador-paso_0_1571242962.html'
p8
aS'https://www.clarin.com/sociedad/Caos-transito-Tucuman-protesta-taxistas_0_1571242960.html'
p9
aS'https://www.clarin.com/sociedad/Caos-transito-Tucuman-protesta-taxistas_0_1571242960.html'
p10
aS'https://www.clarin.com/sociedad/tonelada-huesos-dinosaurios-fosiles-Antartida_0_1571242958.html'
p11
aS'https://www.clarin.com/sociedad/tonelada-huesos-dinosaurios-fosiles-Antartida_0_1571242958.html'
p12
a.