(lp0
Vhttps://www.clarin.com/sociedad/Maestra-caso-alumno-puede-presa_0_1639636082.html
p1
aVhttps://www.clarin.com/sociedad/Maestra-caso-alumno-puede-presa_0_1639636082.html
p2
aVhttps://www.clarin.com/sociedad/cantante-colombiano-accidente-avioneta-video_0_1639636081.html
p3
aVhttps://www.clarin.com/sociedad/cantante-colombiano-accidente-avioneta-video_0_1639636081.html
p4
aVhttps://www.clarin.com/politica/Desalojan-familias-tomaron-tierras-Moreno_0_1639636079.html
p5
aVhttps://www.clarin.com/politica/Desalojan-familias-tomaron-tierras-Moreno_0_1639636079.html
p6
aVhttps://www.clarin.com/sociedad/Verdades-encerradas_0_1639036230.html
p7
a.