(lp0
S'https://www.clarin.com/ieco/economia/defender-tarifazo-Aranguren-apuntara-corrupcion_0_1632436882.html'
p1
aS'https://www.clarin.com/ieco/economia/defender-tarifazo-Aranguren-apuntara-corrupcion_0_1632436882.html'
p2
aS'https://www.clarin.com/politica/Creditos-hipotecarios-Diputados-aprobara-cambios_0_1632436847.html'
p3
aS'https://www.clarin.com/politica/Creditos-hipotecarios-Diputados-aprobara-cambios_0_1632436847.html'
p4
aS'https://www.clarin.com/politica/Patagonia-rechazan-Vidal-Fondo-Conurbano_0_1632436874.html'
p5
aS'https://www.clarin.com/politica/Patagonia-rechazan-Vidal-Fondo-Conurbano_0_1632436874.html'
p6
aS'https://www.clarin.com/ieco/cereal-autoctono-Argentina-importa-Tailandia_0_1632436805.html'
p7
aS'https://www.clarin.com/ieco/cereal-autoctono-Argentina-importa-Tailandia_0_1632436805.html'
p8
aS'https://www.clarin.com/politica/redujo-comercio-Iran-Venezuela-aliados_0_1632436846.html'
p9
aS'https://www.clarin.com/politica/Rey-efedrina-podria-declarar-arrepentido_0_1632436845.html'
p10
aS'https://www.clarin.com/politica/Rey-efedrina-podria-declarar-arrepentido_0_1632436845.html'
p11
aS'https://www.clarin.com/politica/Efedrina-comisario-denunciado-siguio-Anibal_0_1632436836.html'
p12
aS'https://www.clarin.com/politica/Efedrina-comisario-denunciado-siguio-Anibal_0_1632436836.html'
p13
aS'https://www.clarin.com/politica/Detectan-Tren-Eva-Peron-Vido_0_1632436841.html'
p14
aS'https://www.clarin.com/politica/Detectan-Tren-Eva-Peron-Vido_0_1632436841.html'
p15
aS'https://www.clarin.com/politica/semana-congreso-unificador-CGT-padrones_0_1632436857.html'
p16
aS'https://www.clarin.com/politica/semana-congreso-unificador-CGT-padrones_0_1632436857.html'
p17
aS'https://www.clarin.com/sociedad/Afirman-sacar-fotos-viajes-disfrute_0_1633036686.html'
p18
aS'https://www.clarin.com/sociedad/Afirman-sacar-fotos-viajes-disfrute_0_1633036686.html'
p19
aS'https://www.clarin.com/politica/Moldes-investigar-Cristina-traicion-Patria_0_1632436862.html'
p20
aS'https://www.clarin.com/opinion/edad-jubilarse-perspectiva_0_1632436855.html'
p21
aS'https://www.clarin.com/opinion/Venezuela-tiempo-ambivalencias_0_1632436854.html'
p22
aS'https://www.clarin.com/opinion/Venezuela-tiempo-ambivalencias_0_1632436854.html'
p23
aS'https://www.clarin.com/opinion/tercera-apertura-china-ausencia-Latinoamerica_0_1632436853.html'
p24
a.