(lp0
S'https://www.clarin.com/politica/Mirtha-Legrand-Boudou-compania-fuente_0_1682231782.html'
p1
aS'https://www.clarin.com/politica/Mirtha-Legrand-Boudou-compania-fuente_0_1682231782.html'
p2
aS'https://www.clarin.com/sociedad/perdido-relevancia-perdio-confianza-publico_0_1682231783.html'
p3
aS'https://www.clarin.com/sociedad/perdido-relevancia-perdio-confianza-publico_0_1682231783.html'
p4
aS'https://www.clarin.com/sociedad/Pet-friendly-ofrecen-menues-perros_0_1682231779.html'
p5
aS'https://www.clarin.com/sociedad/Pet-friendly-ofrecen-menues-perros_0_1682231779.html'
p6
aS'https://www.clarin.com/politica/Martin-Lousteau-revancha-Ciudad-literatura_0_1682231776.html'
p7
aS'https://www.clarin.com/politica/Martin-Lousteau-revancha-Ciudad-literatura_0_1682231776.html'
p8
a.