(lp0
S'https://www.clarin.com/sociedad/Femicidio-pelotero-madre-cumpleanos-nena_0_1619238156.html'
p1
aS'https://www.clarin.com/sociedad/Femicidio-pelotero-madre-cumpleanos-nena_0_1619238156.html'
p2
aS'https://www.clarin.com/sociedad/Todas-semanas-hacemos-carta-documento_0_1619238155.html'
p3
aS'https://www.clarin.com/sociedad/Chicos-testigos-frecuente-crimenes_0_1619238154.html'
p4
a.