(lp0
Vhttps://www.clarin.com/politica/Senado-reincorporo-empleados-despedidos_0_1538846192.html
p1
aVhttps://www.clarin.com/sociedad/Multan-Barrick-contaminacion-rios_0_1538246643.html
p2
aVhttps://www.clarin.com/sociedad/Multan-Barrick-contaminacion-rios_0_1538246643.html
p3
aVhttps://www.clarin.com/sociedad/argentinos-meditacion-grande-historia_0_1538246632.html
p4
aVhttps://www.clarin.com/sociedad/argentinos-meditacion-grande-historia_0_1538246632.html
p5
aVhttps://www.clarin.com/opinion/pobreza-puede-esperar_0_1538846178.html
p6
aVhttps://www.clarin.com/opinion/hipoteca-social-kirchnerismo_0_1538246537.html
p7
aVhttps://www.clarin.com/opinion/Ideologia-moral-America-latina_0_1538846172.html
p8
aVhttps://www.clarin.com/politica/Lanatta-afirmo-penitenciario-fugarse-Anibal_0_1538246619.html
p9
aVhttps://www.clarin.com/politica/Lanatta-afirmo-penitenciario-fugarse-Anibal_0_1538246619.html
p10
aVhttps://www.clarin.com/opinion/fiesta-ultimo-primer-posibilidad-crecer_0_1538246553.html
p11
a.