(lp0
Vhttps://www.clarin.com/opinion/relato-justifica-corrupcion_0_1601240023.html
p1
aVhttps://www.clarin.com/opinion/Arturo-Illia-construccion-eticas-politica_0_1601240024.html
p2
aVhttps://www.clarin.com/politica/Baez-podrian-presos-dinero-Suiza_0_1601240044.html
p3
aVhttps://www.clarin.com/politica/Baez-podrian-presos-dinero-Suiza_0_1601240044.html
p4
aVhttps://www.clarin.com/opinion/Escandalos-salen-vaina_0_1601839858.html
p5
aVhttps://www.clarin.com/opinion/Tecnicas-actuacion_0_1601839855.html
p6
aVhttps://www.clarin.com/politica/cambio-poder-politico_0_1601240058.html
p7
a.