(lp0
Vhttps://www.clarin.com/politica/Elisa-Carrio-Gils-Carbo-personal_0_1686431371.html
p1
aVhttps://www.clarin.com/politica/Elisa-Carrio-Gils-Carbo-personal_0_1686431371.html
p2
aVhttps://www.clarin.com/sociedad/abuela-Zarate-festejo-anos_0_1686431368.html
p3
aVhttps://www.clarin.com/sociedad/abuela-Zarate-festejo-anos_0_1686431368.html
p4
aVhttps://www.clarin.com/politica/Elisa-Carrio-Gils-Carbo-personal_0_1686431365.html
p5
aVhttps://www.clarin.com/politica/Elisa-Carrio-Gils-Carbo-personal_0_1686431365.html
p6
aVhttps://www.clarin.com/politica/Elisa-Carrio-Gils-Carbo-personal_0_1686431362.html
p7
aVhttps://www.clarin.com/politica/Elisa-Carrio-Gils-Carbo-personal_0_1686431362.html
p8
aVhttps://www.clarin.com/sociedad/llevaron-camioneta-California-trajeron-vuelta_0_1686431360.html
p9
aVhttps://www.clarin.com/sociedad/llevaron-camioneta-California-trajeron-vuelta_0_1686431360.html
p10
a.