(lp0
Vhttps://www.clarin.com/sociedad/primera-esclava-sexual-Justicia-explotadores_0_1681631982.html
p1
aVhttps://www.clarin.com/sociedad/primera-esclava-sexual-Justicia-explotadores_0_1681631982.html
p2
aVhttps://www.clarin.com/politica/sociedad-sistema-educativo-funcionando-bien_0_1681631979.html
p3
aVhttps://www.clarin.com/politica/sociedad-sistema-educativo-funcionando-bien_0_1681631979.html
p4
aVhttps://www.clarin.com/ieco/Calculan-familia-feliz-necesita-mes_0_1681631972.html
p5
aVhttps://www.clarin.com/politica/lideres-sociales-Francisco-arremetio-dinero_0_1681631970.html
p6
aVhttps://www.clarin.com/ieco/Shell-Petrobras-Oil-estaciones-servicio_0_1681032086.html
p7
aVhttps://www.clarin.com/ieco/Shell-Petrobras-Oil-estaciones-servicio_0_1681032086.html
p8
aVhttps://www.clarin.com/opinion/Trump-retorica-veneno_0_1681631969.html
p9
aVhttps://www.clarin.com/opinion/Trump-retorica-veneno_0_1681631969.html
p10
aVhttps://www.clarin.com/opinion/argentinos-vieron-refugiados-pueden-olvidar_0_1681631967.html
p11
aVhttps://www.clarin.com/opinion/argentinos-vieron-refugiados-pueden-olvidar_0_1681631967.html
p12
aVhttps://www.clarin.com/sociedad/caras-detras-lucha-violencia-genero_0_1681631968.html
p13
aVhttps://www.clarin.com/sociedad/caras-detras-lucha-violencia-genero_0_1681631968.html
p14
a.