(lp0
Vhttps://www.clarin.com/politica/Macri-deja-sindrome-Rua_0_1673232817.html
p1
aVhttps://www.clarin.com/politica/Macri-deja-sindrome-Rua_0_1673232817.html
p2
aVhttps://www.clarin.com/sociedad/Llegan-expertos-region-debatir-educacion_0_1673232816.html
p3
aVhttps://www.clarin.com/politica/Cambiemos-negocia-pase-intendentes-interior_0_1673232803.html
p4
aVhttps://www.clarin.com/sociedad/Encuentra-formula-consuman-calorias_0_1672632862.html
p5
aVhttps://www.clarin.com/sociedad/Encuentra-formula-consuman-calorias_0_1672632862.html
p6
aVhttps://www.clarin.com/politica/posibilidad-conflcito-social-fin-ano_0_1673232814.html
p7
aVhttps://www.clarin.com/politica/posibilidad-conflcito-social-fin-ano_0_1673232814.html
p8
aVhttps://www.clarin.com/politica/Macri-lanza-juventud-Cambiemos_0_1673232776.html
p9
a.