(lp0
S'https://www.clarin.com/politica/Cristina-Kirchner-dice-dinero-Lopez_0_1596440537.html'
p1
aS'https://www.clarin.com/politica/Cristina-Kirchner-dice-dinero-Lopez_0_1596440537.html'
p2
aS'https://www.clarin.com/politica/tribunal-devolvio-causa-Nisman-Palmaghini_0_1597040297.html'
p3
aS'https://www.clarin.com/politica/tribunal-devolvio-causa-Nisman-Palmaghini_0_1597040297.html'
p4
aS'https://www.clarin.com/opinion/Sarmiento-feriados-honran_0_1596440503.html'
p5
aS'https://www.clarin.com/opinion/equipo-Jose-Lopez-codo-Cristina_0_1596440499.html'
p6
aS'https://www.clarin.com/opinion/equipo-Jose-Lopez-codo-Cristina_0_1596440499.html'
p7
aS'https://www.clarin.com/opinion/Orlando-formas-mentales-politicas-desatino_0_1596440501.html'
p8
aS'https://www.clarin.com/politica/Despertador-jueces-dormian_0_1597040294.html'
p9
aS'https://www.clarin.com/opinion/kirchneristas-caen-ley_0_1597040293.html'
p10
a.