(lp0
Vhttps://www.clarin.com/politica/Nuevos-abogada-Milagro-Sala-detencion_0_1565243504.html
p1
aVhttps://www.clarin.com/politica/Nuevos-abogada-Milagro-Sala-detencion_0_1565243504.html
p2
aVhttps://www.clarin.com/sociedad/Conmovedor-muestra-escuela-tapada-agua_0_1565243502.html
p3
aVhttps://www.clarin.com/sociedad/Conmovedor-muestra-escuela-tapada-agua_0_1565243502.html
p4
aVhttps://www.clarin.com/politica/empleado-AFIP-denuncio-Echegaray-calvario_0_1565243495.html
p5
aVhttps://www.clarin.com/politica/empleado-AFIP-denuncio-Echegaray-calvario_0_1565243495.html
p6
aVhttps://www.clarin.com/ieco/New-York-Times-Mindlin-negociacion_0_1565243500.html
p7
aVhttps://www.clarin.com/ieco/New-York-Times-Mindlin-negociacion_0_1565243500.html
p8
aVhttps://www.clarin.com/politica/Macri-empresarios-espanoles-inviertan-pais_0_1565243499.html
p9
aVhttps://www.clarin.com/politica/Macri-empresarios-espanoles-inviertan-pais_0_1565243499.html
p10
aVhttps://www.clarin.com/sociedad/Ridiculizo-poses-famosas-celebrity-Instagram_0_1565243498.html
p11
aVhttps://www.clarin.com/sociedad/Ridiculizo-poses-famosas-celebrity-Instagram_0_1565243498.html
p12
aVhttps://www.clarin.com/politica/Grindetti-exista-pedido-captura-Interpol_0_1565243497.html
p13
aVhttps://www.clarin.com/politica/Grindetti-exista-pedido-captura-Interpol_0_1565243497.html
p14
aVhttps://www.clarin.com/sociedad/primer-frente-bajar-temperaturas-pais_0_1565243493.html
p15
a.