(lp0
Vhttps://www.clarin.com/politica/Sorpresivamente-Macri-visito-ex-Esma_0_1523247870.html
p1
aVhttps://www.clarin.com/politica/Sorpresivamente-Macri-visito-ex-Esma_0_1523247870.html
p2
aVhttps://www.clarin.com/sociedad/Antartida-iceberg-provoca-muerte-pinguinos_0_1523247817.html
p3
aVhttps://www.clarin.com/sociedad/Antartida-iceberg-provoca-muerte-pinguinos_0_1523247817.html
p4
aVhttps://www.clarin.com/sociedad/Insolito-iglesia-pagara-deuda-oraciones_0_1523247859.html
p5
aVhttps://www.clarin.com/sociedad/Insolito-iglesia-pagara-deuda-oraciones_0_1523247859.html
p6
aVhttps://www.clarin.com/sociedad/pobre-angelito-olvidaron-hija-peaje_0_1523247855.html
p7
aVhttps://www.clarin.com/sociedad/pobre-angelito-olvidaron-hija-peaje_0_1523247855.html
p8
a.