(lp0
Vhttps://www.clarin.com/ieco/Oficializaron-ley-blanqueo-pago-jubilados_0_1618038212.html
p1
aVhttps://www.clarin.com/ieco/Oficializaron-ley-blanqueo-pago-jubilados_0_1618038212.html
p2
aVhttps://www.clarin.com/politica/Viviani-candidatos-CGT-movimiento-obrero_0_1618038211.html
p3
aVhttps://www.clarin.com/politica/Viviani-candidatos-CGT-movimiento-obrero_0_1618038211.html
p4
aVhttps://www.clarin.com/sociedad/desaparecida-familia-cree-cayo-secta_0_1618038206.html
p5
aVhttps://www.clarin.com/sociedad/desaparecida-familia-cree-cayo-secta_0_1618038206.html
p6
a.