(lp0
Vhttps://www.clarin.com/politica/Fuerte-Santa-Cruz-Casa-Rosada_0_1523847748.html
p1
aVhttps://www.clarin.com/politica/Fuerte-Santa-Cruz-Casa-Rosada_0_1523847748.html
p2
aVhttps://www.clarin.com/politica/Jorge_Todesca-Graciela_Bevacqua-INDEC_0_1523847822.html
p3
aVhttps://www.clarin.com/politica/Jorge_Todesca-Graciela_Bevacqua-INDEC_0_1523847822.html
p4
aVhttps://www.clarin.com/sociedad/Video-asombrosas-sillas-oficinas-mueven_0_1523847817.html
p5
aVhttps://www.clarin.com/sociedad/Video-asombrosas-sillas-oficinas-mueven_0_1523847817.html
p6
aVhttps://www.clarin.com/sociedad/tormenta-cordoba-muertos_0_1523847799.html
p7
aVhttps://www.clarin.com/sociedad/tormenta-cordoba-muertos_0_1523847799.html
p8
a.