(lp0
S'https://www.clarin.com/politica/plenario-CGT-documento-criticas-Gobierno_0_1626437482.html'
p1
aS'https://www.clarin.com/politica/plenario-CGT-documento-criticas-Gobierno_0_1626437482.html'
p2
a.