(lp0
Vhttps://www.clarin.com/opinion/Justicia-Trabajo-freno-inversiones_0_1627637319.html
p1
aVhttps://www.clarin.com/politica/Acuerdos-plata-forzados-realidad_0_1628237164.html
p2
aVhttps://www.clarin.com/opinion/Ciudadanos-Pokemon_0_1628237163.html
p3
aVhttps://www.clarin.com/politica/Macri-EEUU-GBA-Santa-Cruz_0_1627637374.html
p4
aVhttps://www.clarin.com/politica/Tarifas-secretarios-Energia-solucion-politica_0_1627637376.html
p5
aVhttps://www.clarin.com/politica/Tarifas-secretarios-Energia-solucion-politica_0_1627637376.html
p6
a.