(lp0
Vhttps://www.clarin.com/ieco/Facebook-aumento-ganacias-primer-semestre_0_1621637867.html
p1
aVhttps://www.clarin.com/ieco/Facebook-aumento-ganacias-primer-semestre_0_1621637867.html
p2
aVhttps://www.clarin.com/ieco/economistas-FMI-cuestionan-neoliberalismo_0_1621637864.html
p3
aVhttps://www.clarin.com/ieco/economistas-FMI-cuestionan-neoliberalismo_0_1621637864.html
p4
aVhttps://www.clarin.com/ieco/Apple-llego-millones-iPhones-vendidos_0_1621637858.html
p5
aVhttps://www.clarin.com/ieco/Apple-llego-millones-iPhones-vendidos_0_1621637858.html
p6
aVhttps://www.clarin.com/politica/Israel-nuevo-embajador-Argentina_0_1621637854.html
p7
aVhttps://www.clarin.com/politica/Israel-nuevo-embajador-Argentina_0_1621637854.html
p8
aVhttps://www.clarin.com/politica/formula-PRO-conflicto-intendentes-Massa_0_1621637855.html
p9
aVhttps://www.clarin.com/politica/formula-PRO-conflicto-intendentes-Massa_0_1621637855.html
p10
a.