(lp0
S'https://www.clarin.com/sociedad/Padres-policias-retuvieron-amenazaron-adolescente_0_1675632495.html'
p1
aS'https://www.clarin.com/sociedad/partido-General-Villegas-inundado_0_1675632492.html'
p2
aS'https://www.clarin.com/sociedad/partido-General-Villegas-inundado_0_1675632492.html'
p3
aS'https://www.clarin.com/ieco/economia/Bancarios-paran-viernes-medio-blanqueo_0_1675632491.html'
p4
aS'https://www.clarin.com/ieco/economia/Bancarios-paran-viernes-medio-blanqueo_0_1675632491.html'
p5
aS'https://www.clarin.com/sociedad/igualdad-salarial-hombres-mujeres-lograra_0_1675632488.html'
p6
aS'https://www.clarin.com/sociedad/igualdad-salarial-hombres-mujeres-lograra_0_1675632488.html'
p7
a.