(lp0
Vhttps://www.clarin.com/politica/Aparecen-nuevos-mails-comprometen-Cristina_0_1644435682.html
p1
aVhttps://www.clarin.com/politica/Aparecen-nuevos-mails-comprometen-Cristina_0_1644435682.html
p2
aVhttps://www.clarin.com/politica/Advierten-Iglesia-Gobierno-minimizaba-narcotrafico_0_1644435679.html
p3
aVhttps://www.clarin.com/politica/Advierten-Iglesia-Gobierno-minimizaba-narcotrafico_0_1644435679.html
p4
a.