(lp0
Vhttps://www.clarin.com/sociedad/encontraron-amante-desnudo-fingio-secuestro_0_1636036454.html
p1
aVhttps://www.clarin.com/sociedad/encontraron-amante-desnudo-fingio-secuestro_0_1636036454.html
p2
aVhttps://www.clarin.com/ieco/ventas-Dia-Nino-cayeron_0_1636036456.html
p3
aVhttps://www.clarin.com/ieco/ventas-Dia-Nino-cayeron_0_1636036456.html
p4
aVhttps://www.clarin.com/sociedad/Crearon-asociacion-velar-prestigio-espanol_0_1636036455.html
p5
aVhttps://www.clarin.com/sociedad/Crearon-asociacion-velar-prestigio-espanol_0_1636036455.html
p6
aVhttps://www.clarin.com/politica/Indice-optimismo-politico-mantiene-economico_0_1636036451.html
p7
aVhttps://www.clarin.com/politica/Indice-optimismo-politico-mantiene-economico_0_1636036451.html
p8
aVhttps://www.clarin.com/sociedad/anos-leucemia-disfraza-alegrar-chicos_0_1636036394.html
p9
aVhttps://www.clarin.com/sociedad/anos-leucemia-disfraza-alegrar-chicos_0_1636036394.html
p10
aVhttps://www.clarin.com/politica/paga-jefe-Gabinete-gas-casa_0_1636036445.html
p11
aVhttps://www.clarin.com/politica/paga-jefe-Gabinete-gas-casa_0_1636036445.html
p12
aVhttps://www.clarin.com/politica/AFIP-investiga-empresa-visito-Macri_0_1636036444.html
p13
aVhttps://www.clarin.com/politica/AFIP-investiga-empresa-visito-Macri_0_1636036444.html
p14
aVhttps://www.clarin.com/ieco/economia/estrategia-Serenisima-ingreso-Arcor-Pagani_0_1636036406.html
p15
aVhttps://www.clarin.com/ieco/economia/estrategia-Serenisima-ingreso-Arcor-Pagani_0_1636036406.html
p16
aVhttps://www.clarin.com/ieco/economia/nuevo-comercio-exterior-chino_0_1636036402.html
p17
aVhttps://www.clarin.com/ieco/economia/nuevo-comercio-exterior-chino_0_1636036402.html
p18
a.