(lp0
S'https://www.clarin.com/sociedad/Detalles-familia-aparecio-planeaba-esposo_0_1629437078.html'
p1
aS'https://www.clarin.com/sociedad/Detalles-familia-aparecio-planeaba-esposo_0_1629437078.html'
p2
aS'https://www.clarin.com/sociedad/Fuerte-condena-sociales-dichos-Cordera_0_1629437073.html'
p3
aS'https://www.clarin.com/sociedad/Fuerte-condena-sociales-dichos-Cordera_0_1629437073.html'
p4
aS'https://www.clarin.com/ieco/Roberto-Giordano-ausentarse-permiso-Justicia_0_1629437070.html'
p5
aS'https://www.clarin.com/ieco/Roberto-Giordano-ausentarse-permiso-Justicia_0_1629437070.html'
p6
aS'https://www.clarin.com/politica/Macri-quieren-salgamos-adelante_0_1629437075.html'
p7
aS'https://www.clarin.com/politica/Macri-quieren-salgamos-adelante_0_1629437075.html'
p8
aS'https://www.clarin.com/politica/Desbaratan-plan-asesinar-intendente-Cambiemos_0_1629437064.html'
p9
aS'https://www.clarin.com/politica/Desbaratan-plan-asesinar-intendente-Cambiemos_0_1629437064.html'
p10
aS'https://www.clarin.com/sociedad/Consejo-Mujer-INADI-denunciarian-Cordera_0_1629437069.html'
p11
aS'https://www.clarin.com/sociedad/Consejo-Mujer-INADI-denunciarian-Cordera_0_1629437069.html'
p12
aS'https://www.clarin.com/sociedad/insolita-defensa-Cordera-psicodrama-Picasso_0_1629437067.html'
p13
aS'https://www.clarin.com/sociedad/insolita-defensa-Cordera-psicodrama-Picasso_0_1629437067.html'
p14
aS'https://www.clarin.com/politica/Ercolini-pericia-Hotesur-Cristina-Maximo_0_1626437408.html'
p15
aS'https://www.clarin.com/politica/Ercolini-pericia-Hotesur-Cristina-Maximo_0_1626437408.html'
p16
a.