(lp0
Vhttps://www.clarin.com/sociedad/Alquilo-vientre-entero-pareja-entregarlo_0_1545445719.html
p1
aVhttps://www.clarin.com/sociedad/Alquilo-vientre-entero-pareja-entregarlo_0_1545445719.html
p2
aVhttps://www.clarin.com/politica/Obama-Probe-mate-gusto_0_1545445718.html
p3
aVhttps://www.clarin.com/politica/Obama-Probe-mate-gusto_0_1545445718.html
p4
aVhttps://www.clarin.com/politica/Macri-agradecio-Obama-desclasificacion-dictadura_0_1545445711.html
p5
aVhttps://www.clarin.com/politica/Macri-agradecio-Obama-desclasificacion-dictadura_0_1545445711.html
p6
aVhttps://www.clarin.com/sociedad/Vuelven-extender-plazo-renovar-DNI_0_1545445710.html
p7
aVhttps://www.clarin.com/sociedad/Vuelven-extender-plazo-renovar-DNI_0_1545445710.html
p8
aVhttps://www.clarin.com/sociedad/Buscan-adolescente-desaparecio-domingo_0_1545445708.html
p9
aVhttps://www.clarin.com/sociedad/Buscan-adolescente-desaparecio-domingo_0_1545445708.html
p10
aVhttps://www.clarin.com/politica/Tinelli-Susana-famosos-invitados-gala_0_1545445697.html
p11
aVhttps://www.clarin.com/ieco/revisara-precio-energia-mayo-julio_0_1545445696.html
p12
aVhttps://www.clarin.com/ieco/economia/Gobierno-lanzo-subasta-nueva-energia_0_1545445695.html
p13
aVhttps://www.clarin.com/ieco/economia/Gobierno-lanzo-subasta-nueva-energia_0_1545445695.html
p14
aVhttps://www.clarin.com/sociedad/Macri-Snapchat-visita-Obama-Rosada_0_1545445693.html
p15
aVhttps://www.clarin.com/sociedad/Macri-Snapchat-visita-Obama-Rosada_0_1545445693.html
p16
a.