(lp0
S'https://www.clarin.com/sociedad/Dengue-ministra-Salud-Ciudad-reconocio_0_1537646528.html'
p1
aS'https://www.clarin.com/sociedad/polemica-Barbie-llego-museo_0_1537646539.html'
p2
aS'https://www.clarin.com/sociedad/Bahia-Blanca-imputan-funcionarios-chica_0_1537646532.html'
p3
aS'https://www.clarin.com/ieco/dolar-sigue-cayendo-cotiza_0_1537646470.html'
p4
aS'https://www.clarin.com/sociedad/Protestas-docentes-Mendoza-Santiago-Estero_0_1537646523.html'
p5
aS'https://www.clarin.com/sociedad/Cientificos-descubren-arana-surfea-Australia_0_1537646541.html'
p6
a.