(lp0
Vhttps://www.clarin.com/politica/Macri-dijo-modificara-articulo-blanqueo_0_1591040999.html
p1
aVhttps://www.clarin.com/politica/Macri-dijo-modificara-articulo-blanqueo_0_1591040999.html
p2
aVhttps://www.clarin.com/politica/Corte-sentencio-sindicatos-llamar-huelga_0_1591040997.html
p3
aVhttps://www.clarin.com/politica/Corte-sentencio-sindicatos-llamar-huelga_0_1591040997.html
p4
aVhttps://www.clarin.com/sociedad/errores-titular-Central-venado-billetes_0_1591040992.html
p5
aVhttps://www.clarin.com/sociedad/errores-titular-Central-venado-billetes_0_1591040992.html
p6
a.