(lp0
Vhttps://www.clarin.com/sociedad/acrobata-accidente-Cirque-du-Soleil_0_1582041797.html
p1
aVhttps://www.clarin.com/sociedad/acrobata-accidente-Cirque-du-Soleil_0_1582041797.html
p2
aVhttps://www.clarin.com/sociedad/menores-anos-casos-gripe-duplican_0_1582041795.html
p3
aVhttps://www.clarin.com/sociedad/menores-anos-casos-gripe-duplican_0_1582041795.html
p4
aVhttps://www.clarin.com/politica/Menem-interminable-lanzan-senador-Macri_0_1582041793.html
p5
aVhttps://www.clarin.com/politica/Menem-interminable-lanzan-senador-Macri_0_1582041793.html
p6
aVhttps://www.clarin.com/ieco/economia/Banco-Nacion-sale-exterior_0_1582041792.html
p7
aVhttps://www.clarin.com/politica/Oficializan-veto-total-ley-antidespidos_0_1582041787.html
p8
aVhttps://www.clarin.com/politica/Oficializan-veto-total-ley-antidespidos_0_1582041787.html
p9
aVhttps://www.clarin.com/politica/caliente-Alicia-Kirchner-Santa-Cruz_0_1581441997.html
p10
aVhttps://www.clarin.com/politica/caliente-Alicia-Kirchner-Santa-Cruz_0_1581441997.html
p11
aVhttps://www.clarin.com/politica/Chubut-definiciones-Cristobal-Lopez-embargos_0_1581441977.html
p12
aVhttps://www.clarin.com/politica/Chubut-definiciones-Cristobal-Lopez-embargos_0_1581441977.html
p13
a.