(lp0
Vhttps://www.clarin.com/politica/Chubut-petroleo-Casa_Rosada_0_1514848895.html
p1
aVhttps://www.clarin.com/politica/Chubut-petroleo-Casa_Rosada_0_1514848895.html
p2
aVhttps://www.clarin.com/ieco/Tarifas_electricas-Intendentes-Frigerio-Tarifa_Social_0_1514848861.html
p3
aVhttps://www.clarin.com/politica/Descolgaron-Kirchner-Chavez-Casa-Rosada_0_1514848851.html
p4
aVhttps://www.clarin.com/politica/Descolgaron-Kirchner-Chavez-Casa-Rosada_0_1514848851.html
p5
a.