(lp0
Vhttps://www.clarin.com/sociedad/Lanzan-nuevo-plan-turismo-social_0_1595840546.html
p1
aVhttps://www.clarin.com/sociedad/Lanzan-nuevo-plan-turismo-social_0_1595840546.html
p2
aVhttps://www.clarin.com/sociedad/XL-reservas-Mar-Plata-llegan_0_1595840556.html
p3
aVhttps://www.clarin.com/sociedad/XL-reservas-Mar-Plata-llegan_0_1595840556.html
p4
aVhttps://www.clarin.com/sociedad/Detectan-segunda-gravitacionales-predijo-Einstein_0_1595840553.html
p5
aVhttps://www.clarin.com/sociedad/Detectan-segunda-gravitacionales-predijo-Einstein_0_1595840553.html
p6
aVhttps://www.clarin.com/politica/hija-Bonafini-preocupada-declaracion-Lopez_0_1595840551.html
p7
aVhttps://www.clarin.com/politica/hija-Bonafini-preocupada-declaracion-Lopez_0_1595840551.html
p8
aVhttps://www.clarin.com/politica/medicos-revisaron-Lopez-aseguran-declarar_0_1595840549.html
p9
aVhttps://www.clarin.com/politica/medicos-revisaron-Lopez-aseguran-declarar_0_1595840549.html
p10
a.