(lp0
Vhttps://www.clarin.com/sociedad/universidades-apenas-recibe-tiempo-forma_0_1611439005.html
p1
aVhttps://www.clarin.com/sociedad/universidades-apenas-recibe-tiempo-forma_0_1611439005.html
p2
aVhttps://www.clarin.com/politica/desfile-Aldo-Rico-kirchnerismo-proyecto_0_1611439003.html
p3
aVhttps://www.clarin.com/politica/desfile-Aldo-Rico-kirchnerismo-proyecto_0_1611439003.html
p4
aVhttps://www.clarin.com/sociedad/Viajaron-America-Alaska-propuso-casamiento_0_1611439004.html
p5
aVhttps://www.clarin.com/sociedad/Viajaron-America-Alaska-propuso-casamiento_0_1611439004.html
p6
aVhttps://www.clarin.com/sociedad/Pokemon-juego-tiempo-WhatsApp-Instagram_0_1611439002.html
p7
aVhttps://www.clarin.com/sociedad/Pokemon-juego-tiempo-WhatsApp-Instagram_0_1611439002.html
p8
aVhttps://www.clarin.com/sociedad/recibio-anos-abogado_0_1611439001.html
p9
aVhttps://www.clarin.com/sociedad/recibio-anos-abogado_0_1611439001.html
p10
aVhttps://www.clarin.com/politica/Reaparecio-Stiuso-apunto-contesto-Parrilli_0_1611438993.html
p11
aVhttps://www.clarin.com/politica/Reaparecio-Stiuso-apunto-contesto-Parrilli_0_1611438993.html
p12
aVhttps://www.clarin.com/politica/Cristina-denuncio-persiguen-encarcelarla_0_1611438964.html
p13
aVhttps://www.clarin.com/politica/Cristina-denuncio-persiguen-encarcelarla_0_1611438964.html
p14
aVhttps://www.clarin.com/politica/va-pasar-facturas-gas_0_1611438989.html
p15
aVhttps://www.clarin.com/politica/va-pasar-facturas-gas_0_1611438989.html
p16
aVhttps://www.clarin.com/sociedad/Bariloche-blanco-vuelve-optimismo-centros_0_1611438980.html
p17
aVhttps://www.clarin.com/sociedad/Bariloche-blanco-vuelve-optimismo-centros_0_1611438980.html
p18
a.