(lp0
S'https://www.clarin.com/ieco/economia/Blanqueo-moratoria-fechas-opciones-cuenta_0_1627037409.html'
p1
aS'https://www.clarin.com/sociedad/Calentamiento-estudian-fenomenos-climaticos-tiempo_0_1627037421.html'
p2
a.