(lp0
S'https://www.clarin.com/sociedad/Kun-Aguero-enjuicio-sandwicheria-tucumana_0_1637836340.html'
p1
aS'https://www.clarin.com/sociedad/Kun-Aguero-enjuicio-sandwicheria-tucumana_0_1637836340.html'
p2
aS'https://www.clarin.com/politica/Aduana-secuestran-Gomez-Centurion-computadoras_0_1637836348.html'
p3
aS'https://www.clarin.com/politica/Aduana-secuestran-Gomez-Centurion-computadoras_0_1637836348.html'
p4
aS'https://www.clarin.com/politica/Marcos-Pena-desaparecidos-caracter-simbolico_0_1637836344.html'
p5
aS'https://www.clarin.com/politica/Marcos-Pena-desaparecidos-caracter-simbolico_0_1637836344.html'
p6
aS'https://www.clarin.com/sociedad/Prohiben-fumar-entrada-terminales-aeropuertos_0_1637836334.html'
p7
aS'https://www.clarin.com/sociedad/Prohiben-fumar-entrada-terminales-aeropuertos_0_1637836334.html'
p8
aS'https://www.clarin.com/politica/Austral-Cristina-relacion-millonaria-Justicia_0_1637836323.html'
p9
aS'https://www.clarin.com/politica/Austral-Cristina-relacion-millonaria-Justicia_0_1637836323.html'
p10
aS'https://www.clarin.com/sociedad/Murio-reina-belleza-violento-choque_0_1637836336.html'
p11
aS'https://www.clarin.com/sociedad/Murio-reina-belleza-violento-choque_0_1637836336.html'
p12
aS'https://www.clarin.com/sociedad/pantallas-habitacion-adolescentes_0_1637836331.html'
p13
aS'https://www.clarin.com/sociedad/pantallas-habitacion-adolescentes_0_1637836331.html'
p14
aS'https://www.clarin.com/politica/Pena-armaron-corral-metros-cuadrados_0_1637836333.html'
p15
aS'https://www.clarin.com/politica/Pena-armaron-corral-metros-cuadrados_0_1637836333.html'
p16
a.