(lp0
Vhttps://www.clarin.com/politica/Macri-parece-locura-segundo-mandato_0_1616838472.html
p1
aVhttps://www.clarin.com/politica/Macri-parece-locura-segundo-mandato_0_1616838472.html
p2
aVhttps://www.clarin.com/sociedad/Vuelve-compra-online-exterior-puerta_0_1616838470.html
p3
aVhttps://www.clarin.com/sociedad/Vuelve-compra-online-exterior-puerta_0_1616838470.html
p4
aVhttps://www.clarin.com/ieco/economia/Macri-Rural-camioneta_0_1616838468.html
p5
aVhttps://www.clarin.com/ieco/economia/Macri-Rural-camioneta_0_1616838468.html
p6
aVhttps://www.clarin.com/politica/Detectan-faltante-millones-ART-SUTERH_0_1616838467.html
p7
aVhttps://www.clarin.com/politica/Detectan-faltante-millones-ART-SUTERH_0_1616838467.html
p8
aVhttps://www.clarin.com/politica/UCR-rechaza-peronista-desafiar-Vidal_0_1616838464.html
p9
aVhttps://www.clarin.com/politica/Declaran-nulo-operativo-supuestamente-dinero_0_1616838462.html
p10
aVhttps://www.clarin.com/politica/Declaran-nulo-operativo-supuestamente-dinero_0_1616838462.html
p11
a.