(lp0
Vhttps://www.clarin.com/politica/Szpolski-cerro-medio-personas-calle_0_1569443198.html
p1
aVhttps://www.clarin.com/politica/Farina-Cristina-actitud-encubrimiento_0_1569443174.html
p2
aVhttps://www.clarin.com/politica/Farina-Cristina-actitud-encubrimiento_0_1569443174.html
p3
aVhttps://www.clarin.com/politica/Stolbizer-oportuna-necesaria-investigacion-Cristina_0_1569443177.html
p4
aVhttps://www.clarin.com/politica/Stolbizer-oportuna-necesaria-investigacion-Cristina_0_1569443177.html
p5
aVhttps://www.clarin.com/politica/Baez-compro-hectareas-parque-nacional_0_1569443171.html
p6
aVhttps://www.clarin.com/politica/Baez-compro-hectareas-parque-nacional_0_1569443171.html
p7
a.