(lp0
Vhttps://www.clarin.com/sociedad/aviso-censuraron-tanda-Super-Bowl_0_1511848992.html
p1
aVhttps://www.clarin.com/sociedad/aviso-censuraron-tanda-Super-Bowl_0_1511848992.html
p2
aVhttps://www.clarin.com/politica/Ministerio_de_Justicia-Infojus-German_Garavano_0_1511848985.html
p3
aVhttps://www.clarin.com/politica/Ministerio_de_Justicia-Infojus-German_Garavano_0_1511848985.html
p4
aVhttps://www.clarin.com/sociedad/sistema_solar-descubren-mayor-grande-extenso-nuevo-planeta-estrella_0_1511848962.html
p5
aVhttps://www.clarin.com/sociedad/sistema_solar-descubren-mayor-grande-extenso-nuevo-planeta-estrella_0_1511848962.html
p6
aVhttps://www.clarin.com/ieco/economia/Buryaile-mostro-preocupacion-suba-carne_0_1511848975.html
p7
aVhttps://www.clarin.com/sociedad/polemica-cambiaran-diseno-ballena-billete_0_1511848968.html
p8
aVhttps://www.clarin.com/sociedad/polemica-cambiaran-diseno-ballena-billete_0_1511848968.html
p9
a.