(lp0
S'https://www.clarin.com/sociedad/Insolito-sacaron-navajas-estomago_0_1637236382.html'
p1
aS'https://www.clarin.com/sociedad/Insolito-sacaron-navajas-estomago_0_1637236382.html'
p2
aS'https://www.clarin.com/politica/Corte-concurso-Oil-Combustibles-Chubut_0_1637236369.html'
p3
aS'https://www.clarin.com/politica/Corte-concurso-Oil-Combustibles-Chubut_0_1637236369.html'
p4
a.