(lp0
S'https://www.clarin.com/sociedad/anos-accidento-pelotero-grave_0_1628237242.html'
p1
aS'https://www.clarin.com/sociedad/padre-ataco-patadas-bebe-dias_0_1628237236.html'
p2
aS'https://www.clarin.com/sociedad/Buscaba-pokemon-plaza-robaron-celular_0_1628237243.html'
p3
aS'https://www.clarin.com/ieco/dolar-baja-centavos_0_1628237237.html'
p4
aS'https://www.clarin.com/sociedad/Video-carrera-drones-desafia-ley_0_1628237240.html'
p5
aS'https://www.clarin.com/sociedad/Video-salvaron-gatito-respiracion-boca_0_1628237224.html'
p6
aS'https://www.clarin.com/politica/Stolbizer-Cristina-cruzarse-abollaron-puerta_0_1628237235.html'
p7
aS'https://www.clarin.com/politica/Ki-moon-Argentina-Macri-Malcorra-ONU_0_1628237244.html'
p8
a.