(lp0
Vhttps://www.clarin.com/sociedad/Federico-Storani-lanchas-fatalidad-accidente_0_1552045012.html
p1
aVhttps://www.clarin.com/sociedad/Federico-Storani-lanchas-fatalidad-accidente_0_1552045012.html
p2
aVhttps://www.clarin.com/sociedad/Salta-joven-murio-dengue-hemorragico_0_1552045002.html
p3
aVhttps://www.clarin.com/sociedad/Salta-joven-murio-dengue-hemorragico_0_1552045002.html
p4
aVhttps://www.clarin.com/sociedad/Derrape-machista-academico-espanol_0_1552044994.html
p5
aVhttps://www.clarin.com/ieco/economia/Vuelve-manipulacion-cuentas-publicas_0_1552044934.html
p6
aVhttps://www.clarin.com/ieco/economia/Vuelve-manipulacion-cuentas-publicas_0_1552044934.html
p7
aVhttps://www.clarin.com/ieco/economia/Recuperar-marina-mercante_0_1552044939.html
p8
aVhttps://www.clarin.com/ieco/economia/Recuperar-marina-mercante_0_1552044939.html
p9
aVhttps://www.clarin.com/ieco/economia/Festejos-anos-rock_0_1552044948.html
p10
aVhttps://www.clarin.com/ieco/economia/Festejos-anos-rock_0_1552044948.html
p11
a.