(lp0
S'https://www.clarin.com/sociedad/Extienden-voluntad-procreacional-reconocer-hijo_0_1574842642.html'
p1
aS'https://www.clarin.com/politica/quiero-aduenar-ajeno-pesar-Lazaro_0_1574842635.html'
p2
aS'https://www.clarin.com/politica/Iglesia-Macri-hablar-nacional-narcotrafico_0_1574842636.html'
p3
aS'https://www.clarin.com/politica/Suenos-Compartidos-declara-titular-AGN_0_1574842628.html'
p4
a.