(lp0
S'https://www.clarin.com/sociedad/estrello-cerro-Uritorco-sobrevivio-espeluznante_0_1527447680.html'
p1
aS'https://www.clarin.com/sociedad/estrello-cerro-Uritorco-sobrevivio-espeluznante_0_1527447680.html'
p2
aS'https://www.clarin.com/sociedad/chica-picada-yarara-volvio-colonia_0_1527447679.html'
p3
aS'https://www.clarin.com/sociedad/chica-picada-yarara-volvio-colonia_0_1527447679.html'
p4
aS'https://www.clarin.com/politica/mediador-Pollack-Argentina-acordo-buitre_0_1527447662.html'
p5
aS'https://www.clarin.com/politica/mediador-Pollack-Argentina-acordo-buitre_0_1527447662.html'
p6
a.