(lp0
Vhttps://www.clarin.com/politica/Water-Closet-Cristina-llamado-Pichetto_0_1686431372.html
p1
aVhttps://www.clarin.com/politica/Water-Closet-Cristina-llamado-Pichetto_0_1686431372.html
p2
aVhttps://www.clarin.com/politica/funcionarios-contrataron-familiares_0_1686431430.html
p3
aVhttps://www.clarin.com/politica/funcionarios-contrataron-familiares_0_1686431430.html
p4
aVhttps://www.clarin.com/politica/apoyo-criticas-control-migratorio-Gobierno_0_1686431465.html
p5
aVhttps://www.clarin.com/politica/apoyo-criticas-control-migratorio-Gobierno_0_1686431465.html
p6
aVhttps://www.clarin.com/sociedad/Afirman-iPhone-grande-curvo_0_1686431445.html
p7
aVhttps://www.clarin.com/sociedad/revolucion-impresoras-comidas-protesis-casas_0_1686431441.html
p8
aVhttps://www.clarin.com/sociedad/revolucion-impresoras-comidas-protesis-casas_0_1686431441.html
p9
aVhttps://www.clarin.com/politica/Mujul-Cristina-Kirchner-Cristobal-Lopez_0_1686431425.html
p10
aVhttps://www.clarin.com/politica/Mujul-Cristina-Kirchner-Cristobal-Lopez_0_1686431425.html
p11
aVhttps://www.clarin.com/sociedad/Llega-nuevo-avance-pancreas-artificial_0_1686431437.html
p12
aVhttps://www.clarin.com/sociedad/Llega-nuevo-avance-pancreas-artificial_0_1686431437.html
p13
aVhttps://www.clarin.com/politica/Vuelve-dividir-Matanza-interna-bonaerense_0_1686431409.html
p14
aVhttps://www.clarin.com/politica/Vuelve-dividir-Matanza-interna-bonaerense_0_1686431409.html
p15
a.