(lp0
Vhttps://www.clarin.com/politica/Allanan-Rio-Gallegos-escribanias-Cristina_0_1640835996.html
p1
aVhttps://www.clarin.com/politica/Allanan-Rio-Gallegos-escribanias-Cristina_0_1640835996.html
p2
aVhttps://www.clarin.com/sociedad/Cierra-libreria-cuadras-aprovechar-ofertas_0_1640836001.html
p3
aVhttps://www.clarin.com/sociedad/Cierra-libreria-cuadras-aprovechar-ofertas_0_1640836001.html
p4
aVhttps://www.clarin.com/sociedad/curioso-regalo-Mark-Zuckerberg-Papa_0_1640835988.html
p5
aVhttps://www.clarin.com/sociedad/curioso-regalo-Mark-Zuckerberg-Papa_0_1640835988.html
p6
aVhttps://www.clarin.com/politica/Premio-Nobel-Rigoberta-Menchu-Shirin_0_1640835993.html
p7
aVhttps://www.clarin.com/politica/Premio-Nobel-Rigoberta-Menchu-Shirin_0_1640835993.html
p8
aVhttps://www.clarin.com/sociedad/pelicula-escribieron-SOS-rescataron-desierta_0_1640835991.html
p9
aVhttps://www.clarin.com/sociedad/pelicula-escribieron-SOS-rescataron-desierta_0_1640835991.html
p10
a.