(lp0
Vhttps://www.clarin.com/politica/Fiscales-AMIA-intentaran-interrogar-Menem_0_1583841830.html
p1
aVhttps://www.clarin.com/politica/Fiscales-AMIA-intentaran-interrogar-Menem_0_1583841830.html
p2
aVhttps://www.clarin.com/opinion/Darles-batalla-vidas-on-line_0_1583841795.html
p3
aVhttps://www.clarin.com/ieco/economia/boliviana-Amaszonas-Aerolineas-Alas-Montevideo_0_1583841796.html
p4
aVhttps://www.clarin.com/ieco/economia/boliviana-Amaszonas-Aerolineas-Alas-Montevideo_0_1583841796.html
p5
aVhttps://www.clarin.com/politica/Momento-tension-Intratables-irrumpir-programa_0_1583841859.html
p6
aVhttps://www.clarin.com/politica/Momento-tension-Intratables-irrumpir-programa_0_1583841859.html
p7
aVhttps://www.clarin.com/politica/Macri-Ibamos-Venezuela-haciamos-cambios_0_1583841856.html
p8
aVhttps://www.clarin.com/politica/Macri-Ibamos-Venezuela-haciamos-cambios_0_1583841856.html
p9
aVhttps://www.clarin.com/sociedad/espeluznante-aval-periodista-corrupcion_0_1583841800.html
p10
aVhttps://www.clarin.com/sociedad/espeluznante-aval-periodista-corrupcion_0_1583841800.html
p11
aVhttps://www.clarin.com/politica/Moyano-chupamedias-Cristina-Gustavo-Sylvestre_0_1583841853.html
p12
aVhttps://www.clarin.com/politica/Moyano-chupamedias-Cristina-Gustavo-Sylvestre_0_1583841853.html
p13
aVhttps://www.clarin.com/politica/interna-familia-Baez-rojo-vivo_0_1583841794.html
p14
aVhttps://www.clarin.com/politica/interna-familia-Baez-rojo-vivo_0_1583841794.html
p15
a.