(lp0
Vhttps://www.clarin.com/politica/Macri-pasara-semana-largo-Tandil_0_1664233721.html
p1
aVhttps://www.clarin.com/politica/Macri-pasara-semana-largo-Tandil_0_1664233721.html
p2
aVhttps://www.clarin.com/politica/denuncia-Carrio-Casacion-confirmo-millones_0_1664233722.html
p3
aVhttps://www.clarin.com/politica/denuncia-Carrio-Casacion-confirmo-millones_0_1664233722.html
p4
a.