(lp0
S'https://www.clarin.com/politica/Caso-Lopez-indagatoria-Hermana-Ines_0_1613238803.html'
p1
aS'https://www.clarin.com/sociedad/Lanzan-Domino-nueva-campana-educacion_0_1613238789.html'
p2
aS'https://www.clarin.com/politica/Amenaza-bomba-Casa-Rosada_0_1613238785.html'
p3
aS'https://www.clarin.com/politica/Procesaron-Vido-comra-trenes-chatarra_0_1613238798.html'
p4
aS'https://www.clarin.com/politica/trabajadores-electricidad-lanzaron-tiempo-indefinido_0_1613238790.html'
p5
a.