(lp0
Vhttps://www.clarin.com/politica/Indice-optimismo-expectativas-economicas-confianza_0_1606639399.html
p1
aVhttps://www.clarin.com/politica/Indice-optimismo-expectativas-economicas-confianza_0_1606639399.html
p2
aVhttps://www.clarin.com/politica/Cristina-puerta-Recoleta-balcon-bailar_0_1606639396.html
p3
aVhttps://www.clarin.com/politica/Cristina-puerta-Recoleta-balcon-bailar_0_1606639396.html
p4
aVhttps://www.clarin.com/politica/Macri-almorzar-esposa-Paris-Belgica_0_1606639394.html
p5
aVhttps://www.clarin.com/politica/Macri-almorzar-esposa-Paris-Belgica_0_1606639394.html
p6
aVhttps://www.clarin.com/politica/Alberto-Fernandez-Cristina-Deberia-sucediendo_0_1606639385.html
p7
aVhttps://www.clarin.com/politica/Alberto-Fernandez-Cristina-Deberia-sucediendo_0_1606639385.html
p8
aVhttps://www.clarin.com/ieco/ventas-minoristas-bajaron-junio-caida_0_1606639383.html
p9
aVhttps://www.clarin.com/ieco/ventas-minoristas-bajaron-junio-caida_0_1606639383.html
p10
aVhttps://www.clarin.com/sociedad/Argentinitos-cultivandose-exterior_0_1606039522.html
p11
a.