(lp0
S'https://www.clarin.com/politica/Macri-Gomez-Centurion-laberinto_0_1648035315.html'
p1
aS'https://www.clarin.com/politica/Mario-Segovia-efedrina-politica-bonaerense_0_1648035276.html'
p2
aS'https://www.clarin.com/politica/Mario-Segovia-efedrina-politica-bonaerense_0_1648035276.html'
p3
aS'https://www.clarin.com/politica/ruta-efedrina-importador-laboratorio-argentino_0_1648035314.html'
p4
aS'https://www.clarin.com/politica/ruta-efedrina-importador-laboratorio-argentino_0_1648035314.html'
p5
a.