(lp0
Vhttps://www.clarin.com/politica/Coincidencias-Macri-peronismo-Cristina_0_1501649867.html
p1
aVhttps://www.clarin.com/politica/fuga-desnuda-crisis-estructural_0_1501649864.html
p2
aVhttps://www.clarin.com/politica/Vidal-conocio-cara-monstruo_0_1501649862.html
p3
aVhttps://www.clarin.com/opinion/Asa_Regner-igualdad_de_genero-derechos_de_la_mujer-Suecia_0_1501649859.html
p4
aVhttps://www.clarin.com/opinion/Paris-Street_art-Hemingway-Rue_Rivoli_59-Bertrand_Delanoe-artistas_0_1501649858.html
p5
aVhttps://www.clarin.com/opinion/Domenico_Quirico-La_Stampa-Siria-ISIS-terrorismo_0_1501649857.html
p6
aVhttps://www.clarin.com/opinion/Provincia_de_Buenos_Aires-narcotrafico-corrupcion-reconstruccion_institucional_0_1501649856.html
p7
aVhttps://www.clarin.com/opinion/piquetes-movimientos_sociales-conflictos_gremiales-derechos_constitucionales_0_1501649855.html
p8
aVhttps://www.clarin.com/opinion/Protesta_social-derechos_civiles-piquetes-estado_de_derecho_0_1501649854.html
p9
aVhttps://www.clarin.com/sociedad/libros-pintar-adultos_0_1499250382.html
p10
aVhttps://www.clarin.com/sociedad/libros-pintar-adultos_0_1499250382.html
p11
a.