(lp0
Vhttps://www.clarin.com/politica/Descubren-Caballo-Suarez-arsenal-SOMU_0_1664233770.html
p1
aVhttps://www.clarin.com/politica/Descubren-Caballo-Suarez-arsenal-SOMU_0_1664233770.html
p2
aVhttps://www.clarin.com/politica/Macri-insistio-pobreza-objetivo-largo_0_1665433595.html
p3
aVhttps://www.clarin.com/politica/Macri-insistio-pobreza-objetivo-largo_0_1665433595.html
p4
aVhttps://www.clarin.com/sociedad/Extrana-jardin-publico-identikit-hallarlo_0_1665433596.html
p5
aVhttps://www.clarin.com/sociedad/Extrana-jardin-publico-identikit-hallarlo_0_1665433596.html
p6
aVhttps://www.clarin.com/sociedad/kilometros-cola-entrar-comprar-Chile_0_1665433594.html
p7
a.