(lp0
S'https://www.clarin.com/sociedad/Mato-novia-selfie-cadaver-social_0_1588041222.html'
p1
aS'https://www.clarin.com/sociedad/Mato-novia-selfie-cadaver-social_0_1588041222.html'
p2
aS'https://www.clarin.com/politica/Cambiemos-sacar-blanqueo-jueces-legisladores_0_1588041230.html'
p3
aS'https://www.clarin.com/politica/Cambiemos-sacar-blanqueo-jueces-legisladores_0_1588041230.html'
p4
aS'https://www.clarin.com/ieco/economia/Emiten-Letra-cancelar-Argentina-FMI_0_1588041228.html'
p5
aS'https://www.clarin.com/ieco/economia/Emiten-Letra-cancelar-Argentina-FMI_0_1588041228.html'
p6
aS'https://www.clarin.com/sociedad/hara-ingeniero-argentino-tunel-record_0_1588041226.html'
p7
aS'https://www.clarin.com/sociedad/hara-ingeniero-argentino-tunel-record_0_1588041226.html'
p8
aS'https://www.clarin.com/sociedad/robaron-Facebook-sugirio-ladron-amigo_0_1588041224.html'
p9
aS'https://www.clarin.com/sociedad/robaron-Facebook-sugirio-ladron-amigo_0_1588041224.html'
p10
aS'https://www.clarin.com/sociedad/maestra-anos-confeso-relacion-alumno_0_1588041223.html'
p11
aS'https://www.clarin.com/sociedad/maestra-anos-confeso-relacion-alumno_0_1588041223.html'
p12
aS'https://www.clarin.com/ieco/economia/inflacion-Eurozona-Banco-Central-Europeo_0_1588041221.html'
p13
aS'https://www.clarin.com/ieco/economia/inflacion-Eurozona-Banco-Central-Europeo_0_1588041221.html'
p14
a.