(lp0
S'https://www.clarin.com/politica/Contratistas-aportaron-millones-campana-Macri_0_1556244746.html'
p1
aS'https://www.clarin.com/politica/lavado-fiscal-denuncio-secretario-Kichner_0_1556244777.html'
p2
aS'https://www.clarin.com/politica/Hoy-regresa-Cristina-Sur-Campora_0_1556844315.html'
p3
aS'https://www.clarin.com/sociedad/bailar-patota-mato-pueblo_0_1556244767.html'
p4
aS'https://www.clarin.com/politica/Lapices-rosca-sushi_0_1556244740.html'
p5
aS'https://www.clarin.com/politica/Denuncian-socio-Cristobal-Lopez-casinos_0_1556244798.html'
p6
aS'https://www.clarin.com/sociedad/escolar-amenaza-dejar-quiebra-Chascomus_0_1556244818.html'
p7
aS'https://www.clarin.com/sociedad/pareja-boda-religiosa-primera-Latinoamerica_0_1556244837.html'
p8
aS'https://www.clarin.com/politica/diputados-empiezan-manana-discutir-arrepentido_0_1556244814.html'
p9
aS'https://www.clarin.com/politica/Larga-desfile-testigos-offshore-Macri_0_1556244754.html'
p10
a.