(lp0
Vhttps://www.clarin.com/politica/Carrio-Mallo-Kirchner-Anibal-Fernandez_0_1603039718.html
p1
aVhttps://www.clarin.com/politica/Carrio-Mallo-Kirchner-Anibal-Fernandez_0_1603039718.html
p2
aVhttps://www.clarin.com/politica/Polemica-Marijuan-Argentina-Nueva-Jersey_0_1603039716.html
p3
aVhttps://www.clarin.com/politica/Polemica-Marijuan-Argentina-Nueva-Jersey_0_1603039716.html
p4
aVhttps://www.clarin.com/sociedad/Detienen-grooming-merodeaba-escuela-Lomas_0_1603039713.html
p5
aVhttps://www.clarin.com/sociedad/Detienen-grooming-merodeaba-escuela-Lomas_0_1603039713.html
p6
aVhttps://www.clarin.com/politica/Frigerio-sorprende-magnitud-corrupcion-gobierno_0_1603039710.html
p7
aVhttps://www.clarin.com/politica/Frigerio-sorprende-magnitud-corrupcion-gobierno_0_1603039710.html
p8
aVhttps://www.clarin.com/politica/Stolbizer-denuncia-Cristina-asociacion-ilicita_0_1602439903.html
p9
aVhttps://www.clarin.com/politica/Stolbizer-denuncia-Cristina-asociacion-ilicita_0_1602439903.html
p10
aVhttps://www.clarin.com/ieco/economia/reactivar-lanzan-creditos-subsidiada-pymes_0_1603039705.html
p11
aVhttps://www.clarin.com/ieco/economia/Petroleo-acuerdo-sigue-paro_0_1603039703.html
p12
a.