(lp0
S'https://www.clarin.com/politica/Perez-Corradi-llegara-pais-noche_0_1607839314.html'
p1
aS'https://www.clarin.com/sociedad/Detienen-falso-pastor-personas-rescatan_0_1607839310.html'
p2
aS'https://www.clarin.com/politica/Elisa-Carrio-suspendio-actividades-indicacion_0_1607839315.html'
p3
aS'https://www.clarin.com/politica/Baez-presentaron-responder-preguntas-Suiza_0_1607839307.html'
p4
aS'https://www.clarin.com/sociedad/restaurantes-Mar-Plata-guerra-pizza_0_1607839306.html'
p5
a.