(lp0
Vhttps://www.clarin.com/politica/Procesaron-Perez-Corradi-trafico-efedrina_0_1667233383.html
p1
aVhttps://www.clarin.com/politica/Procesaron-Perez-Corradi-trafico-efedrina_0_1667233383.html
p2
aVhttps://www.clarin.com/ieco/economia/dolar-mayorista-cayo-centavos_0_1667233380.html
p3
aVhttps://www.clarin.com/ieco/economia/dolar-mayorista-cayo-centavos_0_1667233380.html
p4
aVhttps://www.clarin.com/ieco/economia/presidente-UIA-sostuvo-verlo-sector_0_1667233382.html
p5
aVhttps://www.clarin.com/ieco/economia/presidente-UIA-sostuvo-verlo-sector_0_1667233382.html
p6
aVhttps://www.clarin.com/ieco/economia/Vence-plazo-declarar-efectivo-blanqueo_0_1667233375.html
p7
aVhttps://www.clarin.com/ieco/economia/Vence-plazo-declarar-efectivo-blanqueo_0_1667233375.html
p8
a.