(lp0
Vhttps://www.clarin.com/sociedad/CBU-cuentas-podran-tener-nombre_0_1634836688.html
p1
aVhttps://www.clarin.com/sociedad/CBU-cuentas-podran-tener-nombre_0_1634836688.html
p2
aVhttps://www.clarin.com/sociedad/Hospitales-violentos-paciente-cabeza-medica_0_1634836683.html
p3
a.