(lp0
Vhttps://www.clarin.com/politica/Pichetto-ultra-Senado-gusta-vayanse_0_1579642256.html
p1
aVhttps://www.clarin.com/politica/Pichetto-ultra-Senado-gusta-vayanse_0_1579642256.html
p2
aVhttps://www.clarin.com/politica/Duran-Barba-Macri-vete-antidespidos_0_1580241975.html
p3
aVhttps://www.clarin.com/politica/Duran-Barba-Macri-vete-antidespidos_0_1580241975.html
p4
a.