(lp0
Vhttps://www.clarin.com/opinion/mate-ensena_0_1582641910.html
p1
aVhttps://www.clarin.com/politica/Entregaron-Hector-Magnetto-Libertad-Expresion_0_1583241661.html
p2
aVhttps://www.clarin.com/politica/Entregaron-Hector-Magnetto-Libertad-Expresion_0_1583241661.html
p3
aVhttps://www.clarin.com/sociedad/sorpresivo-dejo-millon-chicos-clases_0_1582641953.html
p4
aVhttps://www.clarin.com/sociedad/sorpresivo-dejo-millon-chicos-clases_0_1582641953.html
p5
aVhttps://www.clarin.com/ieco/economia/gobierno-porteno-coloco-US-millones_0_1582641882.html
p6
aVhttps://www.clarin.com/politica/Lino-Baranao-Paenza-llamara-traidor_0_1582641960.html
p7
aVhttps://www.clarin.com/politica/Lino-Baranao-Paenza-llamara-traidor_0_1582641960.html
p8
aVhttps://www.clarin.com/politica/Inhiben-funcionarios-empresas-Grupo-Plaza_0_1582641957.html
p9
aVhttps://www.clarin.com/politica/Inhiben-funcionarios-empresas-Grupo-Plaza_0_1582641957.html
p10
aVhttps://www.clarin.com/politica/Examen-Marcos-Pena-senadores-preguntas_0_1582641955.html
p11
aVhttps://www.clarin.com/politica/Examen-Marcos-Pena-senadores-preguntas_0_1582641955.html
p12
aVhttps://www.clarin.com/politica/UCR-acuerdo-PJ-Macri-resiste_0_1582641954.html
p13
aVhttps://www.clarin.com/politica/UCR-acuerdo-PJ-Macri-resiste_0_1582641954.html
p14
a.