(lp0
Vhttps://www.clarin.com/politica/Macri-tentacion-peligro-enfrentar-Cristina_0_1677432328.html
p1
aVhttps://www.clarin.com/politica/Macri-tentacion-peligro-enfrentar-Cristina_0_1677432328.html
p2
aVhttps://www.clarin.com/ieco/economia/mano-Sturzenegger_0_1676832460.html
p3
aVhttps://www.clarin.com/ieco/economia/Macri-prepara-futuro-Massa_0_1676832458.html
p4
aVhttps://www.clarin.com/ieco/economia/China-alcanza-asegurar-crecimiento-economico_0_1676832451.html
p5
aVhttps://www.clarin.com/ieco/economia/China-alcanza-asegurar-crecimiento-economico_0_1676832451.html
p6
aVhttps://www.clarin.com/ieco/economia/cambios-politicos-China_0_1676832441.html
p7
aVhttps://www.clarin.com/ieco/economia/America-Latina-algoritmos_0_1676832438.html
p8
aVhttps://www.clarin.com/ieco/economia/Impacto-Argentina-cambio-Time-Warner_0_1676832432.html
p9
aVhttps://www.clarin.com/ieco/economia/Impacto-Argentina-cambio-Time-Warner_0_1676832432.html
p10
aVhttps://www.clarin.com/ieco/afterwork/Llega-nueva-edicion-Vinos-Lujo_0_1676832444.html
p11
aVhttps://www.clarin.com/ieco/afterwork/Llega-nueva-edicion-Vinos-Lujo_0_1676832444.html
p12
aVhttps://www.clarin.com/ieco/economia/elecciones-peso-va-ganar-dolar_0_1676832429.html
p13
aVhttps://www.clarin.com/opinion/Carrio-propio-poder-usa-siempre_0_1678032184.html
p14
aVhttps://www.clarin.com/ieco/economia/riesgo-merece-espacio-carteras-inversion_0_1676832439.html
p15
a.