(lp0
Vhttps://www.clarin.com/politica/Arranca-Congreso-controlara-Gils-Carbo_0_1648035293.html
p1
aVhttps://www.clarin.com/politica/Arranca-Congreso-controlara-Gils-Carbo_0_1648035293.html
p2
aVhttps://www.clarin.com/ieco/economia/Cabrera-Mendiguren-dura-discusion-importaciones_0_1648035285.html
p3
aVhttps://www.clarin.com/ieco/economia/Cabrera-Mendiguren-dura-discusion-importaciones_0_1648035285.html
p4
aVhttps://www.clarin.com/politica/Scioli-Urtubey-mueven-Conurbano_0_1648035283.html
p5
aVhttps://www.clarin.com/politica/Scioli-Urtubey-mueven-Conurbano_0_1648035283.html
p6
aVhttps://www.clarin.com/opinion/Soluciones-posibles-refugiados_0_1648035286.html
p7
aVhttps://www.clarin.com/opinion/busqueda-nuevo-ideal_0_1648035284.html
p8
aVhttps://www.clarin.com/opinion/dirigir-ochenta-voluntades-mismo-sonido_0_1648035281.html
p9
aVhttps://www.clarin.com/opinion/dirigir-ochenta-voluntades-mismo-sonido_0_1648035281.html
p10
aVhttps://www.clarin.com/opinion/Sebastian-Crismanich-retiro-llega-destiempo_0_1648035279.html
p11
aVhttps://www.clarin.com/opinion/Sebastian-Crismanich-retiro-llega-destiempo_0_1648035279.html
p12
aVhttps://www.clarin.com/sociedad/Sabado-Abuelos-jovenes-pelirrojos-Obelisco_0_1648035278.html
p13
aVhttps://www.clarin.com/ieco/Anunciaron-inversiones-US-millones-economia_0_1648035275.html
p14
aVhttps://www.clarin.com/ieco/Anunciaron-inversiones-US-millones-economia_0_1648035275.html
p15
a.