(lp0
Vhttps://www.clarin.com/politica/Gerardo-Morales-funcionarios-Fellner-retiraban_0_1565243491.html
p1
aVhttps://www.clarin.com/politica/Gerardo-Morales-funcionarios-Fellner-retiraban_0_1565243491.html
p2
aVhttps://www.clarin.com/sociedad/mama-internados-imagine-podia-pasar_0_1565243489.html
p3
aVhttps://www.clarin.com/sociedad/mama-internados-imagine-podia-pasar_0_1565243489.html
p4
aVhttps://www.clarin.com/ieco/Asignacion-Universal-Hijo-universal_0_1565243488.html
p5
aVhttps://www.clarin.com/sociedad/Burlando-fiscal-Buen-funcionario-conoce_0_1565243486.html
p6
aVhttps://www.clarin.com/sociedad/Burlando-fiscal-Buen-funcionario-conoce_0_1565243486.html
p7
aVhttps://www.clarin.com/politica/conveniente-Cristina-candidata-Chino-Navarro_0_1565243481.html
p8
aVhttps://www.clarin.com/politica/conveniente-Cristina-candidata-Chino-Navarro_0_1565243481.html
p9
aVhttps://www.clarin.com/politica/massismo-Macri-antidespidos-gobierno-anterior_0_1565243482.html
p10
aVhttps://www.clarin.com/politica/massismo-Macri-antidespidos-gobierno-anterior_0_1565243482.html
p11
a.