(lp0
Vhttps://www.clarin.com/politica/Peronismo-Agosto-encuentro-gobernadores-intendentes_0_1638436185.html
p1
aVhttps://www.clarin.com/politica/Peronismo-Agosto-encuentro-gobernadores-intendentes_0_1638436185.html
p2
aVhttps://www.clarin.com/ieco/Gobierno-volvio-insistir-inflacion-bajando_0_1638436180.html
p3
aVhttps://www.clarin.com/ieco/Gobierno-volvio-insistir-inflacion-bajando_0_1638436180.html
p4
aVhttps://www.clarin.com/sociedad/ritual-Pachamama-realizara-primera-Obelisco_0_1637836404.html
p5
aVhttps://www.clarin.com/sociedad/ritual-Pachamama-realizara-primera-Obelisco_0_1637836404.html
p6
aVhttps://www.clarin.com/sociedad/Descubren-planeta-cercano-podria-vida_0_1638436178.html
p7
aVhttps://www.clarin.com/sociedad/Descubren-planeta-cercano-podria-vida_0_1638436178.html
p8
aVhttps://www.clarin.com/politica/Perla-conocera-sentencia-cometidos-detencion_0_1638436173.html
p9
aVhttps://www.clarin.com/politica/Perla-conocera-sentencia-cometidos-detencion_0_1638436173.html
p10
a.