(lp0
Vhttps://www.clarin.com/sociedad/ATE-cuestiono-desalojo-vivio-situacion_0_1593440723.html
p1
aVhttps://www.clarin.com/sociedad/ATE-cuestiono-desalojo-vivio-situacion_0_1593440723.html
p2
aVhttps://www.clarin.com/politica/Malcorra-volvio-condenar-Venezuela_0_1593440724.html
p3
aVhttps://www.clarin.com/politica/Ottavis-kirchnerismo-existe_0_1593440720.html
p4
aVhttps://www.clarin.com/politica/Ottavis-kirchnerismo-existe_0_1593440720.html
p5
aVhttps://www.clarin.com/politica/Vidal-mete-interna-PJ_0_1593440719.html
p6
aVhttps://www.clarin.com/sociedad/emotivo-poema-Angeles-Rawson-asesinato_0_1593440715.html
p7
aVhttps://www.clarin.com/sociedad/emotivo-poema-Angeles-Rawson-asesinato_0_1593440715.html
p8
aVhttps://www.clarin.com/politica/Rivolo-consintio-sobreseimiento-Cristina-abogada_0_1593440716.html
p9
aVhttps://www.clarin.com/politica/Vidal-Vamos-responder-firmeza-democraticos_0_1593440710.html
p10
aVhttps://www.clarin.com/politica/Vidal-Vamos-responder-firmeza-democraticos_0_1593440710.html
p11
a.