(lp0
S'https://www.clarin.com/politica/Revelan-Baez-detalles-Cristina-Casanello_0_1603039747.html'
p1
aS'https://www.clarin.com/sociedad/Chile-batalla-frontal-obesidad-infantil_0_1603039756.html'
p2
aS'https://www.clarin.com/politica/traspie-Echegaray-Justicia-volver-AGN_0_1603039749.html'
p3
aS'https://www.clarin.com/politica/Reyes-contrabando-investigan-sociedades-megacausa_0_1603039746.html'
p4
aS'https://www.clarin.com/sociedad/Buscan-atencion-enfermedad-manchas-cafe_0_1603039757.html'
p5
a.