(lp0
S'https://www.clarin.com/sociedad/Encontro-abandonado-ahora-quiere-adoptarlo_0_1619238076.html'
p1
aS'https://www.clarin.com/sociedad/Encontro-abandonado-ahora-quiere-adoptarlo_0_1619238076.html'
p2
aS'https://www.clarin.com/politica/Bronca-Aguad-Tierra-Fuego-provincia_0_1619238071.html'
p3
aS'https://www.clarin.com/politica/Bronca-Aguad-Tierra-Fuego-provincia_0_1619238071.html'
p4
aS'https://www.clarin.com/sociedad/Comidas-tramposas-afirman-alimentos-nocivo_0_1619238066.html'
p5
aS'https://www.clarin.com/politica/Gobierno-posibles-amenazas-terroristas-Argentina_0_1618638269.html'
p6
aS'https://www.clarin.com/politica/Gobierno-posibles-amenazas-terroristas-Argentina_0_1618638269.html'
p7
a.