(lp0
Vhttps://www.clarin.com/politica/jubilados-cobren-minima-pagara-diciembre_0_1685831451.html
p1
aVhttps://www.clarin.com/politica/jubilados-cobren-minima-pagara-diciembre_0_1685831451.html
p2
aVhttps://www.clarin.com/politica/Ojo-Trump-llevamos-dentro_0_1685831450.html
p3
aVhttps://www.clarin.com/opinion/backstage-pelea-Lilita-Angelici_0_1685831449.html
p4
aVhttps://www.clarin.com/opinion/Donald-cumplas_0_1685831447.html
p5
aVhttps://www.clarin.com/sociedad/Tension-Villa-Mitre-vecino-discusion_0_1685231688.html
p6
aVhttps://www.clarin.com/sociedad/Tension-Villa-Mitre-vecino-discusion_0_1685231688.html
p7
aVhttps://www.clarin.com/sociedad/Espanto-porteno-desequilibrada-arrojo-pullman_0_1685231686.html
p8
aVhttps://www.clarin.com/sociedad/Espanto-porteno-desequilibrada-arrojo-pullman_0_1685231686.html
p9
aVhttps://www.clarin.com/politica/Vidal-oficializo-estatizacion-rutas-Provincia_0_1685231685.html
p10
aVhttps://www.clarin.com/politica/Vidal-oficializo-estatizacion-rutas-Provincia_0_1685231685.html
p11
aVhttps://www.clarin.com/sociedad/marginado-discapacidad-logre-cumplir-actor_0_1684631660.html
p12
aVhttps://www.clarin.com/sociedad/marginado-discapacidad-logre-cumplir-actor_0_1684631660.html
p13
aVhttps://www.clarin.com/sociedad/ilusion-construir-futuro_0_1684631662.html
p14
aVhttps://www.clarin.com/politica/Arranca-nueva-ronda-audiencias-publicas_0_1685231653.html
p15
aVhttps://www.clarin.com/politica/Gobierno-ministra-Menem-carrera-Defensoria_0_1685231682.html
p16
aVhttps://www.clarin.com/politica/Gobierno-ministra-Menem-carrera-Defensoria_0_1685231682.html
p17
aVhttps://www.clarin.com/politica/Intrigas-politica-ambiciones-tribunal-kirchnerista_0_1685231681.html
p18
aVhttps://www.clarin.com/politica/Intrigas-politica-ambiciones-tribunal-kirchnerista_0_1685231681.html
p19
a.