(lp0
S'https://www.clarin.com/politica/Desafian-sistema-electronico-prueba-publica_0_1673232781.html'
p1
aS'https://www.clarin.com/politica/Desafian-sistema-electronico-prueba-publica_0_1673232781.html'
p2
aS'https://www.clarin.com/ieco/economia/ATT-HBO-CNN-Warner-Bros_0_1673232771.html'
p3
aS'https://www.clarin.com/ieco/economia/ATT-HBO-CNN-Warner-Bros_0_1673232771.html'
p4
aS'https://www.clarin.com/opinion/libro-blanco-Argentina_0_1673232768.html'
p5
a.