(lp0
S'https://www.clarin.com/politica/Crearan-registro-oficial-regalos-Presidente_0_1648035209.html'
p1
aS'https://www.clarin.com/politica/Crearan-registro-oficial-regalos-Presidente_0_1648035209.html'
p2
aS'https://www.clarin.com/politica/federal-mafia-organizacion-Justicia-Legitima_0_1648035206.html'
p3
aS'https://www.clarin.com/politica/federal-mafia-organizacion-Justicia-Legitima_0_1648035206.html'
p4
aS'https://www.clarin.com/politica/Facundo-Moyano-alerta-Massa-saber_0_1648035204.html'
p5
aS'https://www.clarin.com/politica/Facundo-Moyano-alerta-Massa-saber_0_1648035204.html'
p6
a.