(lp0
S'https://www.clarin.com/sociedad/Acusan-Daniel-Vila-apropiarse-natural_0_1666633431.html'
p1
aS'https://www.clarin.com/sociedad/Video-batalla-boliche-Mar-Plata_0_1666633432.html'
p2
aS'https://www.clarin.com/sociedad/Afirman-Coca-Pepsi-organizaciones-EEUU_0_1666633434.html'
p3
aS'https://www.clarin.com/politica/Marcha-Gobierno-Congreso-Plaza-Mayo_0_1666633430.html'
p4
a.