(lp0
S'https://www.clarin.com/politica/expediente-Lijo-confusos-varias-vocesrias_0_1636036386.html'
p1
aS'https://www.clarin.com/opinion/Brexit-trae-tendencias-aislacionistas-peligrosas_0_1635436571.html'
p2
aS'https://www.clarin.com/opinion/electronico-adecuados-estudios-previos-confianza_0_1635436583.html'
p3
aS'https://www.clarin.com/opinion/electronico-adecuados-estudios-previos-confianza_0_1635436583.html'
p4
aS'https://www.clarin.com/opinion/equipo-rugby-closet-taclea-homofobia_0_1635436589.html'
p5
aS'https://www.clarin.com/opinion/equipo-rugby-closet-taclea-homofobia_0_1635436589.html'
p6
aS'https://www.clarin.com/opinion/Monica-Dawidowicz-nombres-vida_0_1635436586.html'
p7
aS'https://www.clarin.com/opinion/Monica-Dawidowicz-nombres-vida_0_1635436586.html'
p8
aS'https://www.clarin.com/opinion/intolerable-incertidumbre-vida-off-line_0_1635436592.html'
p9
aS'https://www.clarin.com/opinion/Buscamos-refugio-ficciones-simulacros_0_1635436594.html'
p10
aS'https://www.clarin.com/opinion/Recalculando-Macri-necesita-GPS_0_1636036385.html'
p11
a.