(lp0
Vhttps://www.clarin.com/politica/Triple_Fuga-Christian_Lanatta-Victor_Schillaci_0_1503449856.html
p1
aVhttps://www.clarin.com/politica/Triple_Fuga-Christian_Lanatta-Victor_Schillaci_0_1503449856.html
p2
aVhttps://www.clarin.com/politica/citan-indagatoria-policias-custodiaban-nisman-muerte-fabiana-palmaghini_0_1503449857.html
p3
aVhttps://www.clarin.com/politica/citan-indagatoria-policias-custodiaban-nisman-muerte-fabiana-palmaghini_0_1503449857.html
p4
aVhttps://www.clarin.com/ieco/pignannelli-inflacion-suba-dolar_0_1503449848.html
p5
aVhttps://www.clarin.com/ieco/pignannelli-inflacion-suba-dolar_0_1503449848.html
p6
aVhttps://www.clarin.com/politica/Faraon-Melnyk-investigado-Triple-Fuga_0_1503449838.html
p7
aVhttps://www.clarin.com/politica/Faraon-Melnyk-investigado-Triple-Fuga_0_1503449838.html
p8
aVhttps://www.clarin.com/sociedad/Temblo-Chile-sintio-fuerte-Mendoza_0_1503449841.html
p9
aVhttps://www.clarin.com/sociedad/Temblo-Chile-sintio-fuerte-Mendoza_0_1503449841.html
p10
aVhttps://www.clarin.com/politica/Elisa_Carrio-Ricardo_Lorenzetti_0_1503449831.html
p11
a.