(lp0
Vhttps://www.clarin.com/sociedad/Galileo-GPS-europeo-listo-competir_0_1689431099.html
p1
aVhttps://www.clarin.com/sociedad/Galileo-GPS-europeo-listo-competir_0_1689431099.html
p2
aVhttps://www.clarin.com/sociedad/proteccion-solar-recomendada-imposible-bolsillo_0_1689431092.html
p3
aVhttps://www.clarin.com/sociedad/proteccion-solar-recomendada-imposible-bolsillo_0_1689431092.html
p4
aVhttps://www.clarin.com/ieco/Gobierno-aclaro-piensa-condonar-electricas_0_1689431088.html
p5
aVhttps://www.clarin.com/ieco/Gobierno-aclaro-piensa-condonar-electricas_0_1689431088.html
p6
aVhttps://www.clarin.com/sociedad/Guia-viajar-mascota-medio-transporte_0_1689431087.html
p7
aVhttps://www.clarin.com/sociedad/Guia-viajar-mascota-medio-transporte_0_1689431087.html
p8
aVhttps://www.clarin.com/politica/Martin-Baez-Justicia-necesita-vivir_0_1689431056.html
p9
aVhttps://www.clarin.com/politica/Martin-Baez-Justicia-necesita-vivir_0_1689431056.html
p10
a.