(lp0
S'https://www.clarin.com/ieco/economia/devolucion-IVA-jubilados-arranca-mes_0_1607239445.html'
p1
aS'https://www.clarin.com/politica/Desmadre-patetico-tormenta-perfecta_0_1607239437.html'
p2
aS'https://www.clarin.com/ieco/ventas-pick-siguen-alza-competencia_0_1607239432.html'
p3
aS'https://www.clarin.com/politica/Desmadre-patetico-tormenta-perfecta_0_1607839202.html'
p4
aS'https://www.clarin.com/politica/Perez-Corradi-Anibal-Fernandez-Echegaray_0_1607239406.html'
p5
aS'https://www.clarin.com/sociedad/Produciran-cerdos-trasplantes-humanos-pais_0_1607239454.html'
p6
aS'https://www.clarin.com/opinion/escuela-negocios-Santa-Cruz_0_1607839201.html'
p7
aS'https://www.clarin.com/sociedad/veinte-oveja-dolly-clonaron-especies_0_1607239453.html'
p8
aS'https://www.clarin.com/politica/detalles-reunion-Casanello-Cristina-Olivos_0_1607239440.html'
p9
aS'https://www.clarin.com/opinion/maravilloso-arte-cuelgue_0_1607239427.html'
p10
a.