(lp0
Vhttps://www.clarin.com/ieco/Gobierno-enviara-semana-Congreso-buitres_0_1531647207.html
p1
aVhttps://www.clarin.com/ieco/veia-FMI-economia-kirchnerista_0_1531647206.html
p2
aVhttps://www.clarin.com/ieco/veia-FMI-economia-kirchnerista_0_1531647206.html
p3
aVhttps://www.clarin.com/politica/Massa-Stolbizer-pidieron-reforzar-corrupcion_0_1531647196.html
p4
aVhttps://www.clarin.com/politica/Massa-Stolbizer-pidieron-reforzar-corrupcion_0_1531647196.html
p5
aVhttps://www.clarin.com/ieco/Prat-Gay-pone-linea-largada-crecimiento_0_1531647194.html
p6
aVhttps://www.clarin.com/ieco/Prat-Gay-pone-linea-largada-crecimiento_0_1531647194.html
p7
aVhttps://www.clarin.com/politica/Ordenan-Hotesur-investigando-Buenos-Aires_0_1531647180.html
p8
aVhttps://www.clarin.com/politica/Ordenan-Hotesur-investigando-Buenos-Aires_0_1531647180.html
p9
aVhttps://www.clarin.com/ieco/economia/Moderada-suba-Bolsa-acuerdo-buitres_0_1531647157.html
p10
aVhttps://www.clarin.com/sociedad/familias-chicas-denuncian-incongruencias-investigacion_0_1531647179.html
p11
aVhttps://www.clarin.com/sociedad/familias-chicas-denuncian-incongruencias-investigacion_0_1531647179.html
p12
a.