(lp0
Vhttps://www.clarin.com/sociedad/demanda-Caritas-abrio-nuevos-comedores_0_1582641831.html
p1
aVhttps://www.clarin.com/sociedad/demanda-Caritas-abrio-nuevos-comedores_0_1582641831.html
p2
aVhttps://www.clarin.com/sociedad/pelicula-alerta-global-cambio-climatico_0_1582641834.html
p3
aVhttps://www.clarin.com/sociedad/pelicula-alerta-global-cambio-climatico_0_1582641834.html
p4
aVhttps://www.clarin.com/ieco/economia/Monsanto-rechazo-oferta-Bayer-considerarla_0_1582641829.html
p5
aVhttps://www.clarin.com/ieco/economia/Monsanto-rechazo-oferta-Bayer-considerarla_0_1582641829.html
p6
aVhttps://www.clarin.com/sociedad/Polemica-Twitter-hashtag-MasAnorexiaMenosGordas_0_1582641827.html
p7
aVhttps://www.clarin.com/sociedad/Polemica-Twitter-hashtag-MasAnorexiaMenosGordas_0_1582641827.html
p8
aVhttps://www.clarin.com/sociedad/Video-Everest-grados_0_1582641825.html
p9
aVhttps://www.clarin.com/sociedad/Video-Everest-grados_0_1582641825.html
p10
aVhttps://www.clarin.com/politica/Primera-cautelar-beneficia-San-Martin_0_1582641823.html
p11
aVhttps://www.clarin.com/politica/Carrio-Nueva-York-desentranar-empresas_0_1582641820.html
p12
aVhttps://www.clarin.com/politica/Carrio-Nueva-York-desentranar-empresas_0_1582641820.html
p13
a.