(lp0
Vhttps://www.clarin.com/politica/Identificaron-victima-numero-atentado-AMIA_0_1629437192.html
p1
aVhttps://www.clarin.com/politica/Identificaron-victima-numero-atentado-AMIA_0_1629437192.html
p2
aVhttps://www.clarin.com/politica/Urtubey-PJ-podemos-seguir-haciendo_0_1629437189.html
p3
aVhttps://www.clarin.com/politica/Urtubey-PJ-podemos-seguir-haciendo_0_1629437189.html
p4
aVhttps://www.clarin.com/ieco/economia/Chacho-endeudarse-exterior-US-millones_0_1629437183.html
p5
aVhttps://www.clarin.com/ieco/economia/Chacho-endeudarse-exterior-US-millones_0_1629437183.html
p6
aVhttps://www.clarin.com/politica/Massa-descartamos-publica-Aranguren-Congreso_0_1629437181.html
p7
aVhttps://www.clarin.com/politica/Massa-descartamos-publica-Aranguren-Congreso_0_1629437181.html
p8
aVhttps://www.clarin.com/ieco/economia/Prat-Gay-Congreso-proyecto-capitales_0_1629437180.html
p9
aVhttps://www.clarin.com/ieco/economia/Venta-cemento-cayo-julio_0_1629437179.html
p10
a.