(lp0
S'https://www.clarin.com/politica/militantes-Tupac-Amaru-Milagro-Sala_0_1632436772.html'
p1
aS'https://www.clarin.com/politica/Denuncian-Jose-Lopez-viviendas-terminaron_0_1632436783.html'
p2
aS'https://www.clarin.com/sociedad/podria-quedar-acusado-mujer-golpes_0_1632436780.html'
p3
aS'https://www.clarin.com/sociedad/Manejaba-borracho-choco-muerto-heridos_0_1632436782.html'
p4
aS'https://www.clarin.com/politica/Colombi-aumento-Corrientes-pagamos-gente_0_1632436779.html'
p5
aS'https://www.clarin.com/sociedad/Conmovedor-sufre-Alzheimer-canta-vuelve_0_1632436788.html'
p6
aS'https://www.clarin.com/ieco/Malcorra-Argentina-hoy-pais-competititivo_0_1632436776.html'
p7
a.