(lp0
Vhttps://www.clarin.com/opinion/voces-oiran_0_1660633991.html
p1
aVhttps://www.clarin.com/politica/abogado-Nisman-apunta-Cristina-impunidad_0_1660633990.html
p2
aVhttps://www.clarin.com/politica/abogado-Nisman-apunta-Cristina-impunidad_0_1660633990.html
p3
aVhttps://www.clarin.com/politica/duro-diagnostico-intendente-inseguridad-GBA_0_1659434168.html
p4
aVhttps://www.clarin.com/politica/duro-diagnostico-intendente-inseguridad-GBA_0_1659434168.html
p5
a.