(lp0
S'https://www.clarin.com/sociedad/Rota-apolillada-comprar-parece-vieja_0_1665433613.html'
p1
aS'https://www.clarin.com/politica/Lanata-difundio-allanamientos-Jorge-Rial_0_1665433610.html'
p2
aS'https://www.clarin.com/politica/Lanata-difundio-allanamientos-Jorge-Rial_0_1665433610.html'
p3
aS'https://www.clarin.com/politica/Stiuso-paseo-Macri-linea_0_1665433608.html'
p4
aS'https://www.clarin.com/politica/Stiuso-paseo-Macri-linea_0_1665433608.html'
p5
aS'https://www.clarin.com/politica/Prat-Gay-gobernadores-pelean-futura_0_1665433538.html'
p6
aS'https://www.clarin.com/sociedad/apostador-bonaerense-gano-millones-Quini_0_1665433606.html'
p7
aS'https://www.clarin.com/sociedad/apostador-bonaerense-gano-millones-Quini_0_1665433606.html'
p8
aS'https://www.clarin.com/sociedad/Incidentes-Rosario-Encuentro-Nacional-Mujeres_0_1665433605.html'
p9
aS'https://www.clarin.com/sociedad/Incidentes-Rosario-Encuentro-Nacional-Mujeres_0_1665433605.html'
p10
aS'https://www.clarin.com/politica/ten-jueces-puerta-giratoria-Provincia_0_1665433578.html'
p11
aS'https://www.clarin.com/politica/Gobierno-coinciden-criticas-gente-Justicia_0_1665433603.html'
p12
aS'https://www.clarin.com/politica/Gobierno-coinciden-criticas-gente-Justicia_0_1665433603.html'
p13
aS'https://www.clarin.com/politica/Santa-Cruz-refugio-funcionarios-kirchneristas_0_1665433590.html'
p14
aS'https://www.clarin.com/politica/Santa-Cruz-refugio-funcionarios-kirchneristas_0_1665433590.html'
p15
aS'https://www.clarin.com/politica/Lombardi-defendio-reemplazar-Nestor-Kirchner_0_1665433599.html'
p16
aS'https://www.clarin.com/politica/Lombardi-defendio-reemplazar-Nestor-Kirchner_0_1665433599.html'
p17
a.