(lp0
S'https://www.clarin.com/ieco/indice-precios-Consumidores-Libres-subio_0_1587441283.html'
p1
aS'https://www.clarin.com/politica/Leandro-Baez-debera-presentarse-Camara_0_1587441271.html'
p2
aS'https://www.clarin.com/politica/Amplian-denuncia-Macri-crecimiento-fortuna_0_1587441273.html'
p3
aS'https://www.clarin.com/sociedad/Rodriguez-Larreta-Time-Vamos-Justicia_0_1587441282.html'
p4
aS'https://www.clarin.com/politica/Ahora-Bonafini-Prat-Gay-Espana_0_1587441270.html'
p5
aS'https://www.clarin.com/ieco/economia/freno-provincia-medida-rige-anos_0_1587441274.html'
p6
aS'https://www.clarin.com/politica/Malcorra-expone-primera-diputados-argentinos_0_1587441263.html'
p7
aS'https://www.clarin.com/sociedad/Papa-paralisis-cerebral-prestigioso-literario_0_1587441261.html'
p8
aS'https://www.clarin.com/politica/texto-completo-proyecto-blanqueo-jubilados_0_1587441268.html'
p9
a.