(lp0
Vhttps://www.clarin.com/politica/Vidal-carta-Carrio-decir-primero_0_1609039142.html
p1
aVhttps://www.clarin.com/politica/Vidal-carta-Carrio-decir-primero_0_1609039142.html
p2
aVhttps://www.clarin.com/politica/Baez-caprichoso-Casanello-reclamar-hijos_0_1609039123.html
p3
aVhttps://www.clarin.com/politica/Baez-caprichoso-Casanello-reclamar-hijos_0_1609039123.html
p4
aVhttps://www.clarin.com/politica/cobertura-Tiempo-Argentino-visita-Cristina_0_1609039141.html
p5
aVhttps://www.clarin.com/politica/cobertura-Tiempo-Argentino-visita-Cristina_0_1609039141.html
p6
aVhttps://www.clarin.com/sociedad/Terror-pierde-control-pleno-vuelo_0_1609039135.html
p7
aVhttps://www.clarin.com/sociedad/Terror-pierde-control-pleno-vuelo_0_1609039135.html
p8
aVhttps://www.clarin.com/politica/envenenen-Corradi-prueban-comida_0_1609039133.html
p9
aVhttps://www.clarin.com/politica/envenenen-Corradi-prueban-comida_0_1609039133.html
p10
aVhttps://www.clarin.com/ieco/venta-insumos-construccion-cayo-junio_0_1609039134.html
p11
aVhttps://www.clarin.com/ieco/venta-insumos-construccion-cayo-junio_0_1609039134.html
p12
aVhttps://www.clarin.com/politica/incomodo-album-politicos-Tiempo-Argentino_0_1609039124.html
p13
aVhttps://www.clarin.com/politica/incomodo-album-politicos-Tiempo-Argentino_0_1609039124.html
p14
a.