(lp0
S'https://www.clarin.com/ieco/economia/crisis-Brasil-efecto-economia-argentina_0_1534046793.html'
p1
aS'https://www.clarin.com/sociedad/Aseguran-identificaron-Banksy-metodo-Policia_0_1534046787.html'
p2
aS'https://www.clarin.com/sociedad/despedida-grande-tango-mes-morgue_0_1533447038.html'
p3
aS'https://www.clarin.com/ieco/buitre-decision-Griesa-levantar-bloqueo_0_1534046803.html'
p4
aS'https://www.clarin.com/sociedad/avion-pasajeros-punto-chocar-dron_0_1534046800.html'
p5
aS'https://www.clarin.com/ieco/economia/Gobierno-quita-negociada-buitres-alcanza_0_1534046801.html'
p6
aS'https://www.clarin.com/sociedad/Reconocen-casos-dengue-Ciudad_0_1534046797.html'
p7
aS'https://www.clarin.com/sociedad/cuotas-colegios-privados-provincia-subirian_0_1534046789.html'
p8
a.