(lp0
Vhttps://www.clarin.com/sociedad/cumbre-mundial-criticas-represa-Sur_0_1643235848.html
p1
aVhttps://www.clarin.com/sociedad/Dicen-evitar-catastrofes-doble-guardaparques_0_1643235846.html
p2
aVhttps://www.clarin.com/sociedad/Dicen-evitar-catastrofes-doble-guardaparques_0_1643235846.html
p3
aVhttps://www.clarin.com/sociedad/Crean-programa-nacional-cuidados-paliativos_0_1643235844.html
p4
aVhttps://www.clarin.com/sociedad/Crean-programa-nacional-cuidados-paliativos_0_1643235844.html
p5
aVhttps://www.clarin.com/politica/Gobierno-recibio-CGT-medidas-fuerza_0_1643235842.html
p6
aVhttps://www.clarin.com/politica/Gobierno-recibio-CGT-medidas-fuerza_0_1643235842.html
p7
aVhttps://www.clarin.com/politica/Negociaciones-Gobierno-CGT-PJ-Ganancias_0_1643235840.html
p8
aVhttps://www.clarin.com/politica/Ahora-procesaron-Boudou-compra-Economia_0_1643235836.html
p9
aVhttps://www.clarin.com/politica/Ahora-procesaron-Boudou-compra-Economia_0_1643235836.html
p10
aVhttps://www.clarin.com/ieco/economia/Barrick-evalua-cambios-reabrir-Pascua-Lama_0_1643235839.html
p11
a.