(lp0
S'https://www.clarin.com/ieco/economia/empresarios-Argentina-Brasil-China-problema_0_1646835494.html'
p1
aS'https://www.clarin.com/ieco/economia/empresarios-Argentina-Brasil-China-problema_0_1646835494.html'
p2
aS'https://www.clarin.com/ieco/economia/Importaciones-invasion-numeros-desmienten_0_1646835454.html'
p3
aS'https://www.clarin.com/ieco/economia/Importaciones-invasion-numeros-desmienten_0_1646835454.html'
p4
aS'https://www.clarin.com/ieco/precios-yerba-productor-subiran-marzo_0_1646835328.html'
p5
aS'https://www.clarin.com/ieco/precios-yerba-productor-subiran-marzo_0_1646835328.html'
p6
aS'https://www.clarin.com/politica/Centurion-escandalo-reivindicacion-interna_0_1647435256.html'
p7
aS'https://www.clarin.com/politica/Centurion-escandalo-reivindicacion-interna_0_1647435256.html'
p8
aS'https://www.clarin.com/opinion/Club-Paris-hacer-acuerdo-pesimo_0_1646835467.html'
p9
aS'https://www.clarin.com/opinion/Club-Paris-hacer-acuerdo-pesimo_0_1646835467.html'
p10
aS'https://www.clarin.com/opinion/renovacion-peronista-panales_0_1647435254.html'
p11
aS'https://www.clarin.com/politica/Insaurralde-Brancatelli-Intratables-panelista-tibio_0_1646835516.html'
p12
aS'https://www.clarin.com/politica/Insaurralde-Brancatelli-Intratables-panelista-tibio_0_1646835516.html'
p13
aS'https://www.clarin.com/sociedad/Gobierno-reponer-Telesur-TV-digital_0_1646835514.html'
p14
aS'https://www.clarin.com/sociedad/Gobierno-reponer-Telesur-TV-digital_0_1646835514.html'
p15
a.