(lp0
S'https://www.clarin.com/sociedad/fantastica-ruta-cura-exploro-Patagonia_0_1555044983.html'
p1
aS'https://www.clarin.com/sociedad/fantastica-ruta-cura-exploro-Patagonia_0_1555044983.html'
p2
aS'https://www.clarin.com/politica/arrepentido-Farina-involucro-Cristina-Nestor_0_1555045012.html'
p3
aS'https://www.clarin.com/politica/arrepentido-Farina-involucro-Cristina-Nestor_0_1555045012.html'
p4
aS'https://www.clarin.com/politica/ratificacion-contundente-confesion-TV_0_1555044958.html'
p5
aS'https://www.clarin.com/politica/ratificacion-contundente-confesion-TV_0_1555044958.html'
p6
aS'https://www.clarin.com/opinion/Macri-offshore-vara-demasiado-alta_0_1555644480.html'
p7
aS'https://www.clarin.com/politica/Internas-politicas-tecnicos-creditos-hipotecarios_0_1555044993.html'
p8
aS'https://www.clarin.com/politica/IOMA-denuncian-estafas-Scioli-millones_0_1555044965.html'
p9
aS'https://www.clarin.com/politica/Macri-declaracion-certeza-despejar-dudas_0_1555044998.html'
p10
aS'https://www.clarin.com/opinion/musica-maravillosa_0_1555044918.html'
p11
aS'https://www.clarin.com/ieco/Pampa-Petrobras-extienden-dias-negociaciones_0_1555044930.html'
p12
a.