(lp0
Vhttps://www.clarin.com/politica/Abal-Medina-funcionario-Cristina-Peronismo_0_1613838721.html
p1
aVhttps://www.clarin.com/politica/Abal-Medina-funcionario-Cristina-Peronismo_0_1613838721.html
p2
aVhttps://www.clarin.com/politica/Florencia-Kirchner-Van-inventar-Helena_0_1613838717.html
p3
aVhttps://www.clarin.com/politica/Florencia-Kirchner-Van-inventar-Helena_0_1613838717.html
p4
aVhttps://www.clarin.com/politica/Peronismo-crisis-Legislatura-portena_0_1613838716.html
p5
aVhttps://www.clarin.com/politica/Peronismo-crisis-Legislatura-portena_0_1613838716.html
p6
aVhttps://www.clarin.com/sociedad/policias-rescataron-recien-nacido-abandonado_0_1613838713.html
p7
aVhttps://www.clarin.com/sociedad/policias-rescataron-recien-nacido-abandonado_0_1613838713.html
p8
aVhttps://www.clarin.com/sociedad/Denuncian-agrede-docente-dia-Provincia_0_1613838708.html
p9
aVhttps://www.clarin.com/sociedad/Denuncian-agrede-docente-dia-Provincia_0_1613838708.html
p10
aVhttps://www.clarin.com/sociedad/Aparecio-ballena-varada-Mar-Tuyu_0_1613838704.html
p11
aVhttps://www.clarin.com/sociedad/Aparecio-ballena-varada-Mar-Tuyu_0_1613838704.html
p12
aVhttps://www.clarin.com/politica/Argentina-sede-encuentro-anual-OMC_0_1613838706.html
p13
a.