(lp0
Vhttps://www.clarin.com/opinion/paridad-genero-vocacion-transformar_0_1644435636.html
p1
aVhttps://www.clarin.com/opinion/plan-antidrogas-epoca_0_1644435637.html
p2
aVhttps://www.clarin.com/opinion/plan-antidrogas-epoca_0_1644435637.html
p3
aVhttps://www.clarin.com/opinion/Buenos-Aires-ciudad-resiliente_0_1644435635.html
p4
aVhttps://www.clarin.com/politica/Cumbre-Presidente-llamo-invertir-Argentina_0_1645035484.html
p5
aVhttps://www.clarin.com/politica/Cumbre-Presidente-llamo-invertir-Argentina_0_1645035484.html
p6
aVhttps://www.clarin.com/sociedad/horas-Valentin-llego-protesis-Retiro_0_1644435680.html
p7
aVhttps://www.clarin.com/sociedad/horas-Valentin-llego-protesis-Retiro_0_1644435680.html
p8
aVhttps://www.clarin.com/politica/Carrio-Susana-criticas-Anibal-fiesta_0_1645035483.html
p9
aVhttps://www.clarin.com/politica/Carrio-Susana-criticas-Anibal-fiesta_0_1645035483.html
p10
aVhttps://www.clarin.com/politica/Arranca-desafio-electoral-dificil_0_1645035482.html
p11
aVhttps://www.clarin.com/politica/Echegaray-Stiuso-oscuros-vinculos-contrabando_0_1644435656.html
p12
aVhttps://www.clarin.com/politica/Echegaray-Stiuso-oscuros-vinculos-contrabando_0_1644435656.html
p13
aVhttps://www.clarin.com/ieco/economia/Siempre-agradecidos-cartel-fabricas-chinas_0_1644435703.html
p14
a.