(lp0
S'https://www.clarin.com/politica/entrevista-online-Macri-tener-desaparecidos_0_1629437125.html'
p1
aS'https://www.clarin.com/ieco/dolar-sube-centavo_0_1629437123.html'
p2
aS'https://www.clarin.com/sociedad/Mendoza-Gustavo-Cordera-Dia-Estudiante_0_1629437128.html'
p3
aS'https://www.clarin.com/politica/Cruces-Diputados-acusaciones-tarifazo-kirchnerista_0_1629437126.html'
p4
aS'https://www.clarin.com/ieco/economia/Estaciones-YPF-licitacion-servicio-nacionales_0_1629437127.html'
p5
aS'https://www.clarin.com/politica/Bonadio-autorizo-Cristina-asignacion-vitalicia_0_1629437121.html'
p6
a.