(lp0
S'https://www.clarin.com/politica/Twitter-hizo-frase-polemica-Cristina_0_1624037639.html'
p1
aS'https://www.clarin.com/politica/Twitter-hizo-frase-polemica-Cristina_0_1624037639.html'
p2
aS'https://www.clarin.com/sociedad/Cuidar-bolsillo-precio_0_1624037638.html'
p3
aS'https://www.clarin.com/sociedad/farmaceuticos-quieren-vender-marihuana-medicinal_0_1624037637.html'
p4
aS'https://www.clarin.com/sociedad/farmaceuticos-quieren-vender-marihuana-medicinal_0_1624037637.html'
p5
aS'https://www.clarin.com/sociedad/hoy-tomar-cana-ruda-macho_0_1624037620.html'
p6
aS'https://www.clarin.com/sociedad/hoy-tomar-cana-ruda-macho_0_1624037620.html'
p7
aS'https://www.clarin.com/sociedad/educacion-Finlandia-mejor-mundo_0_1624037635.html'
p8
aS'https://www.clarin.com/sociedad/educacion-Finlandia-mejor-mundo_0_1624037635.html'
p9
aS'https://www.clarin.com/ieco/Tesla-empresa-energia-US-millones_0_1624037631.html'
p10
aS'https://www.clarin.com/ieco/Tesla-empresa-energia-US-millones_0_1624037631.html'
p11
aS'https://www.clarin.com/politica/Cristina-absolutamente-escrito-Lazaro-Baez_0_1624037630.html'
p12
aS'https://www.clarin.com/politica/Cristina-absolutamente-escrito-Lazaro-Baez_0_1624037630.html'
p13
a.