(lp0
S'https://www.clarin.com/ieco/Argentina-Chile-eliminaran-imposicion-tributaria_0_1670233045.html'
p1
aS'https://www.clarin.com/politica/Macri-respaldo-Vidal-amenazas-gobernadora_0_1670233038.html'
p2
aS'https://www.clarin.com/politica/Papa-Arancedo-positiva-Gobierno-Iglesia_0_1670233044.html'
p3
aS'https://www.clarin.com/sociedad/vive-Isabel-Menditeguy-mujer-Macri_0_1670233049.html'
p4
aS'https://www.clarin.com/sociedad/Conmovedora-historia-busco-donante-corazon_0_1670233047.html'
p5
aS'https://www.clarin.com/sociedad/mendocino-rompio-record-silla-ruedas_0_1670233039.html'
p6
aS'https://www.clarin.com/politica/Hugo-Moyano-bono-insuficiente_0_1670233048.html'
p7
aS'https://www.clarin.com/politica/Hablo-mama-Macri-preocupada_0_1670233037.html'
p8
a.