(lp0
S'https://www.clarin.com/politica/Macri-encabezo-timbreo-Cambiemos-periodistas_0_1685831554.html'
p1
aS'https://www.clarin.com/ieco/Argentina-economias-cerradas-mundo_0_1685831555.html'
p2
aS'https://www.clarin.com/politica/encuestas-consumo-sagradoy-Macri-reactivarlo_0_1685831556.html'
p3
a.