(lp0
Vhttps://www.clarin.com/ieco/economia/Blanqueo-banco-confirmo-abrira-sabado_0_1675032555.html
p1
aVhttps://www.clarin.com/ieco/economia/Blanqueo-banco-confirmo-abrira-sabado_0_1675032555.html
p2
aVhttps://www.clarin.com/sociedad/adolescente-apunalo-disfrazado-payaso-diabolico_0_1675032544.html
p3
aVhttps://www.clarin.com/sociedad/adolescente-apunalo-disfrazado-payaso-diabolico_0_1675032544.html
p4
aVhttps://www.clarin.com/sociedad/Condenan-pastelero-negarse-hacer-torta_0_1675032518.html
p5
aVhttps://www.clarin.com/sociedad/Condenan-pastelero-negarse-hacer-torta_0_1675032518.html
p6
aVhttps://www.clarin.com/sociedad/Detuvieron-joven-organizadora-abundancia-Rioja_0_1675032552.html
p7
aVhttps://www.clarin.com/sociedad/Detuvieron-joven-organizadora-abundancia-Rioja_0_1675032552.html
p8
aVhttps://www.clarin.com/sociedad/Triple-femicidio-escalofriantes-detalles-crimen_0_1675032545.html
p9
aVhttps://www.clarin.com/sociedad/Triple-femicidio-escalofriantes-detalles-crimen_0_1675032545.html
p10
aVhttps://www.clarin.com/politica/desclasificacion-genera-expectativas-moderadas_0_1675032547.html
p11
aVhttps://www.clarin.com/politica/desclasificacion-genera-expectativas-moderadas_0_1675032547.html
p12
aVhttps://www.clarin.com/politica/Carrio-apuesta-Gils-Carbo-adelante_0_1675032541.html
p13
aVhttps://www.clarin.com/politica/Carrio-apuesta-Gils-Carbo-adelante_0_1675032541.html
p14
aVhttps://www.clarin.com/politica/Episcopado-verdad-camino-justicia-reconciliacion_0_1675032542.html
p15
aVhttps://www.clarin.com/politica/Episcopado-verdad-camino-justicia-reconciliacion_0_1675032542.html
p16
a.