(lp0
Vhttps://www.clarin.com/politica/Retiro-visitas-Rosada-consejos-Macri_0_1539446394.html
p1
aVhttps://www.clarin.com/politica/Retiro-visitas-Rosada-consejos-Macri_0_1539446394.html
p2
aVhttps://www.clarin.com/politica/empresarios-merecen-Moreno_0_1539446386.html
p3
aVhttps://www.clarin.com/politica/empresarios-merecen-Moreno_0_1539446386.html
p4
aVhttps://www.clarin.com/sociedad/meditacion-grande-historia-ritmo-tango_0_1539446385.html
p5
aVhttps://www.clarin.com/sociedad/meditacion-grande-historia-ritmo-tango_0_1539446385.html
p6
aVhttps://www.clarin.com/sociedad/Mensajes-amor-delgada-Ravi-Shankar_0_1539446378.html
p7
aVhttps://www.clarin.com/sociedad/Mensajes-amor-delgada-Ravi-Shankar_0_1539446378.html
p8
aVhttps://www.clarin.com/sociedad/maestra-palestina-premio-mejor-docente_0_1539446371.html
p9
aVhttps://www.clarin.com/sociedad/maestra-palestina-premio-mejor-docente_0_1539446371.html
p10
aVhttps://www.clarin.com/politica/MACRI-MAJUL_0_1539446426.html
p11
aVhttps://www.clarin.com/politica/MACRI-MAJUL_0_1539446426.html
p12
aVhttps://www.clarin.com/politica/Macri-confeso-padecio-perdida-propia_0_1539446404.html
p13
aVhttps://www.clarin.com/politica/Macri-confeso-padecio-perdida-propia_0_1539446404.html
p14
aVhttps://www.clarin.com/politica/Morales-Milagro-Sala-homicidios-Jujuy_0_1539446381.html
p15
aVhttps://www.clarin.com/politica/Morales-Milagro-Sala-homicidios-Jujuy_0_1539446381.html
p16
a.