(lp0
Vhttps://www.clarin.com/politica/Macri-tuitio-Chino-estallaron-memes_0_1645035593.html
p1
aVhttps://www.clarin.com/politica/Macri-tuitio-Chino-estallaron-memes_0_1645035593.html
p2
aVhttps://www.clarin.com/sociedad/razon-jugadora-hockey-vuelve-jugar_0_1645035592.html
p3
aVhttps://www.clarin.com/sociedad/razon-jugadora-hockey-vuelve-jugar_0_1645035592.html
p4
a.