(lp0
S'https://www.clarin.com/ieco/compras-oficiales-dolar-salto_0_1613838805.html'
p1
aS'https://www.clarin.com/ieco/Autos-Cabrera-ve-demanda_0_1613838807.html'
p2
aS'https://www.clarin.com/sociedad/ACV-ataques-evitarse-habitos-saludables_0_1613838808.html'
p3
aS'https://www.clarin.com/politica/fiscal-Cristina-oculto-dinero-cajas_0_1613838802.html'
p4
aS'https://www.clarin.com/politica/Contrataron-cajas-Cristina-citada-declarar_0_1613838816.html'
p5
a.