(lp0
Vhttps://www.clarin.com/ieco/Gobierno-emitira-millones-financiar-Procrear_0_1607839251.html
p1
aVhttps://www.clarin.com/politica/completo-Martin-Baez-imputado-responder_0_1607839247.html
p2
aVhttps://www.clarin.com/politica/completo-Martin-Baez-imputado-responder_0_1607839247.html
p3
aVhttps://www.clarin.com/ieco/dolar-opera-estable_0_1607839246.html
p4
aVhttps://www.clarin.com/ieco/dolar-opera-estable_0_1607839246.html
p5
aVhttps://www.clarin.com/sociedad/Advierten-antibioticos-chileno-generar-superbacterias_0_1607839242.html
p6
aVhttps://www.clarin.com/sociedad/Advierten-antibioticos-chileno-generar-superbacterias_0_1607839242.html
p7
aVhttps://www.clarin.com/ieco/exportaciones-Brasil-picada-cayeron-semestre_0_1607839240.html
p8
aVhttps://www.clarin.com/ieco/exportaciones-Brasil-picada-cayeron-semestre_0_1607839240.html
p9
aVhttps://www.clarin.com/politica/Cristina-cambia-cruzarse-Baez-Tribunales_0_1607839239.html
p10
aVhttps://www.clarin.com/politica/Cristina-cambia-cruzarse-Baez-Tribunales_0_1607839239.html
p11
a.