(lp0
Vhttps://www.clarin.com/politica/Macri-votacion-Senado-politica-contaminada_0_1596440416.html
p1
aVhttps://www.clarin.com/politica/Macri-votacion-Senado-politica-contaminada_0_1596440416.html
p2
aVhttps://www.clarin.com/sociedad/Disney-inauguro-nuevo-parque-China_0_1596440415.html
p3
aVhttps://www.clarin.com/sociedad/Disney-inauguro-nuevo-parque-China_0_1596440415.html
p4
aVhttps://www.clarin.com/sociedad/Francia-medicos-deberan-decidir-disputa_0_1596440413.html
p5
aVhttps://www.clarin.com/sociedad/Francia-medicos-deberan-decidir-disputa_0_1596440413.html
p6
aVhttps://www.clarin.com/politica/senadoras-senador-siguen-bancando-Cristina_0_1596440409.html
p7
aVhttps://www.clarin.com/politica/senadoras-senador-siguen-bancando-Cristina_0_1596440409.html
p8
aVhttps://www.clarin.com/sociedad/intoxico-purpurina-grave-dieron-alta_0_1596440410.html
p9
aVhttps://www.clarin.com/sociedad/intoxico-purpurina-grave-dieron-alta_0_1596440410.html
p10
aVhttps://www.clarin.com/sociedad/abuela-famosa-favor-gracias-Google_0_1596440403.html
p11
aVhttps://www.clarin.com/sociedad/abuela-famosa-favor-gracias-Google_0_1596440403.html
p12
aVhttps://www.clarin.com/politica/abogada-Lopez-estresado-sufriendo_0_1596440408.html
p13
aVhttps://www.clarin.com/politica/abogada-Lopez-estresado-sufriendo_0_1596440408.html
p14
aVhttps://www.clarin.com/politica/Oficina-Anticorrupcion-pidio-embargar-Vido_0_1596440405.html
p15
aVhttps://www.clarin.com/politica/Oficina-Anticorrupcion-pidio-embargar-Vido_0_1596440405.html
p16
aVhttps://www.clarin.com/sociedad/dijo-Disney-nene-cocodrilo-Orlando_0_1596440404.html
p17
aVhttps://www.clarin.com/sociedad/dijo-Disney-nene-cocodrilo-Orlando_0_1596440404.html
p18
a.