(lp0
S'https://www.clarin.com/sociedad/mujeres-tomaron-ponerle-violencia-machista_0_1671433039.html'
p1
aS'https://www.clarin.com/politica/radicalismo-intento-Pro-masistas-diputados_0_1672032787.html'
p2
aS'https://www.clarin.com/sociedad/cambiar-futuro-doble-desafio-hacerse_0_1671433034.html'
p3
aS'https://www.clarin.com/politica/Reforma-electoral-negocian-contrareloj-diputados_0_1672032781.html'
p4
aS'https://www.clarin.com/opinion/serio_0_1672032784.html'
p5
aS'https://www.clarin.com/opinion/Fabula-criolla-pobres-ladrones_0_1672032786.html'
p6
a.