(lp0
Vhttps://www.clarin.com/politica/Hugo-Moyano-CGT-postularia-AFA_0_1573042774.html
p1
aVhttps://www.clarin.com/politica/Hugo-Moyano-CGT-postularia-AFA_0_1573042774.html
p2
aVhttps://www.clarin.com/sociedad/emocionante-Oscar-perro-revoluciona-Web_0_1573042760.html
p3
aVhttps://www.clarin.com/sociedad/emocionante-Oscar-perro-revoluciona-Web_0_1573042760.html
p4
aVhttps://www.clarin.com/politica/Mauricio-Macri-transicion-dolorosa_0_1573042771.html
p5
aVhttps://www.clarin.com/politica/Mauricio-Macri-transicion-dolorosa_0_1573042771.html
p6
aVhttps://www.clarin.com/politica/Vido-postergaran-indagatoria-desmarcarse-Jaime_0_1573042767.html
p7
aVhttps://www.clarin.com/politica/Vido-postergaran-indagatoria-desmarcarse-Jaime_0_1573042767.html
p8
a.