(lp0
Vhttps://www.clarin.com/politica/CGT-junto-movmientos-sociales-izquierda_0_1646235378.html
p1
aVhttps://www.clarin.com/politica/CGT-junto-movmientos-sociales-izquierda_0_1646235378.html
p2
aVhttps://www.clarin.com/sociedad/colgado-puentes-Zarate-Brazo-Largo_0_1646235375.html
p3
aVhttps://www.clarin.com/sociedad/colgado-puentes-Zarate-Brazo-Largo_0_1646235375.html
p4
aVhttps://www.clarin.com/ieco/economia/Ronda-reuniones-busca-aval-audiencia_0_1645635594.html
p5
aVhttps://www.clarin.com/ieco/economia/Ronda-reuniones-busca-aval-audiencia_0_1645635594.html
p6
aVhttps://www.clarin.com/politica/Detras-factura-defensor-ausente-apuesta_0_1645635527.html
p7
aVhttps://www.clarin.com/politica/Detras-factura-defensor-ausente-apuesta_0_1645635527.html
p8
aVhttps://www.clarin.com/ieco/inflacion-Banco-Central-vuelve-recortar_0_1645635564.html
p9
aVhttps://www.clarin.com/ieco/inflacion-Banco-Central-vuelve-recortar_0_1645635564.html
p10
aVhttps://www.clarin.com/ieco/economia/Bayer-US-millones-oferta-Monsanto_0_1645635488.html
p11
aVhttps://www.clarin.com/ieco/economia/Bayer-US-millones-oferta-Monsanto_0_1645635488.html
p12
aVhttps://www.clarin.com/ieco/economia/Precios-cuidados-ampliaron-productos-subas_0_1645635544.html
p13
aVhttps://www.clarin.com/ieco/economia/Precios-cuidados-ampliaron-productos-subas_0_1645635544.html
p14
aVhttps://www.clarin.com/politica/Corte-nego-poner-declaraciones-bienes_0_1645635562.html
p15
aVhttps://www.clarin.com/politica/Corte-nego-poner-declaraciones-bienes_0_1645635562.html
p16
a.