(lp0
Vhttps://www.clarin.com/politica/Ruta-atractivo-turistico-Lazaro-Baez_0_1675632426.html
p1
aVhttps://www.clarin.com/politica/Ruta-atractivo-turistico-Lazaro-Baez_0_1675632426.html
p2
aVhttps://www.clarin.com/politica/Suspendieron-funcionario-Gobierno-choco-oficial_0_1676232388.html
p3
aVhttps://www.clarin.com/politica/Suspendieron-funcionario-Gobierno-choco-oficial_0_1676232388.html
p4
aVhttps://www.clarin.com/politica/procesamiento-Cristobal-Lopez-Ricardo-Echegaray_0_1676232384.html
p5
aVhttps://www.clarin.com/politica/procesamiento-Cristobal-Lopez-Ricardo-Echegaray_0_1676232384.html
p6
aVhttps://www.clarin.com/sociedad/Vargas-Llosa-Nobel-Dylan-escritor_0_1676232381.html
p7
aVhttps://www.clarin.com/sociedad/Vargas-Llosa-Nobel-Dylan-escritor_0_1676232381.html
p8
a.