(lp0
Vhttps://www.clarin.com/politica/Gobierno-Cristina-auditorias-suficiente-Justicia_0_1607239275.html
p1
aVhttps://www.clarin.com/politica/Gobierno-Cristina-auditorias-suficiente-Justicia_0_1607239275.html
p2
aVhttps://www.clarin.com/sociedad/Oficializaron-aumento-salarial-empleadas-domesticas_0_1607239272.html
p3
aVhttps://www.clarin.com/sociedad/Oficializaron-aumento-salarial-empleadas-domesticas_0_1607239272.html
p4
aVhttps://www.clarin.com/politica/abogada-exitosa-figura-documento-comerciante_0_1606639462.html
p5
aVhttps://www.clarin.com/politica/abogada-exitosa-figura-documento-comerciante_0_1606639462.html
p6
aVhttps://www.clarin.com/politica/Proyecto-transparentar-adjudicaciones-obras-publicas_0_1606639441.html
p7
aVhttps://www.clarin.com/politica/Proyecto-transparentar-adjudicaciones-obras-publicas_0_1606639441.html
p8
aVhttps://www.clarin.com/ieco/mejorias-tamberos-bonaerenses-vuelven-protestas_0_1606639424.html
p9
aVhttps://www.clarin.com/ieco/mejorias-tamberos-bonaerenses-vuelven-protestas_0_1606639424.html
p10
aVhttps://www.clarin.com/ieco/Personal-domestico-mes-aporte-aumenta_0_1606639442.html
p11
a.