(lp0
S'https://www.clarin.com/sociedad/foodie-record-comio-restaurantes-mundo_0_1680431972.html'
p1
aS'https://www.clarin.com/sociedad/foodie-record-comio-restaurantes-mundo_0_1680431972.html'
p2
aS'https://www.clarin.com/sociedad/ve-eclipse-solar-espacio_0_1680431968.html'
p3
aS'https://www.clarin.com/sociedad/ve-eclipse-solar-espacio_0_1680431968.html'
p4
aS'https://www.clarin.com/sociedad/Buscan-prefecto-medio-tormenta-Formosa_0_1680431967.html'
p5
aS'https://www.clarin.com/sociedad/ONU-reducir-emisiones-invernadero-tragedia_0_1680431961.html'
p6
aS'https://www.clarin.com/sociedad/ONU-reducir-emisiones-invernadero-tragedia_0_1680431961.html'
p7
aS'https://www.clarin.com/politica/Rechazan-incluir-Presupuesto-legisladores-Parlasur_0_1680431960.html'
p8
aS'https://www.clarin.com/politica/Rechazan-incluir-Presupuesto-legisladores-Parlasur_0_1680431960.html'
p9
a.