(lp0
Vhttps://www.clarin.com/sociedad/Suspenden-Luna-Park-reprograman-agosto_0_1601839898.html
p1
aVhttps://www.clarin.com/sociedad/Suspenden-Luna-Park-reprograman-agosto_0_1601839898.html
p2
aVhttps://www.clarin.com/sociedad/barrio-cumplirle-sueno-tener-fiesta_0_1601839900.html
p3
aVhttps://www.clarin.com/sociedad/grieta-pasarelas-supermodelos-perras-momento_0_1601839878.html
p4
aVhttps://www.clarin.com/sociedad/grieta-pasarelas-supermodelos-perras-momento_0_1601839878.html
p5
aVhttps://www.clarin.com/politica/martes-Mallo-entrega-justicia-abogado_0_1601839894.html
p6
aVhttps://www.clarin.com/politica/martes-Mallo-entrega-justicia-abogado_0_1601839894.html
p7
aVhttps://www.clarin.com/politica/Leonardo-Farina-visto-lujoso-restoran_0_1601839893.html
p8
aVhttps://www.clarin.com/politica/Leonardo-Farina-visto-lujoso-restoran_0_1601839893.html
p9
aVhttps://www.clarin.com/politica/Urtubey-respaldo-Reforma-Politica-Gobierno_0_1601839892.html
p10
a.