(lp0
Vhttps://www.clarin.com/sociedad/vuelo-turbulencia-primera-persona_0_1590441051.html
p1
aVhttps://www.clarin.com/sociedad/vuelo-turbulencia-primera-persona_0_1590441051.html
p2
aVhttps://www.clarin.com/politica/Polemica-pensiones-presidenciales-cobra-Cristina_0_1590441081.html
p3
aVhttps://www.clarin.com/politica/Polemica-pensiones-presidenciales-cobra-Cristina_0_1590441081.html
p4
aVhttps://www.clarin.com/sociedad/diagnosticaron-muerte-cerebral-acido-error_0_1590441079.html
p5
aVhttps://www.clarin.com/politica/Comer-Casa-Rosada-aumento-ciento_0_1590441076.html
p6
aVhttps://www.clarin.com/politica/Comer-Casa-Rosada-aumento-ciento_0_1590441076.html
p7
aVhttps://www.clarin.com/politica/Fernando-Espinoza-peronismo-contando-billetes_0_1590441075.html
p8
aVhttps://www.clarin.com/politica/Fernando-Espinoza-peronismo-contando-billetes_0_1590441075.html
p9
a.