(lp0
S'https://www.clarin.com/politica/Aranguren-audiencias-publicas-genuinos-politicos_0_1653434834.html'
p1
aS'https://www.clarin.com/sociedad/jovenes-riesgo-desercion-falta-trabajo_0_1653434829.html'
p2
aS'https://www.clarin.com/ieco/Importaciones-ganancia-ve_0_1654034584.html'
p3
aS'https://www.clarin.com/politica/Dan-contenido-hallado-telefonos-Lopez_0_1654034588.html'
p4
aS'https://www.clarin.com/sociedad/Jornada-extendida-horas-clase-escuelas_0_1653434826.html'
p5
aS'https://www.clarin.com/sociedad/necesitan-politicas-publicas-apoyen_0_1653434828.html'
p6
aS'https://www.clarin.com/ieco/economia/Sturzenegger-batalla-inflacion-recien-comienza_0_1653434800.html'
p7
aS'https://www.clarin.com/opinion/Basta-salud-axioma-sabio_0_1654034585.html'
p8
aS'https://www.clarin.com/politica/formula-exportacion_0_1654034583.html'
p9
aS'https://www.clarin.com/politica/Champan-frances-Quinquela-dragon_0_1654034582.html'
p10
aS'https://www.clarin.com/politica/Hablo-DElia-Lanata-debatir-dirigente_0_1653434830.html'
p11
aS'https://www.clarin.com/sociedad/sistema-educativo-mire-afuera-aulas_0_1653434827.html'
p12
a.