(lp0
S'https://www.clarin.com/sociedad/velocista-argentino-gustaria-tener-competidores_0_1597640283.html'
p1
aS'https://www.clarin.com/politica/Realizan-manana-allanamiento-Lopez-Tigre_0_1597640280.html'
p2
aS'https://www.clarin.com/sociedad/Topolino-cumple-fanaticos-impiden-jubilacion_0_1597640279.html'
p3
aS'https://www.clarin.com/sociedad/Buscando-certezas_0_1597040407.html'
p4
a.