(lp0
Vhttps://www.clarin.com/opinion/vive-jubilacion_0_1569443212.html
p1
aVhttps://www.clarin.com/sociedad/Afirman-evitaran-ano-muertes-infartos_0_1569443218.html
p2
aVhttps://www.clarin.com/sociedad/Afirman-evitaran-ano-muertes-infartos_0_1569443218.html
p3
aVhttps://www.clarin.com/politica/Barrionuevo-Cristina-va-presa-duda_0_1569443220.html
p4
aVhttps://www.clarin.com/politica/Barrionuevo-Cristina-va-presa-duda_0_1569443220.html
p5
aVhttps://www.clarin.com/sociedad/Citan-prefectos-tragedia-Time-Warp_0_1569443189.html
p6
aVhttps://www.clarin.com/sociedad/Citan-prefectos-tragedia-Time-Warp_0_1569443189.html
p7
aVhttps://www.clarin.com/sociedad/Separaron-bebas-siamesas-Hospital-Posadas_0_1569443206.html
p8
aVhttps://www.clarin.com/sociedad/Separaron-bebas-siamesas-Hospital-Posadas_0_1569443206.html
p9
a.