(lp0
S'https://www.clarin.com/sociedad/Pedro-Aznar-Typoe-Clarin-VR_0_1630637101.html'
p1
aS'https://www.clarin.com/ieco/economia/oficina-papel_0_1631836829.html'
p2
aS'https://www.clarin.com/opinion/Vino-asado-ritual-amistad_0_1631236981.html'
p3
aS'https://www.clarin.com/ieco/economia/Ahora-cuotas_0_1631836847.html'
p4
aS'https://www.clarin.com/ieco/Anticipo-reactivacion-permisos-construir_0_1631237009.html'
p5
aS'https://www.clarin.com/politica/Macri-manos-condena-oportunidad_0_1631237016.html'
p6
aS'https://www.clarin.com/opinion/hoy-clase-media_0_1631236983.html'
p7
aS'https://www.clarin.com/politica/Brasil-viene-marchando_0_1631237007.html'
p8
aS'https://www.clarin.com/ieco/economia/mercado-argentino-brujula-dificil-seguir_0_1631836844.html'
p9
aS'https://www.clarin.com/politica/Revelan-actas-adulteradas-hoteles-Kirchner_0_1631237003.html'
p10
aS'https://www.clarin.com/ieco/economia/planes-Hasbro-Mattel-sacuden-juguete_0_1631836848.html'
p11
aS'https://www.clarin.com/ieco/economia/Havanna-agranda-operacion_0_1631836826.html'
p12
aS'https://www.clarin.com/ieco/economia/mirada-blanqueo-fiscal_0_1631836846.html'
p13
aS'https://www.clarin.com/politica/susto-Gobierno-acelera-compra-avion_0_1631236956.html'
p14
a.