(lp0
Vhttps://www.clarin.com/sociedad/horas-diferencia-murieron-parapentistas-accidentes_0_1657034374.html
p1
aVhttps://www.clarin.com/sociedad/horas-diferencia-murieron-parapentistas-accidentes_0_1657034374.html
p2
aVhttps://www.clarin.com/sociedad/Conmocion-China-madre-silla-morir_0_1657034360.html
p3
aVhttps://www.clarin.com/sociedad/Conmocion-China-madre-silla-morir_0_1657034360.html
p4
aVhttps://www.clarin.com/politica/German-Garavano-anos-tema-minimizo_0_1657034370.html
p5
aVhttps://www.clarin.com/politica/German-Garavano-anos-tema-minimizo_0_1657034370.html
p6
aVhttps://www.clarin.com/sociedad/Buscan-mujeres-desaparecieron-Mendoza_0_1657034368.html
p7
aVhttps://www.clarin.com/sociedad/Buscan-mujeres-desaparecieron-Mendoza_0_1657034368.html
p8
aVhttps://www.clarin.com/politica/sindical-duro-Macri-mentalidad-patron_0_1657034366.html
p9
aVhttps://www.clarin.com/politica/sindical-duro-Macri-mentalidad-patron_0_1657034366.html
p10
aVhttps://www.clarin.com/politica/Macri-balance-ONU-anuncio-inversiones_0_1657034363.html
p11
aVhttps://www.clarin.com/politica/Macri-balance-ONU-anuncio-inversiones_0_1657034363.html
p12
aVhttps://www.clarin.com/sociedad/futbol-encima-ahora-pelea-vida_0_1657034361.html
p13
aVhttps://www.clarin.com/sociedad/futbol-encima-ahora-pelea-vida_0_1657034361.html
p14
aVhttps://www.clarin.com/sociedad/Francella-escuela-crisis-podria-cerrar_0_1657034362.html
p15
aVhttps://www.clarin.com/sociedad/Francella-escuela-crisis-podria-cerrar_0_1657034362.html
p16
a.