(lp0
Vhttps://www.clarin.com/politica/Tension-Moreno-enfrentamientos-policias-heridos_0_1640236109.html
p1
aVhttps://www.clarin.com/politica/Tension-Moreno-enfrentamientos-policias-heridos_0_1640236109.html
p2
a.