(lp0
S'https://www.clarin.com/politica/Corte-Suprema-millones-reservas_0_1654634649.html'
p1
aS'https://www.clarin.com/politica/Investigan-millonarias-irregularidades-Cristina-Kirchner_0_1654634658.html'
p2
aS'https://www.clarin.com/ieco/economia/Empiezan-recuperarse-prestamos-consumo_0_1654634651.html'
p3
aS'https://www.clarin.com/politica/Carrio-denuncias-politicos-empresarios-Anibal_0_1654634706.html'
p4
aS'https://www.clarin.com/ieco/economia/Aeropuertos-detras-fachadas-ocultan-problemas_0_1654634689.html'
p5
a.