(lp0
Vhttps://www.clarin.com/opinion/Venas-solidarias-suman-vida_0_1612038938.html
p1
aVhttps://www.clarin.com/politica/Aranguren-defendio-tope-tarifa-renuncia_0_1612038991.html
p2
aVhttps://www.clarin.com/politica/Aranguren-defendio-tope-tarifa-renuncia_0_1612038991.html
p3
aVhttps://www.clarin.com/politica/video-revela-monja-Lopez-entrar_0_1612038988.html
p4
aVhttps://www.clarin.com/politica/video-revela-monja-Lopez-entrar_0_1612038988.html
p5
aVhttps://www.clarin.com/politica/conflictos-deudas-intervienen-radio-America_0_1612038987.html
p6
aVhttps://www.clarin.com/politica/conflictos-deudas-intervienen-radio-America_0_1612038987.html
p7
aVhttps://www.clarin.com/politica/claves-entender-crisis-gas_0_1612038986.html
p8
aVhttps://www.clarin.com/politica/Gobierno-apelo-manana-rige-tope_0_1612038985.html
p9
aVhttps://www.clarin.com/politica/Confirman-Macri-integrado-offshore-Panama_0_1612038980.html
p10
aVhttps://www.clarin.com/politica/Confirman-Macri-integrado-offshore-Panama_0_1612038980.html
p11
a.