(lp0
S'https://www.clarin.com/politica/Corte-Gobierno-audiencia-publica-septiembre_0_1634836516.html'
p1
aS'https://www.clarin.com/ieco/economia/Empresarios-cruzaron-Chile-negocios-inflacion_0_1634236706.html'
p2
aS'https://www.clarin.com/ieco/economia/Crisis-firmas-servicios-petroleros_0_1634236710.html'
p3
aS'https://www.clarin.com/ieco/economia/demanda-dolar-volvio-colocarse-encima_0_1634236707.html'
p4
aS'https://www.clarin.com/sociedad/heridos-volcar-micro-Alberti_0_1634836517.html'
p5
aS'https://www.clarin.com/ieco/economia/Jumbo-nuevo-formato-locales-pequenos_0_1634236719.html'
p6
aS'https://www.clarin.com/ieco/empresas-insisten-operaciones-corren-riesgo_0_1634236778.html'
p7
a.