(lp0
S'https://www.clarin.com/ieco/Equilibrio-credibilidad-flexibilidad-Central-inflacion_0_1653434734.html'
p1
aS'https://www.clarin.com/ieco/Equilibrio-credibilidad-flexibilidad-Central-inflacion_0_1653434734.html'
p2
aS'https://www.clarin.com/sociedad/Video-borracho-salio-boliche-destrozo_0_1653434733.html'
p3
aS'https://www.clarin.com/sociedad/Video-borracho-salio-boliche-destrozo_0_1653434733.html'
p4
aS'https://www.clarin.com/politica/Macri-Clinton-Jovi-Andrea-Bocelli_0_1653434732.html'
p5
aS'https://www.clarin.com/politica/Macri-Clinton-Jovi-Andrea-Bocelli_0_1653434732.html'
p6
aS'https://www.clarin.com/politica/album-polemico-Papa-Francisco_0_1651634839.html'
p7
aS'https://www.clarin.com/politica/album-polemico-Papa-Francisco_0_1651634839.html'
p8
aS'https://www.clarin.com/sociedad/Gano-tragamonedas-Justicia-reconocio-completo_0_1653434729.html'
p9
aS'https://www.clarin.com/sociedad/Gano-tragamonedas-Justicia-reconocio-completo_0_1653434729.html'
p10
aS'https://www.clarin.com/politica/chiste-Macri-alcalde-Londres_0_1653434728.html'
p11
aS'https://www.clarin.com/politica/chiste-Macri-alcalde-Londres_0_1653434728.html'
p12
aS'https://www.clarin.com/ieco/Disponen-Letras-Tesoro-US-millones_0_1653434727.html'
p13
aS'https://www.clarin.com/ieco/Disponen-Letras-Tesoro-US-millones_0_1653434727.html'
p14
aS'https://www.clarin.com/ieco/Reparacion-Historica-contrato-firmar-jubilados_0_1653434724.html'
p15
aS'https://www.clarin.com/ieco/Reparacion-Historica-contrato-firmar-jubilados_0_1653434724.html'
p16
a.