(lp0
Vhttps://www.clarin.com/politica/Abririan-nueva-causa-secretario-Kirchner_0_1552645180.html
p1
aVhttps://www.clarin.com/politica/Abririan-nueva-causa-secretario-Kirchner_0_1552645180.html
p2
aVhttps://www.clarin.com/politica/Grindetti-delito-tener-empresa-fantasma_0_1552645183.html
p3
aVhttps://www.clarin.com/politica/Cristobal-Lopez-ganancias-vinculada-Baez_0_1552645173.html
p4
aVhttps://www.clarin.com/politica/Macri-director-empresa-fantasma-Panama_0_1552645198.html
p5
aVhttps://www.clarin.com/politica/Macri-director-empresa-fantasma-Panama_0_1552645198.html
p6
aVhttps://www.clarin.com/politica/Mal-momento-tropiezo_0_1553244683.html
p7
aVhttps://www.clarin.com/politica/Mal-momento-tropiezo_0_1553244683.html
p8
aVhttps://www.clarin.com/opinion/Macri-transparencia-debida_0_1553244681.html
p9
aVhttps://www.clarin.com/opinion/Obligatoriedad-escolar-calidad-educativa_0_1552645130.html
p10
aVhttps://www.clarin.com/opinion/Internet-precondicion-democracia_0_1552645133.html
p11
aVhttps://www.clarin.com/opinion/Politicas-publicas-felicidad-nacional_0_1552645127.html
p12
aVhttps://www.clarin.com/opinion/Politicas-publicas-felicidad-nacional_0_1552645127.html
p13
aVhttps://www.clarin.com/politica/designacion-jueces-Corte-trabo-Senado_0_1552645152.html
p14
aVhttps://www.clarin.com/politica/Conflicto-Canal-despedidos_0_1552645159.html
p15
a.