(lp0
Vhttps://www.clarin.com/sociedad/Nobel-Fisica-Thouless-Haldane-Kosterlitz_0_1662433753.html
p1
aVhttps://www.clarin.com/sociedad/Nobel-Fisica-Thouless-Haldane-Kosterlitz_0_1662433753.html
p2
aVhttps://www.clarin.com/ieco/economia/tension-gremial-vuelos-Roma-siguen_0_1661833944.html
p3
aVhttps://www.clarin.com/ieco/economia/tension-gremial-vuelos-Roma-siguen_0_1661833944.html
p4
aVhttps://www.clarin.com/ieco/economia/Macri-anuncio-rebaja-gradual-retenciones_0_1661833916.html
p5
aVhttps://www.clarin.com/ieco/economia/Macri-anuncio-rebaja-gradual-retenciones_0_1661833916.html
p6
aVhttps://www.clarin.com/politica/Macri-Temer-acordaron-potenciar-Mercosur_0_1661833915.html
p7
aVhttps://www.clarin.com/politica/Macri-Temer-acordaron-potenciar-Mercosur_0_1661833915.html
p8
aVhttps://www.clarin.com/politica/Frigerio-defiende-plan-obras-publicas_0_1661833959.html
p9
aVhttps://www.clarin.com/ieco/economia/recaudacion-crecio-septiembre-perdio-inflacion_0_1661833958.html
p10
aVhttps://www.clarin.com/ieco/Polemica-Prat-Gay-bancos-blanqueo_0_1661833927.html
p11
aVhttps://www.clarin.com/ieco/Polemica-Prat-Gay-bancos-blanqueo_0_1661833927.html
p12
aVhttps://www.clarin.com/ieco/economia/Subio-venta-autos-septiembre_0_1661833885.html
p13
aVhttps://www.clarin.com/ieco/economia/Subio-venta-autos-septiembre_0_1661833885.html
p14
a.