(lp0
Vhttps://www.clarin.com/politica/fiscal-investigar-Pena-datos-ANSES_0_1640835942.html
p1
aVhttps://www.clarin.com/politica/fiscal-investigar-Pena-datos-ANSES_0_1640835942.html
p2
aVhttps://www.clarin.com/sociedad/Pasaron-aislados-simular-mision-Marte_0_1640835938.html
p3
aVhttps://www.clarin.com/sociedad/Pasaron-aislados-simular-mision-Marte_0_1640835938.html
p4
aVhttps://www.clarin.com/ieco/Prat-Gay-mejor-cambiabamos-rumbo_0_1640835934.html
p5
aVhttps://www.clarin.com/ieco/Prat-Gay-mejor-cambiabamos-rumbo_0_1640835934.html
p6
aVhttps://www.clarin.com/politica/Preocupado-imagen-gestion-Macri-Conurbano_0_1640835930.html
p7
aVhttps://www.clarin.com/politica/Preocupado-imagen-gestion-Macri-Conurbano_0_1640835930.html
p8
aVhttps://www.clarin.com/ieco/Rodean-Aranguren-expertos-definir-tarifas_0_1640835927.html
p9
aVhttps://www.clarin.com/ieco/Rodean-Aranguren-expertos-definir-tarifas_0_1640835927.html
p10
a.