(lp0
S'https://www.clarin.com/sociedad/tragedia-Costa-agustin-aparecio-muerto_0_1500450302.html'
p1
aS'https://www.clarin.com/ieco/empresas-y-negocios/Polemica-Uber-personal-instalarse-Argentina_0_1500450281.html'
p2
aS'https://www.clarin.com/ieco/economia/dolar-baja-centavo_0_1500450222.html'
p3
a.