(lp0
Vhttps://www.clarin.com/sociedad/osito-polar-nueva-estrella-redes_0_1499250282.html
p1
aVhttps://www.clarin.com/sociedad/osito-polar-nueva-estrella-redes_0_1499250282.html
p2
aVhttps://www.clarin.com/sociedad/padre-Maxima-internado-Bariloche-jorge_zorreguieta_0_1499250301.html
p3
aVhttps://www.clarin.com/sociedad/padre-Maxima-internado-Bariloche-jorge_zorreguieta_0_1499250301.html
p4
aVhttps://www.clarin.com/ieco/ARBA-Fosatti-Vidal-recaudacion_0_1499250297.html
p5
aVhttps://www.clarin.com/ieco/ARBA-Fosatti-Vidal-recaudacion_0_1499250297.html
p6
aVhttps://www.clarin.com/politica/Murio-Maria-Lorenza-Barrenechea-Alfonsi_0_1499250292.html
p7
aVhttps://www.clarin.com/politica/Murio-Maria-Lorenza-Barrenechea-Alfonsi_0_1499250292.html
p8
aVhttps://www.clarin.com/politica/falbo-fuga-triple_crimen_0_1499250294.html
p9
aVhttps://www.clarin.com/sociedad/toda-Bahia-Blanca-agua_0_1499250283.html
p10
aVhttps://www.clarin.com/sociedad/toda-Bahia-Blanca-agua_0_1499250283.html
p11
aVhttps://www.clarin.com/sociedad/Milagro-Rawson-lograron-reanimar-pileta_0_1499250265.html
p12
aVhttps://www.clarin.com/sociedad/Milagro-Rawson-lograron-reanimar-pileta_0_1499250265.html
p13
aVhttps://www.clarin.com/ieco/dolar-mayorista-minorista-banco_central-cerealeras_0_1499250276.html
p14
aVhttps://www.clarin.com/ieco/dolar-mayorista-minorista-banco_central-cerealeras_0_1499250276.html
p15
aVhttps://www.clarin.com/politica/Macri-realiza-chequeo-sanatorio-porteno_0_1499250191.html
p16
aVhttps://www.clarin.com/politica/Macri-realiza-chequeo-sanatorio-porteno_0_1499250191.html
p17
aVhttps://www.clarin.com/politica/Nuevos-operativos-ubicar-profugos-interior_0_1499250268.html
p18
aVhttps://www.clarin.com/politica/Nuevos-operativos-ubicar-profugos-interior_0_1499250268.html
p19
a.