(lp0
S'https://www.clarin.com/sociedad/OMS-poblacion-mundial-respira-contaminado_0_1658234298.html'
p1
aS'https://www.clarin.com/sociedad/OMS-poblacion-mundial-respira-contaminado_0_1658234298.html'
p2
aS'https://www.clarin.com/sociedad/Nacio-padres-traves-nueva-tecnica_0_1658234320.html'
p3
aS'https://www.clarin.com/sociedad/Nacio-padres-traves-nueva-tecnica_0_1658234320.html'
p4
aS'https://www.clarin.com/sociedad/Presentan-alucinante-plan-colonizacion-Marte_0_1658234308.html'
p5
aS'https://www.clarin.com/sociedad/Presentan-alucinante-plan-colonizacion-Marte_0_1658234308.html'
p6
aS'https://www.clarin.com/ieco/economia/actividad-economica-cayo-julio_0_1658234325.html'
p7
aS'https://www.clarin.com/politica/Volvieron-rechazar-investigar-denuncia-Nisman_0_1658234321.html'
p8
aS'https://www.clarin.com/politica/Volvieron-rechazar-investigar-denuncia-Nisman_0_1658234321.html'
p9
aS'https://www.clarin.com/ieco/economia/Bolsa-energeticas-continuo-tendencia-alcista_0_1658234319.html'
p10
aS'https://www.clarin.com/ieco/economia/Bolsa-energeticas-continuo-tendencia-alcista_0_1658234319.html'
p11
aS'https://www.clarin.com/ieco/Balanza-comercial-superavit-US-millones_0_1658234318.html'
p12
a.