(lp0
S'https://www.clarin.com/sociedad/refugiada-llega-preparan-fiesta-recibirla_0_1613838678.html'
p1
aS'https://www.clarin.com/sociedad/refugiada-llega-preparan-fiesta-recibirla_0_1613838678.html'
p2
aS'https://www.clarin.com/politica/fiscal-Cristina-oculto-dinero-Florencia_0_1613838676.html'
p3
aS'https://www.clarin.com/politica/fiscal-Cristina-oculto-dinero-Florencia_0_1613838676.html'
p4
aS'https://www.clarin.com/ieco/economia/Sobreseyeron-Sturzenegger-despeja-Senado-apruebe_0_1613838672.html'
p5
aS'https://www.clarin.com/ieco/economia/Sobreseyeron-Sturzenegger-despeja-Senado-apruebe_0_1613838672.html'
p6
aS'https://www.clarin.com/sociedad/argentino-detras-importante-hallazgo-astronomico_0_1613838669.html'
p7
aS'https://www.clarin.com/sociedad/argentino-detras-importante-hallazgo-astronomico_0_1613838669.html'
p8
aS'https://www.clarin.com/politica/testimonio-cerrajero-abrio-seguridad-Flor_0_1613838670.html'
p9
aS'https://www.clarin.com/politica/testimonio-cerrajero-abrio-seguridad-Flor_0_1613838670.html'
p10
aS'https://www.clarin.com/politica/Duras-criticas-ONU-politica-derechos_0_1613838667.html'
p11
aS'https://www.clarin.com/politica/Duras-criticas-ONU-politica-derechos_0_1613838667.html'
p12
a.