(lp0
Vhttps://www.clarin.com/sociedad/Pelea-chicas-Mendoza_0_1512448943.html
p1
aVhttps://www.clarin.com/sociedad/Pelea-chicas-Mendoza_0_1512448943.html
p2
aVhttps://www.clarin.com/sociedad/insolita-foto-remera-enloqueciendo-Internet_0_1512448940.html
p3
aVhttps://www.clarin.com/sociedad/insolita-foto-remera-enloqueciendo-Internet_0_1512448940.html
p4
aVhttps://www.clarin.com/sociedad/Espana-torero-salio-ruedo-brazos_0_1512448937.html
p5
aVhttps://www.clarin.com/sociedad/Espana-torero-salio-ruedo-brazos_0_1512448937.html
p6
aVhttps://www.clarin.com/ieco/economia/carniceros-rechazan-responsabilidad-suba-carne_0_1512448934.html
p7
aVhttps://www.clarin.com/ieco/economia/carniceros-rechazan-responsabilidad-suba-carne_0_1512448934.html
p8
aVhttps://www.clarin.com/politica/Estela-Carlotto-Cristina-amiga_0_1512448932.html
p9
aVhttps://www.clarin.com/politica/Estela-Carlotto-Cristina-amiga_0_1512448932.html
p10
aVhttps://www.clarin.com/politica/Papa-recibira-presidente-Macri-febrero_0_1512448924.html
p11
aVhttps://www.clarin.com/politica/Papa-recibira-presidente-Macri-febrero_0_1512448924.html
p12
aVhttps://www.clarin.com/ieco/economia/Facebook-gano-US-millones_0_1512448918.html
p13
aVhttps://www.clarin.com/ieco/economia/Facebook-gano-US-millones_0_1512448918.html
p14
a.