(lp0
S'https://www.clarin.com/ieco/economia/Mix-energetico-petroleo-uranio_0_1598240203.html'
p1
aS'https://www.clarin.com/ieco/economia/conflictos-Argentina-pobres-ganan_0_1598240202.html'
p2
aS'https://www.clarin.com/ieco/economia/Llego-transformar-sistema-Riesgos-Trabajo_0_1598240200.html'
p3
aS'https://www.clarin.com/ieco/economia/Llego-transformar-sistema-Riesgos-Trabajo_0_1598240200.html'
p4
aS'https://www.clarin.com/ieco/economia/anticipo-tormentas-economicas_0_1598240199.html'
p5
aS'https://www.clarin.com/ieco/economia/profundizan-problemas-atraso-tipo-cambio_0_1598240198.html'
p6
aS'https://www.clarin.com/ieco/economia/temas-controversiales-ultimos-paquetes-tributarios_0_1598240197.html'
p7
aS'https://www.clarin.com/ieco/economia/temas-controversiales-ultimos-paquetes-tributarios_0_1598240197.html'
p8
aS'https://www.clarin.com/ieco/economia/inflacion-comenzaria-dar-senales-moderacion_0_1598240196.html'
p9
aS'https://www.clarin.com/ieco/economia/innovacion-clave-China_0_1598240195.html'
p10
aS'https://www.clarin.com/ieco/economia/innovacion-clave-China_0_1598240195.html'
p11
aS'https://www.clarin.com/ieco/economia/Anticipan-demanda-petroleo-llegaran-equilibrio_0_1598240194.html'
p12
aS'https://www.clarin.com/ieco/economia/Anticipan-demanda-petroleo-llegaran-equilibrio_0_1598240194.html'
p13
aS'https://www.clarin.com/politica/quedarse-calle-retiran-homenajeaba-Vido_0_1597640403.html'
p14
aS'https://www.clarin.com/politica/quedarse-calle-retiran-homenajeaba-Vido_0_1597640403.html'
p15
a.