(lp0
Vhttps://www.clarin.com/sociedad/Time-Warp-Massa-conocer-Stinfale_0_1579642133.html
p1
aVhttps://www.clarin.com/sociedad/Time-Warp-Massa-conocer-Stinfale_0_1579642133.html
p2
aVhttps://www.clarin.com/politica/Malcorra-ratifico-China-publicas-Neuquen_0_1579642141.html
p3
aVhttps://www.clarin.com/politica/Macri-anuncio-prestamo-BID-antidespidos_0_1579642142.html
p4
aVhttps://www.clarin.com/politica/Macri-anuncio-prestamo-BID-antidespidos_0_1579642142.html
p5
aVhttps://www.clarin.com/politica/oposicion-Justicia-tarifazo-gas_0_1579642137.html
p6
aVhttps://www.clarin.com/politica/oposicion-Justicia-tarifazo-gas_0_1579642137.html
p7
aVhttps://www.clarin.com/politica/presidencial-Ernesto-Sanz-premio-internacional_0_1579642135.html
p8
aVhttps://www.clarin.com/politica/presidencial-Ernesto-Sanz-premio-internacional_0_1579642135.html
p9
aVhttps://www.clarin.com/sociedad/colas-famosas-Instagram-argentinas_0_1579642128.html
p10
aVhttps://www.clarin.com/sociedad/colas-famosas-Instagram-argentinas_0_1579642128.html
p11
a.