(lp0
S'https://www.clarin.com/politica/Congreso-oficializo-designacion-Lamberto-AGN_0_1633636811.html'
p1
aS'https://www.clarin.com/politica/Congreso-oficializo-designacion-Lamberto-AGN_0_1633636811.html'
p2
aS'https://www.clarin.com/politica/Nueva-amenaza-bomba-Casa-Rosada_0_1633636817.html'
p3
aS'https://www.clarin.com/sociedad/Increible-Hospital-Clinicas-fuselaje-avion_0_1633636809.html'
p4
aS'https://www.clarin.com/sociedad/Increible-Hospital-Clinicas-fuselaje-avion_0_1633636809.html'
p5
aS'https://www.clarin.com/sociedad/Trataran-quitarle-Rosana-Galliano-tenencia_0_1633636805.html'
p6
aS'https://www.clarin.com/sociedad/Trataran-quitarle-Rosana-Galliano-tenencia_0_1633636805.html'
p7
aS'https://www.clarin.com/sociedad/ciencia-argentina-abierta-mundo_0_1633636802.html'
p8
aS'https://www.clarin.com/sociedad/ciencia-argentina-abierta-mundo_0_1633636802.html'
p9
aS'https://www.clarin.com/politica/Gobierno-dispuesto-asumir-presidencia-Mercosur_0_1633636783.html'
p10
aS'https://www.clarin.com/politica/Gobierno-dispuesto-asumir-presidencia-Mercosur_0_1633636783.html'
p11
a.