(lp0
Vhttps://www.clarin.com/politica/Comisario_Julian-Faraon-escucha-bonaerense_0_1504049842.html
p1
aVhttps://www.clarin.com/politica/Comisario_Julian-Faraon-escucha-bonaerense_0_1504049842.html
p2
aVhttps://www.clarin.com/politica/Cordoba-Michetti-defendio-cambios-controlar_0_1504049834.html
p3
aVhttps://www.clarin.com/politica/Cordoba-Michetti-defendio-cambios-controlar_0_1504049834.html
p4
aVhttps://www.clarin.com/politica/Presupuesto-Buenos_Aires-Maria_Eugenia_Vidal-Frente_para_la_Victoria-Diputados_0_1504049838.html
p5
aVhttps://www.clarin.com/politica/Presupuesto-Buenos_Aires-Maria_Eugenia_Vidal-Frente_para_la_Victoria-Diputados_0_1504049838.html
p6
aVhttps://www.clarin.com/sociedad/Confirman-caso-zika-Santa-Fe_0_1504049822.html
p7
aVhttps://www.clarin.com/sociedad/Confirman-caso-zika-Santa-Fe_0_1504049822.html
p8
aVhttps://www.clarin.com/ieco/empresas-y-negocios/Rio-Negro-regalan-quiera-llevar_0_1504049820.html
p9
aVhttps://www.clarin.com/ieco/empresas-y-negocios/Rio-Negro-regalan-quiera-llevar_0_1504049820.html
p10
a.