(lp0
S'https://www.clarin.com/politica/Corte-informe-Gobierno-tarifas-gas_0_1624637665.html'
p1
aS'https://www.clarin.com/politica/Duras-criticas-opositoras-diputados-tarifazo_0_1624637721.html'
p2
aS'https://www.clarin.com/ieco/Autos-inmuebles-brotes-verdes-parate_0_1624637662.html'
p3
aS'https://www.clarin.com/politica/apuntan-reapertura-denuncia-Nisman-Cristina_0_1624637705.html'
p4
aS'https://www.clarin.com/politica/Atravesar-agosto-desafio-Macri_0_1625237465.html'
p5
aS'https://www.clarin.com/ieco/economia/Banco-Central-tasa-quedo_0_1624637668.html'
p6
aS'https://www.clarin.com/ieco/Recuerdos-crisis-arranco-eliminacion-Patacones_0_1624637674.html'
p7
aS'https://www.clarin.com/sociedad/calvario-Vanessa-miedo-vivir-preso_0_1624637723.html'
p8
aS'https://www.clarin.com/opinion/dar-prioridad-fin-victimas-delitos_0_1624637666.html'
p9
aS'https://www.clarin.com/politica/Macri-lanzo-cobertura-salud-social_0_1624637730.html'
p10
aS'https://www.clarin.com/politica/cerca-reapertura-frente-judicial-presidenta_0_1624637701.html'
p11
a.