(lp0
S'https://www.clarin.com/politica/Misiones-Frigerio-reune-gobernadores-Cordoba_0_1578442344.html'
p1
aS'https://www.clarin.com/sociedad/revolucion-maraton-avanza-ritmo-escepticismo_0_1578442292.html'
p2
aS'https://www.clarin.com/opinion/Presidente-fuego-Eliseo_0_1579042086.html'
p3
aS'https://www.clarin.com/opinion/Publico-privado-turismo-alianza-posible_0_1578442303.html'
p4
aS'https://www.clarin.com/ieco/economia/Monsanto-suspende-nuevos-lanzamientos-semillas_0_1578442273.html'
p5
aS'https://www.clarin.com/politica/Antidespidos-arranca-Gobierno-dejaria-Senado_0_1578442361.html'
p6
aS'https://www.clarin.com/opinion/objetivo-politico-ley_0_1579042084.html'
p7
aS'https://www.clarin.com/politica/Comenzo-historica-importacion-gas-Chile_0_1579042087.html'
p8
aS'https://www.clarin.com/ieco/familia-Macri-vendio-firma-Galileo_0_1578442269.html'
p9
aS'https://www.clarin.com/ieco/Dolar-retirar-comprar-titulos-publicos_0_1578442312.html'
p10
aS'https://www.clarin.com/opinion/buenas-soluciones-Macri_0_1579042085.html'
p11
a.