(lp0
Vhttps://www.clarin.com/ieco/economia/Todesca-bajar-inflacion-complicado-alimentos_0_1625837506.html
p1
aVhttps://www.clarin.com/ieco/economia/Todesca-bajar-inflacion-complicado-alimentos_0_1625837506.html
p2
aVhttps://www.clarin.com/politica/Tension-Madre-Plaza-Mayo-allanamiento_0_1625837502.html
p3
aVhttps://www.clarin.com/politica/Tension-Madre-Plaza-Mayo-allanamiento_0_1625837502.html
p4
aVhttps://www.clarin.com/sociedad/incendio-casa-murieron-mujer-hijos_0_1625837499.html
p5
aVhttps://www.clarin.com/sociedad/incendio-casa-murieron-mujer-hijos_0_1625837499.html
p6
aVhttps://www.clarin.com/politica/Sugestivo-Massa-Pena-Casa-Rosada_0_1625837496.html
p7
aVhttps://www.clarin.com/politica/Sugestivo-Massa-Pena-Casa-Rosada_0_1625837496.html
p8
aVhttps://www.clarin.com/ieco/economia/Empiezan-Patagonia-nuevas-facturas-aumento_0_1625837495.html
p9
aVhttps://www.clarin.com/ieco/economia/Empiezan-Patagonia-nuevas-facturas-aumento_0_1625837495.html
p10
a.