(lp0
S'https://www.clarin.com/ieco/economia/carry-trade-Brasil-convirtio-negocios_0_1497450456.html'
p1
aS'https://www.clarin.com/ieco/economia/puzzle-politica-economica_0_1497450458.html'
p2
aS'https://www.clarin.com/ieco/economia/mal-negocio-pedir-plata-organismos_0_1497450454.html'
p3
aS'https://www.clarin.com/ieco/economia/FMI-crecimiento-flojo-economia-mundial_0_1497450457.html'
p4
a.