(lp0
Vhttps://www.clarin.com/politica/Justicia-Tiempo-Argentino-investiga-porteno_0_1611438915.html
p1
aVhttps://www.clarin.com/politica/Justicia-Tiempo-Argentino-investiga-porteno_0_1611438915.html
p2
aVhttps://www.clarin.com/sociedad/Descubrieron-primer-cementerio-filisteo_0_1611438906.html
p3
aVhttps://www.clarin.com/sociedad/Descubrieron-primer-cementerio-filisteo_0_1611438906.html
p4
aVhttps://www.clarin.com/ieco/minimo-historico-esterlina-vuelve-subir_0_1611438911.html
p5
aVhttps://www.clarin.com/ieco/minimo-historico-esterlina-vuelve-subir_0_1611438911.html
p6
aVhttps://www.clarin.com/politica/Parrilli-respondio-Stiuso-psicopata-perverso_0_1611438908.html
p7
aVhttps://www.clarin.com/politica/Parrilli-respondio-Stiuso-psicopata-perverso_0_1611438908.html
p8
a.