(lp0
Vhttps://www.clarin.com/politica/carta-gremialista-procesado-periodista-Majul_0_1594040747.html
p1
aVhttps://www.clarin.com/politica/carta-gremialista-procesado-periodista-Majul_0_1594040747.html
p2
aVhttps://www.clarin.com/politica/Macri-jugo-final-evitar-derrota_0_1594040755.html
p3
aVhttps://www.clarin.com/politica/Macri-jugo-final-evitar-derrota_0_1594040755.html
p4
aVhttps://www.clarin.com/sociedad/Lejos-criaturas-ET-primitivos-subterraneos_0_1594040746.html
p5
aVhttps://www.clarin.com/sociedad/Lejos-criaturas-ET-primitivos-subterraneos_0_1594040746.html
p6
aVhttps://www.clarin.com/sociedad/chica-Tandil-desperto-dijo-violaron_0_1594040748.html
p7
a.