(lp0
Vhttps://www.clarin.com/sociedad/Alerta-Spotify-investigan-infeccion-servicio_0_1663033809.html
p1
aVhttps://www.clarin.com/sociedad/Alerta-Spotify-investigan-infeccion-servicio_0_1663033809.html
p2
aVhttps://www.clarin.com/sociedad/Hoja-azucar-formula-endulzar-chocolate_0_1663033803.html
p3
aVhttps://www.clarin.com/sociedad/Hoja-azucar-formula-endulzar-chocolate_0_1663033803.html
p4
aVhttps://www.clarin.com/ieco/Banco-Mundial-apoya-gradualismo-Gobierno_0_1663033801.html
p5
aVhttps://www.clarin.com/ieco/Banco-Mundial-apoya-gradualismo-Gobierno_0_1663033801.html
p6
a.