(lp0
S'https://www.clarin.com/sociedad/chicos-historias-primer-jardin-primaria_0_1530447337.html'
p1
aS'https://www.clarin.com/sociedad/chicos-historias-primer-jardin-primaria_0_1530447337.html'
p2
aS'https://www.clarin.com/sociedad/Mar-Plata-famosos-Espacio-Clarin_0_1530447348.html'
p3
aS'https://www.clarin.com/sociedad/Mar-Plata-famosos-Espacio-Clarin_0_1530447348.html'
p4
aS'https://www.clarin.com/opinion/Corrupcion-complices-futuro_0_1531046921.html'
p5
aS'https://www.clarin.com/sociedad/toca-bisiestos-manana-podran-festejar_0_1530447241.html'
p6
aS'https://www.clarin.com/sociedad/toca-bisiestos-manana-podran-festejar_0_1530447241.html'
p7
aS'https://www.clarin.com/opinion/brocha-gorda-fina-Macri_0_1531046918.html'
p8
aS'https://www.clarin.com/opinion/brocha-gorda-fina-Macri_0_1531046918.html'
p9
aS'https://www.clarin.com/opinion/Entretelones-pelicula-buitres_0_1531046916.html'
p10
aS'https://www.clarin.com/opinion/economia-global-pone-ansiosos_0_1530447277.html'
p11
aS'https://www.clarin.com/opinion/Chacarita-fantasmas-flores-marchitas_0_1529847410.html'
p12
aS'https://www.clarin.com/opinion/Chacarita-fantasmas-flores-marchitas_0_1529847410.html'
p13
aS'https://www.clarin.com/opinion/Petroleo-riesgos-depender-renta-energetica_0_1530447266.html'
p14
aS'https://www.clarin.com/opinion/Impulsar-energias-limpias-renovables_0_1530447272.html'
p15
aS'https://www.clarin.com/opinion/Alejandro-Aravena-modelador-vidas_0_1529847415.html'
p16
aS'https://www.clarin.com/opinion/Alejandro-Aravena-modelador-vidas_0_1529847415.html'
p17
aS'https://www.clarin.com/opinion/Pierpaolo-Barbieri-Guerra-Civil-ISIS_0_1529847422.html'
p18
aS'https://www.clarin.com/opinion/Pierpaolo-Barbieri-Guerra-Civil-ISIS_0_1529847422.html'
p19
a.