(lp0
Vhttps://www.clarin.com/politica/Obama-pasado-aseguran-Casa-Blanca_0_1542446150.html
p1
aVhttps://www.clarin.com/politica/Obama-pasado-aseguran-Casa-Blanca_0_1542446150.html
p2
aVhttps://www.clarin.com/ieco/economia/YPF-IRSA-salieron-juntaron-US_0_1542446129.html
p3
aVhttps://www.clarin.com/ieco/economia/YPF-IRSA-salieron-juntaron-US_0_1542446129.html
p4
aVhttps://www.clarin.com/politica/Indalo-presentara-informacion-adicional-horas_0_1542446100.html
p5
aVhttps://www.clarin.com/politica/Indalo-presentara-informacion-adicional-horas_0_1542446100.html
p6
aVhttps://www.clarin.com/sociedad/Subio-redes-hombre-manoseo-colectivo_0_1542446092.html
p7
aVhttps://www.clarin.com/sociedad/Subio-redes-hombre-manoseo-colectivo_0_1542446092.html
p8
a.