(lp0
S'https://www.clarin.com/sociedad/mundo-gordos-flacos_0_1550845314.html'
p1
aS'https://www.clarin.com/sociedad/Atendido-presos-exito-restaurante-carcel_0_1550845329.html'
p2
aS'https://www.clarin.com/ieco/economia/familias-baja-deuda-hogar-pesos_0_1550845279.html'
p3
aS'https://www.clarin.com/politica/estudio-molesta-gobiernos_0_1550845326.html'
p4
aS'https://www.clarin.com/ieco/economia/abril-autos-aumentan-promedio_0_1550845346.html'
p5
aS'https://www.clarin.com/ieco/Gas-consumen-mayores-aumentos_0_1550845387.html'
p6
aS'https://www.clarin.com/ieco/Expertos-hablan-arrastre-herencia_0_1550845390.html'
p7
aS'https://www.clarin.com/opinion/requiem-habito-saludo_0_1550845252.html'
p8
aS'https://www.clarin.com/ieco/economia/Gobierno-analizara-posicion-dominante-sectores_0_1550845373.html'
p9
aS'https://www.clarin.com/politica/Despues-fuerte-suba-tarifas-antiinflacionario_0_1550845369.html'
p10
a.