(lp0
Vhttps://www.clarin.com/politica/madre-profugos-pidio-favor-entregue_0_1498650410.html
p1
aVhttps://www.clarin.com/politica/madre-profugos-pidio-favor-entregue_0_1498650410.html
p2
aVhttps://www.clarin.com/politica/intendentes-peronistas-presionan-Presupuesto-Ottavis_0_1498650325.html
p3
aVhttps://www.clarin.com/politica/intendentes-peronistas-presionan-Presupuesto-Ottavis_0_1498650325.html
p4
aVhttps://www.clarin.com/sociedad/confirma-ciencia-persona-normal-asiento_0_1498650378.html
p5
aVhttps://www.clarin.com/sociedad/confirma-ciencia-persona-normal-asiento_0_1498650378.html
p6
aVhttps://www.clarin.com/politica/Domingo_Vera-represor-dictadura-supermercado-prision_domiciliaria-La_Rioja_0_1498650390.html
p7
aVhttps://www.clarin.com/politica/carreros-protestan-capital-tucumana_0_1498650384.html
p8
aVhttps://www.clarin.com/politica/carreros-protestan-capital-tucumana_0_1498650384.html
p9
a.