(lp0
Vhttps://www.clarin.com/sociedad/Video-vuela-drone-llevar-persona_0_1500450141.html
p1
aVhttps://www.clarin.com/sociedad/Video-vuela-drone-llevar-persona_0_1500450141.html
p2
aVhttps://www.clarin.com/ieco/economia/Daimler-record-ventas-millones-autos_0_1500450171.html
p3
aVhttps://www.clarin.com/ieco/economia/Daimler-record-ventas-millones-autos_0_1500450171.html
p4
aVhttps://www.clarin.com/politica/Incidentes-frente-Municipalidad-Plata-contratos_0_1500450165.html
p5
aVhttps://www.clarin.com/politica/Incidentes-frente-Municipalidad-Plata-contratos_0_1500450165.html
p6
aVhttps://www.clarin.com/sociedad/muerte-carilo-cuatriciclo-intendente-pinamar-Martin_Yeza-chico_0_1500450139.html
p7
aVhttps://www.clarin.com/sociedad/muerte-carilo-cuatriciclo-intendente-pinamar-Martin_Yeza-chico_0_1500450139.html
p8
aVhttps://www.clarin.com/ieco/posteos-Twitter-revelan-nivel-ingresos_0_1500450153.html
p9
aVhttps://www.clarin.com/ieco/posteos-Twitter-revelan-nivel-ingresos_0_1500450153.html
p10
a.