(lp0
S'https://www.clarin.com/politica/mensaje-Cristina-abogado-hijos-Baez_0_1624637551.html'
p1
aS'https://www.clarin.com/politica/Arranca-Senado-tratamiento-ley-arrepentido_0_1624637557.html'
p2
aS'https://www.clarin.com/politica/Insolito-gobernador-escondieron-evitar-fotos_0_1624637559.html'
p3
aS'https://www.clarin.com/sociedad/DJ-acusado-secuestro-abuso-sobredimensiono_0_1624637550.html'
p4
aS'https://www.clarin.com/ieco/baja-impuestos-siente-recaudacion_0_1624637548.html'
p5
aS'https://www.clarin.com/ieco/Blanqueo-incluir-inmuebles-bienes_0_1624637544.html'
p6
aS'https://www.clarin.com/politica/denuncio-Vido-dadivas-evidencias-camaristas_0_1624637554.html'
p7
aS'https://www.clarin.com/sociedad/formas-comer-video-viral_0_1624637546.html'
p8
a.