(lp0
Vhttps://www.clarin.com/politica/Allanan-ahora-casa-Lazaro-Baez_0_1566443397.html
p1
aVhttps://www.clarin.com/politica/Allanan-ahora-casa-Lazaro-Baez_0_1566443397.html
p2
aVhttps://www.clarin.com/ieco/BCE-analiza-eliminar-billete-euros_0_1566443390.html
p3
aVhttps://www.clarin.com/ieco/BCE-analiza-eliminar-billete-euros_0_1566443390.html
p4
aVhttps://www.clarin.com/sociedad/femicidio-country-dormia-actual-pareja_0_1566443387.html
p5
aVhttps://www.clarin.com/sociedad/femicidio-country-dormia-actual-pareja_0_1566443387.html
p6
aVhttps://www.clarin.com/sociedad/protestas-estudiantes-UBA-presupuesto-provisorio_0_1566443384.html
p7
aVhttps://www.clarin.com/sociedad/protestas-estudiantes-UBA-presupuesto-provisorio_0_1566443384.html
p8
aVhttps://www.clarin.com/ieco/Vidal-anuncia-plan-inundaciones_0_1566443382.html
p9
aVhttps://www.clarin.com/ieco/Vidal-anuncia-plan-inundaciones_0_1566443382.html
p10
aVhttps://www.clarin.com/politica/Eskrache-ironico-video-agrupacion-macrista_0_1566443381.html
p11
aVhttps://www.clarin.com/politica/Eskrache-ironico-video-agrupacion-macrista_0_1566443381.html
p12
aVhttps://www.clarin.com/sociedad/Tragedia-Costa-Salguero-Adrian-Conci_0_1566443380.html
p13
aVhttps://www.clarin.com/sociedad/Tragedia-Costa-Salguero-Adrian-Conci_0_1566443380.html
p14
a.