(lp0
S'https://www.clarin.com/politica/jefe-PJ-bonaerense-cambiar-economico_0_1583841674.html'
p1
aS'https://www.clarin.com/politica/jefe-PJ-bonaerense-cambiar-economico_0_1583841674.html'
p2
aS'https://www.clarin.com/ieco/ejecutivo-Apple-propuso-Time-Warner_0_1583841672.html'
p3
aS'https://www.clarin.com/ieco/ejecutivo-Apple-propuso-Time-Warner_0_1583841672.html'
p4
aS'https://www.clarin.com/politica/Abucheos-funcionario-ahora-toco-Capitanich_0_1583841671.html'
p5
aS'https://www.clarin.com/politica/Abucheos-funcionario-ahora-toco-Capitanich_0_1583841671.html'
p6
aS'https://www.clarin.com/politica/Giro-Argentina-alianzas-internacionales-climatico_0_1583841665.html'
p7
aS'https://www.clarin.com/politica/Giro-Argentina-alianzas-internacionales-climatico_0_1583841665.html'
p8
aS'https://www.clarin.com/sociedad/Renuncio-funcionario-amenazo-policia-control_0_1583841663.html'
p9
a.