(lp0
Vhttps://www.clarin.com/politica/construccion-acordo-aumento-salarial-meses_0_1558644533.html
p1
aVhttps://www.clarin.com/politica/construccion-acordo-aumento-salarial-meses_0_1558644533.html
p2
aVhttps://www.clarin.com/politica/Monde-Cristina-Panama-Papers-Roja_0_1558644527.html
p3
aVhttps://www.clarin.com/politica/Monde-Cristina-Panama-Papers-Roja_0_1558644527.html
p4
aVhttps://www.clarin.com/ieco/economia/Bridgestone-Macri-inversiones-US-millones_0_1558644499.html
p5
aVhttps://www.clarin.com/ieco/economia/Bridgestone-Macri-inversiones-US-millones_0_1558644499.html
p6
aVhttps://www.clarin.com/politica/Campora-cargo-seguridad-encuentro-Cristina_0_1558644487.html
p7
aVhttps://www.clarin.com/politica/Campora-cargo-seguridad-encuentro-Cristina_0_1558644487.html
p8
aVhttps://www.clarin.com/politica/Garavano-defendio-proyecto-Gils-Carbo_0_1558644482.html
p9
aVhttps://www.clarin.com/politica/Garavano-defendio-proyecto-Gils-Carbo_0_1558644482.html
p10
a.