(lp0
Vhttps://www.clarin.com/opinion/Buscar-afan-mortales_0_1598840198.html
p1
aVhttps://www.clarin.com/politica/Perez-Corradi-hijos-pensaban-muerto_0_1598840197.html
p2
aVhttps://www.clarin.com/politica/Perez-Corradi-hijos-pensaban-muerto_0_1598840197.html
p3
aVhttps://www.clarin.com/sociedad/guerra-supercomputadoras-China-gana-EEUU_0_1598840196.html
p4
aVhttps://www.clarin.com/sociedad/guerra-supercomputadoras-China-gana-EEUU_0_1598840196.html
p5
aVhttps://www.clarin.com/sociedad/Autorizan-primera-prueba-vacuna-humanos_0_1598840192.html
p6
aVhttps://www.clarin.com/sociedad/Autorizan-primera-prueba-vacuna-humanos_0_1598840192.html
p7
aVhttps://www.clarin.com/sociedad/Dieron-enorme-entender-causas-migrana_0_1598840188.html
p8
aVhttps://www.clarin.com/sociedad/Dieron-enorme-entender-causas-migrana_0_1598840188.html
p9
aVhttps://www.clarin.com/politica/Perez-Corradi-admitio-identidad-Justicia_0_1598840187.html
p10
aVhttps://www.clarin.com/politica/Perez-Corradi-admitio-identidad-Justicia_0_1598840187.html
p11
a.