(lp0
S'https://www.clarin.com/politica/Pidieron-congelar-sucesion-Nestor-Kirchner_0_1646835453.html'
p1
aS'https://www.clarin.com/politica/Pidieron-congelar-sucesion-Nestor-Kirchner_0_1646835453.html'
p2
aS'https://www.clarin.com/sociedad/argentino-murio-Colombia-sacarse-selfie_0_1647435282.html'
p3
aS'https://www.clarin.com/politica/Cumbre-oficialismo-oposicion-ley-Presupuesto_0_1647435275.html'
p4
aS'https://www.clarin.com/sociedad/Piden-juicio-acusados-Time-Warp_0_1647435276.html'
p5
aS'https://www.clarin.com/sociedad/Piden-juicio-acusados-Time-Warp_0_1647435276.html'
p6
aS'https://www.clarin.com/politica/Macri-Tronador-II-Cristina-emblema_0_1647435274.html'
p7
aS'https://www.clarin.com/politica/Macri-Tronador-II-Cristina-emblema_0_1647435274.html'
p8
aS'https://www.clarin.com/politica/Bullrich-Gomez-Centurion-sabia-denuncio_0_1647435273.html'
p9
aS'https://www.clarin.com/politica/Bullrich-Gomez-Centurion-sabia-denuncio_0_1647435273.html'
p10
aS'https://www.clarin.com/sociedad/Denuncio-secuestro-hijas-acusa-abuso_0_1647435268.html'
p11
aS'https://www.clarin.com/sociedad/Denuncio-secuestro-hijas-acusa-abuso_0_1647435268.html'
p12
a.