(lp0
Vhttps://www.clarin.com/sociedad/horas-momentos-criticos-demanda-energia_0_1592840797.html
p1
aVhttps://www.clarin.com/sociedad/Vida-Cervantes-videos-manuscritos-pinturas_0_1592840795.html
p2
aVhttps://www.clarin.com/sociedad/Vida-Cervantes-videos-manuscritos-pinturas_0_1592840795.html
p3
aVhttps://www.clarin.com/sociedad/Argentina-mapa-mundial-seguridad-vial_0_1592840793.html
p4
aVhttps://www.clarin.com/sociedad/Argentina-mapa-mundial-seguridad-vial_0_1592840793.html
p5
aVhttps://www.clarin.com/ieco/economia/Plata-rechazo-amparo-aumento-tarifas_0_1592840783.html
p6
aVhttps://www.clarin.com/ieco/economia/Principio-acuerdo-Monsanto-Gobierno_0_1592840778.html
p7
aVhttps://www.clarin.com/ieco/economia/Principio-acuerdo-Monsanto-Gobierno_0_1592840778.html
p8
a.