(lp0
Vhttps://www.clarin.com/sociedad/meses-protagonista-trasplante-historico-Garrahan_0_1618038287.html
p1
aVhttps://www.clarin.com/sociedad/meses-protagonista-trasplante-historico-Garrahan_0_1618038287.html
p2
aVhttps://www.clarin.com/politica/Gobierno-discontinuar-FPT-positivamente-gente_0_1618038283.html
p3
a.