(lp0
S'https://www.clarin.com/sociedad/Gobierno-admite-situacion-violencia-mujeres_0_1682831718.html'
p1
aS'https://www.clarin.com/sociedad/hacer-curso-ballet-EEUU-contrataron_0_1682831704.html'
p2
aS'https://www.clarin.com/sociedad/Misterio-Delta-hallan-pareja-muerta_0_1682831711.html'
p3
a.