(lp0
S'https://www.clarin.com/politica/Baez-Camara-Gobierno-Casanello_0_1605439639.html'
p1
aS'https://www.clarin.com/politica/Baez-Camara-Gobierno-Casanello_0_1605439639.html'
p2
aS'https://www.clarin.com/politica/Cristina-vuelve-manana-Buenos-Aires_0_1605439627.html'
p3
aS'https://www.clarin.com/politica/Cristina-vuelve-manana-Buenos-Aires_0_1605439627.html'
p4
a.