(lp0
S'https://www.clarin.com/sociedad/primeras-fotos-tomaron-disponibles-online_0_1567043368.html'
p1
aS'https://www.clarin.com/sociedad/Wikipedia-agresiva-campana-conseguir-donaciones_0_1567043377.html'
p2
aS'https://www.clarin.com/sociedad/criticas-cambian-nombre-Policia-Infantil_0_1567043360.html'
p3
aS'https://www.clarin.com/politica/picantes-Pena-primer-informe-Diputados_0_1567043365.html'
p4
aS'https://www.clarin.com/ieco/economia/Prat-Gay-reclamo-funcionamiento-organismos_0_1567043366.html'
p5
aS'https://www.clarin.com/ieco/Nicolas-Caputo-Macri-asumio-Merval_0_1567043375.html'
p6
aS'https://www.clarin.com/ieco/primera-anos-cayeron-beneficios-Apple_0_1567043362.html'
p7
aS'https://www.clarin.com/politica/Pilar-aprobaron-ordenanza-prohibe-despidos_0_1567043372.html'
p8
aS'https://www.clarin.com/politica/misteriosos-contenedores-Lazaro-Baez-Uruguay_0_1567043363.html'
p9
a.