(lp0
S'https://www.clarin.com/politica/Provincia-Maria_Eugenia_Vidal-paritaria_docente-presupuesto_0_1504649894.html'
p1
aS'https://www.clarin.com/politica/Provincia-Maria_Eugenia_Vidal-paritaria_docente-presupuesto_0_1504649894.html'
p2
aS'https://www.clarin.com/ieco/Cresta_Roja-avicola-quiebra-negociaciones_0_1504649886.html'
p3
aS'https://www.clarin.com/ieco/Cresta_Roja-avicola-quiebra-negociaciones_0_1504649886.html'
p4
aS'https://www.clarin.com/sociedad/Hace-matar-hijos-todavia-viven_0_1504649877.html'
p5
aS'https://www.clarin.com/sociedad/Hace-matar-hijos-todavia-viven_0_1504649877.html'
p6
aS'https://www.clarin.com/sociedad/accidente-choque-uruguay-solis_0_1504649876.html'
p7
aS'https://www.clarin.com/sociedad/accidente-choque-uruguay-solis_0_1504649876.html'
p8
a.