(lp0
S'https://www.clarin.com/sociedad/Alerta-advierten-llegar-America-Latina_0_1507649501.html'
p1
aS'https://www.clarin.com/politica/Nacion-ciudad-PJ-coparticipacion-traspaso_policia_federal_0_1507649506.html'
p2
aS'https://www.clarin.com/sociedad/bebes-gemelos-prematuros-agarran-mano-toman-video-facebook_0_1507649505.html'
p3
aS'https://www.clarin.com/sociedad/aerolineas_argentinas-problema-vuelo-chile-susto-desperfecto_0_1507649457.html'
p4
aS'https://www.clarin.com/politica/Davos-Susana_Malcorra-Mauricio_Macri-David_Cameron-Malvinas_0_1507649510.html'
p5
aS'https://www.clarin.com/sociedad/Confirman-condena-productor-Survivor-reality_0_1507649454.html'
p6
aS'https://www.clarin.com/sociedad/calor-seguira-sabado_0_1507649516.html'
p7
a.