(lp0
S'https://www.clarin.com/ieco/Julio-Tarifa-tarifazo-Va-inversiones_0_1651634917.html'
p1
aS'https://www.clarin.com/ieco/supermercados-respondieron-Etchevehere-haberlos-ladrones_0_1651634914.html'
p2
aS'https://www.clarin.com/sociedad/costara-alquilar-verano-Mar-Plata_0_1651634911.html'
p3
aS'https://www.clarin.com/ieco/economia/SanCor-perdio-millones-ano_0_1651634910.html'
p4
aS'https://www.clarin.com/sociedad/Mato-novia-espalda-plena-calle_0_1651634909.html'
p5
aS'https://www.clarin.com/politica/intendente-Mar-Plata-sueldo_0_1651634913.html'
p6
aS'https://www.clarin.com/sociedad/muerte-medicina-tradicional-disparo-debate_0_1651634904.html'
p7
aS'https://www.clarin.com/sociedad/Cientificos-quedaron-cercados-polares-Artico_0_1651634901.html'
p8
aS'https://www.clarin.com/politica/Lazaro-Baez-denuncia-previsional-peritaje_0_1651634903.html'
p9
a.