(lp0
S'https://www.clarin.com/politica/repercusiones-mundo-caso_0_1498050562.html'
p1
aS'https://www.clarin.com/sociedad/Oficina_de_la_Mujer-Corte_Suprema_0_1498050548.html'
p2
aS'https://www.clarin.com/ieco/economia/recaudacion-tributaria-subio-respecto-billones_0_1498050555.html'
p3
aS'https://www.clarin.com/politica/triple_fuga-armas_0_1498050566.html'
p4
a.