(lp0
Vhttps://www.clarin.com/sociedad/Dia-Internacional-Beso-besamos_0_1558044491.html
p1
aVhttps://www.clarin.com/sociedad/Dia-Internacional-Beso-besamos_0_1558044491.html
p2
aVhttps://www.clarin.com/sociedad/Video-maestra-perdio-trabajo-reggaeton_0_1558044483.html
p3
aVhttps://www.clarin.com/sociedad/Video-maestra-perdio-trabajo-reggaeton_0_1558044483.html
p4
aVhttps://www.clarin.com/politica/Macri-firmo-fideicomiso-ciego_0_1558044478.html
p5
aVhttps://www.clarin.com/politica/Macri-firmo-fideicomiso-ciego_0_1558044478.html
p6
aVhttps://www.clarin.com/sociedad/Murio-piton-gigante-debate-suicidio_0_1558044473.html
p7
aVhttps://www.clarin.com/sociedad/Murio-piton-gigante-debate-suicidio_0_1558044473.html
p8
aVhttps://www.clarin.com/politica/Cristina-Instituto-Patria-redes-sociales_0_1558044439.html
p9
aVhttps://www.clarin.com/politica/Cristina-Instituto-Patria-redes-sociales_0_1558044439.html
p10
aVhttps://www.clarin.com/ieco/Pronostican-siembra-trigo-creceria_0_1558044468.html
p11
a.