(lp0
Vhttps://www.clarin.com/politica/Camara-Casacion-excarcelar-Ricardo-Jaime_0_1594640650.html
p1
aVhttps://www.clarin.com/politica/Camara-Casacion-excarcelar-Ricardo-Jaime_0_1594640650.html
p2
aVhttps://www.clarin.com/politica/Macri-recibio-principal-opositor-venezolano_0_1594640651.html
p3
aVhttps://www.clarin.com/politica/Macri-recibio-principal-opositor-venezolano_0_1594640651.html
p4
aVhttps://www.clarin.com/politica/inflacion-mayo-Congreso_0_1594640648.html
p5
aVhttps://www.clarin.com/politica/Macri-Cristina-justicia-corrupcion-politicos_0_1594640639.html
p6
aVhttps://www.clarin.com/politica/Macri-Cristina-justicia-corrupcion-politicos_0_1594640639.html
p7
a.