(lp0
S'https://www.clarin.com/politica/dice-Macri-impepinable_0_1550245234.html'
p1
aS'https://www.clarin.com/sociedad/avion-despegue-segunda-etapa-viaje_0_1550245235.html'
p2
aS'https://www.clarin.com/sociedad/Apunalo-mujer-delante-despues-suicido_0_1550245215.html'
p3
aS'https://www.clarin.com/sociedad/violencia-genero-dejo-hijos-madre_0_1550245226.html'
p4
aS'https://www.clarin.com/ieco/economia/oportunidad-Argentina-financie-transicion_0_1550245238.html'
p5
a.