(lp0
Vhttps://www.clarin.com/politica/jefa-fiscales-bonaerenses-evalua-jubila_0_1633636738.html
p1
aVhttps://www.clarin.com/politica/jefa-fiscales-bonaerenses-evalua-jubila_0_1633636738.html
p2
aVhttps://www.clarin.com/politica/Caso-Lopez-publicista-cercano-Kirchner_0_1633636735.html
p3
aVhttps://www.clarin.com/politica/Caso-Lopez-publicista-cercano-Kirchner_0_1633636735.html
p4
a.