(lp0
S'https://www.clarin.com/opinion/proposito-Turquia-democracias-religion_0_1616238498.html'
p1
aS'https://www.clarin.com/opinion/proposito-Turquia-democracias-religion_0_1616238498.html'
p2
aS'https://www.clarin.com/opinion/eleccion-jueces-competentes_0_1616238505.html'
p3
aS'https://www.clarin.com/opinion/dolor-cuela-grietas-memorial_0_1616238494.html'
p4
aS'https://www.clarin.com/sociedad/Provincia-alumnos-podran-viajar-gratis_0_1616238550.html'
p5
aS'https://www.clarin.com/sociedad/Provincia-alumnos-podran-viajar-gratis_0_1616238550.html'
p6
aS'https://www.clarin.com/sociedad/Vendieron-pagar-pasaje-suenan-nueva_0_1616238553.html'
p7
aS'https://www.clarin.com/sociedad/Vendieron-pagar-pasaje-suenan-nueva_0_1616238553.html'
p8
aS'https://www.clarin.com/sociedad/tradicional-picada-compra-Exposicion-Rural_0_1616238544.html'
p9
aS'https://www.clarin.com/sociedad/tradicional-picada-compra-Exposicion-Rural_0_1616238544.html'
p10
aS'https://www.clarin.com/politica/Macri-gano-primera-tanda-penales_0_1616838303.html'
p11
aS'https://www.clarin.com/politica/Macri-gano-primera-tanda-penales_0_1616838303.html'
p12
aS'https://www.clarin.com/politica/Equilibrio-sentido-comun_0_1616838302.html'
p13
aS'https://www.clarin.com/politica/cuentas-inmovilizadas-Cristina-cobra-pensiones_0_1616238548.html'
p14
aS'https://www.clarin.com/politica/cuentas-inmovilizadas-Cristina-cobra-pensiones_0_1616238548.html'
p15
aS'https://www.clarin.com/sociedad/Avance-clave-cientificos-argentinos-superbacterias_0_1616238541.html'
p16
aS'https://www.clarin.com/sociedad/Avance-clave-cientificos-argentinos-superbacterias_0_1616238541.html'
p17
a.