(lp0
S'https://www.clarin.com/ieco/economia/mercado-recalcula-espera-inflacion-actividad_0_1628837265.html'
p1
aS'https://www.clarin.com/politica/Renuncio-Echegaray-AGN_0_1628837261.html'
p2
aS'https://www.clarin.com/politica/Hebe-Bonafini-citada-indagatoria-semana_0_1628837270.html'
p3
aS'https://www.clarin.com/sociedad/convertirse-director-cine_0_1628237299.html'
p4
aS'https://www.clarin.com/sociedad/Dia-Nino-viene-Ahora-XL_0_1628837255.html'
p5
a.