(lp0
Vhttps://www.clarin.com/politica/Abal-Medina-Macri-insuficientes-direccion_0_1560444212.html
p1
aVhttps://www.clarin.com/politica/Abal-Medina-Macri-insuficientes-direccion_0_1560444212.html
p2
aVhttps://www.clarin.com/sociedad/Tragedia-Costa-Salguero-jovenes-internados_0_1560444210.html
p3
aVhttps://www.clarin.com/sociedad/Tragedia-Costa-Salguero-jovenes-internados_0_1560444210.html
p4
aVhttps://www.clarin.com/politica/Chueco-abogado-desaparecido-cuentas-Panama_0_1560444208.html
p5
aVhttps://www.clarin.com/politica/Chueco-abogado-desaparecido-cuentas-Panama_0_1560444208.html
p6
aVhttps://www.clarin.com/sociedad/Piloto-aborta-despegue-abuelos-ultimo_0_1560444191.html
p7
aVhttps://www.clarin.com/sociedad/declaran-fiscales-tragedia-Costa-Salguero_0_1560444187.html
p8
aVhttps://www.clarin.com/sociedad/declaran-fiscales-tragedia-Costa-Salguero_0_1560444187.html
p9
aVhttps://www.clarin.com/politica/Graciela-Camano-Cristina-conducta-apropiada_0_1560444177.html
p10
aVhttps://www.clarin.com/politica/Graciela-Camano-Cristina-conducta-apropiada_0_1560444177.html
p11
a.