(lp0
S'https://www.clarin.com/ieco/economia/Central-sistema-resucitar-credito-hipotecario_0_1554445010.html'
p1
aS'https://www.clarin.com/ieco/Economistas-anticipan-peor-venir_0_1554445106.html'
p2
aS'https://www.clarin.com/politica/imputacion-off-shore-Macri-manejar-fortuna_0_1554444935.html'
p3
aS'https://www.clarin.com/ieco/equipo-economico-empieza-ofrecer-exterior_0_1554444924.html'
p4
aS'https://www.clarin.com/ieco/vacas-DIU-vacuna-tristeza_0_1554444777.html'
p5
aS'https://www.clarin.com/politica/Extienden-Cristobal-Lopez-C5N-Radio10_0_1554444981.html'
p6
aS'https://www.clarin.com/politica/Malcorra-Moscu-expandir-economica-Macri_0_1554444968.html'
p7
a.