(lp0
Vhttps://www.clarin.com/sociedad/Destituyeron-funcionario-post-antisemita-Facebook_0_1663633657.html
p1
aVhttps://www.clarin.com/sociedad/Destituyeron-funcionario-post-antisemita-Facebook_0_1663633657.html
p2
aVhttps://www.clarin.com/politica/Oficializan-residencias-embajadores-EEUU-Brasil_0_1663633656.html
p3
aVhttps://www.clarin.com/politica/Oficializan-residencias-embajadores-EEUU-Brasil_0_1663633656.html
p4
aVhttps://www.clarin.com/politica/CGT-Plaini-advirtio-Gobierno-importante_0_1663633652.html
p5
aVhttps://www.clarin.com/politica/CGT-Plaini-advirtio-Gobierno-importante_0_1663633652.html
p6
aVhttps://www.clarin.com/sociedad/famoso-chef-desato-escandalo-receta_0_1663633648.html
p7
aVhttps://www.clarin.com/sociedad/famoso-chef-desato-escandalo-receta_0_1663633648.html
p8
aVhttps://www.clarin.com/politica/Radicales-homenajean-Yrigoyen-Cristina-Kirchner_0_1663633647.html
p9
aVhttps://www.clarin.com/politica/Radicales-homenajean-Yrigoyen-Cristina-Kirchner_0_1663633647.html
p10
a.