(lp0
S'https://www.clarin.com/politica/Hablo-Perez-Corradi-miedo-decir_0_1598840180.html'
p1
aS'https://www.clarin.com/politica/Hablo-Perez-Corradi-miedo-decir_0_1598840180.html'
p2
aS'https://www.clarin.com/politica/Incidentes-Macri-Rosario-concejal-cabeza_0_1598840179.html'
p3
aS'https://www.clarin.com/politica/Incidentes-Macri-Rosario-concejal-cabeza_0_1598840179.html'
p4
aS'https://www.clarin.com/politica/Imagenes-Nestor-Peron-bienvenida-Lopez_0_1598840178.html'
p5
aS'https://www.clarin.com/politica/Imagenes-Nestor-Peron-bienvenida-Lopez_0_1598840178.html'
p6
aS'https://www.clarin.com/sociedad/simbolico-numero-argentino-chaqueta-Hitler_0_1598840176.html'
p7
aS'https://www.clarin.com/sociedad/simbolico-numero-argentino-chaqueta-Hitler_0_1598840176.html'
p8
aS'https://www.clarin.com/politica/Macri-trabajar-juntos-derrotar-narcotrafico_0_1598840172.html'
p9
aS'https://www.clarin.com/politica/Macri-trabajar-juntos-derrotar-narcotrafico_0_1598840172.html'
p10
aS'https://www.clarin.com/ieco/economia/deudores-adhirieron-regularizacion-impositiva-bonaerense_0_1598840171.html'
p11
aS'https://www.clarin.com/ieco/economia/deudores-adhirieron-regularizacion-impositiva-bonaerense_0_1598840171.html'
p12
aS'https://www.clarin.com/politica/ex-diputada-dice-caso-Lopez_0_1598840166.html'
p13
aS'https://www.clarin.com/politica/ex-diputada-dice-caso-Lopez_0_1598840166.html'
p14
a.