(lp0
Vhttps://www.clarin.com/politica/Fuerte-politico-Macri-gobernador-PJ_0_1532846885.html
p1
aVhttps://www.clarin.com/politica/Fuerte-politico-Macri-gobernador-PJ_0_1532846885.html
p2
aVhttps://www.clarin.com/ieco/Piden-Macri-divulgar-YPF-Chevron_0_1532846882.html
p3
aVhttps://www.clarin.com/sociedad/Ordenan-ejecutivo-argentino-Facebook-Brasil_0_1532846875.html
p4
aVhttps://www.clarin.com/sociedad/Ordenan-ejecutivo-argentino-Facebook-Brasil_0_1532846875.html
p5
aVhttps://www.clarin.com/ieco/economia/Coparticipacion-Santa-Cruz-conforme-Consejo_0_1532846869.html
p6
aVhttps://www.clarin.com/ieco/economia/Coparticipacion-Santa-Cruz-conforme-Consejo_0_1532846869.html
p7
aVhttps://www.clarin.com/politica/Michetti-Macri-Francisco-Papa-sonrisa_0_1532846864.html
p8
aVhttps://www.clarin.com/politica/Michetti-Macri-Francisco-Papa-sonrisa_0_1532846864.html
p9
aVhttps://www.clarin.com/ieco/Petrobras-comenzo-negociar-Pampa-argentina_0_1532846862.html
p10
aVhttps://www.clarin.com/sociedad/Choco-caballo-prendio-agencia-seguros_0_1532846857.html
p11
aVhttps://www.clarin.com/sociedad/Choco-caballo-prendio-agencia-seguros_0_1532846857.html
p12
a.