(lp0
S'https://www.clarin.com/sociedad/mujer-maltratada-ayuda-tarea-escolar_0_1571242900.html'
p1
aS'https://www.clarin.com/sociedad/mujer-maltratada-ayuda-tarea-escolar_0_1571242900.html'
p2
aS'https://www.clarin.com/ieco/economia/Finalmente-AFIP-Lebacs-pagan-impuestos_0_1571242897.html'
p3
aS'https://www.clarin.com/sociedad/Impactante-recopilacion-aterrizajes-despegues-complicados_0_1571242896.html'
p4
aS'https://www.clarin.com/politica/Macri-suspendio-Pampa-cuestiones-climaticas_0_1571242895.html'
p5
aS'https://www.clarin.com/politica/Macri-suspendio-Pampa-cuestiones-climaticas_0_1571242895.html'
p6
aS'https://www.clarin.com/sociedad/Hipertension-pulmonar-enfermedad-pronostico-pobre_0_1571242891.html'
p7
aS'https://www.clarin.com/sociedad/Hipertension-pulmonar-enfermedad-pronostico-pobre_0_1571242891.html'
p8
a.