(lp0
S'https://www.clarin.com/ieco/empresas-y-negocios/Crece-guerra-radiotaxis-pedir-autos_0_1499850397.html'
p1
aS'https://www.clarin.com/politica/Pragmatismo-anos-tensa-relacion_0_1500449971.html'
p2
aS'https://www.clarin.com/opinion/debate-peronismo_0_1500449969.html'
p3
aS'https://www.clarin.com/politica/Kicillof-informacion-Comercio-Interior-computadoras_0_1499850449.html'
p4
a.