(lp0
Vhttps://www.clarin.com/ieco/estatales-acuerdan-suba_0_1579642049.html
p1
aVhttps://www.clarin.com/politica/investigaciones-Clarin-revelaron-escandalo_0_1579642048.html
p2
aVhttps://www.clarin.com/politica/investigaciones-Clarin-revelaron-escandalo_0_1579642048.html
p3
aVhttps://www.clarin.com/sociedad/Nina-Beatle_0_1579042285.html
p4
aVhttps://www.clarin.com/sociedad/Nina-Beatle_0_1579042285.html
p5
aVhttps://www.clarin.com/politica/Ley-antidespidos-justifico-Massa-cambio_0_1579642039.html
p6
aVhttps://www.clarin.com/politica/Ley-antidespidos-justifico-Massa-cambio_0_1579642039.html
p7
a.