(lp0
Vhttps://www.clarin.com/politica/millonaria-triangulacion-compromete-Caballo-Suarez_0_1616238499.html
p1
aVhttps://www.clarin.com/politica/millonaria-triangulacion-compromete-Caballo-Suarez_0_1616238499.html
p2
aVhttps://www.clarin.com/politica/Clausula-social-apriete-llego-contrato_0_1616238503.html
p3
aVhttps://www.clarin.com/politica/Clausula-social-apriete-llego-contrato_0_1616238503.html
p4
aVhttps://www.clarin.com/politica/firma-cercada-escandalos_0_1616238529.html
p5
aVhttps://www.clarin.com/politica/firma-cercada-escandalos_0_1616238529.html
p6
aVhttps://www.clarin.com/opinion/Mascar-chicle-saber_0_1616238549.html
p7
aVhttps://www.clarin.com/politica/Gobierno-aconseja-pagar-empresas-preocupan_0_1616238556.html
p8
aVhttps://www.clarin.com/politica/redes-sociales-afianzan-mensaje-oficial_0_1616238554.html
p9
aVhttps://www.clarin.com/sociedad/AMISTAD-REAL-Solo-virtuales-buenas_0_1616238551.html
p10
aVhttps://www.clarin.com/sociedad/AMISTAD-REAL-Solo-virtuales-buenas_0_1616238551.html
p11
a.