(lp0
Vhttps://www.clarin.com/politica/Hollande-Francia-esfuerzos-Argentina-cuestion_0_1528047558.html
p1
aVhttps://www.clarin.com/politica/Hollande-Francia-esfuerzos-Argentina-cuestion_0_1528047558.html
p2
aVhttps://www.clarin.com/politica/Macri-Hollande-destrabe-acuerdo-Mercosur-UE_0_1528047642.html
p3
aVhttps://www.clarin.com/politica/Macri-Hollande-destrabe-acuerdo-Mercosur-UE_0_1528047642.html
p4
aVhttps://www.clarin.com/politica/Revisan-estructura-manejaba-Alicia-Kirchner_0_1528047606.html
p5
aVhttps://www.clarin.com/politica/YPF-entregar-Justicia-contrato-Chevron_0_1528647129.html
p6
aVhttps://www.clarin.com/politica/YPF-entregar-Justicia-contrato-Chevron_0_1528647129.html
p7
aVhttps://www.clarin.com/sociedad/Dejo-chico-burlo-Facebook-arrestaron_0_1528047638.html
p8
aVhttps://www.clarin.com/sociedad/Dejo-chico-burlo-Facebook-arrestaron_0_1528047638.html
p9
aVhttps://www.clarin.com/sociedad/Detuvieron-ex-Debora-cuadras-mato_0_1528047643.html
p10
aVhttps://www.clarin.com/sociedad/Detuvieron-ex-Debora-cuadras-mato_0_1528047643.html
p11
aVhttps://www.clarin.com/sociedad/argentinos-sufre-trastornos-conciliar-sueno_0_1528047653.html
p12
aVhttps://www.clarin.com/sociedad/argentinos-sufre-trastornos-conciliar-sueno_0_1528047653.html
p13
aVhttps://www.clarin.com/politica/Cristina-dejo-deuda-millones-telefonos_0_1528047615.html
p14
aVhttps://www.clarin.com/politica/macri-carlotto_0_1528647122.html
p15
aVhttps://www.clarin.com/opinion/Cerati-copan-subte_0_1528047594.html
p16
a.