(lp0
Vhttps://www.clarin.com/sociedad/Detuvieron-activistas-Greenpeace-protesta-minera_0_1566443487.html
p1
aVhttps://www.clarin.com/sociedad/Detuvieron-activistas-Greenpeace-protesta-minera_0_1566443487.html
p2
aVhttps://www.clarin.com/politica/Pena-diputados-Debe-Lazaro-Baez_0_1566443483.html
p3
aVhttps://www.clarin.com/politica/Detuvieron-abogado-Milagro-Sala_0_1566443481.html
p4
aVhttps://www.clarin.com/politica/entidades-empresarias-suman-embestida-antidespidos_0_1566443476.html
p5
aVhttps://www.clarin.com/politica/entidades-empresarias-suman-embestida-antidespidos_0_1566443476.html
p6
a.