(lp0
S'https://www.clarin.com/sociedad/decadas-Fleco-Male_0_1561043906.html'
p1
aS'https://www.clarin.com/politica/Lavado-casos-Baez-Lopez-paradigmaticos_0_1560444273.html'
p2
aS'https://www.clarin.com/politica/Marco-Lavagna-deficit-gobierno-Macri_0_1560444365.html'
p3
aS'https://www.clarin.com/opinion/evaluar-gobierno-comunica-bien_0_1560444269.html'
p4
aS'https://www.clarin.com/opinion/Pobreza-impuestos-justicia-social_0_1560444267.html'
p5
aS'https://www.clarin.com/opinion/Desfachatez_0_1561043904.html'
p6
aS'https://www.clarin.com/sociedad/llegamos-encontramos-temblando-ojos-blancos_0_1560444386.html'
p7
aS'https://www.clarin.com/politica/Cristina-busca-PJ-defensa-propia_0_1561043907.html'
p8
aS'https://www.clarin.com/opinion/nuevas-intervenciones-militares_0_1560444271.html'
p9
aS'https://www.clarin.com/sociedad/Fiesta-Costanera-investigan-liberada-vender_0_1560444384.html'
p10
a.