(lp0
Vhttps://www.clarin.com/politica/Campagnoli-Justicia-jueces-complices-encubridores_0_1648635241.html
p1
aVhttps://www.clarin.com/politica/Campagnoli-Justicia-jueces-complices-encubridores_0_1648635241.html
p2
aVhttps://www.clarin.com/sociedad/jubilados-municipio-GBA-obligan-temprano_0_1648635224.html
p3
aVhttps://www.clarin.com/sociedad/jubilados-municipio-GBA-obligan-temprano_0_1648635224.html
p4
aVhttps://www.clarin.com/politica/Indice-optimismo-indices-Gobierno-Macri_0_1648635218.html
p5
aVhttps://www.clarin.com/politica/Indice-optimismo-indices-Gobierno-Macri_0_1648635218.html
p6
a.