(lp0
S'https://www.clarin.com/politica/Moyano-Ganancias-avance-faltan-discutir_0_1525047714.html'
p1
aS'https://www.clarin.com/sociedad/Insistieron-numeros-ganaron-millones-loteria_0_1525047720.html'
p2
aS'https://www.clarin.com/politica/Juan_Jose_Aranguren-cortes-luz-ola_de_calor_0_1525047712.html'
p3
aS'https://www.clarin.com/sociedad/Planto-inmenso-jardin-alegrar-esposa_0_1525047708.html'
p4
aS'https://www.clarin.com/politica/Ley-Seguridad-escolto-aeronave-frontera_0_1525047696.html'
p5
a.