(lp0
Vhttps://www.clarin.com/ieco/economia/Prat-Gay-dijo-inflacion-anual-hecho_0_1601239964.html
p1
aVhttps://www.clarin.com/ieco/economia/Prat-Gay-dijo-inflacion-anual-hecho_0_1601239964.html
p2
aVhttps://www.clarin.com/sociedad/Video-desperto-madrugada-encontro-gigante_0_1601239956.html
p3
aVhttps://www.clarin.com/sociedad/Video-desperto-madrugada-encontro-gigante_0_1601239956.html
p4
aVhttps://www.clarin.com/politica/pidieron-cancion-C5N-Cristobal-Lopez_0_1601239960.html
p5
aVhttps://www.clarin.com/politica/pidieron-cancion-C5N-Cristobal-Lopez_0_1601239960.html
p6
aVhttps://www.clarin.com/ieco/economia/Afectada-Brexit-Bolsa-derrumba_0_1601239954.html
p7
aVhttps://www.clarin.com/ieco/economia/Afectada-Brexit-Bolsa-derrumba_0_1601239954.html
p8
aVhttps://www.clarin.com/politica/prohibieron-Martin-Baez-Santa-Cruz_0_1601239914.html
p9
aVhttps://www.clarin.com/politica/prohibieron-Martin-Baez-Santa-Cruz_0_1601239914.html
p10
aVhttps://www.clarin.com/sociedad/Inauguran-infartante-tobogan-edificio-Angeles_0_1601239950.html
p11
aVhttps://www.clarin.com/sociedad/Inauguran-infartante-tobogan-edificio-Angeles_0_1601239950.html
p12
a.