(lp0
S'https://www.clarin.com/politica/Gemignani-involucro-Vido-escandalo-Casacion_0_1622237850.html'
p1
aS'https://www.clarin.com/sociedad/informatica-podria-invalidar-estudios-cerebro_0_1622237845.html'
p2
aS'https://www.clarin.com/ieco/economia/Banco-Central-US-millones-principio_0_1622237843.html'
p3
a.