(lp0
Vhttps://www.clarin.com/politica/Obligada-escandalo-Iglesia-investigara-palotino_0_1616838489.html
p1
aVhttps://www.clarin.com/politica/Obligada-escandalo-Iglesia-investigara-palotino_0_1616838489.html
p2
aVhttps://www.clarin.com/politica/Murio-Sosa-responsables-Masacre-Trelew_0_1616838488.html
p3
aVhttps://www.clarin.com/politica/hallo-pruebas-vinculo-Lopez-monasterio_0_1616838487.html
p4
aVhttps://www.clarin.com/politica/hallo-pruebas-vinculo-Lopez-monasterio_0_1616838487.html
p5
aVhttps://www.clarin.com/sociedad/embarazo-adolescentes-veces-paises-desarrollados_0_1616838485.html
p6
aVhttps://www.clarin.com/sociedad/embarazo-adolescentes-veces-paises-desarrollados_0_1616838485.html
p7
aVhttps://www.clarin.com/sociedad/hablamos-idioma_0_1616838482.html
p8
aVhttps://www.clarin.com/politica/Papa-recibira-Macri-especial-octubre_0_1616838480.html
p9
aVhttps://www.clarin.com/sociedad/anos-creo-billetera-robos_0_1616838418.html
p10
aVhttps://www.clarin.com/sociedad/anos-creo-billetera-robos_0_1616838418.html
p11
aVhttps://www.clarin.com/sociedad/Nueva-York-K2-marihuana-laboratorio_0_1616838473.html
p12
aVhttps://www.clarin.com/sociedad/Nueva-York-K2-marihuana-laboratorio_0_1616838473.html
p13
a.