(lp0
S'https://www.clarin.com/politica/Venezuela-Brexit-centrales-reunion-Gabinete_0_1603639760.html'
p1
aS'https://www.clarin.com/politica/nuevos-jubilados-aumento_0_1603639763.html'
p2
aS'https://www.clarin.com/politica/Macri-escala-Paris-cita-Hollande_0_1603639758.html'
p3
aS'https://www.clarin.com/politica/Macri-Illia-espectaculos-bochornosos-corrupcion_0_1603639761.html'
p4
aS'https://www.clarin.com/politica/Grindetti-tranquilo-empresa-Panama-cuenta_0_1603639756.html'
p5
aS'https://www.clarin.com/politica/Obras-caras-pesima-calidad_0_1603039797.html'
p6
aS'https://www.clarin.com/politica/Jose-Lopez-manejo-millones-pesos_0_1603039790.html'
p7
a.