(lp0
S'https://www.clarin.com/ieco/economia/Brasil-Argentina-acuerdo-autos_0_1517248577.html'
p1
aS'https://www.clarin.com/politica/Amado_Boudou-dadivas-procesado-Carlos_Rivolo-avion-helicoptero_0_1517248574.html'
p2
aS'https://www.clarin.com/sociedad/suites-duermen-Rolling-Stones_0_1517248586.html'
p3
aS'https://www.clarin.com/sociedad/NASA-permite-sobrevolar-planeta-Ceres_0_1517248532.html'
p4
aS'https://www.clarin.com/politica/Mauricio-Macri-sesiones-extraordinarias-Senado_0_1517248572.html'
p5
aS'https://www.clarin.com/sociedad/Justicia-investiga-dinero-kirchnerismo-universidades_0_1517248561.html'
p6
aS'https://www.clarin.com/sociedad/estrategia-fans-tratar-cruzarse-Stone_0_1517248567.html'
p7
a.