(lp0
S'https://www.clarin.com/sociedad/doce-noticias-semana_0_1576042486.html'
p1
aS'https://www.clarin.com/sociedad/doce-noticias-semana_0_1576042486.html'
p2
aS'https://www.clarin.com/ieco/economia/Gobierno-US-millones-inversores-minoristas_0_1576042493.html'
p3
aS'https://www.clarin.com/ieco/economia/Gobierno-US-millones-inversores-minoristas_0_1576042493.html'
p4
aS'https://www.clarin.com/politica/kelpers-dispuestos-cooperar-Argentina-manera_0_1576042478.html'
p5
aS'https://www.clarin.com/politica/kelpers-dispuestos-cooperar-Argentina-manera_0_1576042478.html'
p6
aS'https://www.clarin.com/politica/Quise-matarme-miedo-Milagro-Sala_0_1573042796.html'
p7
aS'https://www.clarin.com/politica/Exclusivo-Dura-Baez-abogado-carcel_0_1576042482.html'
p8
aS'https://www.clarin.com/politica/Exclusivo-Dura-Baez-abogado-carcel_0_1576042482.html'
p9
a.