(lp0
S'https://www.clarin.com/politica/Declara-Lopez-despegar-bolsos-dolares_0_1629437238.html'
p1
aS'https://www.clarin.com/sociedad/Provincia-comienzan-combatir-dengue-invierno_0_1629437231.html'
p2
aS'https://www.clarin.com/sociedad/millones-chicos-clases-paro-Provincia_0_1629437205.html'
p3
aS'https://www.clarin.com/opinion/leccion-rockstar_0_1630036983.html'
p4
aS'https://www.clarin.com/sociedad/Escandalo-declaraciones-Cordera-Gobierno-Justicia_0_1629437239.html'
p5
aS'https://www.clarin.com/politica/borraron-registro-ingresos-Olivos-Kirchner_0_1629437182.html'
p6
aS'https://www.clarin.com/sociedad/protestas-polemica-carreras-galgos-Congreso_0_1629437221.html'
p7
a.