(lp0
S'https://www.clarin.com/ieco/economia/oficial-devolucion-IVA-jubilados_0_1594640547.html'
p1
aS'https://www.clarin.com/sociedad/Detuvieron-dirigiente-comunicad-explotacion-sexual_0_1594640548.html'
p2
aS'https://www.clarin.com/politica/Papa-agradecido-Presidente-Scholas-Ocurrentes_0_1594640543.html'
p3
aS'https://www.clarin.com/sociedad/Pistorius-comparece-corte-audiencia-sentencia_0_1594640544.html'
p4
aS'https://www.clarin.com/sociedad/Hallan-farmaco-expansion-cancer-agresivo_0_1594640540.html'
p5
a.