(lp0
Vhttps://www.clarin.com/ieco/coloquioidea/Vidal-vamos-parar-lucha-narcotrafico_0_1668433348.html
p1
aVhttps://www.clarin.com/ieco/coloquioidea/Vidal-vamos-parar-lucha-narcotrafico_0_1668433348.html
p2
aVhttps://www.clarin.com/politica/sospechosos-Tribunal-Oral-San-Martin_0_1668433345.html
p3
aVhttps://www.clarin.com/politica/sospechosos-Tribunal-Oral-San-Martin_0_1668433345.html
p4
aVhttps://www.clarin.com/sociedad/Denuncian-alumno-escuela-desplazan-docentes_0_1668433351.html
p5
aVhttps://www.clarin.com/sociedad/Denuncian-alumno-escuela-desplazan-docentes_0_1668433351.html
p6
a.