(lp0
Vhttps://www.clarin.com/politica/Campolongo-desagravio-Boudou-Esteche-DElia_0_1688831201.html
p1
aVhttps://www.clarin.com/politica/Campolongo-desagravio-Boudou-Esteche-DElia_0_1688831201.html
p2
aVhttps://www.clarin.com/sociedad/Afirman-cigarrillo-electronico-afecta-fumadores_0_1688831189.html
p3
aVhttps://www.clarin.com/sociedad/Afirman-cigarrillo-electronico-afecta-fumadores_0_1688831189.html
p4
aVhttps://www.clarin.com/politica/Piden-politico-fiscal-investiga-Scioli_0_1688831195.html
p5
aVhttps://www.clarin.com/politica/Piden-politico-fiscal-investiga-Scioli_0_1688831195.html
p6
aVhttps://www.clarin.com/politica/Vidal-retoca-Gabinete-prepara-eleccion_0_1688831193.html
p7
aVhttps://www.clarin.com/politica/Vidal-retoca-Gabinete-prepara-eleccion_0_1688831193.html
p8
aVhttps://www.clarin.com/politica/Gobierno-alerta-marcha-criticas_0_1688831187.html
p9
aVhttps://www.clarin.com/politica/Gobierno-alerta-marcha-criticas_0_1688831187.html
p10
aVhttps://www.clarin.com/politica/Diputados-Macri-Prat-Sturzenegger-Lebacs_0_1688831190.html
p11
aVhttps://www.clarin.com/politica/Diputados-Macri-Prat-Sturzenegger-Lebacs_0_1688831190.html
p12
a.