(lp0
S'https://www.clarin.com/politica/Gobierno-denuncio-Anibal-Fernandez-subsidio_0_1582041853.html'
p1
aS'https://www.clarin.com/ieco/economia/Frenan-tarifazo-gas-Chubut_0_1582041856.html'
p2
aS'https://www.clarin.com/sociedad/Cirque-du-Soleil-informo-acrobata_0_1582041852.html'
p3
aS'https://www.clarin.com/politica/Vidal-asignaciones-familiares-trabajadores-bonaerenses_0_1582041843.html'
p4
aS'https://www.clarin.com/politica/Mayo-Papa-Macri-reconciliacion-fraternidad_0_1582041851.html'
p5
a.