(lp0
S'https://www.clarin.com/ieco/economia/Ganancias-meses-descuento-refuerzos-aguinaldo_0_1529247441.html'
p1
aS'https://www.clarin.com/ieco/economia/Ganancias-meses-descuento-refuerzos-aguinaldo_0_1529247441.html'
p2
aS'https://www.clarin.com/politica/Capitanich-catarsis-panelistas-periodistas-actores_0_1529247435.html'
p3
aS'https://www.clarin.com/politica/Capitanich-catarsis-panelistas-periodistas-actores_0_1529247435.html'
p4
aS'https://www.clarin.com/sociedad/Revelan-muelas-juicio-chicas-molestas_0_1529247419.html'
p5
aS'https://www.clarin.com/sociedad/Revelan-muelas-juicio-chicas-molestas_0_1529247419.html'
p6
aS'https://www.clarin.com/ieco/economia/Gobierno-Carta-Organica-Banco-Central_0_1529247415.html'
p7
aS'https://www.clarin.com/politica/Efedrina-Servini-investigara-mexicano-Lanatta_0_1529247412.html'
p8
aS'https://www.clarin.com/politica/Efedrina-Servini-investigara-mexicano-Lanatta_0_1529247412.html'
p9
a.