(lp0
S'https://www.clarin.com/sociedad/blanqueo-Gran-Barrera-Coral-afecta_0_1548445280.html'
p1
aS'https://www.clarin.com/politica/Argentina-va-cadena-Telesur_0_1547845478.html'
p2
aS'https://www.clarin.com/politica/frases-explosivas-Carrio_0_1548445261.html'
p3
aS'https://www.clarin.com/politica/massismo-insiste-Stolbizer-Corte-Suprema_0_1548445274.html'
p4
a.