(lp0
S'https://www.clarin.com/politica/Pepe-Scioli-Frente-Renovador-Massa_0_1646835466.html'
p1
aS'https://www.clarin.com/opinion/Internet-entrando-tormenta-perfecta_0_1646835464.html'
p2
aS'https://www.clarin.com/sociedad/Hallan-puerta-albergue-transitorio-adentro_0_1646835463.html'
p3
aS'https://www.clarin.com/sociedad/Hallan-puerta-albergue-transitorio-adentro_0_1646835463.html'
p4
aS'https://www.clarin.com/opinion/Inseguridad-ley-debil_0_1646835460.html'
p5
aS'https://www.clarin.com/politica/Puerta-entrego-credenciales-Rey-Espana_0_1646835458.html'
p6
aS'https://www.clarin.com/politica/Puerta-entrego-credenciales-Rey-Espana_0_1646835458.html'
p7
aS'https://www.clarin.com/politica/Antonini-Wilson-Bullrich-barriles-encontrados_0_1646835451.html'
p8
aS'https://www.clarin.com/politica/Antonini-Wilson-Bullrich-barriles-encontrados_0_1646835451.html'
p9
aS'https://www.clarin.com/politica/mapas-anonimo-clave-encontrar-efedrina_0_1646835447.html'
p10
aS'https://www.clarin.com/politica/mapas-anonimo-clave-encontrar-efedrina_0_1646835447.html'
p11
aS'https://www.clarin.com/sociedad/Retener-alumnos-principal-escuela-secundaria_0_1646835443.html'
p12
aS'https://www.clarin.com/sociedad/Retener-alumnos-principal-escuela-secundaria_0_1646835443.html'
p13
a.