(lp0
Vhttps://www.clarin.com/politica/Lazaro-Baez-hijo-quedaron-abogados_0_1536446518.html
p1
aVhttps://www.clarin.com/sociedad/aeronave-grande-mundo-prepara-despegar_0_1536446508.html
p2
aVhttps://www.clarin.com/sociedad/aeronave-grande-mundo-prepara-despegar_0_1536446508.html
p3
aVhttps://www.clarin.com/ieco/economia/Nuevo-Giustiniani-YPF-entregue-Chevron_0_1536446503.html
p4
aVhttps://www.clarin.com/ieco/economia/Nuevo-Giustiniani-YPF-entregue-Chevron_0_1536446503.html
p5
aVhttps://www.clarin.com/ieco/economia/cantidad-publico-abrio-feria-campo_0_1536446502.html
p6
aVhttps://www.clarin.com/ieco/economia/cantidad-publico-abrio-feria-campo_0_1536446502.html
p7
a.