(lp0
S'https://www.clarin.com/politica/Allanaron-oficinas-jefa-fiscales-bonaerenses_0_1583841846.html'
p1
aS'https://www.clarin.com/politica/Allanaron-oficinas-jefa-fiscales-bonaerenses_0_1583841846.html'
p2
aS'https://www.clarin.com/politica/Casanello-rechazo-recusacion_0_1583841845.html'
p3
aS'https://www.clarin.com/politica/Casanello-rechazo-recusacion_0_1583841845.html'
p4
aS'https://www.clarin.com/politica/EEUU-prometio-ayuda-esclarecer-Nisman_0_1583841844.html'
p5
aS'https://www.clarin.com/politica/EEUU-prometio-ayuda-esclarecer-Nisman_0_1583841844.html'
p6
aS'https://www.clarin.com/politica/Marcos-Pena-Garavano-Bullrich-declaraciones_0_1583841840.html'
p7
a.