(lp0
Vhttps://www.clarin.com/ieco/langostino-tabla-salvacion_0_1618638274.html
p1
aVhttps://www.clarin.com/politica/Lopez-renuncio-Parlasur-apelara-arma_0_1618638272.html
p2
aVhttps://www.clarin.com/politica/secretario-US-millones-edificio-Miami_0_1618638271.html
p3
aVhttps://www.clarin.com/ieco/va-ano-campo-exporto-industria_0_1618638270.html
p4
aVhttps://www.clarin.com/ieco/Enarsa-Caballo-Suarez-desmonta-irregularidades_0_1618638230.html
p5
aVhttps://www.clarin.com/politica/Macri-Morales-decirse-sintonia-politica_0_1618638260.html
p6
aVhttps://www.clarin.com/sociedad/autodefensa-consumidor-roba-tiempo_0_1618638254.html
p7
a.