(lp0
Vhttps://www.clarin.com/politica/desfile-Tribunales-ironico-agrupacion-macrista_0_1608439206.html
p1
aVhttps://www.clarin.com/politica/desfile-Tribunales-ironico-agrupacion-macrista_0_1608439206.html
p2
aVhttps://www.clarin.com/ieco/economia/turron-duplico-ventas-hacer-publicidad_0_1608439203.html
p3
aVhttps://www.clarin.com/ieco/economia/turron-duplico-ventas-hacer-publicidad_0_1608439203.html
p4
aVhttps://www.clarin.com/sociedad/Confirmado-va-Dario-Loperfido_0_1608439200.html
p5
aVhttps://www.clarin.com/sociedad/Confirmado-va-Dario-Loperfido_0_1608439200.html
p6
aVhttps://www.clarin.com/politica/Ottavis-Gonzalez-Fraga-recorrer-Moreno_0_1608439198.html
p7
aVhttps://www.clarin.com/politica/Ottavis-Gonzalez-Fraga-recorrer-Moreno_0_1608439198.html
p8
aVhttps://www.clarin.com/politica/Lazaro-Baez-sospechas-Casanello-Cristina_0_1608439188.html
p9
aVhttps://www.clarin.com/politica/Lazaro-Baez-sospechas-Casanello-Cristina_0_1608439188.html
p10
aVhttps://www.clarin.com/sociedad/Conto-terror-liberen-vuelva-atacar_0_1608439194.html
p11
aVhttps://www.clarin.com/sociedad/Conto-terror-liberen-vuelva-atacar_0_1608439194.html
p12
a.