(lp0
Vhttps://www.clarin.com/sociedad/tarea-introspeccion_0_1640836061.html
p1
aVhttps://www.clarin.com/politica/Ciudad-mitad-candidatos-deberian-mujeres_0_1640836057.html
p2
aVhttps://www.clarin.com/politica/Ciudad-mitad-candidatos-deberian-mujeres_0_1640836057.html
p3
aVhttps://www.clarin.com/politica/Podrian-imputar-Isabel-Peron-represion_0_1640836056.html
p4
aVhttps://www.clarin.com/politica/Podrian-imputar-Isabel-Peron-represion_0_1640836056.html
p5
aVhttps://www.clarin.com/politica/tercera-votacion-ONU-Malcorra-quinto_0_1640836055.html
p6
aVhttps://www.clarin.com/politica/tercera-votacion-ONU-Malcorra-quinto_0_1640836055.html
p7
aVhttps://www.clarin.com/sociedad/Kun-Aguero-sandwicheria-usaba-nombre_0_1640836051.html
p8
aVhttps://www.clarin.com/sociedad/Kun-Aguero-sandwicheria-usaba-nombre_0_1640836051.html
p9
aVhttps://www.clarin.com/ieco/Denuncian-operadora-local-Visa_0_1640836049.html
p10
aVhttps://www.clarin.com/politica/gobierno-reformula-traer-refugiados-sirios_0_1640836015.html
p11
aVhttps://www.clarin.com/politica/gobierno-reformula-traer-refugiados-sirios_0_1640836015.html
p12
a.