(lp0
Vhttps://www.clarin.com/politica/Llego-Temer-reune-Macri-Olivos_0_1661833822.html
p1
aVhttps://www.clarin.com/politica/Llego-Temer-reune-Macri-Olivos_0_1661833822.html
p2
aVhttps://www.clarin.com/sociedad/Juzgan-medicos-muerte-nene_0_1661833819.html
p3
aVhttps://www.clarin.com/sociedad/Juzgan-medicos-muerte-nene_0_1661833819.html
p4
aVhttps://www.clarin.com/politica/Michetti-Stolbizer-Canada-hablaron-Carrio_0_1661833818.html
p5
aVhttps://www.clarin.com/politica/Michetti-Stolbizer-Canada-hablaron-Carrio_0_1661833818.html
p6
aVhttps://www.clarin.com/politica/grieta-Gobierno-ilustres-internacionales-testimonio_0_1661833816.html
p7
aVhttps://www.clarin.com/politica/grieta-Gobierno-ilustres-internacionales-testimonio_0_1661833816.html
p8
aVhttps://www.clarin.com/politica/Contrapunto-empresarios-gremialistas-bono-ano_0_1661833815.html
p9
aVhttps://www.clarin.com/politica/Contrapunto-empresarios-gremialistas-bono-ano_0_1661833815.html
p10
aVhttps://www.clarin.com/sociedad/autofagia-sistema-reciclaje-celular_0_1661833813.html
p11
aVhttps://www.clarin.com/sociedad/autofagia-sistema-reciclaje-celular_0_1661833813.html
p12
aVhttps://www.clarin.com/sociedad/Grooming-detienen-hombre-acosar-chica_0_1661833812.html
p13
aVhttps://www.clarin.com/sociedad/Grooming-detienen-hombre-acosar-chica_0_1661833812.html
p14
aVhttps://www.clarin.com/sociedad/Nobel-Medicina-Yoshinori-Ohsumi-descubrir_0_1661833805.html
p15
aVhttps://www.clarin.com/sociedad/Nobel-Medicina-Yoshinori-Ohsumi-descubrir_0_1661833805.html
p16
a.