(lp0
S'https://www.clarin.com/politica/Caso-Baez-judicial-interna-familiar_0_1583841703.html'
p1
aS'https://www.clarin.com/politica/Caso-Baez-judicial-interna-familiar_0_1583841703.html'
p2
aS'https://www.clarin.com/sociedad/hombre-sobrevive-ataque-serpiente-inodoro_0_1583841706.html'
p3
aS'https://www.clarin.com/sociedad/hombre-sobrevive-ataque-serpiente-inodoro_0_1583841706.html'
p4
aS'https://www.clarin.com/politica/Duran-Barba-chicaneo-Pinedo-presidencia_0_1583841700.html'
p5
aS'https://www.clarin.com/politica/Duran-Barba-chicaneo-Pinedo-presidencia_0_1583841700.html'
p6
aS'https://www.clarin.com/politica/Piden-embargue-sueldo-diputado-Vido_0_1583841702.html'
p7
aS'https://www.clarin.com/politica/Piden-embargue-sueldo-diputado-Vido_0_1583841702.html'
p8
aS'https://www.clarin.com/politica/Patrimonio-ministros-Pena-aumento-Dietrich_0_1583841642.html'
p9
aS'https://www.clarin.com/politica/Patrimonio-ministros-Pena-aumento-Dietrich_0_1583841642.html'
p10
aS'https://www.clarin.com/ieco/economia/Frigerio-insiste-jubilados-ingrese-blanqueo_0_1583841694.html'
p11
aS'https://www.clarin.com/ieco/economia/Frigerio-insiste-jubilados-ingrese-blanqueo_0_1583841694.html'
p12
aS'https://www.clarin.com/sociedad/Niegan-muerte-vegana-Everest-relacionada_0_1583841693.html'
p13
aS'https://www.clarin.com/sociedad/Niegan-muerte-vegana-Everest-relacionada_0_1583841693.html'
p14
a.