(lp0
S'https://www.clarin.com/ieco/economia/contenidos-nube-ayudan-producir-valor_0_1685231643.html'
p1
aS'https://www.clarin.com/ieco/economia/Queremos-saber_0_1685231645.html'
p2
aS'https://www.clarin.com/ieco/management/Competitividad-peso-costo-laboral-unitario_0_1685231650.html'
p3
aS'https://www.clarin.com/ieco/economia/negocio-ideas-torta-publicitaria-crece_0_1685231641.html'
p4
aS'https://www.clarin.com/ieco/economia/Mirar-afuera-reinventarla-banca_0_1685231634.html'
p5
aS'https://www.clarin.com/ieco/economia/Mirar-afuera-reinventarla-banca_0_1685231634.html'
p6
aS'https://www.clarin.com/ieco/economia/Aplausos-oros-campanas-destacadas-ano_0_1685231640.html'
p7
aS'https://www.clarin.com/ieco/economia/Aplausos-oros-campanas-destacadas-ano_0_1685231640.html'
p8
aS'https://www.clarin.com/ieco/economia/vida-despues-deuda_0_1685231618.html'
p9
aS'https://www.clarin.com/ieco/economia/Alimentos-victima-caida-ingreso_0_1685231612.html'
p10
aS'https://www.clarin.com/ieco/economia/Alimentos-victima-caida-ingreso_0_1685231612.html'
p11
aS'https://www.clarin.com/ieco/management/hacen-empresas-atraer-retener-talentos_0_1685231607.html'
p12
aS'https://www.clarin.com/ieco/management/hacen-empresas-atraer-retener-talentos_0_1685231607.html'
p13
aS'https://www.clarin.com/opinion/Cambia-agenda-sigue-estupidez_0_1686431346.html'
p14
aS'https://www.clarin.com/opinion/Cambia-agenda-sigue-estupidez_0_1686431346.html'
p15
aS'https://www.clarin.com/ieco/economia/Plop-Trump-dolares-trasvasan_0_1685231617.html'
p16
aS'https://www.clarin.com/opinion/ley-trampa-reforma-electoral_0_1686431345.html'
p17
aS'https://www.clarin.com/opinion/ley-trampa-reforma-electoral_0_1686431345.html'
p18
aS'https://www.clarin.com/opinion/Cambia-agenda-sigue-estupidez_0_1686431344.html'
p19
aS'https://www.clarin.com/ieco/economia/Macri-hoy-solas-Carrio_0_1685231635.html'
p20
aS'https://www.clarin.com/ieco/economia/Macri-hoy-solas-Carrio_0_1685231635.html'
p21
a.