(lp0
Vhttps://www.clarin.com/sociedad/Confirman-joven-embarazada-gripe-Misiones_0_1603039701.html
p1
aVhttps://www.clarin.com/politica/PJ-Herminio-intendentes-condiciones-Sota_0_1603039696.html
p2
aVhttps://www.clarin.com/politica/PJ-Herminio-intendentes-condiciones-Sota_0_1603039696.html
p3
aVhttps://www.clarin.com/ieco/Gobierno-seguira-financiando-vencimientos-ANSES_0_1603039695.html
p4
aVhttps://www.clarin.com/ieco/Gobierno-seguira-financiando-vencimientos-ANSES_0_1603039695.html
p5
aVhttps://www.clarin.com/ieco/Procear-cuota-promedio-anos-plazo_0_1602439911.html
p6
aVhttps://www.clarin.com/ieco/Procear-cuota-promedio-anos-plazo_0_1602439911.html
p7
aVhttps://www.clarin.com/ieco/setiembre-comienzan-pagar-juicios-jubilados_0_1602439908.html
p8
aVhttps://www.clarin.com/ieco/setiembre-comienzan-pagar-juicios-jubilados_0_1602439908.html
p9
aVhttps://www.clarin.com/ieco/Fuerte-puja-representacion-empresarios-bonaerenses_0_1602439906.html
p10
aVhttps://www.clarin.com/ieco/Fuerte-puja-representacion-empresarios-bonaerenses_0_1602439906.html
p11
a.