(lp0
S'https://www.clarin.com/politica/Michetti-citaron-declarar-donantes-fundacion_0_1657634335.html'
p1
aS'https://www.clarin.com/politica/Hotesur-demoran-pericias-firmas-familia_0_1657634250.html'
p2
aS'https://www.clarin.com/ieco/Banco-Central-lanzo-politica-inflacion_0_1657634334.html'
p3
aS'https://www.clarin.com/politica/Denuncian-Sabbatella-legisadora-malversar-millones_0_1657634341.html'
p4
aS'https://www.clarin.com/ieco/economia/portenos-ocupados-gana_0_1657634338.html'
p5
aS'https://www.clarin.com/opinion/Cautiverio-agresividad-orcas_0_1657634339.html'
p6
a.