(lp0
S'https://www.clarin.com/opinion/protestas-actuales-canales-mostrar-descontento_0_1652234914.html'
p1
aS'https://www.clarin.com/opinion/protestas-actuales-canales-mostrar-descontento_0_1652234914.html'
p2
aS'https://www.clarin.com/opinion/Escribir-puede-jugar_0_1652234911.html'
p3
aS'https://www.clarin.com/opinion/Escribir-puede-jugar_0_1652234911.html'
p4
aS'https://www.clarin.com/opinion/casa-JFK-empezo-sonar-destino_0_1652234910.html'
p5
aS'https://www.clarin.com/opinion/casa-JFK-empezo-sonar-destino_0_1652234910.html'
p6
aS'https://www.clarin.com/politica/Gobierno-descarta-Cristina-presa-rival_0_1652234906.html'
p7
aS'https://www.clarin.com/politica/Gobierno-descarta-Cristina-presa-rival_0_1652234906.html'
p8
aS'https://www.clarin.com/opinion/mejor-atencion-salud-mental_0_1652234905.html'
p9
aS'https://www.clarin.com/sociedad/Desplazaron-superiora-convento-investigado-torturas_0_1652234904.html'
p10
aS'https://www.clarin.com/sociedad/Desplazaron-superiora-convento-investigado-torturas_0_1652234904.html'
p11
aS'https://www.clarin.com/opinion/Crisis-sociales-extension-conflicto-humano_0_1652234902.html'
p12
aS'https://www.clarin.com/opinion/Inversiones-financieras-productivas_0_1652234901.html'
p13
a.