(lp0
S'https://www.clarin.com/sociedad/Hallaron-descampado-jovenes-desaparecidas-Mendoza_0_1658234187.html'
p1
aS'https://www.clarin.com/sociedad/Hallaron-descampado-jovenes-desaparecidas-Mendoza_0_1658234187.html'
p2
aS'https://www.clarin.com/ieco/Intimacion-bancos-cartas-AFIP-blanqueo_0_1658234185.html'
p3
aS'https://www.clarin.com/ieco/Intimacion-bancos-cartas-AFIP-blanqueo_0_1658234185.html'
p4
aS'https://www.clarin.com/politica/concejal-desubicado-Macri-FARC-guarda_0_1658234183.html'
p5
aS'https://www.clarin.com/politica/concejal-desubicado-Macri-FARC-guarda_0_1658234183.html'
p6
a.