(lp0
S'https://www.clarin.com/sociedad/Estres-probador-mayoria-cuesta-pintada_0_1681631986.html'
p1
aS'https://www.clarin.com/politica/Investigan-Cristina-compro-casa-Cedines_0_1681631995.html'
p2
aS'https://www.clarin.com/sociedad/adelanto-verano-playa-exploto-enero_0_1681631985.html'
p3
aS'https://www.clarin.com/politica/titular-Loteria-aumento-veces-patrimonio_0_1681631988.html'
p4
aS'https://www.clarin.com/sociedad/Salen-promedio-argentinos-mejorar-talles_0_1681631990.html'
p5
aS'https://www.clarin.com/politica/esconderlos-Justicia-movieron-cuentas-millones_0_1681631992.html'
p6
aS'https://www.clarin.com/ieco/cede-caida-ventas-minoristas-octubre_0_1681631983.html'
p7
a.