(lp0
S'https://www.clarin.com/politica/Martin-Baez-critico-fiscal-explicar_0_1571842937.html'
p1
aS'https://www.clarin.com/politica/Martin-Baez-critico-fiscal-explicar_0_1571842937.html'
p2
aS'https://www.clarin.com/sociedad/Afirman-toxico-violar-argentinas-Montanita_0_1571842958.html'
p3
aS'https://www.clarin.com/sociedad/Afirman-toxico-violar-argentinas-Montanita_0_1571842958.html'
p4
aS'https://www.clarin.com/politica/Confirman-construccion-represas-Santa-Cruz_0_1571842962.html'
p5
aS'https://www.clarin.com/politica/Confirman-construccion-represas-Santa-Cruz_0_1571842962.html'
p6
aS'https://www.clarin.com/politica/Jaime-Vido-mantener-subsidios-empresas_0_1571842942.html'
p7
aS'https://www.clarin.com/politica/Jaime-Vido-mantener-subsidios-empresas_0_1571842942.html'
p8
a.