(lp0
Vhttps://www.clarin.com/politica/Cristina-Capital-homenajear-Hugo-Chavez_0_1621038045.html
p1
aVhttps://www.clarin.com/politica/Cristina-Capital-homenajear-Hugo-Chavez_0_1621038045.html
p2
aVhttps://www.clarin.com/politica/Amplian-denuncia-Gobierno-datos-personales_0_1621038035.html
p3
aVhttps://www.clarin.com/politica/Amplian-denuncia-Gobierno-datos-personales_0_1621038035.html
p4
aVhttps://www.clarin.com/ieco/economia/Toros-campeones-precios-record-Rural_0_1621038038.html
p5
aVhttps://www.clarin.com/ieco/economia/Toros-campeones-precios-record-Rural_0_1621038038.html
p6
a.