(lp0
S'https://www.clarin.com/ieco/economia/Chevron-costo-perforar-Vaca-Muerta_0_1601240028.html'
p1
aS'https://www.clarin.com/ieco/economia/gremios-petroleros-unen-lanzar-horas_0_1601240027.html'
p2
aS'https://www.clarin.com/politica/Imputan-Anibal-Fernandez-enriquecimiento-ilicito_0_1601240022.html'
p3
aS'https://www.clarin.com/politica/Imputan-Anibal-Fernandez-enriquecimiento-ilicito_0_1601240022.html'
p4
aS'https://www.clarin.com/sociedad/Fascinacion-preocupa-interes-creciente-huella_0_1601240019.html'
p5
aS'https://www.clarin.com/sociedad/Fascinacion-preocupa-interes-creciente-huella_0_1601240019.html'
p6
aS'https://www.clarin.com/politica/Denuncian-desvio-millonario-social-maritimas_0_1601240018.html'
p7
aS'https://www.clarin.com/politica/Denuncian-desvio-millonario-social-maritimas_0_1601240018.html'
p8
aS'https://www.clarin.com/sociedad/encontrado-ahorcado-hombre-acusado-degollar_0_1601240015.html'
p9
aS'https://www.clarin.com/sociedad/encontrado-ahorcado-hombre-acusado-degollar_0_1601240015.html'
p10
a.