(lp0
S'https://www.clarin.com/sociedad/Callejeros-entregan-Justicia-mandara-detenerlos_0_1553844719.html'
p1
aS'https://www.clarin.com/politica/Lazaro-Baez-inquietante-contar-verdad_0_1553844733.html'
p2
aS'https://www.clarin.com/sociedad/Denuncio-Facebook-hombre-recibiendo-mensajes_0_1553844748.html'
p3
aS'https://www.clarin.com/politica/Macri-Cordoba-cantitos-carterazo-fallido_0_1553844724.html'
p4
aS'https://www.clarin.com/politica/avance-cambio-gobierno-monton-informacion_0_1553844734.html'
p5
aS'https://www.clarin.com/sociedad/Lizzy-cumplio-conocio-Papa-quedarse_0_1553844737.html'
p6
a.