(lp0
S'https://www.clarin.com/ieco/economia/Guia-devolucion-percepciones-operaciones-extranjera_0_1499850183.html'
p1
aS'https://www.clarin.com/ieco/economia/Guia-devolucion-percepciones-operaciones-extranjera_0_1499850183.html'
p2
aS'https://www.clarin.com/sociedad/abuso-violo-hija-padre-Santiago_del_Estero-Vernacho_0_1499850170.html'
p3
aS'https://www.clarin.com/ieco/economia/Sigue-mayo-rebaja-impuesto-cigarrillos_0_1499850178.html'
p4
aS'https://www.clarin.com/politica/ministro-caja-fuerte-bano-despacho_0_1499850173.html'
p5
aS'https://www.clarin.com/politica/ministro-caja-fuerte-bano-despacho_0_1499850173.html'
p6
aS'https://www.clarin.com/sociedad/Netflix-expande-presenta-TV-mundial_0_1499850164.html'
p7
aS'https://www.clarin.com/sociedad/Netflix-expande-presenta-TV-mundial_0_1499850164.html'
p8
aS'https://www.clarin.com/politica/AMIA-Gobierno-impulsar-ausencia-acusados_0_1499850140.html'
p9
aS'https://www.clarin.com/politica/AMIA-Gobierno-impulsar-ausencia-acusados_0_1499850140.html'
p10
a.