(lp0
S'https://www.clarin.com/politica/Piden-juicio-Anibal-Fernandez-Qunita_0_1649235103.html'
p1
aS'https://www.clarin.com/politica/Piden-juicio-Anibal-Fernandez-Qunita_0_1649235103.html'
p2
aS'https://www.clarin.com/sociedad/ruedas-rapida-prueba-Rio-Janeiro_0_1649235102.html'
p3
aS'https://www.clarin.com/sociedad/ruedas-rapida-prueba-Rio-Janeiro_0_1649235102.html'
p4
aS'https://www.clarin.com/ieco/Triaca-pidio-prudencia-sindicalistas_0_1649235101.html'
p5
aS'https://www.clarin.com/ieco/Triaca-pidio-prudencia-sindicalistas_0_1649235101.html'
p6
aS'https://www.clarin.com/politica/Laura-Alonso-Aranguren-desprenderse-Shell_0_1649235097.html'
p7
aS'https://www.clarin.com/politica/Laura-Alonso-Aranguren-desprenderse-Shell_0_1649235097.html'
p8
aS'https://www.clarin.com/ieco/Gobierno-mostro-optimista-aprobar-primer_0_1649235096.html'
p9
aS'https://www.clarin.com/ieco/Gobierno-mostro-optimista-aprobar-primer_0_1649235096.html'
p10
aS'https://www.clarin.com/politica/Paro-Santa-Cruz-funcionarios-Baez_0_1645635533.html'
p11
aS'https://www.clarin.com/politica/Paro-Santa-Cruz-funcionarios-Baez_0_1645635533.html'
p12
aS'https://www.clarin.com/politica/inflacion-Congreso-agosto-ano_0_1649235090.html'
p13
aS'https://www.clarin.com/politica/inflacion-Congreso-agosto-ano_0_1649235090.html'
p14
a.