(lp0
S'https://www.clarin.com/sociedad/agrupacion-charla-practicas-abortivas-Pellegrini_0_1646235448.html'
p1
aS'https://www.clarin.com/politica/Baez-pedira-prision-domiciliaria-delicado_0_1646235457.html'
p2
aS'https://www.clarin.com/ieco/economia/Aranguren-reconocio-calor-verano-cortes_0_1646235446.html'
p3
aS'https://www.clarin.com/politica/Myriam-Bregman-denuncio-amenazas-Zurdita_0_1646235458.html'
p4
a.