(lp0
Vhttps://www.clarin.com/politica/teorema-macrista-enfrentar-mala-nueva_0_1658834303.html
p1
aVhttps://www.clarin.com/politica/teorema-macrista-enfrentar-mala-nueva_0_1658834303.html
p2
aVhttps://www.clarin.com/politica/Kicillof-Recalde-salieron-responderle-Macri_0_1658834301.html
p3
aVhttps://www.clarin.com/politica/Kicillof-Recalde-salieron-responderle-Macri_0_1658834301.html
p4
aVhttps://www.clarin.com/sociedad/nene-entregue-bien-hijo-preso_0_1658834298.html
p5
a.