(lp0
Vhttps://www.clarin.com/politica/Baez-endoso-cheques-millones-dolares_0_1559244545.html
p1
aVhttps://www.clarin.com/politica/Chueco-cerebro-esconde-secretos-Rosadita_0_1559244548.html
p2
aVhttps://www.clarin.com/politica/Chueco-cerebro-esconde-secretos-Rosadita_0_1559244548.html
p3
aVhttps://www.clarin.com/sociedad/fuertes-lluvias-complican-situacion-evacuados_0_1559244500.html
p4
aVhttps://www.clarin.com/politica/abogado-cercano-Baez-desaparecio-declarar_0_1559844069.html
p5
aVhttps://www.clarin.com/politica/abogado-cercano-Baez-desaparecio-declarar_0_1559844069.html
p6
aVhttps://www.clarin.com/opinion/Pobreza-Cero-eslogan_0_1559244461.html
p7
a.