(lp0
S'https://www.clarin.com/ieco/economia/Cambio-millonario-manos-distribuidoras-electricas_0_1586841319.html'
p1
aS'https://www.clarin.com/politica/Descontrol-malversacion-falsificacion-intendente-sabbatellista_0_1586841324.html'
p2
aS'https://www.clarin.com/ieco/economia/Leve-caida-expectativas-politica-economia_0_1586841326.html'
p3
aS'https://www.clarin.com/ieco/economia/Monsanto-negociacion-pedido-Macri_0_1586841321.html'
p4
aS'https://www.clarin.com/politica/Desalojo-incidentes-Ushuaia-prenden-protesta_0_1586841333.html'
p5
aS'https://www.clarin.com/sociedad/Video-jugaban-sorprendio-inmenso-cocodrilo_0_1586841329.html'
p6
aS'https://www.clarin.com/ieco/economia/Argentina-mejora-lugar-ranking-competitividad_0_1586841328.html'
p7
aS'https://www.clarin.com/politica/Obra-empresas-investigar-Lazaro-Baez_0_1586841330.html'
p8
aS'https://www.clarin.com/sociedad/Datos-oficiales-muertos-gripe-pais_0_1586841320.html'
p9
a.