(lp0
S'https://www.clarin.com/politica/intendente-dia-municipales-acto-Cristina_0_1558044601.html'
p1
aS'https://www.clarin.com/sociedad/Dijo-arrollado-arrastrado-motociclista-hija_0_1558044598.html'
p2
aS'https://www.clarin.com/politica/patota-ingreso-INDEC-causo-destrozos_0_1558044594.html'
p3
aS'https://www.clarin.com/politica/Triaca-anuncio-convocara-Consejo-Salario_0_1558044636.html'
p4
aS'https://www.clarin.com/politica/Macri-sindicalistas-convocara-Consejo-Salario_0_1558044642.html'
p5
aS'https://www.clarin.com/sociedad/intendente-Calera-apunto-politico-crimen_0_1558044626.html'
p6
aS'https://www.clarin.com/sociedad/Cientos-pueblos-aislados-inundacion-Litoral_0_1558044624.html'
p7
aS'https://www.clarin.com/sociedad/Grave-gastroenterocolitis-Berazategui-suspenden-escuelas_0_1558044615.html'
p8
a.