(lp0
S'https://www.clarin.com/politica/Macri-escandalo-Lopez-fin-kirchnerismo_0_1597040393.html'
p1
aS'https://www.clarin.com/politica/Macri-escandalo-Lopez-fin-kirchnerismo_0_1597040393.html'
p2
aS'https://www.clarin.com/politica/Pidio-disculpas-concejal-trompadas-Vidal_0_1597040392.html'
p3
aS'https://www.clarin.com/politica/Pidio-disculpas-concejal-trompadas-Vidal_0_1597040392.html'
p4
aS'https://www.clarin.com/politica/Moreno-intento-minimizar-detencion-Lopez_0_1597040380.html'
p5
aS'https://www.clarin.com/politica/Moreno-intento-minimizar-detencion-Lopez_0_1597040380.html'
p6
aS'https://www.clarin.com/ieco/economia/Viedma-Justicia-congela-techo-tarifas_0_1597040386.html'
p7
aS'https://www.clarin.com/ieco/economia/Viedma-Justicia-congela-techo-tarifas_0_1597040386.html'
p8
aS'https://www.clarin.com/ieco/economia/Gobierno-relanzar-aerolinea-estatal-Lade_0_1597040383.html'
p9
a.