(lp0
S'https://www.clarin.com/ieco/economia/Cabrera-normalizacion-economia-llegara-septiembre_0_1549645215.html'
p1
aS'https://www.clarin.com/ieco/economia/Cabrera-normalizacion-economia-llegara-septiembre_0_1549645215.html'
p2
aS'https://www.clarin.com/sociedad/Iba-entierro-padre-mato-hermanos_0_1549645212.html'
p3
aS'https://www.clarin.com/sociedad/Iba-entierro-padre-mato-hermanos_0_1549645212.html'
p4
aS'https://www.clarin.com/politica/Telefono-Carrio-Macri-Caputo-Angelici_0_1549645210.html'
p5
aS'https://www.clarin.com/politica/Telefono-Carrio-Macri-Caputo-Angelici_0_1549645210.html'
p6
aS'https://www.clarin.com/politica/Senado-sesiona-aprobar-salir-default_0_1549645201.html'
p7
aS'https://www.clarin.com/politica/Senado-sesiona-aprobar-salir-default_0_1549645201.html'
p8
aS'https://www.clarin.com/sociedad/Buenos-Aires-Estacion-Espacial-Internacional_0_1549645187.html'
p9
aS'https://www.clarin.com/sociedad/Buenos-Aires-Estacion-Espacial-Internacional_0_1549645187.html'
p10
aS'https://www.clarin.com/ieco/economia/japones-Sharp-manos-firma-taiwanesa_0_1549645190.html'
p11
aS'https://www.clarin.com/ieco/economia/japones-Sharp-manos-firma-taiwanesa_0_1549645190.html'
p12
a.