(lp0
S'https://www.clarin.com/ieco/coloquioidea/distancia-cuentan-historias-audiencias-corta_0_1667833312.html'
p1
aS'https://www.clarin.com/ieco/beneficiados-acceder-tarifa-social-gas_0_1667833314.html'
p2
a.