(lp0
S'https://www.clarin.com/ieco/economia/Domingo-Cavallo-considero-desproposito-combustibles_0_1568843164.html'
p1
aS'https://www.clarin.com/ieco/economia/CAME-ventas-minoristas-cayeron-cuatrimestre_0_1568843162.html'
p2
aS'https://www.clarin.com/ieco/economia/CAME-ventas-minoristas-cayeron-cuatrimestre_0_1568843162.html'
p3
aS'https://www.clarin.com/sociedad/Abril-peor-consumo-ventas-cayeron_0_1568843161.html'
p4
aS'https://www.clarin.com/sociedad/Quilmes-distraigan-prohiben-policias-celulares_0_1568843156.html'
p5
aS'https://www.clarin.com/sociedad/Quilmes-distraigan-prohiben-policias-celulares_0_1568843156.html'
p6
aS'https://www.clarin.com/sociedad/Muchas-estaciones-GNC-interior-suministro_0_1568843153.html'
p7
aS'https://www.clarin.com/sociedad/Muchas-estaciones-GNC-interior-suministro_0_1568843153.html'
p8
aS'https://www.clarin.com/sociedad/Desesperada-busqueda-Bahia-Blanca-desaparecio_0_1568843134.html'
p9
aS'https://www.clarin.com/sociedad/Desesperada-busqueda-Bahia-Blanca-desaparecio_0_1568843134.html'
p10
aS'https://www.clarin.com/sociedad/historia-detras-viral-Dia-Trabajador_0_1568843149.html'
p11
aS'https://www.clarin.com/sociedad/historia-detras-viral-Dia-Trabajador_0_1568843149.html'
p12
aS'https://www.clarin.com/politica/Derechos-Gobierno-bonaerense-querellante-humanidad_0_1568843150.html'
p13
aS'https://www.clarin.com/politica/Derechos-Gobierno-bonaerense-querellante-humanidad_0_1568843150.html'
p14
a.