(lp0
S'https://www.clarin.com/sociedad/Macri-lanzo-Plan-Nacional-Juventud_0_1613838661.html'
p1
aS'https://www.clarin.com/sociedad/Macri-lanzo-Plan-Nacional-Juventud_0_1613838661.html'
p2
aS'https://www.clarin.com/ieco/economia/Aranguren-contrata-empresas-evitar-verano_0_1613838666.html'
p3
aS'https://www.clarin.com/ieco/economia/Aranguren-contrata-empresas-evitar-verano_0_1613838666.html'
p4
aS'https://www.clarin.com/sociedad/ano-misterio-trabajo-nadie-supo_0_1613838665.html'
p5
aS'https://www.clarin.com/sociedad/ano-misterio-trabajo-nadie-supo_0_1613838665.html'
p6
aS'https://www.clarin.com/politica/Corte-Suprema-Lorenzetti-Santa-Fe_0_1613838660.html'
p7
aS'https://www.clarin.com/politica/Corte-Suprema-Lorenzetti-Santa-Fe_0_1613838660.html'
p8
aS'https://www.clarin.com/politica/Pidieron-embargar-seguridad-Florencia-Kirchner_0_1613838651.html'
p9
aS'https://www.clarin.com/politica/Pidieron-embargar-seguridad-Florencia-Kirchner_0_1613838651.html'
p10
aS'https://www.clarin.com/sociedad/Perros-viejos-protagonistas-muestra-fotografica_0_1613838652.html'
p11
aS'https://www.clarin.com/sociedad/Perros-viejos-protagonistas-muestra-fotografica_0_1613838652.html'
p12
aS'https://www.clarin.com/ieco/CNV-rechazo-brasilena-acciones-Indupa_0_1613838650.html'
p13
aS'https://www.clarin.com/ieco/CNV-rechazo-brasilena-acciones-Indupa_0_1613838650.html'
p14
a.