(lp0
S'https://www.clarin.com/opinion/INDEC-necesita-reconstruirse-cero_0_1540046315.html'
p1
aS'https://www.clarin.com/politica/Gobierno-Electroingenieria-negocian-Santa-Cruz_0_1540046309.html'
p2
aS'https://www.clarin.com/ieco/Regreso-interes-bono-ajusta-crecimiento_0_1540046432.html'
p3
aS'https://www.clarin.com/politica/FpV-endurecio-postura-reclama-suspender_0_1540046464.html'
p4
aS'https://www.clarin.com/politica/Massa-llevo-suspenso-final_0_1540046448.html'
p5
aS'https://www.clarin.com/opinion/golpe-Cristina_0_1540645948.html'
p6
aS'https://www.clarin.com/politica/Moreno-Feinmann-puerta-America-TV_0_1540645940.html'
p7
aS'https://www.clarin.com/politica/Ahora-Carrio-apunto-asesor-Ritondo_0_1540046403.html'
p8
aS'https://www.clarin.com/opinion/Informacion-publica-YPF-democracia_0_1540046349.html'
p9
aS'https://www.clarin.com/politica/Nueva-York-provoco-confusion-previsto_0_1540046466.html'
p10
aS'https://www.clarin.com/opinion/cambio-perfil-productivo_0_1540046312.html'
p11
a.