(lp0
S'https://www.clarin.com/politica/Provincia-Corte-reclamo-millonarios-conurbano_0_1624037666.html'
p1
aS'https://www.clarin.com/sociedad/Trabajo-capacidades-diferentes-asignatura-Argentina_0_1624037669.html'
p2
aS'https://www.clarin.com/sociedad/Horror-San-Luis-trataban-princesas_0_1624037672.html'
p3
aS'https://www.clarin.com/ieco/Repunta-venta-autos-julio_0_1624037673.html'
p4
aS'https://www.clarin.com/politica/hermana-Ines-encubierto-Lopez-contenido_0_1624037678.html'
p5
aS'https://www.clarin.com/sociedad/video-gallina-arrasa-Web_0_1624037674.html'
p6
aS'https://www.clarin.com/sociedad/Crean-lastima-humanos-maquinas-asesinas_0_1624037663.html'
p7
aS'https://www.clarin.com/sociedad/Compara-medimos-argentinos-paises-latinoamericanos_0_1624037656.html'
p8
aS'https://www.clarin.com/sociedad/Intervienen-chicos-pobres-realidad-lujoso_0_1624037665.html'
p9
aS'https://www.clarin.com/sociedad/obra-ingenieria-impresionante-planean-Noruega_0_1624037667.html'
p10
a.