(lp0
S'https://www.clarin.com/sociedad/Plata-Cordoba-Rosario-Mendoza-Tucuman_0_1661833921.html'
p1
aS'https://www.clarin.com/sociedad/Plata-Cordoba-Rosario-Mendoza-Tucuman_0_1661833921.html'
p2
aS'https://www.clarin.com/politica/Indagaron-Mar-Plata-arrojado-Macri_0_1661833918.html'
p3
aS'https://www.clarin.com/politica/Indagaron-Mar-Plata-arrojado-Macri_0_1661833918.html'
p4
aS'https://www.clarin.com/politica/Nisman-piden-junta-medica-criminalistica_0_1661833917.html'
p5
aS'https://www.clarin.com/politica/Nisman-piden-junta-medica-criminalistica_0_1661833917.html'
p6
aS'https://www.clarin.com/ieco/recaudacion-tributaria-septiembre-aumento_0_1661833914.html'
p7
aS'https://www.clarin.com/ieco/recaudacion-tributaria-septiembre-aumento_0_1661833914.html'
p8
a.