(lp0
Vhttps://www.clarin.com/politica/Macri-suspension-CGT-cultura-encuentro_0_1669033107.html
p1
aVhttps://www.clarin.com/politica/Macri-suspension-CGT-cultura-encuentro_0_1669033107.html
p2
aVhttps://www.clarin.com/sociedad/lluvia-complica-Capital-Conurbano-alerta_0_1669033106.html
p3
aVhttps://www.clarin.com/sociedad/lluvia-complica-Capital-Conurbano-alerta_0_1669033106.html
p4
aVhttps://www.clarin.com/politica/Macri-reunio-Papa-charla-Argentina_0_1669033102.html
p5
aVhttps://www.clarin.com/politica/Macri-reunio-Papa-charla-Argentina_0_1669033102.html
p6
a.