(lp0
S'https://www.clarin.com/politica/plata-Lorenzo-responsable-Alberto-Fernandez_0_1532247085.html'
p1
aS'https://www.clarin.com/politica/plata-Lorenzo-responsable-Alberto-Fernandez_0_1532247085.html'
p2
aS'https://www.clarin.com/ieco/Luego-discurso-Macri-dolar-supera_0_1532246994.html'
p3
aS'https://www.clarin.com/sociedad/montana-Harry-Potter-provoca-vomitos_0_1532247059.html'
p4
aS'https://www.clarin.com/sociedad/montana-Harry-Potter-provoca-vomitos_0_1532247059.html'
p5
a.