(lp0
S'https://www.clarin.com/sociedad/espacial-lidera-argentino-camino-Marte_0_1540046121.html'
p1
aS'https://www.clarin.com/sociedad/Parkinson-enfermedad-sufre-Indio-Solari_0_1540046132.html'
p2
aS'https://www.clarin.com/politica/Cristobal-Lopez-reconoce-sostiene-ilegal_0_1539446390.html'
p3
aS'https://www.clarin.com/politica/Fondos-buitre-negociacion-avanzar-proyecto_0_1540046126.html'
p4
aS'https://www.clarin.com/politica/Trimarco-Gobierno-fondos-millonarios-obra_0_1540046118.html'
p5
a.