(lp0
S'https://www.clarin.com/politica/Presion-Prat-Gay-gobernadores-adhesion-blanqueo_0_1649235251.html'
p1
aS'https://www.clarin.com/ieco/economia/indices-confirman-fuerte-inflacion-agosto_0_1649235191.html'
p2
aS'https://www.clarin.com/ieco/economia/indices-confirman-fuerte-inflacion-agosto_0_1649235191.html'
p3
aS'https://www.clarin.com/ieco/Tarjetas-credito-Gobierno-propuesta-comisiones_0_1649235233.html'
p4
aS'https://www.clarin.com/ieco/Tarjetas-credito-Gobierno-propuesta-comisiones_0_1649235233.html'
p5
aS'https://www.clarin.com/ieco/economia/ANSeS-seguir-usando-jubilados-pagos_0_1649235205.html'
p6
aS'https://www.clarin.com/ieco/economia/ANSeS-seguir-usando-jubilados-pagos_0_1649235205.html'
p7
aS'https://www.clarin.com/politica/Aranguren-venderia-acciones-Shell_0_1649235244.html'
p8
aS'https://www.clarin.com/politica/Aranguren-venderia-acciones-Shell_0_1649235244.html'
p9
aS'https://www.clarin.com/ieco/Vidal-respaldo-campo-lanzamiento-Expoagro_0_1649235229.html'
p10
aS'https://www.clarin.com/ieco/Vidal-respaldo-campo-lanzamiento-Expoagro_0_1649235229.html'
p11
aS'https://www.clarin.com/politica/audiencia-gas-durara-fin-semana_0_1649235195.html'
p12
aS'https://www.clarin.com/politica/audiencia-gas-durara-fin-semana_0_1649235195.html'
p13
aS'https://www.clarin.com/ieco/economia/YPF-necesita-precio-obtener-gas_0_1649235198.html'
p14
aS'https://www.clarin.com/sociedad/Alerta-vientos-fuertes-parte-pais_0_1649835009.html'
p15
aS'https://www.clarin.com/sociedad/Alerta-Exactas-presunta-amenaza-terrorista_0_1649835008.html'
p16
aS'https://www.clarin.com/sociedad/Alerta-Exactas-presunta-amenaza-terrorista_0_1649835008.html'
p17
aS'https://www.clarin.com/politica/Presupuesto-reducirian-subsidios-millones_0_1649835007.html'
p18
aS'https://www.clarin.com/politica/Presupuesto-reducirian-subsidios-millones_0_1649835007.html'
p19
a.