(lp0
Vhttps://www.clarin.com/politica/levantaron-buscar-Casa-Jose-Lopez_0_1597640306.html
p1
aVhttps://www.clarin.com/politica/levantaron-buscar-Casa-Jose-Lopez_0_1597640306.html
p2
aVhttps://www.clarin.com/politica/Sergio-Schoklender-Lopez-Vido-equipo_0_1597640305.html
p3
aVhttps://www.clarin.com/politica/disperso-queda-mirandote-mira-techo_0_1597640299.html
p4
aVhttps://www.clarin.com/politica/Ahora-Alperovich-distancia-Cristina-kirchnerismo_0_1597640295.html
p5
aVhttps://www.clarin.com/politica/Ahora-Alperovich-distancia-Cristina-kirchnerismo_0_1597640295.html
p6
aVhttps://www.clarin.com/politica/contrato-hallado-manana-Lopez-investigacion_0_1597640292.html
p7
aVhttps://www.clarin.com/politica/contrato-hallado-manana-Lopez-investigacion_0_1597640292.html
p8
a.