(lp0
S'https://www.clarin.com/sociedad/creador-Cronica-quiebra-canal-manos_0_1621638037.html'
p1
aS'https://www.clarin.com/sociedad/Avanzan-negociaciones-compra-Radio-Rivadavia_0_1621638038.html'
p2
aS'https://www.clarin.com/sociedad/calidad-gas-baja-invierno_0_1621638019.html'
p3
aS'https://www.clarin.com/opinion/corcel-salir-Luna_0_1621637952.html'
p4
aS'https://www.clarin.com/sociedad/multiplicaron-once-pedidos-medidores-agua_0_1621638017.html'
p5
aS'https://www.clarin.com/sociedad/Pedi-medidor-uso-agua_0_1621638018.html'
p6
aS'https://www.clarin.com/politica/Hebe-Bonafini-Macri-Hitler-ANSES_0_1621638036.html'
p7
aS'https://www.clarin.com/politica/Roberto-Frenkel-militares-Facultad-Exactas_0_1621638022.html'
p8
aS'https://www.clarin.com/politica/Cristina-volvio-reunir-homenaje-Chavez_0_1621638039.html'
p9
aS'https://www.clarin.com/sociedad/aumento-tarifas-habitos-consumo-edificios_0_1621638014.html'
p10
a.