(lp0
S'https://www.clarin.com/sociedad/ATE-cuestiono-desalojo-vivio-situacion_0_1593440723.html'
p1
aS'https://www.clarin.com/sociedad/ATE-cuestiono-desalojo-vivio-situacion_0_1593440723.html'
p2
aS'https://www.clarin.com/politica/Malcorra-volvio-condenar-Venezuela_0_1593440724.html'
p3
aS'https://www.clarin.com/politica/Ottavis-kirchnerismo-existe_0_1593440720.html'
p4
aS'https://www.clarin.com/politica/Ottavis-kirchnerismo-existe_0_1593440720.html'
p5
aS'https://www.clarin.com/politica/Vidal-mete-interna-PJ_0_1593440719.html'
p6
aS'https://www.clarin.com/sociedad/emotivo-poema-Angeles-Rawson-asesinato_0_1593440715.html'
p7
aS'https://www.clarin.com/sociedad/emotivo-poema-Angeles-Rawson-asesinato_0_1593440715.html'
p8
aS'https://www.clarin.com/politica/Rivolo-consintio-sobreseimiento-Cristina-abogada_0_1593440716.html'
p9
aS'https://www.clarin.com/politica/Vidal-Vamos-responder-firmeza-democraticos_0_1593440710.html'
p10
aS'https://www.clarin.com/politica/Vidal-Vamos-responder-firmeza-democraticos_0_1593440710.html'
p11
a.