(lp0
S'https://www.clarin.com/ieco/tasa-desempleo-EEUU-mantuvo-julio_0_1626437428.html'
p1
aS'https://www.clarin.com/sociedad/funciona-fluorescencia-permitio-oculto-Degas_0_1626437415.html'
p2
aS'https://www.clarin.com/sociedad/Maquina-Dios-hizo-descubrimiento-anunciado_0_1626437418.html'
p3
aS'https://www.clarin.com/sociedad/minuto-luz-puerta-hospital_0_1626437426.html'
p4
aS'https://www.clarin.com/politica/Stolbizer-veo-dentro-gobierno-Cambiemos_0_1626437423.html'
p5
aS'https://www.clarin.com/ieco/Crece-interes-empresas-argentinas_0_1626437425.html'
p6
a.