(lp0
S'https://www.clarin.com/politica/Macri-Carrio-Sanz-Cambiemos-Nacional_0_1676232527.html'
p1
aS'https://www.clarin.com/politica/Macri-Carrio-Sanz-Cambiemos-Nacional_0_1676232527.html'
p2
aS'https://www.clarin.com/politica/Maximo-Kirchner-Macri-caer-gilada_0_1676232524.html'
p3
aS'https://www.clarin.com/politica/Maximo-Kirchner-Macri-caer-gilada_0_1676232524.html'
p4
aS'https://www.clarin.com/opinion/Recrear-casas-sabiduria_0_1676232525.html'
p5
aS'https://www.clarin.com/opinion/Guia-leer-mundo-viene_0_1676232520.html'
p6
aS'https://www.clarin.com/opinion/Guia-leer-mundo-viene_0_1676232520.html'
p7
aS'https://www.clarin.com/politica/CGT-sumara-protesta-organizaciones-sociales_0_1676232518.html'
p8
aS'https://www.clarin.com/politica/CGT-sumara-protesta-organizaciones-sociales_0_1676232518.html'
p9
aS'https://www.clarin.com/sociedad/Brecha-argentinas-trepan-puntos-ranking_0_1676232449.html'
p10
aS'https://www.clarin.com/politica/Vidal-secreto-Massa-negociar-Presupuesto_0_1676232509.html'
p11
aS'https://www.clarin.com/politica/Vidal-secreto-Massa-negociar-Presupuesto_0_1676232509.html'
p12
aS'https://www.clarin.com/sociedad/Revelan-anos-cantidad-animales-planeta_0_1676232512.html'
p13
aS'https://www.clarin.com/sociedad/Revelan-anos-cantidad-animales-planeta_0_1676232512.html'
p14
a.