(lp0
Vhttps://www.clarin.com/sociedad/Hallan-participo-heroica-Batalla-Obligado_0_1500450357.html
p1
aVhttps://www.clarin.com/sociedad/Hallan-participo-heroica-Batalla-Obligado_0_1500450357.html
p2
aVhttps://www.clarin.com/politica/Morales-Sala-Mafia-Cooperativas_0_1501049918.html
p3
aVhttps://www.clarin.com/politica/Milagro-Sala-Tupac-Amaru-Gerardo-Morales-Acampe-Fondos_0_1501049917.html
p4
aVhttps://www.clarin.com/politica/Presupuesto-Vidal-garantizan-plata-municipios_0_1501049915.html
p5
aVhttps://www.clarin.com/politica/Campana-Antartica-deuda-Cristina-millones_0_1501049914.html
p6
aVhttps://www.clarin.com/politica/Campana-Antartica-deuda-Cristina-millones_0_1501049914.html
p7
aVhttps://www.clarin.com/ieco/Lazaro-Baez-Austral-UOCRA-Santa_Cruz-Cortes-Combustible_0_1501049913.html
p8
aVhttps://www.clarin.com/politica/Triple-fuga-sin-luz-internet-senal-infortunios-busqueda_0_1501049916.html
p9
aVhttps://www.clarin.com/politica/Triple-fuga-sin-luz-internet-senal-infortunios-busqueda_0_1501049916.html
p10
aVhttps://www.clarin.com/politica/Miguel_Pichetto-Frente_para_la_Victoria-Senado_0_1501049903.html
p11
aVhttps://www.clarin.com/politica/Miguel_Pichetto-Frente_para_la_Victoria-Senado_0_1501049903.html
p12
aVhttps://www.clarin.com/politica/Peronismo-PJ-Sergio_Massa-Juan_Manuel_Urtubey_y_Diego_Bossio_0_1501049901.html
p13
aVhttps://www.clarin.com/politica/Triple_Crimen-fuga-Luis_Zacarias_0_1500450452.html
p14
aVhttps://www.clarin.com/politica/Triple_Crimen-fuga-Luis_Zacarias_0_1500450452.html
p15
aVhttps://www.clarin.com/politica/Macri-costilla-guardar-reposo-varios_0_1500450445.html
p16
a.