(lp0
S'https://www.clarin.com/politica/Fuerte-Santa-Cruz-Casa-Rosada_0_1523847748.html'
p1
aS'https://www.clarin.com/politica/Fuerte-Santa-Cruz-Casa-Rosada_0_1523847748.html'
p2
aS'https://www.clarin.com/politica/Jorge_Todesca-Graciela_Bevacqua-INDEC_0_1523847822.html'
p3
aS'https://www.clarin.com/politica/Jorge_Todesca-Graciela_Bevacqua-INDEC_0_1523847822.html'
p4
aS'https://www.clarin.com/sociedad/Video-asombrosas-sillas-oficinas-mueven_0_1523847817.html'
p5
aS'https://www.clarin.com/sociedad/Video-asombrosas-sillas-oficinas-mueven_0_1523847817.html'
p6
aS'https://www.clarin.com/sociedad/tormenta-cordoba-muertos_0_1523847799.html'
p7
aS'https://www.clarin.com/sociedad/tormenta-cordoba-muertos_0_1523847799.html'
p8
a.