(lp0
Vhttps://www.clarin.com/politica/Macri-sindicalistas-convocara-Consejo-Salario_0_1558044642.html
p1
aVhttps://www.clarin.com/politica/Triaca-anuncio-convocara-Consejo-Salario_0_1558044636.html
p2
aVhttps://www.clarin.com/politica/Triaca-anuncio-convocara-Consejo-Salario_0_1558044636.html
p3
aVhttps://www.clarin.com/sociedad/Cientos-pueblos-aislados-inundacion-Litoral_0_1558044624.html
p4
aVhttps://www.clarin.com/sociedad/Cientos-pueblos-aislados-inundacion-Litoral_0_1558044624.html
p5
aVhttps://www.clarin.com/sociedad/intendente-Calera-apunto-politico-crimen_0_1558044626.html
p6
aVhttps://www.clarin.com/sociedad/intendente-Calera-apunto-politico-crimen_0_1558044626.html
p7
aVhttps://www.clarin.com/sociedad/Grave-gastroenterocolitis-Berazategui-suspenden-escuelas_0_1558044615.html
p8
aVhttps://www.clarin.com/sociedad/Grave-gastroenterocolitis-Berazategui-suspenden-escuelas_0_1558044615.html
p9
aVhttps://www.clarin.com/politica/intendente-dia-municipales-acto-Cristina_0_1558044601.html
p10
aVhttps://www.clarin.com/politica/intendente-dia-municipales-acto-Cristina_0_1558044601.html
p11
aVhttps://www.clarin.com/sociedad/Dijo-arrollado-arrastrado-motociclista-hija_0_1558044598.html
p12
aVhttps://www.clarin.com/politica/patota-ingreso-INDEC-causo-destrozos_0_1558044594.html
p13
aVhttps://www.clarin.com/politica/patota-ingreso-INDEC-causo-destrozos_0_1558044594.html
p14
a.