(lp0
S'https://www.clarin.com/politica/Avruj-vemos-momento-debate-aborto_0_1606039463.html'
p1
aS'https://www.clarin.com/politica/Lopez-PJ-Peron-mensaje-unidad_0_1606039457.html'
p2
aS'https://www.clarin.com/politica/Lopez-PJ-Peron-mensaje-unidad_0_1606039457.html'
p3
aS'https://www.clarin.com/politica/abogada-sintio-Jose-Lopez-defiende_0_1606039450.html'
p4
aS'https://www.clarin.com/politica/Macri-segundo-semestre-resolver-problemas_0_1606039449.html'
p5
aS'https://www.clarin.com/politica/Macri-segundo-semestre-resolver-problemas_0_1606039449.html'
p6
a.