(lp0
S'https://www.clarin.com/ieco/economia/dolar-avanzo-centavos_0_1621637941.html'
p1
aS'https://www.clarin.com/politica/Vuelve-Congreso-UCR-paquete-anticorrupcion_0_1621637939.html'
p2
aS'https://www.clarin.com/sociedad/policia-ordeno-diacono-Iglesia-Catolica_0_1621637934.html'
p3
a.