(lp0
S'https://www.clarin.com/politica/Grosero-provincia-Chaco-San-Martin_0_1633636698.html'
p1
aS'https://www.clarin.com/ieco/economia/Bonafini-Corte-tarifas-aprueben-asesinar_0_1633636696.html'
p2
aS'https://www.clarin.com/sociedad/ciega-lanzo-petitorio-bajen-pena_0_1633636688.html'
p3
aS'https://www.clarin.com/ieco/_0_1637236329.html'
p4
aS'https://www.clarin.com/politica/politica-solo-lugar-Macri-Cristina_0_1633636693.html'
p5
a.