(lp0
S'https://www.clarin.com/sociedad/dengue-mosquitos-Lemus-San_Juan-Jujuy-Misiones-emergencia_sanitaria_0_1507649678.html'
p1
aS'https://www.clarin.com/sociedad/dengue-mosquitos-Lemus-San_Juan-Jujuy-Misiones-emergencia_sanitaria_0_1507649678.html'
p2
aS'https://www.clarin.com/politica/viejo-hablan_0_1508249205.html'
p3
aS'https://www.clarin.com/politica/derribo-aviones-narcotrafico_0_1508249202.html'
p4
aS'https://www.clarin.com/politica/derribo-aviones-narcotrafico_0_1508249201.html'
p5
aS'https://www.clarin.com/politica/berni-marijuan-perez_corradi_0_1508249200.html'
p6
aS'https://www.clarin.com/politica/carrio-municiones-defensa_0_1508249199.html'
p7
aS'https://www.clarin.com/opinion/Salud_publica-Obras_Sociales-Medicina_Prepaga-Seguro_de_Salud_0_1508249190.html'
p8
aS'https://www.clarin.com/opinion/Salud_publica-Obras_Sociales-Medicina_Prepaga-Seguro_de_Salud_0_1508249190.html'
p9
aS'https://www.clarin.com/opinion/Islas_Malvinas-Mercosur-China-Alianza_del_Pacifico_0_1508249189.html'
p10
aS'https://www.clarin.com/opinion/Partidos_Politicos-Sistema_electoral-Voto_electronico-Financiamiento_politico_0_1508249188.html'
p11
a.