(lp0
S'https://www.clarin.com/ieco/economia/Albanesi-coloco-deuda-US-millones_0_1616838414.html'
p1
aS'https://www.clarin.com/politica/Argentina-seguridad-Brasil-Juegos-Olimpicos_0_1616838415.html'
p2
a.