(lp0
Vhttps://www.clarin.com/ieco/economia/Cristian-Ritondo-Tratamos-produce-volverse_0_1536446610.html
p1
aVhttps://www.clarin.com/politica/Kicillof-Laspina-cruzaron-acuerdo-buitres_0_1536446606.html
p2
aVhttps://www.clarin.com/politica/Kicillof-Laspina-cruzaron-acuerdo-buitres_0_1536446606.html
p3
aVhttps://www.clarin.com/politica/Mar-Plata-secretario-Turismo-corrupcion_0_1536446601.html
p4
aVhttps://www.clarin.com/politica/Mar-Plata-secretario-Turismo-corrupcion_0_1536446601.html
p5
aVhttps://www.clarin.com/sociedad/dejaban-tener-garaje-manera-insolita_0_1536446604.html
p6
aVhttps://www.clarin.com/sociedad/dejaban-tener-garaje-manera-insolita_0_1536446604.html
p7
aVhttps://www.clarin.com/ieco/economia/Fallecio-economista-Aldo-Ferrer_0_1536446602.html
p8
aVhttps://www.clarin.com/ieco/economia/Fallecio-economista-Aldo-Ferrer_0_1536446602.html
p9
aVhttps://www.clarin.com/sociedad/astronauta-espacio-sufrio-cambios-cuerpo_0_1536446587.html
p10
aVhttps://www.clarin.com/sociedad/astronauta-espacio-sufrio-cambios-cuerpo_0_1536446587.html
p11
a.