(lp0
Vhttps://www.clarin.com/politica/Empezo-reunion-diputados-sindicalistas-Ganancias_0_1549645361.html
p1
aVhttps://www.clarin.com/sociedad/Despues-Obama-New-York-Times_0_1549645356.html
p2
aVhttps://www.clarin.com/sociedad/Despues-Obama-New-York-Times_0_1549645356.html
p3
aVhttps://www.clarin.com/politica/Malcorra-reunio-Kerry-Washington_0_1549645355.html
p4
aVhttps://www.clarin.com/politica/Piden-indagatoria-Angelici-Carrio-Republica_0_1549645353.html
p5
aVhttps://www.clarin.com/politica/Piden-indagatoria-Angelici-Carrio-Republica_0_1549645353.html
p6
aVhttps://www.clarin.com/politica/Causa-AMIA-declarar-Menem-matado_0_1549645349.html
p7
aVhttps://www.clarin.com/politica/Causa-AMIA-declarar-Menem-matado_0_1549645349.html
p8
aVhttps://www.clarin.com/ieco/economia-crecio_0_1549645347.html
p9
a.