(lp0
S'https://www.clarin.com/sociedad/hipoacusica-filmando-corto-contar-enfermedad_0_1636036398.html'
p1
aS'https://www.clarin.com/politica/Macri-proyectos-emprendedores-contexto-desconfianza_0_1636036391.html'
p2
aS'https://www.clarin.com/politica/hombre-secuestro-Macri-hace-vote_0_1636036396.html'
p3
aS'https://www.clarin.com/sociedad/inquietante-naturalismo-Jason-Bourne_0_1635436607.html'
p4
aS'https://www.clarin.com/politica/Justicia-funcionarios-Scioli-acusados-fraude_0_1636036399.html'
p5
a.