(lp0
S'https://www.clarin.com/politica/Baez-piden-libertad-Lazaro-embargo_0_1577842274.html'
p1
aS'https://www.clarin.com/politica/Baez-piden-libertad-Lazaro-embargo_0_1577842274.html'
p2
aS'https://www.clarin.com/sociedad/Cambiaran-escolares-mostraran-plataforma-continental_0_1577842271.html'
p3
aS'https://www.clarin.com/sociedad/Cambiaran-escolares-mostraran-plataforma-continental_0_1577842271.html'
p4
aS'https://www.clarin.com/ieco/jueves-reune-Consejo-Salario_0_1577842265.html'
p5
aS'https://www.clarin.com/ieco/jueves-reune-Consejo-Salario_0_1577842265.html'
p6
aS'https://www.clarin.com/sociedad/Multa-Google-USD-millones-buscador_0_1577842266.html'
p7
aS'https://www.clarin.com/sociedad/Multa-Google-USD-millones-buscador_0_1577842266.html'
p8
aS'https://www.clarin.com/sociedad/Time-Warp-procesen-preventiva-electronica_0_1577842260.html'
p9
aS'https://www.clarin.com/sociedad/Time-Warp-procesen-preventiva-electronica_0_1577842260.html'
p10
a.