(lp0
Vhttps://www.clarin.com/sociedad/Mil-millas-primer-paso_0_1689431185.html
p1
aVhttps://www.clarin.com/ieco/economia/McDonalds-invertira-millones-remodelar-locales_0_1689431189.html
p2
aVhttps://www.clarin.com/ieco/economia/McDonalds-invertira-millones-remodelar-locales_0_1689431189.html
p3
a.