(lp0
S'https://www.clarin.com/politica/caida-petroleo-riesgo-espejismos_0_1505249536.html'
p1
aS'https://www.clarin.com/opinion/Igualdad-Justicia-Constitucion_Nacional-Mujeres_0_1505249534.html'
p2
aS'https://www.clarin.com/politica/nisman-afi_0_1505249542.html'
p3
aS'https://www.clarin.com/politica/nisman-afi_0_1505249541.html'
p4
a.