(lp0
S'https://www.clarin.com/politica/Justicia-causa-enriquecimiento-ilicito-Lorenzetti_0_1538246543.html'
p1
aS'https://www.clarin.com/politica/Justicia-causa-enriquecimiento-ilicito-Lorenzetti_0_1538246543.html'
p2
aS'https://www.clarin.com/sociedad/champeta-quieren-prohibir-fomentar-jovenes_0_1538246542.html'
p3
aS'https://www.clarin.com/sociedad/champeta-quieren-prohibir-fomentar-jovenes_0_1538246542.html'
p4
aS'https://www.clarin.com/sociedad/Historias-increibles-llegaron-America-Japon_0_1538246539.html'
p5
aS'https://www.clarin.com/sociedad/Historias-increibles-llegaron-America-Japon_0_1538246539.html'
p6
aS'https://www.clarin.com/sociedad/Aprueban-primera-inmunoterapia-cancer-pulmon_0_1538246520.html'
p7
aS'https://www.clarin.com/ieco/economia/Bergman-Podes-politica-arancelaria-retenciones_0_1538246528.html'
p8
a.