(lp0
S'https://www.clarin.com/sociedad/Nueva-York-quedo-jugueterias-famosas_0_1499250310.html'
p1
aS'https://www.clarin.com/ieco/economia/precios-autos-vuelven-valor-dolares_0_1499250295.html'
p2
aS'https://www.clarin.com/politica/abogado-Lanatta-inconcebible-vayan-entregar_0_1499250315.html'
p3
aS'https://www.clarin.com/politica/Mujer-detenida-Ciudad-Oculta-profugos_0_1499250311.html'
p4
aS'https://www.clarin.com/politica/Alerta-Misiones-intencion-Paraguay-Brasil_0_1499250325.html'
p5
aS'https://www.clarin.com/politica/Lazaro_Baez-Austral-despidos-empresas_0_1499250307.html'
p6
aS'https://www.clarin.com/sociedad/sex_toy-Vibrador-e-book-smartphone-tablet-literatura_erotica-grey_0_1499250313.html'
p7
a.