(lp0
S'https://www.clarin.com/sociedad/funcionaria-Ecuador-mochileras-seguro-pasar_0_1537046586.html'
p1
aS'https://www.clarin.com/politica/Primera-oficialismo-rechazan-DNU-Ganancias_0_1537046588.html'
p2
aS'https://www.clarin.com/sociedad/Violencia-condenaron-pintar-Principito-azulejo_0_1537046583.html'
p3
aS'https://www.clarin.com/sociedad/joven-unico-sobreviviente-accidente-avioneta_0_1537046593.html'
p4
aS'https://www.clarin.com/politica/Macri-convoco-campo-trabajar_0_1537046585.html'
p5
a.