(lp0
Vhttps://www.clarin.com/sociedad/primeras-mujeres-abrieron-caminos-mandaban_0_1534646916.html
p1
aVhttps://www.clarin.com/sociedad/primeras-mujeres-abrieron-caminos-mandaban_0_1534646916.html
p2
aVhttps://www.clarin.com/sociedad/razones-dia-necesario_0_1534646929.html
p3
aVhttps://www.clarin.com/politica/Gobierno-negociacion-quedo-fronteras-afuera_0_1534646932.html
p4
aVhttps://www.clarin.com/politica/Gobierno-negociacion-quedo-fronteras-afuera_0_1534646932.html
p5
aVhttps://www.clarin.com/politica/Alarma-Gobierno-detectan-microfonos-despachos_0_1534646917.html
p6
aVhttps://www.clarin.com/politica/Alarma-Gobierno-detectan-microfonos-despachos_0_1534646917.html
p7
aVhttps://www.clarin.com/ieco/economia/Arrancan-promociones-despues-subas_0_1534646922.html
p8
aVhttps://www.clarin.com/politica/Carrio-alista-candidata-Macri-Provincia_0_1534646893.html
p9
aVhttps://www.clarin.com/ieco/economia/Electrodomesticos-marcha-precios-liderados-televisores_0_1534646927.html
p10
aVhttps://www.clarin.com/ieco/economia/Electrodomesticos-marcha-precios-liderados-televisores_0_1534646927.html
p11
aVhttps://www.clarin.com/ieco/economia/baja-consumo-crecen-descuentos-promociones_0_1534646913.html
p12
aVhttps://www.clarin.com/ieco/economia/baja-consumo-crecen-descuentos-promociones_0_1534646913.html
p13
aVhttps://www.clarin.com/ieco/economia/Rebajas-cuotas-atraer-consumo-super_0_1534646921.html
p14
aVhttps://www.clarin.com/ieco/economia/Rebajas-cuotas-atraer-consumo-super_0_1534646921.html
p15
a.