(lp0
S'https://www.clarin.com/politica/Macri-Moyano-cruzaron-marcha-economia_0_1569443211.html'
p1
aS'https://www.clarin.com/politica/Farina-Lazaro-Martin-Baez-Justicia_0_1570042981.html'
p2
aS'https://www.clarin.com/ieco/Aranguren-combustible-mantener-fuentes-trabajo_0_1569443208.html'
p3
aS'https://www.clarin.com/ieco/Carta-titular-Aerolineas-redujeron-subsidios_0_1569443187.html'
p4
aS'https://www.clarin.com/sociedad/Suben-cigarrillos-mayor-aumento-ultimos_0_1569443217.html'
p5
aS'https://www.clarin.com/politica/guerra-paz-version-entrecasa_0_1569443219.html'
p6
aS'https://www.clarin.com/politica/Terminaron-allanamientos-Baez-propiedades_0_1569443203.html'
p7
aS'https://www.clarin.com/politica/Investigan-Cristina-Maximo-enriquecimiento-ilicito_0_1569443169.html'
p8
a.