(lp0
Vhttps://www.clarin.com/politica/trabajadores-petroleros-reclaman-aumento_0_1578442341.html
p1
aVhttps://www.clarin.com/politica/trabajadores-petroleros-reclaman-aumento_0_1578442341.html
p2
aVhttps://www.clarin.com/sociedad/redes-sociales-apenas-contenido-discriminatorio_0_1578442324.html
p3
aVhttps://www.clarin.com/sociedad/comer-nueva-mejorar-calidad-vida_0_1578442340.html
p4
aVhttps://www.clarin.com/sociedad/comer-nueva-mejorar-calidad-vida_0_1578442340.html
p5
aVhttps://www.clarin.com/sociedad/acuerdo-conflicto-universitario-sigue-abierto_0_1578442335.html
p6
aVhttps://www.clarin.com/sociedad/acuerdo-conflicto-universitario-sigue-abierto_0_1578442335.html
p7
aVhttps://www.clarin.com/politica/Echegaray-declaro-horas-protegido-Baez_0_1578442331.html
p8
aVhttps://www.clarin.com/politica/Echegaray-declaro-horas-protegido-Baez_0_1578442331.html
p9
aVhttps://www.clarin.com/sociedad/trasplantados-pueden-acceder-viajes-medicamentos_0_1578442332.html
p10
aVhttps://www.clarin.com/sociedad/trasplantado-nadie_0_1578442330.html
p11
aVhttps://www.clarin.com/sociedad/trasplantado-nadie_0_1578442330.html
p12
aVhttps://www.clarin.com/sociedad/aluvion-llamados-cruzada-solidaria-Claudia_0_1578442327.html
p13
aVhttps://www.clarin.com/sociedad/aluvion-llamados-cruzada-solidaria-Claudia_0_1578442327.html
p14
aVhttps://www.clarin.com/politica/final-misa-organizada-Videla-falsa_0_1578442326.html
p15
aVhttps://www.clarin.com/politica/final-misa-organizada-Videla-falsa_0_1578442326.html
p16
aVhttps://www.clarin.com/politica/denuncia-Cristina-cargo-Bonadio_0_1578442314.html
p17
aVhttps://www.clarin.com/politica/denuncia-Cristina-cargo-Bonadio_0_1578442314.html
p18
aVhttps://www.clarin.com/sociedad/WhatsApp-Messenger-suman-gente-tiempo_0_1578442325.html
p19
a.