(lp0
S'https://www.clarin.com/ieco/Construccion-freno-perdida-empleos_0_1567643252.html'
p1
aS'https://www.clarin.com/politica/Gobierno-marcha-homenaje-dificil-justificar_0_1567643245.html'
p2
aS'https://www.clarin.com/politica/Yasky-Nadie-sentido-reaccion-prematura_0_1567643249.html'
p3
aS'https://www.clarin.com/sociedad/Autorizan-aumento-prepagas_0_1567643256.html'
p4
aS'https://www.clarin.com/ieco/Demoras-lanzamiento-control-precios-line_0_1567043516.html'
p5
aS'https://www.clarin.com/sociedad/Escuelas-instalacion-cambiarle-alumnos-maestros_0_1567043396.html'
p6
a.