(lp0
Vhttps://www.clarin.com/politica/Protestas-distintos-puntos-pais-tarifazos_0_1625837584.html
p1
aVhttps://www.clarin.com/politica/Protestas-distintos-puntos-pais-tarifazos_0_1625837584.html
p2
aVhttps://www.clarin.com/politica/Macri-llego-Rio-crisis-Mercosur_0_1625837581.html
p3
aVhttps://www.clarin.com/politica/Macri-llego-Rio-crisis-Mercosur_0_1625837581.html
p4
aVhttps://www.clarin.com/politica/funcionarios-diputados-custodiaron-Hebe-Bonafini_0_1625837574.html
p5
aVhttps://www.clarin.com/politica/funcionarios-diputados-custodiaron-Hebe-Bonafini_0_1625837574.html
p6
aVhttps://www.clarin.com/sociedad/Choque-cadena-patrulleros-General-Paz_0_1625837573.html
p7
aVhttps://www.clarin.com/sociedad/Choque-cadena-patrulleros-General-Paz_0_1625837573.html
p8
a.