(lp0
Vhttps://www.clarin.com/opinion/Hilda-Herrera-piano-entibiar-invierno_0_1601839946.html
p1
aVhttps://www.clarin.com/opinion/Hilda-Herrera-piano-entibiar-invierno_0_1601839946.html
p2
aVhttps://www.clarin.com/opinion/gestacion-sustitucion-prohibida_0_1601839959.html
p3
aVhttps://www.clarin.com/opinion/Trump-desafia-bases-constitucionales-EEUU_0_1601839943.html
p4
aVhttps://www.clarin.com/opinion/Trump-desafia-bases-constitucionales-EEUU_0_1601839943.html
p5
aVhttps://www.clarin.com/opinion/mundo-vez-restricciones_0_1601839961.html
p6
aVhttps://www.clarin.com/opinion/visto-mugre-semejante_0_1602439746.html
p7
aVhttps://www.clarin.com/opinion/visto-mugre-semejante_0_1602439746.html
p8
aVhttps://www.clarin.com/opinion/Blanqueo-lavado-escandalos_0_1602439745.html
p9
aVhttps://www.clarin.com/opinion/sistema-descomposicion_0_1602439744.html
p10
aVhttps://www.clarin.com/opinion/sistema-descomposicion_0_1602439744.html
p11
aVhttps://www.clarin.com/politica/Voy-hacer-juicio-perjuicios-periodistas_0_1601839962.html
p12
aVhttps://www.clarin.com/politica/Voy-hacer-juicio-perjuicios-periodistas_0_1601839962.html
p13
aVhttps://www.clarin.com/opinion/decada-siesta-jueces-tsunami_0_1602439742.html
p14
a.