(lp0
Vhttps://www.clarin.com/sociedad/anos-gato-viejo-mundo_0_1574242698.html
p1
aVhttps://www.clarin.com/sociedad/anos-gato-viejo-mundo_0_1574242698.html
p2
aVhttps://www.clarin.com/sociedad/policias-catamarquenas-salvaron-contaron-milagro_0_1574242685.html
p3
aVhttps://www.clarin.com/sociedad/policias-catamarquenas-salvaron-contaron-milagro_0_1574242685.html
p4
aVhttps://www.clarin.com/sociedad/Emotiva-madre-chicas-asesinada-Montanita_0_1574242695.html
p5
aVhttps://www.clarin.com/sociedad/Emotiva-madre-chicas-asesinada-Montanita_0_1574242695.html
p6
aVhttps://www.clarin.com/politica/Carrio-petrolera-Lazaro-Baez-millones_0_1574242692.html
p7
aVhttps://www.clarin.com/politica/Carrio-petrolera-Lazaro-Baez-millones_0_1574242692.html
p8
a.