(lp0
S'https://www.clarin.com/politica/igj-cepo_informativo-la_campora_0_1513048735.html'
p1
aS'https://www.clarin.com/politica/peronismo-tiempo-desobedecer_0_1513048730.html'
p2
aS'https://www.clarin.com/politica/Brochero-hizo-Macri-va-Vaticano_0_1513048727.html'
p3
aS'https://www.clarin.com/opinion/Trapitos-inseguridad-espacio_publico-corrupcion_0_1513048726.html'
p4
aS'https://www.clarin.com/opinion/Gobierno-empresarios-equipos_tecnicos-Jefatura_de_Gabinete-Medidas_economicas_0_1513048725.html'
p5
aS'https://www.clarin.com/opinion/Seguridad-Decreto_228-Ley_de_Derribo-Constitucion_Nacional_0_1513048724.html'
p6
aS'https://www.clarin.com/politica/Desaparecidos-Rodriguez-Larreta-despego-Loperfido_0_1513048717.html'
p7
aS'https://www.clarin.com/politica/Tarifas_electricas-Aranguren-Subsidios-Aumentos-Valor_Agregado_de_Distribucion_0_1513048714.html'
p8
aS'https://www.clarin.com/politica/Tarifas-Gobernadores-Provincias-Electricidad_0_1513048713.html'
p9
aS'https://www.clarin.com/politica/Tarifas_electricas-Aranguren-Subsidios-Aumentos-Segmentacion-Tarifa_Social_0_1513048712.html'
p10
aS'https://www.clarin.com/politica/Tarifas_electricas-Aranguren-Subsidios-Aumentos-Segmentacion-Tarifa_Social_0_1513048712.html'
p11
a.