(lp0
S'https://www.clarin.com/ieco/economia/rige-devolucion-IVA-compras-alimentos_0_1616238364.html'
p1
aS'https://www.clarin.com/opinion/Gas-luz-evitar-judicializacion-tarifaria_0_1615638558.html'
p2
aS'https://www.clarin.com/sociedad/Abuelos-coparon-Rural-primer-vacaciones_0_1615638554.html'
p3
aS'https://www.clarin.com/opinion/Argentina-Brasil-cuarto-siglo-cooperacion_0_1615638561.html'
p4
aS'https://www.clarin.com/sociedad/canje-salio-escritorio_0_1615638593.html'
p5
aS'https://www.clarin.com/sociedad/freezer-mitad-pais-temperaturas-cero_0_1616238365.html'
p6
aS'https://www.clarin.com/politica/sospechas-Vido-contratos-Rio-Turbio_0_1615638551.html'
p7
aS'https://www.clarin.com/opinion/historia-sucesion-sufrimientos-arbitrarios_0_1615638559.html'
p8
aS'https://www.clarin.com/politica/secretario-mejicaneaba-Kirchner_0_1616238361.html'
p9
aS'https://www.clarin.com/politica/Ruidos-precios-INDEC_0_1616238362.html'
p10
a.