(lp0
S'https://www.clarin.com/politica/fiscal-investigar-Pena-datos-ANSES_0_1640835942.html'
p1
aS'https://www.clarin.com/politica/fiscal-investigar-Pena-datos-ANSES_0_1640835942.html'
p2
aS'https://www.clarin.com/sociedad/Pasaron-aislados-simular-mision-Marte_0_1640835938.html'
p3
aS'https://www.clarin.com/sociedad/Pasaron-aislados-simular-mision-Marte_0_1640835938.html'
p4
aS'https://www.clarin.com/ieco/Prat-Gay-mejor-cambiabamos-rumbo_0_1640835934.html'
p5
aS'https://www.clarin.com/ieco/Prat-Gay-mejor-cambiabamos-rumbo_0_1640835934.html'
p6
aS'https://www.clarin.com/politica/Preocupado-imagen-gestion-Macri-Conurbano_0_1640835930.html'
p7
aS'https://www.clarin.com/politica/Preocupado-imagen-gestion-Macri-Conurbano_0_1640835930.html'
p8
aS'https://www.clarin.com/ieco/Rodean-Aranguren-expertos-definir-tarifas_0_1640835927.html'
p9
aS'https://www.clarin.com/ieco/Rodean-Aranguren-expertos-definir-tarifas_0_1640835927.html'
p10
a.