(lp0
Vhttps://www.clarin.com/politica/Luis-DElia-juicio-oral-discriminacion_0_1662433822.html
p1
aVhttps://www.clarin.com/politica/Luis-DElia-juicio-oral-discriminacion_0_1662433822.html
p2
aVhttps://www.clarin.com/sociedad/Logran-prometedor-avance-VIH_0_1662433820.html
p3
aVhttps://www.clarin.com/sociedad/Logran-prometedor-avance-VIH_0_1662433820.html
p4
aVhttps://www.clarin.com/politica/declaraciones-complican-Rafecas-Magistratura_0_1662433817.html
p5
aVhttps://www.clarin.com/politica/declaraciones-complican-Rafecas-Magistratura_0_1662433817.html
p6
aVhttps://www.clarin.com/ieco/recupera-inmobiliario-Capital-operaciones-aumentaron_0_1662433814.html
p7
aVhttps://www.clarin.com/ieco/recupera-inmobiliario-Capital-operaciones-aumentaron_0_1662433814.html
p8
aVhttps://www.clarin.com/ieco/ventas-minoristas-cayeron-septiembre_0_1662433812.html
p9
aVhttps://www.clarin.com/ieco/ventas-minoristas-cayeron-septiembre_0_1662433812.html
p10
aVhttps://www.clarin.com/sociedad/Murio-Driving-Miss-Norma-ultimos_0_1662433811.html
p11
aVhttps://www.clarin.com/sociedad/Murio-Driving-Miss-Norma-ultimos_0_1662433811.html
p12
a.