(lp0
S'https://www.clarin.com/sociedad/Aparecieron-Bolivia-mochileras-buscadas-NOA_0_1530447296.html'
p1
aS'https://www.clarin.com/politica/Cristina-Macri-arregla-fondos-buitre_0_1530447317.html'
p2
aS'https://www.clarin.com/politica/Discos-medallon-simbolico-Macri-Papa_0_1530447289.html'
p3
aS'https://www.clarin.com/sociedad/Buscan-mochileras-noticias-lunes_0_1530447311.html'
p4
a.