(lp0
Vhttps://www.clarin.com/politica/Lijo-llamo-indagatoria-Echegaray-Ciccone_0_1646835409.html
p1
aVhttps://www.clarin.com/politica/Lijo-llamo-indagatoria-Echegaray-Ciccone_0_1646835409.html
p2
aVhttps://www.clarin.com/politica/Lesa-humanidad-condenan-Graffigna-Trillo_0_1646835402.html
p3
aVhttps://www.clarin.com/politica/Lesa-humanidad-condenan-Graffigna-Trillo_0_1646835402.html
p4
aVhttps://www.clarin.com/sociedad/rio-Rusia-tino-rojo-sangre_0_1646835390.html
p5
aVhttps://www.clarin.com/sociedad/rio-Rusia-tino-rojo-sangre_0_1646835390.html
p6
aVhttps://www.clarin.com/politica/Malcorra-Deseamos-retomar-Islas-Malvinas_0_1646835392.html
p7
aVhttps://www.clarin.com/politica/Malcorra-Deseamos-retomar-Islas-Malvinas_0_1646835392.html
p8
a.