(lp0
S'https://www.clarin.com/politica/Stiuso-SIDE_0_1525647844.html'
p1
aS'https://www.clarin.com/sociedad/Dolor-despedida-argentina-asesinada-Brasil_0_1525647837.html'
p2
aS'https://www.clarin.com/ieco/fondos_buitre-default-citibank-thomas_griesa_0_1525647865.html'
p3
a.