(lp0
Vhttps://www.clarin.com/politica/Garavano-aconsejo-Macri-renuncia-Oyarbide_0_1555044711.html
p1
aVhttps://www.clarin.com/politica/Garavano-aconsejo-Macri-renuncia-Oyarbide_0_1555044711.html
p2
aVhttps://www.clarin.com/sociedad/cubrio-Clarin-desaparicion-avion-hallado_0_1555044709.html
p3
aVhttps://www.clarin.com/sociedad/cubrio-Clarin-desaparicion-avion-hallado_0_1555044709.html
p4
aVhttps://www.clarin.com/sociedad/Gemelos-casan-gemelas-operan-confundirse_0_1555044706.html
p5
aVhttps://www.clarin.com/sociedad/Gemelos-casan-gemelas-operan-confundirse_0_1555044706.html
p6
aVhttps://www.clarin.com/ieco/cuestiones-economicas-hoy-preocupan-empresarios_0_1555044703.html
p7
aVhttps://www.clarin.com/ieco/cuestiones-economicas-hoy-preocupan-empresarios_0_1555044703.html
p8
aVhttps://www.clarin.com/politica/hablas-advertencia-esposa-Lazaro-Baez_0_1554444655.html
p9
aVhttps://www.clarin.com/sociedad/Renuncio-Victorias-Secret-pidieron-bajara_0_1555044693.html
p10
aVhttps://www.clarin.com/sociedad/Renuncio-Victorias-Secret-pidieron-bajara_0_1555044693.html
p11
aVhttps://www.clarin.com/sociedad/lluvia-complica-situacion-Rios-afectados_0_1555044699.html
p12
aVhttps://www.clarin.com/sociedad/lluvia-complica-situacion-Rios-afectados_0_1555044699.html
p13
aVhttps://www.clarin.com/politica/Fiscal-Delgado-Macri-investigar-escondio_0_1555044694.html
p14
aVhttps://www.clarin.com/politica/Fiscal-Delgado-Macri-investigar-escondio_0_1555044694.html
p15
aVhttps://www.clarin.com/sociedad/Video-pintor-volver-invisible-gente_0_1555044692.html
p16
aVhttps://www.clarin.com/sociedad/Video-pintor-volver-invisible-gente_0_1555044692.html
p17
a.