(lp0
S'https://www.clarin.com/opinion/Tarifas-Corte-obliga-replanteos-oficiales_0_1634236720.html'
p1
aS'https://www.clarin.com/politica/Refutan-posiciones-Cristina-Kirchner-AMIA_0_1634236680.html'
p2
aS'https://www.clarin.com/ieco/economia/AFIP-definio-retiro-voluntario-Ganancias_0_1634236721.html'
p3
aS'https://www.clarin.com/opinion/Gobierno-cosecho-propia-siembra_0_1634836512.html'
p4
aS'https://www.clarin.com/sociedad/Marianella-nueva-vida-corazon-artificial_0_1634236753.html'
p5
aS'https://www.clarin.com/opinion/Libertad-economica-politica-Firma01_0_1634836511.html'
p6
aS'https://www.clarin.com/politica/Cristina-campana-Quiero-digan-militante_0_1634236770.html'
p7
aS'https://www.clarin.com/opinion/Preservar-rica-diversidad_0_1634236715.html'
p8
a.