(lp0
Vhttps://www.clarin.com/sociedad/OMS-puede-declarar-emergencia-sanitaria_0_1514848708.html
p1
aVhttps://www.clarin.com/sociedad/OMS-puede-declarar-emergencia-sanitaria_0_1514848708.html
p2
aVhttps://www.clarin.com/politica/Gobierno-reune-mediador-deuda_0_1514848704.html
p3
aVhttps://www.clarin.com/politica/Gobierno-reune-mediador-deuda_0_1514848704.html
p4
aVhttps://www.clarin.com/sociedad/comunicacion-causo-tragedia-ferroviaria-argentina_0_1514848683.html
p5
aVhttps://www.clarin.com/sociedad/comunicacion-causo-tragedia-ferroviaria-argentina_0_1514848683.html
p6
a.