(lp0
S'https://www.clarin.com/politica/AMIA-argentino-comision-Interpol-controla_0_1684631617.html'
p1
aS'https://www.clarin.com/politica/AMIA-argentino-comision-Interpol-controla_0_1684631617.html'
p2
aS'https://www.clarin.com/sociedad/vitamina-aliado-ganarle-cancer-mama_0_1684631609.html'
p3
aS'https://www.clarin.com/sociedad/vitamina-aliado-ganarle-cancer-mama_0_1684631609.html'
p4
aS'https://www.clarin.com/politica/Confirman-Vera-podra-querellante-Stiuso_0_1684631612.html'
p5
aS'https://www.clarin.com/politica/Confirman-Vera-podra-querellante-Stiuso_0_1684631612.html'
p6
aS'https://www.clarin.com/politica/Skanksa-Jose-Lopez-acusaciones-Cameron_0_1684631611.html'
p7
aS'https://www.clarin.com/politica/Skanksa-Jose-Lopez-acusaciones-Cameron_0_1684631611.html'
p8
a.