(lp0
Vhttps://www.clarin.com/ieco/economia/Diferencias-empresas-argentinas-multinacionales_0_1673832604.html
p1
aVhttps://www.clarin.com/opinion/Maria-Eugenia-llego_0_1673832603.html
p2
aVhttps://www.clarin.com/ieco/Cuidame-cuida-solo_0_1672632898.html
p3
aVhttps://www.clarin.com/ieco/economia/Michel-Dadidovich-invertimos-US180-millones_0_1672632853.html
p4
aVhttps://www.clarin.com/ieco/economia/Michel-Dadidovich-invertimos-US180-millones_0_1672632853.html
p5
aVhttps://www.clarin.com/ieco/economia/empresas-mejor-reputacion-Argentina_0_1672632903.html
p6
aVhttps://www.clarin.com/ieco/economia/empresas-mejor-reputacion-Argentina_0_1672632903.html
p7
aVhttps://www.clarin.com/opinion/batallas-invisibles-enfrenta-Vidal_0_1673832602.html
p8
aVhttps://www.clarin.com/opinion/Pacto-sindical-reticencia-empresarios_0_1673832601.html
p9
aVhttps://www.clarin.com/ieco/emprendedores/Lista-onlinede-regalos-bodas_0_1672632904.html
p10
aVhttps://www.clarin.com/ieco/emprendedores/Lista-onlinede-regalos-bodas_0_1672632904.html
p11
aVhttps://www.clarin.com/ieco/campus-ieco/UBA-crean-primer-transmedia-matematica_0_1672632901.html
p12
aVhttps://www.clarin.com/ieco/campus-ieco/UBA-crean-primer-transmedia-matematica_0_1672632901.html
p13
aVhttps://www.clarin.com/ieco/economia/Alquileres-caros-inquilinos-rentables-duenos_0_1672632892.html
p14
aVhttps://www.clarin.com/ieco/economia/Alquileres-caros-inquilinos-rentables-duenos_0_1672632892.html
p15
aVhttps://www.clarin.com/ieco/dilema-cunado_0_1672632884.html
p16
aVhttps://www.clarin.com/ieco/economia/llamar-atencion-argentino-Papa-Francisco_0_1672632883.html
p17
aVhttps://www.clarin.com/ieco/economia/impuestos-enloquecen-precios-autos_0_1672632878.html
p18
aVhttps://www.clarin.com/ieco/economia/impuestos-enloquecen-precios-autos_0_1672632878.html
p19
aVhttps://www.clarin.com/opinion/dejar-votar-anos_0_1673232819.html
p20
aVhttps://www.clarin.com/opinion/dejar-votar-anos_0_1673232819.html
p21
aVhttps://www.clarin.com/ieco/economia/Federico-Procaccini-celulares-aceleraron-anunciantes_0_1672632868.html
p22
aVhttps://www.clarin.com/ieco/economia/Federico-Procaccini-celulares-aceleraron-anunciantes_0_1672632868.html
p23
a.