(lp0
Vhttps://www.clarin.com/sociedad/Murio-Denzel-detectaba-despedido-honores_0_1584441678.html
p1
aVhttps://www.clarin.com/sociedad/Murio-Denzel-detectaba-despedido-honores_0_1584441678.html
p2
aVhttps://www.clarin.com/sociedad/Video-pisos-edificio-ayuda-aspiradoras_0_1584441676.html
p3
aVhttps://www.clarin.com/sociedad/Video-pisos-edificio-ayuda-aspiradoras_0_1584441676.html
p4
aVhttps://www.clarin.com/sociedad/mujer-batalla-legal-esperma-marido_0_1584441674.html
p5
aVhttps://www.clarin.com/sociedad/mujer-batalla-legal-esperma-marido_0_1584441674.html
p6
aVhttps://www.clarin.com/politica/historia-jubilados-hablaron-Macri-anuncios_0_1584441669.html
p7
aVhttps://www.clarin.com/sociedad/Salieron-campeonas-desnudaron-festejar_0_1584441667.html
p8
aVhttps://www.clarin.com/sociedad/Salieron-campeonas-desnudaron-festejar_0_1584441667.html
p9
aVhttps://www.clarin.com/sociedad/alumnos-drive-estudiar-encontraron-fotos_0_1584441665.html
p10
aVhttps://www.clarin.com/sociedad/alumnos-drive-estudiar-encontraron-fotos_0_1584441665.html
p11
aVhttps://www.clarin.com/sociedad/Facebook-Microsoft-tenderan-EEUU-Espana_0_1584441666.html
p12
aVhttps://www.clarin.com/sociedad/Facebook-Microsoft-tenderan-EEUU-Espana_0_1584441666.html
p13
a.