(lp0
Vhttps://www.clarin.com/sociedad/fundadora-The-Huffington-Post-diario_0_1630637024.html
p1
aVhttps://www.clarin.com/sociedad/fundadora-The-Huffington-Post-diario_0_1630637024.html
p2
aVhttps://www.clarin.com/politica/PRO-Escuela-Formacion-Politica-Provincia_0_1630637021.html
p3
aVhttps://www.clarin.com/politica/Piden-investigar-Gabriela-Michetti-vivienda_0_1630637015.html
p4
aVhttps://www.clarin.com/politica/Piden-investigar-Gabriela-Michetti-vivienda_0_1630637015.html
p5
aVhttps://www.clarin.com/politica/fiscal-ampliar-procesamiento-Lopez-Tigre_0_1630637016.html
p6
aVhttps://www.clarin.com/politica/fiscal-ampliar-procesamiento-Lopez-Tigre_0_1630637016.html
p7
a.