(lp0
Vhttps://www.clarin.com/ieco/economia/Suben-ciento-porcentaje-bioetanol-naftas_0_1550845112.html
p1
aVhttps://www.clarin.com/ieco/economia/Suben-ciento-porcentaje-bioetanol-naftas_0_1550845112.html
p2
aVhttps://www.clarin.com/politica/Lazaro-Baez-sospechas-sobreprecio-terminar_0_1550845100.html
p3
aVhttps://www.clarin.com/politica/Lazaro-Baez-sospechas-sobreprecio-terminar_0_1550845100.html
p4
aVhttps://www.clarin.com/sociedad/Buscan-Federico-Storani-Rio-Lujan_0_1550845098.html
p5
aVhttps://www.clarin.com/sociedad/Buscan-Federico-Storani-Rio-Lujan_0_1550845098.html
p6
aVhttps://www.clarin.com/politica/Longobardi-ministro-Aranguren-Julio-Vido_0_1550845096.html
p7
aVhttps://www.clarin.com/politica/Longobardi-ministro-Aranguren-Julio-Vido_0_1550845096.html
p8
aVhttps://www.clarin.com/politica/Consumidores-aumentos-gravisimo-error_0_1550845118.html
p9
aVhttps://www.clarin.com/politica/Consumidores-aumentos-gravisimo-error_0_1550845118.html
p10
aVhttps://www.clarin.com/sociedad/Tragedia-Lujan-muertos-desaparecido-lanchas_0_1550845089.html
p11
aVhttps://www.clarin.com/sociedad/Tragedia-Lujan-muertos-desaparecido-lanchas_0_1550845089.html
p12
aVhttps://www.clarin.com/sociedad/pueblo-Eslovenia-fuente-publica-cerveza_0_1550845085.html
p13
aVhttps://www.clarin.com/sociedad/pueblo-Eslovenia-fuente-publica-cerveza_0_1550845085.html
p14
aVhttps://www.clarin.com/ieco/Pago-Stiglitz-repercusiones-financiero-internacional_0_1550845083.html
p15
aVhttps://www.clarin.com/ieco/Pago-Stiglitz-repercusiones-financiero-internacional_0_1550845083.html
p16
aVhttps://www.clarin.com/ieco/economia/Naftas-estacioneros-saber-compensara-devaluacion_0_1550845078.html
p17
aVhttps://www.clarin.com/ieco/economia/Naftas-estacioneros-saber-compensara-devaluacion_0_1550845078.html
p18
a.