(lp0
S'https://www.clarin.com/politica/secretario-Derechos-Humanos-sociedades-offshore_0_1553245038.html'
p1
aS'https://www.clarin.com/politica/secretario-Derechos-Humanos-sociedades-offshore_0_1553245038.html'
p2
aS'https://www.clarin.com/ieco/Moyano-inflacion-marzo_0_1553245037.html'
p3
aS'https://www.clarin.com/sociedad/quieren-abrir-biblioteca-jovenes-interesa_0_1553245028.html'
p4
aS'https://www.clarin.com/sociedad/quieren-abrir-biblioteca-jovenes-interesa_0_1553245028.html'
p5
a.