(lp0
S'https://www.clarin.com/sociedad/Giro-deportes-acuaticos-drone-surfing_0_1649835155.html'
p1
aS'https://www.clarin.com/sociedad/Giro-deportes-acuaticos-drone-surfing_0_1649835155.html'
p2
aS'https://www.clarin.com/ieco/INDEC-confirmo-freno-inflacion-agosto_0_1649835154.html'
p3
aS'https://www.clarin.com/ieco/economia/blooper-Michetti-empresarios-Pepsi_0_1649835153.html'
p4
aS'https://www.clarin.com/ieco/economia/blooper-Michetti-empresarios-Pepsi_0_1649835153.html'
p5
aS'https://www.clarin.com/politica/Jose-Luis-Manzano-charla-Aranguren_0_1649835150.html'
p6
aS'https://www.clarin.com/politica/Jose-Luis-Manzano-charla-Aranguren_0_1649835150.html'
p7
aS'https://www.clarin.com/ieco/economia/Aerolineas-arreglo-pilotos-mantiene-Roma_0_1649835147.html'
p8
aS'https://www.clarin.com/ieco/economia/Aerolineas-arreglo-pilotos-mantiene-Roma_0_1649835147.html'
p9
a.