(lp0
Vhttps://www.clarin.com/politica/Ricardo-Obregon-Cano-historico-peronismo_0_1598840264.html
p1
aVhttps://www.clarin.com/politica/Ricardo-Obregon-Cano-historico-peronismo_0_1598840264.html
p2
aVhttps://www.clarin.com/politica/regreso-Vatayon-Militante_0_1599440042.html
p3
aVhttps://www.clarin.com/opinion/guia-cultivar-odio_0_1598840255.html
p4
aVhttps://www.clarin.com/sociedad/argentinos-drogas-principal-causa-violencia_0_1598840258.html
p5
aVhttps://www.clarin.com/politica/Farina-Echegaray-Jaime-Schiavi-Baratta_0_1598840276.html
p6
aVhttps://www.clarin.com/politica/Farina-Echegaray-Jaime-Schiavi-Baratta_0_1598840276.html
p7
a.