(lp0
S'https://www.clarin.com/politica/salida-default-vuelve-Fragata-Libertad_0_1558644604.html'
p1
aS'https://www.clarin.com/ieco/antibiotico-prohibido-argentina-exportaba-China_0_1558644286.html'
p2
aS'https://www.clarin.com/ieco/Central-prepara-revision-FMI_0_1558644615.html'
p3
aS'https://www.clarin.com/politica/Casino-vendio-yegua-investiga-justicia_0_1558644353.html'
p4
a.