(lp0
Vhttps://www.clarin.com/politica/Detienen-Vido-enterrando-dolares-fondo_0_1595240499.html
p1
aVhttps://www.clarin.com/politica/Detienen-Vido-enterrando-dolares-fondo_0_1595240499.html
p2
aVhttps://www.clarin.com/politica/Ceden-presiones-Camioneros-resumenes-distribuyendo_0_1595240494.html
p3
aVhttps://www.clarin.com/politica/Ceden-presiones-Camioneros-resumenes-distribuyendo_0_1595240494.html
p4
aVhttps://www.clarin.com/politica/Cortan-rutas-nacionales-precio-yerba_0_1595240493.html
p5
aVhttps://www.clarin.com/politica/Cortan-rutas-nacionales-precio-yerba_0_1595240493.html
p6
aVhttps://www.clarin.com/sociedad/consejos-mejor-chef-mundo_0_1595240491.html
p7
aVhttps://www.clarin.com/sociedad/consejos-mejor-chef-mundo_0_1595240491.html
p8
aVhttps://www.clarin.com/politica/Crisis-Santa-Cruz-docentes-clases_0_1594640670.html
p9
aVhttps://www.clarin.com/politica/Crisis-Santa-Cruz-docentes-clases_0_1594640670.html
p10
a.