(lp0
Vhttps://www.clarin.com/sociedad/Bob-Dylan-necesita-quedarse-conversacion_0_1667833284.html
p1
aVhttps://www.clarin.com/sociedad/Bob-Dylan-necesita-quedarse-conversacion_0_1667833284.html
p2
aVhttps://www.clarin.com/politica/Macri-Roma-audiencia-Papa-Awada_0_1667833288.html
p3
aVhttps://www.clarin.com/politica/Macri-Roma-audiencia-Papa-Awada_0_1667833288.html
p4
aVhttps://www.clarin.com/sociedad/Steve-Jobs-Beatles-Bob-Dylan_0_1667833287.html
p5
aVhttps://www.clarin.com/sociedad/Steve-Jobs-Beatles-Bob-Dylan_0_1667833287.html
p6
aVhttps://www.clarin.com/ieco/Gobierno-emite-bonos-millones_0_1667833279.html
p7
aVhttps://www.clarin.com/ieco/Gobierno-emite-bonos-millones_0_1667833279.html
p8
aVhttps://www.clarin.com/ieco/economia/Prat-Gay-aprovecha-corrida-lanza_0_1667833278.html
p9
aVhttps://www.clarin.com/ieco/economia/Prat-Gay-aprovecha-corrida-lanza_0_1667833278.html
p10
aVhttps://www.clarin.com/sociedad/Archivo-Bob-Dylan-toco-Velez_0_1667833274.html
p11
aVhttps://www.clarin.com/sociedad/Archivo-Bob-Dylan-toco-Velez_0_1667833274.html
p12
a.