(lp0
Vhttps://www.clarin.com/politica/fiscales-Provincia-acusan-Vidal_0_1612638878.html
p1
aVhttps://www.clarin.com/politica/oposicion-policias-municipales-Vidal-responder_0_1612638870.html
p2
aVhttps://www.clarin.com/politica/Guillermo-Moreno-desmintio-frecuentado-Lopez_0_1612638866.html
p3
aVhttps://www.clarin.com/politica/Guillermo-Moreno-desmintio-frecuentado-Lopez_0_1612638866.html
p4
aVhttps://www.clarin.com/sociedad/rottweiler-seguridad-atacaron-mataron_0_1612638857.html
p5
aVhttps://www.clarin.com/sociedad/rottweiler-seguridad-atacaron-mataron_0_1612638857.html
p6
aVhttps://www.clarin.com/politica/autora-discursos-Macri-funcionaria_0_1612638851.html
p7
a.