(lp0
S'https://www.clarin.com/ieco/economia/Banco-Central-tasas-lebacs_0_1586841479.html'
p1
aS'https://www.clarin.com/sociedad/Gobierno-acordo-docentes-universitarios_0_1586841482.html'
p2
aS'https://www.clarin.com/sociedad/duplicaron-denuncias-violencia-genero-ano_0_1586841493.html'
p3
aS'https://www.clarin.com/politica/Pago-jubilados-Gobierno-ingresara-Senado_0_1586841476.html'
p4
aS'https://www.clarin.com/politica/Polemica-Mendoza-sueldo-legisladores-crecio_0_1586841467.html'
p5
aS'https://www.clarin.com/sociedad/tecnologia-hace-realidad-fantasia-Blancanieves_0_1586841490.html'
p6
aS'https://www.clarin.com/politica/panelista-entrevistar-Guillermo-Moreno-PJ_0_1586841492.html'
p7
aS'https://www.clarin.com/politica/Gobierno-jovenes-timbrear-busca-apoyo_0_1586841474.html'
p8
aS'https://www.clarin.com/politica/justicia-calcula-Baez-millones-dolares_0_1586841477.html'
p9
aS'https://www.clarin.com/politica/Frenan-interior-provincia-Buenos-Aires_0_1586841480.html'
p10
a.