(lp0
S'https://www.clarin.com/politica/Zulemita-Menem-Cristina-hermano-atentado_0_1577242355.html'
p1
aS'https://www.clarin.com/politica/Zulemita-Menem-Cristina-hermano-atentado_0_1577242355.html'
p2
aS'https://www.clarin.com/politica/UIA-antidespidos-Va-demorar-inversiones_0_1577242353.html'
p3
aS'https://www.clarin.com/politica/UIA-antidespidos-Va-demorar-inversiones_0_1577242353.html'
p4
aS'https://www.clarin.com/sociedad/Murio-caer-balcon-piso-Barracas_0_1577242352.html'
p5
aS'https://www.clarin.com/sociedad/Murio-caer-balcon-piso-Barracas_0_1577242352.html'
p6
aS'https://www.clarin.com/sociedad/Violan-estrangulan-chica-volvia-bailar_0_1577242351.html'
p7
aS'https://www.clarin.com/sociedad/Violan-estrangulan-chica-volvia-bailar_0_1577242351.html'
p8
aS'https://www.clarin.com/politica/Larroque-procesamiento-Cristina-quedar-callada_0_1577242348.html'
p9
aS'https://www.clarin.com/politica/Larroque-procesamiento-Cristina-quedar-callada_0_1577242348.html'
p10
a.