(lp0
Vhttps://www.clarin.com/sociedad/expectativa-mayor-nuevo-desafio-familiar_0_1624037747.html
p1
aVhttps://www.clarin.com/politica/Pichetto-presidentes-hablaran-cuestiones-coyuntura_0_1624637521.html
p2
aVhttps://www.clarin.com/politica/Pichetto-presidentes-hablaran-cuestiones-coyuntura_0_1624637521.html
p3
aVhttps://www.clarin.com/politica/inflacion-gremios-buscan-discutir-sueldos_0_1624037743.html
p4
aVhttps://www.clarin.com/sociedad/fuerte-afloja-esperan-verano-lluvias_0_1624037764.html
p5
aVhttps://www.clarin.com/sociedad/fuerte-afloja-esperan-verano-lluvias_0_1624037764.html
p6
aVhttps://www.clarin.com/politica/Florencia-Kirchner-policias-custodia_0_1624037690.html
p7
aVhttps://www.clarin.com/politica/Florencia-Kirchner-policias-custodia_0_1624037690.html
p8
a.