(lp0
Vhttps://www.clarin.com/ieco/economia/Central-apresta-lanzar-creditos-indexados_0_1500450114.html
p1
aVhttps://www.clarin.com/ieco/economia/Precios-Ciudados-canasta-productos-subas_0_1500450111.html
p2
aVhttps://www.clarin.com/sociedad/Buscan-perdio-playa-Santa-Teresita_0_1500450103.html
p3
aVhttps://www.clarin.com/sociedad/Buscan-perdio-playa-Santa-Teresita_0_1500450103.html
p4
aVhttps://www.clarin.com/politica/Gobierno-Sel-Panama-Timerman-Paraguay_0_1500450105.html
p5
aVhttps://www.clarin.com/politica/Gobierno-Sel-Panama-Timerman-Paraguay_0_1500450105.html
p6
aVhttps://www.clarin.com/sociedad/juguetes-sobrevivieron-paso-tiempo_0_1499850189.html
p7
aVhttps://www.clarin.com/sociedad/juguetes-sobrevivieron-paso-tiempo_0_1499850189.html
p8
a.