(lp0
S'https://www.clarin.com/politica/Anibal-Navarro-precedentes-levantar-programas_0_1544245755.html'
p1
aS'https://www.clarin.com/politica/Anibal-Navarro-precedentes-levantar-programas_0_1544245755.html'
p2
aS'https://www.clarin.com/politica/Caso-Nisman-SIDE-Paco-Larcher_0_1544245750.html'
p3
aS'https://www.clarin.com/politica/Caso-Nisman-SIDE-Paco-Larcher_0_1544245750.html'
p4
aS'https://www.clarin.com/ieco/diferencia-reciben-productores-multiplico-febrero_0_1544245745.html'
p5
aS'https://www.clarin.com/ieco/diferencia-reciben-productores-multiplico-febrero_0_1544245745.html'
p6
aS'https://www.clarin.com/ieco/Todesca-estimo-cifras-inflacion-pobreza_0_1544245740.html'
p7
aS'https://www.clarin.com/ieco/Todesca-estimo-cifras-inflacion-pobreza_0_1544245740.html'
p8
aS'https://www.clarin.com/sociedad/perro-deprimido-conmovio-Facebook_0_1544245735.html'
p9
aS'https://www.clarin.com/sociedad/perro-deprimido-conmovio-Facebook_0_1544245735.html'
p10
aS'https://www.clarin.com/politica/Ottavis-Rosadita-Cristina-justificar-patrimonio_0_1544245728.html'
p11
aS'https://www.clarin.com/politica/Ottavis-Rosadita-Cristina-justificar-patrimonio_0_1544245728.html'
p12
a.