(lp0
S'https://www.clarin.com/opinion/Simeone-diciendo-importante_0_1585641423.html'
p1
aS'https://www.clarin.com/ieco/economia/Moratoria-fiscal-perdon-planes-cuotas_0_1585041626.html'
p2
aS'https://www.clarin.com/ieco/economia/naftas-agua-inflacion-mayo-ubico_0_1585041620.html'
p3
aS'https://www.clarin.com/opinion/Excusas-amores-fuga_0_1585041612.html'
p4
aS'https://www.clarin.com/opinion/cacarean-ponen-huevos_0_1585641424.html'
p5
aS'https://www.clarin.com/politica/Revelan-Echegaray-AFIP-controlo-lavado_0_1585041614.html'
p6
aS'https://www.clarin.com/opinion/adolescentes_0_1585041628.html'
p7
aS'https://www.clarin.com/politica/Negocios-compartidos-contrato-Maximo-Baez_0_1585041619.html'
p8
aS'https://www.clarin.com/politica/Inflacion-alza-tarifas-problemas-preocupan_0_1585041617.html'
p9
aS'https://www.clarin.com/opinion/Maria-Eugenia-plan-Macri_0_1585641425.html'
p10
aS'https://www.clarin.com/opinion/Macri-peronismo-grietas_0_1585641426.html'
p11
aS'https://www.clarin.com/ieco/petroleros-complica-crisis-Santa-Cruz_0_1585041635.html'
p12
a.