(lp0
Vhttps://www.clarin.com/politica/Gobierno-demora-lanzamiento-satelite-Arsat_0_1549045592.html
p1
aVhttps://www.clarin.com/politica/Macri-prometio-duplicar-cantidad-autopistas_0_1549045586.html
p2
aVhttps://www.clarin.com/politica/FPV-fracturado-Senado-vota-endeudamiento_0_1549045574.html
p3
a.