(lp0
Vhttps://www.clarin.com/ieco/economia/Mejoras-jubilados-ANSeS-advierte-tardar_0_1585041622.html
p1
aVhttps://www.clarin.com/ieco/economia/Mejoras-jubilados-ANSeS-advierte-tardar_0_1585041622.html
p2
aVhttps://www.clarin.com/ieco/economia/Paso-tramites-adherir-propuesta-oficial_0_1585041625.html
p3
aVhttps://www.clarin.com/ieco/economia/relojes-atrasan_0_1585641494.html
p4
aVhttps://www.clarin.com/ieco/economia/relojes-atrasan_0_1585641494.html
p5
aVhttps://www.clarin.com/ieco/economia/sube-final-baja_0_1585641490.html
p6
aVhttps://www.clarin.com/ieco/economia/sube-final-baja_0_1585641490.html
p7
aVhttps://www.clarin.com/ieco/economia/Alternativas-inversion-ganar-hoy-Argentina_0_1585641488.html
p8
aVhttps://www.clarin.com/ieco/economia/Alternativas-inversion-ganar-hoy-Argentina_0_1585641488.html
p9
aVhttps://www.clarin.com/ieco/economia/encontrar-pasajes-baratos_0_1585641470.html
p10
aVhttps://www.clarin.com/ieco/economia/encontrar-pasajes-baratos_0_1585641470.html
p11
aVhttps://www.clarin.com/ieco/economia/felicidad-cosa_0_1585641467.html
p12
aVhttps://www.clarin.com/ieco/economia/felicidad-cosa_0_1585641467.html
p13
aVhttps://www.clarin.com/ieco/economia/ex-Chevron-retira_0_1585641461.html
p14
aVhttps://www.clarin.com/ieco/economia/ex-Chevron-retira_0_1585641461.html
p15
aVhttps://www.clarin.com/ieco/economia/ojo-trabas-Europa_0_1585641460.html
p16
aVhttps://www.clarin.com/ieco/economia/ojo-trabas-Europa_0_1585641460.html
p17
aVhttps://www.clarin.com/ieco/economia/biocombustibles-quiebran-reciben-buenas-senales_0_1585641459.html
p18
aVhttps://www.clarin.com/ieco/economia/biocombustibles-quiebran-reciben-buenas-senales_0_1585641459.html
p19
aVhttps://www.clarin.com/ieco/economia/negocio-choclo-cana_0_1585641458.html
p20
aVhttps://www.clarin.com/ieco/economia/Vaca-Muerta-sigue-carrera_0_1585641457.html
p21
aVhttps://www.clarin.com/ieco/economia/combustibles-argentinos-caros-region_0_1585641456.html
p22
aVhttps://www.clarin.com/ieco/economia/combustibles-argentinos-caros-region_0_1585641456.html
p23
aVhttps://www.clarin.com/ieco/economia/defender-profesionales_0_1585641455.html
p24
aVhttps://www.clarin.com/ieco/economia/defender-profesionales_0_1585641455.html
p25
aVhttps://www.clarin.com/ieco/economia/exportaciones-signo-agrodependencia_0_1585641454.html
p26
a.