(lp0
S'https://www.clarin.com/politica/Marcharon-Plata-aparicion-Julio-Lopez_0_1652834845.html'
p1
aS'https://www.clarin.com/politica/Marcharon-Plata-aparicion-Julio-Lopez_0_1652834845.html'
p2
aS'https://www.clarin.com/politica/Malvinas-UCR-diferencias-Malcorra-Congreso_0_1652834842.html'
p3
aS'https://www.clarin.com/politica/Malvinas-UCR-diferencias-Malcorra-Congreso_0_1652834842.html'
p4
aS'https://www.clarin.com/sociedad/Ovacion-modelos-XL-muestra-erotismo_0_1652834837.html'
p5
aS'https://www.clarin.com/sociedad/Ovacion-modelos-XL-muestra-erotismo_0_1652834837.html'
p6
aS'https://www.clarin.com/sociedad/vemos-semanas-cumpleanos_0_1652834831.html'
p7
aS'https://www.clarin.com/sociedad/Nuevas-familias-ensambladas-adoptar-hermanos_0_1652834824.html'
p8
aS'https://www.clarin.com/sociedad/Nuevas-familias-ensambladas-adoptar-hermanos_0_1652834824.html'
p9
aS'https://www.clarin.com/opinion/China-Mao-Nestor-Cristina-Macri_0_1652834826.html'
p10
a.