(lp0
Vhttps://www.clarin.com/sociedad/final-tragico-largas-vacaciones-amigas_0_1531047295.html
p1
aVhttps://www.clarin.com/sociedad/final-tragico-largas-vacaciones-amigas_0_1531047295.html
p2
aVhttps://www.clarin.com/sociedad/Dios-quito-estrellas-Maria-Jose_0_1531047299.html
p3
aVhttps://www.clarin.com/sociedad/Dios-quito-estrellas-Maria-Jose_0_1531047299.html
p4
aVhttps://www.clarin.com/politica/Macri_Vidal_acto_inicio_de_clases_0_1531047271.html
p5
a.