(lp0
Vhttps://www.clarin.com/sociedad/fotos-artista-argentina-engano-Instagram_0_1538246363.html
p1
aVhttps://www.clarin.com/sociedad/fotos-artista-argentina-engano-Instagram_0_1538246363.html
p2
aVhttps://www.clarin.com/ieco/economia/Preparan-licitacion-Bonar-semana-proxima_0_1538246360.html
p3
aVhttps://www.clarin.com/sociedad/Diagnosticaron-WhatsApp-salvaron-vida-beba_0_1538246340.html
p4
aVhttps://www.clarin.com/sociedad/Diagnosticaron-WhatsApp-salvaron-vida-beba_0_1538246340.html
p5
aVhttps://www.clarin.com/ieco/economia/Lacunza-coincidio-Prat-Gay-inflacion-bajara_0_1538246344.html
p6
aVhttps://www.clarin.com/ieco/economia/Lacunza-coincidio-Prat-Gay-inflacion-bajara_0_1538246344.html
p7
aVhttps://www.clarin.com/sociedad/empresarios-importantes-denuncia-abusado-hermano_0_1538246339.html
p8
aVhttps://www.clarin.com/sociedad/empresarios-importantes-denuncia-abusado-hermano_0_1538246339.html
p9
a.