(lp0
Vhttps://www.clarin.com/politica/Ex-intendente-Rio-Gallegos-fraudulento_0_1662433745.html
p1
aVhttps://www.clarin.com/politica/Ex-intendente-Rio-Gallegos-fraudulento_0_1662433745.html
p2
aVhttps://www.clarin.com/sociedad/Hallan-plantas-cannabis-conservadas-tumba_0_1664233617.html
p3
aVhttps://www.clarin.com/sociedad/Hallan-plantas-cannabis-conservadas-tumba_0_1664233617.html
p4
aVhttps://www.clarin.com/ieco/emisiones-empresas-argentinas-crecieron-ano_0_1664233614.html
p5
aVhttps://www.clarin.com/ieco/emisiones-empresas-argentinas-crecieron-ano_0_1664233614.html
p6
aVhttps://www.clarin.com/politica/incremento-patrimonial-federal-Freiler-anos_0_1664233608.html
p7
aVhttps://www.clarin.com/politica/incremento-patrimonial-federal-Freiler-anos_0_1664233608.html
p8
a.