(lp0
S'https://www.clarin.com/ieco/economia/claves-nuevo-plan-pago-jubilados_0_1604839578.html'
p1
aS'https://www.clarin.com/ieco/economia/Gobierno-US-millones-recomprar-PBI_0_1604839584.html'
p2
aS'https://www.clarin.com/politica/Skanska-Camara-Federal-evaluar-escucha_0_1604839589.html'
p3
aS'https://www.clarin.com/politica/Esteche-Gobierno-vamos-ayudar-caiga_0_1604839590.html'
p4
aS'https://www.clarin.com/politica/Carrio-Cristina-cuidar-Anibal-Vido_0_1604839594.html'
p5
aS'https://www.clarin.com/sociedad/Video-rescataron-personas-atrapadas-montana_0_1604839581.html'
p6
a.