(lp0
S'https://www.clarin.com/politica/Cerca-infierno-temido-Cristina_0_1687031456.html'
p1
aS'https://www.clarin.com/sociedad/SOS-Ciudad-violencia-adultos-chicos_0_1687031468.html'
p2
aS'https://www.clarin.com/politica/Cristina-Kirchner-reagrupa-PJ-tradicional_0_1687031467.html'
p3
aS'https://www.clarin.com/politica/Rechazan-Milagro-Sala-amenazas-Morales_0_1687031443.html'
p4
aS'https://www.clarin.com/sociedad/Hackearon-millones-cuentas-sitios-adultos_0_1687031471.html'
p5
aS'https://www.clarin.com/sociedad/argentinos-mejores-region-cambiar-historia_0_1687031393.html'
p6
a.