(lp0
Vhttps://www.clarin.com/sociedad/abuela-atraveso-siglos-desafiando-nutricionistas_0_1578442178.html
p1
aVhttps://www.clarin.com/sociedad/abuela-atraveso-siglos-desafiando-nutricionistas_0_1578442178.html
p2
aVhttps://www.clarin.com/sociedad/Susto-Mendoza-sismo-mediana-intensidad_0_1578442177.html
p3
aVhttps://www.clarin.com/ieco/economia/pan-aumenta-cuesta-kilo_0_1578442173.html
p4
aVhttps://www.clarin.com/ieco/economia/pan-aumenta-cuesta-kilo_0_1578442173.html
p5
aVhttps://www.clarin.com/politica/baile-Oyarbide-version-remixada_0_1578442170.html
p6
aVhttps://www.clarin.com/politica/baile-Oyarbide-version-remixada_0_1578442170.html
p7
aVhttps://www.clarin.com/sociedad/Twitter-excluiria-fotos-limite-caracteres_0_1578442169.html
p8
aVhttps://www.clarin.com/sociedad/Twitter-excluiria-fotos-limite-caracteres_0_1578442169.html
p9
aVhttps://www.clarin.com/politica/Surgen-datos-facturas-falsas-Boudou_0_1578442160.html
p10
aVhttps://www.clarin.com/politica/Surgen-datos-facturas-falsas-Boudou_0_1578442160.html
p11
aVhttps://www.clarin.com/ieco/sector-textil-advierten-caida-actividad_0_1578442162.html
p12
aVhttps://www.clarin.com/ieco/sector-textil-advierten-caida-actividad_0_1578442162.html
p13
a.