(lp0
S'https://www.clarin.com/politica/macri-moyano-paritarias_0_1520848234.html'
p1
aS'https://www.clarin.com/sociedad/Momento-incomodo-criminal-conductor-noticiero_0_1520848227.html'
p2
aS'https://www.clarin.com/ieco/economia/petroleo-toca-nuevo-minimo_0_1520848243.html'
p3
a.