(lp0
S'https://www.clarin.com/ieco/Nissan-anuncio-compra-Mitsubishi-Motors_0_1575442492.html'
p1
aS'https://www.clarin.com/ieco/Nissan-anuncio-compra-Mitsubishi-Motors_0_1575442492.html'
p2
aS'https://www.clarin.com/sociedad/Time-Warp-declarar-Sergio-Massa_0_1575442490.html'
p3
aS'https://www.clarin.com/sociedad/Time-Warp-declarar-Sergio-Massa_0_1575442490.html'
p4
aS'https://www.clarin.com/politica/Corrupcion-Argentina-comprometio-asegurar-transparencia_0_1575442489.html'
p5
aS'https://www.clarin.com/politica/Corrupcion-Argentina-comprometio-asegurar-transparencia_0_1575442489.html'
p6
aS'https://www.clarin.com/politica/democracia-plena-inclusion-advirtio-Iglesia_0_1575442486.html'
p7
aS'https://www.clarin.com/politica/democracia-plena-inclusion-advirtio-Iglesia_0_1575442486.html'
p8
aS'https://www.clarin.com/ieco/economia/Prat-Gay-puntos-inflacion-tarifas_0_1575442484.html'
p9
aS'https://www.clarin.com/ieco/economia/Prat-Gay-puntos-inflacion-tarifas_0_1575442484.html'
p10
a.