(lp0
Vhttps://www.clarin.com/politica/sesion-Tucuman-ausencias-jefes-PJ_0_1608439238.html
p1
aVhttps://www.clarin.com/politica/sesion-Tucuman-ausencias-jefes-PJ_0_1608439238.html
p2
aVhttps://www.clarin.com/sociedad/restaurantes-raros-mundo_0_1608439232.html
p3
aVhttps://www.clarin.com/sociedad/restaurantes-raros-mundo_0_1608439232.html
p4
aVhttps://www.clarin.com/politica/oficialista-tarifazo-Podrian-haberse-medidas_0_1608439229.html
p5
aVhttps://www.clarin.com/politica/oficialista-tarifazo-Podrian-haberse-medidas_0_1608439229.html
p6
aVhttps://www.clarin.com/sociedad/Video-lucha-serpiente-rescatar-cria_0_1608439224.html
p7
aVhttps://www.clarin.com/sociedad/Video-lucha-serpiente-rescatar-cria_0_1608439224.html
p8
aVhttps://www.clarin.com/ieco/economia/inversiones-prometieron-Macri_0_1608439225.html
p9
aVhttps://www.clarin.com/ieco/economia/inversiones-prometieron-Macri_0_1608439225.html
p10
aVhttps://www.clarin.com/sociedad/Provocadora-propuesta-malla-piletas-publicas_0_1608439223.html
p11
aVhttps://www.clarin.com/sociedad/Provocadora-propuesta-malla-piletas-publicas_0_1608439223.html
p12
aVhttps://www.clarin.com/politica/Cristina-Comodoro-Py-concurrencia-Presidenta_0_1608439220.html
p13
aVhttps://www.clarin.com/politica/Cristina-Comodoro-Py-concurrencia-Presidenta_0_1608439220.html
p14
a.