(lp0
S'https://www.clarin.com/politica/Scioli-avalo-explicaciones-dio-Presidente_0_1553245151.html'
p1
aS'https://www.clarin.com/politica/Scioli-avalo-explicaciones-dio-Presidente_0_1553245151.html'
p2
aS'https://www.clarin.com/politica/Gobierno-dara-informacion-Oficina-Anticorrupcion_0_1553245181.html'
p3
aS'https://www.clarin.com/politica/Gobierno-dara-informacion-Oficina-Anticorrupcion_0_1553245181.html'
p4
aS'https://www.clarin.com/politica/montana-pruebas_0_1553245159.html'
p5
aS'https://www.clarin.com/politica/montana-pruebas_0_1553245159.html'
p6
aS'https://www.clarin.com/sociedad/Corte-rechazo-apelacion-Callejeros-prision_0_1553245153.html'
p7
aS'https://www.clarin.com/politica/Gobierno-ofensiva-procuradora-Gils-Carbo_0_1553245133.html'
p8
aS'https://www.clarin.com/politica/Gobierno-ofensiva-procuradora-Gils-Carbo_0_1553245133.html'
p9
aS'https://www.clarin.com/politica/Gobierno-reojo-doble-juego-Massa_0_1553245162.html'
p10
aS'https://www.clarin.com/politica/caza-trofeo-dificil-vale_0_1553245166.html'
p11
aS'https://www.clarin.com/politica/caza-trofeo-dificil-vale_0_1553245166.html'
p12
aS'https://www.clarin.com/opinion/Postales-vieja-pulperia_0_1553245099.html'
p13
a.