(lp0
S'https://www.clarin.com/politica/Retiro-visitas-Rosada-consejos-Macri_0_1539446394.html'
p1
aS'https://www.clarin.com/politica/Retiro-visitas-Rosada-consejos-Macri_0_1539446394.html'
p2
aS'https://www.clarin.com/politica/empresarios-merecen-Moreno_0_1539446386.html'
p3
aS'https://www.clarin.com/politica/empresarios-merecen-Moreno_0_1539446386.html'
p4
aS'https://www.clarin.com/sociedad/meditacion-grande-historia-ritmo-tango_0_1539446385.html'
p5
aS'https://www.clarin.com/sociedad/meditacion-grande-historia-ritmo-tango_0_1539446385.html'
p6
aS'https://www.clarin.com/sociedad/Mensajes-amor-delgada-Ravi-Shankar_0_1539446378.html'
p7
aS'https://www.clarin.com/sociedad/Mensajes-amor-delgada-Ravi-Shankar_0_1539446378.html'
p8
aS'https://www.clarin.com/sociedad/maestra-palestina-premio-mejor-docente_0_1539446371.html'
p9
aS'https://www.clarin.com/sociedad/maestra-palestina-premio-mejor-docente_0_1539446371.html'
p10
aS'https://www.clarin.com/politica/MACRI-MAJUL_0_1539446426.html'
p11
aS'https://www.clarin.com/politica/MACRI-MAJUL_0_1539446426.html'
p12
aS'https://www.clarin.com/politica/Macri-confeso-padecio-perdida-propia_0_1539446404.html'
p13
aS'https://www.clarin.com/politica/Macri-confeso-padecio-perdida-propia_0_1539446404.html'
p14
aS'https://www.clarin.com/politica/Morales-Milagro-Sala-homicidios-Jujuy_0_1539446381.html'
p15
aS'https://www.clarin.com/politica/Morales-Milagro-Sala-homicidios-Jujuy_0_1539446381.html'
p16
a.