(lp0
S'https://www.clarin.com/sociedad/esperanza-Gael-llego-Boston-operarse_0_1531047235.html'
p1
aS'https://www.clarin.com/politica/Lesionados-Olivos-acalorados-Congreso_0_1531047298.html'
p2
aS'https://www.clarin.com/opinion/Europa-camina-distintas-velocidades_0_1531047214.html'
p3
aS'https://www.clarin.com/ieco/demora-carne-EEUU-falta-controles_0_1531047244.html'
p4
aS'https://www.clarin.com/politica/nuevas-oficinas-Cristina-agencia-noticias_0_1531047268.html'
p5
aS'https://www.clarin.com/sociedad/Arrancan-clases-meta-cumplir-dias_0_1531047288.html'
p6
aS'https://www.clarin.com/politica/Ahora-AFIP-investigara-Echegaray-Hotesur_0_1531047262.html'
p7
aS'https://www.clarin.com/sociedad/Padres-chicos-docentes-temor-perdidos_0_1531047291.html'
p8
a.