(lp0
S'https://www.clarin.com/politica/Vaca-Muerta-negocian-empresas-sindicatos_0_1679232227.html'
p1
aS'https://www.clarin.com/opinion/kirchnerismo-hizo-demasiado-obvio_0_1679832004.html'
p2
aS'https://www.clarin.com/opinion/impone-interes-venta-dolares-moda_0_1679232203.html'
p3
aS'https://www.clarin.com/opinion/show-violencia-genero_0_1679832003.html'
p4
aS'https://www.clarin.com/politica/Casacion-recibe-denuncia-Cristina-AMIA_0_1679832005.html'
p5
aS'https://www.clarin.com/ieco/economia/Busca-socios-mision-comercial-brasilena_0_1679232214.html'
p6
aS'https://www.clarin.com/politica/primera-Justicia-mete-casa-Cristina_0_1679232171.html'
p7
a.