(lp0
Vhttps://www.clarin.com/sociedad/Isabel-Preysler-efervescencia-Vargas-Llosa_0_1572442828.html
p1
aVhttps://www.clarin.com/sociedad/Isabel-Preysler-efervescencia-Vargas-Llosa_0_1572442828.html
p2
aVhttps://www.clarin.com/politica/Lazaro-Baez-contrato-Martin-Lanatta_0_1572442833.html
p3
aVhttps://www.clarin.com/politica/Lazaro-Baez-contrato-Martin-Lanatta_0_1572442833.html
p4
aVhttps://www.clarin.com/politica/Malcorra-puerta-ONU-contesta-Trump_0_1572442832.html
p5
aVhttps://www.clarin.com/politica/Carrio-vuelve-marcar-diferencias-Papa_0_1572442825.html
p6
aVhttps://www.clarin.com/politica/Carrio-vuelve-marcar-diferencias-Papa_0_1572442825.html
p7
a.