(lp0
S'https://www.clarin.com/sociedad/Fuerte-debate-acceso-libre-lagos_0_1684031750.html'
p1
aS'https://www.clarin.com/politica/Concejo-Varela-Ciudadana-Ilustre-Cristina_0_1684031739.html'
p2
aS'https://www.clarin.com/politica/Concejo-Varela-Ciudadana-Ilustre-Cristina_0_1684031739.html'
p3
aS'https://www.clarin.com/opinion/Clases-medias-blancas-rebelion_0_1684031742.html'
p4
aS'https://www.clarin.com/opinion/mundo-imprevisible-Trump_0_1684031740.html'
p5
aS'https://www.clarin.com/politica/macrismo-tension-Massa-asegurar-leyes_0_1684031737.html'
p6
aS'https://www.clarin.com/politica/macrismo-tension-Massa-asegurar-leyes_0_1684031737.html'
p7
aS'https://www.clarin.com/politica/CGT-jubilados-marcha-emergencia-social_0_1684031733.html'
p8
aS'https://www.clarin.com/politica/CGT-jubilados-marcha-emergencia-social_0_1684031733.html'
p9
a.