(lp0
S'https://www.clarin.com/sociedad/controladores-afecta-vuelos-aeropuertos-pais_0_1592840733.html'
p1
aS'https://www.clarin.com/sociedad/controladores-afecta-vuelos-aeropuertos-pais_0_1592840733.html'
p2
a.