(lp0
S'https://www.clarin.com/politica/Macri-hablo-finalmente-telefono-Trump_0_1687031390.html'
p1
aS'https://www.clarin.com/sociedad/David-LaChapelle-palabra-artista_0_1687031392.html'
p2
aS'https://www.clarin.com/ieco/bonos-dolares-sufren-efecto-Trump_0_1687031388.html'
p3
aS'https://www.clarin.com/sociedad/Doble-Montanita-detenidos-muerte-argentinas_0_1687031394.html'
p4
aS'https://www.clarin.com/politica/intendente-delincuentes-proviene-afuera-distrito_0_1687031387.html'
p5
a.