(lp0
Vhttps://www.clarin.com/politica/iglesia-ratifica-monasterio-General-Rodriguez_0_1614438577.html
p1
aVhttps://www.clarin.com/politica/iglesia-ratifica-monasterio-General-Rodriguez_0_1614438577.html
p2
aVhttps://www.clarin.com/politica/Stolbizer-Kirchner-enfermedad-brutal-dinero_0_1614438576.html
p3
aVhttps://www.clarin.com/politica/Stolbizer-Kirchner-enfermedad-brutal-dinero_0_1614438576.html
p4
aVhttps://www.clarin.com/politica/Moyano-advierte-improvisaciones-Gobierno_0_1614438569.html
p5
aVhttps://www.clarin.com/politica/Moyano-advierte-improvisaciones-Gobierno_0_1614438569.html
p6
aVhttps://www.clarin.com/politica/Presencia-Gobierno-Rural-luego-decada_0_1614438567.html
p7
aVhttps://www.clarin.com/politica/Presencia-Gobierno-Rural-luego-decada_0_1614438567.html
p8
aVhttps://www.clarin.com/sociedad/Luchan-ballena-encallada-Costa-Atlantica_0_1614438566.html
p9
aVhttps://www.clarin.com/sociedad/Luchan-ballena-encallada-Costa-Atlantica_0_1614438566.html
p10
a.