(lp0
Vhttps://www.clarin.com/ieco/economia/produccion-automotriz-cayo_0_1499850157.html
p1
aVhttps://www.clarin.com/ieco/economia/petroleo-desplomo-cayo-minimo-anos_0_1499850152.html
p2
aVhttps://www.clarin.com/politica/Gobierno-amplio-millones-gastos-Futbol_0_1499850136.html
p3
aVhttps://www.clarin.com/politica/Gobierno-amplio-millones-gastos-Futbol_0_1499850136.html
p4
aVhttps://www.clarin.com/sociedad/Vivi-Genios-Preguntados-verano-diversion_0_1495050818.html
p5
aVhttps://www.clarin.com/sociedad/Vivi-Genios-Preguntados-verano-diversion_0_1495050818.html
p6
a.