(lp0
S'https://www.clarin.com/sociedad/sigo-victima-muchas-formas-violencia_0_1681631966.html'
p1
aS'https://www.clarin.com/sociedad/Marcharon-justicia-crimen-argentino-Brasil_0_1682231809.html'
p2
aS'https://www.clarin.com/politica/indice-satisfaccion-Gobierno-mantuvo-estable_0_1682231814.html'
p3
aS'https://www.clarin.com/politica/familiar-Baez-millones-diferencias-defensa_0_1682231820.html'
p4
a.