(lp0
Vhttps://www.clarin.com/ieco/Economistas-todas-corrientes-advierten-deficit_0_1576642507.html
p1
aVhttps://www.clarin.com/ieco/paquetazo-fiscal-reactivar-recaudar_0_1576642502.html
p2
aVhttps://www.clarin.com/opinion/cerco-cierne-Vido_0_1577242264.html
p3
aVhttps://www.clarin.com/opinion/escenarios-inquietan-politicos_0_1576642472.html
p4
aVhttps://www.clarin.com/opinion/vuelcos-politicos-abruptos-pendulares-fracaso_0_1576642459.html
p5
aVhttps://www.clarin.com/opinion/vuelcos-politicos-abruptos-pendulares-fracaso_0_1576642459.html
p6
aVhttps://www.clarin.com/opinion/Rio-Turbio-fantasma-euforia-desgaste_0_1576642465.html
p7
aVhttps://www.clarin.com/opinion/Rio-Turbio-fantasma-euforia-desgaste_0_1576642465.html
p8
aVhttps://www.clarin.com/opinion/Primero-educar-trabajo-movilidad-social_0_1576642475.html
p9
aVhttps://www.clarin.com/opinion/Hermano-Rast-milagro-vivir-dia_0_1576642462.html
p10
aVhttps://www.clarin.com/opinion/Hermano-Rast-milagro-vivir-dia_0_1576642462.html
p11
aVhttps://www.clarin.com/opinion/Solo-malas-noticias-Cristina_0_1577242263.html
p12
aVhttps://www.clarin.com/opinion/Aplazos-necesario-garantiza-mejores-resultados_0_1576642479.html
p13
aVhttps://www.clarin.com/opinion/Allanamiento-AGN-presiona-Echegaray_0_1577242262.html
p14
aVhttps://www.clarin.com/opinion/Macri-PJ-Ex-Topo-Gigio_0_1577242261.html
p15
a.