(lp0
S'https://www.clarin.com/ieco/Luz-empresas-autorizan-tarifazo-Provincia_0_1605439571.html'
p1
aS'https://www.clarin.com/ieco/FMI-prepara-elaborar-informe-clave_0_1605439578.html'
p2
aS'https://www.clarin.com/ieco/economia/normalizo-provision-GNC-estaciones-servicio_0_1605439568.html'
p3
aS'https://www.clarin.com/politica/Lorenzetti-fallan-funcion-cambios-gobierno_0_1605439575.html'
p4
aS'https://www.clarin.com/politica/primera-cerro-grieta-hermano-Alejandro_0_1605439574.html'
p5
a.