(lp0
S'https://www.clarin.com/politica/Moreno-dibujaba-crecimiento-cupones-PBI_0_1604839545.html'
p1
aS'https://www.clarin.com/politica/Moreno-dibujaba-crecimiento-cupones-PBI_0_1604839545.html'
p2
a.