(lp0
S'https://www.clarin.com/sociedad/Cormillot-arriesgar-carrera-dulce-batata_0_1646835333.html'
p1
aS'https://www.clarin.com/ieco/Edenor-asegura-aumentos-desproporcionados-facturas_0_1646835332.html'
p2
aS'https://www.clarin.com/ieco/embajador-China-salio-cruzar-UIA_0_1646835345.html'
p3
aS'https://www.clarin.com/politica/adelanta-Carrio-Cambiemos-politica-Provincia_0_1646835337.html'
p4
aS'https://www.clarin.com/ieco/Marco-Lavagna-importaciones-podemos-apertura_0_1646835343.html'
p5
a.