(lp0
S'https://www.clarin.com/sociedad/Tregua-martes-vuelos-Aerolineas_0_1655234596.html'
p1
aS'https://www.clarin.com/opinion/Malvinas-medio-siglo-desandar-caminos_0_1655234593.html'
p2
aS'https://www.clarin.com/opinion/Dudosa-regularizacion-CBC_0_1655234587.html'
p3
aS'https://www.clarin.com/ieco/economia/caida-PBI-mayor-esperada_0_1655234592.html'
p4
aS'https://www.clarin.com/ieco/economia/cambios-EEUU-despegaron-mercados-Merval_0_1655234586.html'
p5
aS'https://www.clarin.com/sociedad/Llega-N2-Jardineria-Practica-Facil_0_1655234537.html'
p6
aS'https://www.clarin.com/politica/Gobierno-certifico-CGT-reunan-discutir_0_1655234602.html'
p7
a.