(lp0
Vhttps://www.clarin.com/politica/Panama-Papers-colaron-debate-Diputados_0_1553844876.html
p1
aVhttps://www.clarin.com/politica/Panama-Papers-colaron-debate-Diputados_0_1553844876.html
p2
aVhttps://www.clarin.com/politica/Lazaro-Baez-declarar-seguira-preso_0_1553844868.html
p3
aVhttps://www.clarin.com/politica/Lazaro-Baez-declarar-seguira-preso_0_1553844868.html
p4
aVhttps://www.clarin.com/sociedad/sitios-naturales-Argentina-amenazados_0_1553844866.html
p5
aVhttps://www.clarin.com/sociedad/sitios-naturales-Argentina-amenazados_0_1553844866.html
p6
aVhttps://www.clarin.com/sociedad/Chaco-mujer-cuadro-dengue-atipico_0_1553844863.html
p7
aVhttps://www.clarin.com/sociedad/Chaco-mujer-cuadro-dengue-atipico_0_1553844863.html
p8
aVhttps://www.clarin.com/ieco/Europa-forzar-transparencia-fiscal-multinacionales_0_1553844862.html
p9
aVhttps://www.clarin.com/ieco/Europa-forzar-transparencia-fiscal-multinacionales_0_1553844862.html
p10
aVhttps://www.clarin.com/sociedad/Rios-ruta-cortada-afectados-inundaciones_0_1553844851.html
p11
aVhttps://www.clarin.com/sociedad/Rios-ruta-cortada-afectados-inundaciones_0_1553844851.html
p12
aVhttps://www.clarin.com/politica/Cristina-Maximo-Kirchner-Lazaro-Baez_0_1553844855.html
p13
aVhttps://www.clarin.com/politica/Cristina-Maximo-Kirchner-Lazaro-Baez_0_1553844855.html
p14
aVhttps://www.clarin.com/politica/Elaskar-Comodory-Py-declarar-Casanello_0_1553844849.html
p15
aVhttps://www.clarin.com/politica/Elaskar-Comodory-Py-declarar-Casanello_0_1553844849.html
p16
a.