(lp0
S'https://www.clarin.com/ieco/Gobierno-continuara-dialogando-autoridades-constituidas_0_1575442456.html'
p1
aS'https://www.clarin.com/politica/encuentro-Macri-golpearon-vendedor-asada_0_1575442459.html'
p2
aS'https://www.clarin.com/politica/Cristina-abstenia-votaba-favor-indemnizacion_0_1575442464.html'
p3
aS'https://www.clarin.com/ieco/economia/Cabrera-mayo-inflacion-nucleo_0_1575442461.html'
p4
aS'https://www.clarin.com/politica/Macri-Almirante-Brown-muestra-ex_0_1575442453.html'
p5
a.