(lp0
Vhttps://www.clarin.com/opinion/Parlamento_catalan-Artur_Mas-elecciones-PP-independentismo-secesionismo_0_1499250093.html
p1
aVhttps://www.clarin.com/opinion/Ley_de_Seguridad_Ciudadana-Derecho_a_la_protesta-garantias_constitucionales-libertad_de_expresion_0_1499250092.html
p2
aVhttps://www.clarin.com/politica/Presupuesto_2016-Provincia-Vidal-FPV-Intendentes_0_1499250086.html
p3
aVhttps://www.clarin.com/politica/Presupuesto_2016-Provincia-Vidal-FPV-Intendentes_0_1499250085.html
p4
aVhttps://www.clarin.com/politica/Lanatta-Ahumada_Kurtz-Anibal_Fernandez-Julio_de_Vido-Zaffaroni_0_1499250084.html
p5
aVhttps://www.clarin.com/politica/Lanatta-Ahumada_Kurtz-Anibal_Fernandez-Julio_de_Vido-Zaffaroni_0_1499250084.html
p6
aVhttps://www.clarin.com/politica/Senado-Gabriela_Michetti-UCR-Peronismo_Federal_0_1499250081.html
p7
aVhttps://www.clarin.com/politica/Senado-Gabriela_Michetti-Amado_Boudou_0_1499250080.html
p8
aVhttps://www.clarin.com/politica/Congreso-Senado-Gabriela_Michetti-Amado_Boudou-Miguel_Pichetto_0_1499250079.html
p9
aVhttps://www.clarin.com/sociedad/cortes_de_luz-apagones-10_dias-calor_0_1499250078.html
p10
aVhttps://www.clarin.com/sociedad/cortes_de_luz-apagones-10_dias-calor_0_1499250078.html
p11
aVhttps://www.clarin.com/opinion/Cristina_Kirchner-Mauricio_Macri-cambio_de_gobierno-transicion_0_1499250076.html
p12
aVhttps://www.clarin.com/opinion/Cristina_Kirchner-Mauricio_Macri-cambio_de_gobierno-transicion_0_1499250076.html
p13
aVhttps://www.clarin.com/politica/van_der_kooy_0_1499250075.html
p14
aVhttps://www.clarin.com/politica/van_der_kooy_0_1499250075.html
p15
aVhttps://www.clarin.com/opinion/Sintomas-deshielo-peronismo_0_1499250072.html
p16
aVhttps://www.clarin.com/sociedad/chiches-inteligentes-brillan-tecno-mundo_0_1498650559.html
p17
aVhttps://www.clarin.com/sociedad/chiches-inteligentes-brillan-tecno-mundo_0_1498650559.html
p18
aVhttps://www.clarin.com/sociedad/Televisores-enrollan-diario-desafio-marcas_0_1498650562.html
p19
aVhttps://www.clarin.com/sociedad/Televisores-enrollan-diario-desafio-marcas_0_1498650562.html
p20
a.