(lp0
Vhttps://www.clarin.com/politica/Detuvieron-dirigente-Milagro-Sala-allanaron_0_1505249719.html
p1
aVhttps://www.clarin.com/politica/Detuvieron-dirigente-Milagro-Sala-allanaron_0_1505249719.html
p2
aVhttps://www.clarin.com/sociedad/Pacho-ODonnell-quiere-animales-billetes_0_1505249716.html
p3
aVhttps://www.clarin.com/politica/abogado-Nisman-indiscutible-fiscal-asesinaron_0_1505249687.html
p4
aVhttps://www.clarin.com/sociedad/Alerta-amarilla-calor-Ciudad_0_1505249688.html
p5
aVhttps://www.clarin.com/sociedad/Alerta-amarilla-calor-Ciudad_0_1505249688.html
p6
aVhttps://www.clarin.com/politica/Sol-gremial-connivencia-empresarios-Recalde_0_1505249673.html
p7
aVhttps://www.clarin.com/politica/Victor-Hugo-Morales-Radio-Nacional_0_1505249661.html
p8
aVhttps://www.clarin.com/politica/Victor-Hugo-Morales-Radio-Nacional_0_1505249661.html
p9
a.