(lp0
Vhttps://www.clarin.com/sociedad/lluvia-aplaca-fiebre-Stone-Plata_0_1518448473.html
p1
aVhttps://www.clarin.com/sociedad/lluvia-aplaca-fiebre-Stone-Plata_0_1518448473.html
p2
aVhttps://www.clarin.com/sociedad/increible-rescate-atrapada-boquete-Peru_0_1518448434.html
p3
aVhttps://www.clarin.com/sociedad/increible-rescate-atrapada-boquete-Peru_0_1518448434.html
p4
a.