(lp0
Vhttps://www.clarin.com/politica/Frigerio-sesiones-extraordinarias-Ganancias-politica_0_1690031060.html
p1
aVhttps://www.clarin.com/politica/Frigerio-sesiones-extraordinarias-Ganancias-politica_0_1690031060.html
p2
aVhttps://www.clarin.com/sociedad/Murio-anos-disparo-arma-padre_0_1690031063.html
p3
aVhttps://www.clarin.com/sociedad/Murio-anos-disparo-arma-padre_0_1690031063.html
p4
aVhttps://www.clarin.com/sociedad/Amenaza-GBA-quemaron-denuncia-drogas_0_1690031057.html
p5
aVhttps://www.clarin.com/sociedad/Amenaza-GBA-quemaron-denuncia-drogas_0_1690031057.html
p6
aVhttps://www.clarin.com/ieco/economia/famosas-medialunas-marplatenses-Boston-cambiaron_0_1690031062.html
p7
aVhttps://www.clarin.com/ieco/economia/famosas-medialunas-marplatenses-Boston-cambiaron_0_1690031062.html
p8
aVhttps://www.clarin.com/sociedad/Prueban-Mar-Plata-definir-verano_0_1690031059.html
p9
aVhttps://www.clarin.com/sociedad/Prueban-Mar-Plata-definir-verano_0_1690031059.html
p10
a.