(lp0
S'https://www.clarin.com/sociedad/mujer-murio-fiesta-electronica-Cordoba_0_1619838088.html'
p1
aS'https://www.clarin.com/sociedad/mujer-murio-fiesta-electronica-Cordoba_0_1619838088.html'
p2
aS'https://www.clarin.com/politica/primer-semestre-Congreso-sesiones-leyes_0_1619838085.html'
p3
aS'https://www.clarin.com/politica/primer-semestre-Congreso-sesiones-leyes_0_1619838085.html'
p4
aS'https://www.clarin.com/politica/Rechazan-Florencia-Kirchner-seguridad-embargados_0_1619838081.html'
p5
aS'https://www.clarin.com/politica/Rechazan-Florencia-Kirchner-seguridad-embargados_0_1619838081.html'
p6
aS'https://www.clarin.com/sociedad/Chau-DNI-verde-semana-renovarlo_0_1619838078.html'
p7
aS'https://www.clarin.com/sociedad/Chau-DNI-verde-semana-renovarlo_0_1619838078.html'
p8
aS'https://www.clarin.com/ieco/Nintendo-disparan-desploman-Pokemon-Go_0_1619838079.html'
p9
aS'https://www.clarin.com/ieco/Nintendo-disparan-desploman-Pokemon-Go_0_1619838079.html'
p10
aS'https://www.clarin.com/sociedad/mujer-murio-ataque-perro-pitbull_0_1619838076.html'
p11
aS'https://www.clarin.com/sociedad/mujer-murio-ataque-perro-pitbull_0_1619838076.html'
p12
aS'https://www.clarin.com/ieco/Aseguran-bajaran-despacio-segundo-semestre_0_1619838075.html'
p13
aS'https://www.clarin.com/ieco/Aseguran-bajaran-despacio-segundo-semestre_0_1619838075.html'
p14
aS'https://www.clarin.com/ieco/Louis-Vuitton-estadounidense-Donna-Karan_0_1619838074.html'
p15
aS'https://www.clarin.com/ieco/Louis-Vuitton-estadounidense-Donna-Karan_0_1619838074.html'
p16
a.