(lp0
Vhttps://www.clarin.com/politica/Investigan-Perez-Corradi-participo-Paraguay_0_1522048037.html
p1
aVhttps://www.clarin.com/ieco/recursos-humanos/Recursos_Humanos-empleos-busquedas_laborales_0_1522048031.html
p2
aVhttps://www.clarin.com/sociedad/Recetas-hacer-tipo-hamburguesas-casa_0_1522048010.html
p3
aVhttps://www.clarin.com/sociedad/Recetas-hacer-tipo-hamburguesas-casa_0_1522048010.html
p4
aVhttps://www.clarin.com/sociedad/cuarteto-concientizar-dengue-furor-redes_0_1522048025.html
p5
aVhttps://www.clarin.com/ieco/director-INDEC-preocupacion-Gobierno-inflacion_0_1522048006.html
p6
aVhttps://www.clarin.com/politica/Macri-mostrara-Randazzo-acto-Quilmes_0_1522047997.html
p7
aVhttps://www.clarin.com/sociedad/Luego-calor-tormenta-usuarios-metropolitana_0_1522047987.html
p8
a.