(lp0
Vhttps://www.clarin.com/politica/Dan-dictamen-electoral-votaria-electronica_0_1659434174.html
p1
aVhttps://www.clarin.com/politica/Dan-dictamen-electoral-votaria-electronica_0_1659434174.html
p2
aVhttps://www.clarin.com/politica/Procesaron-ex-procuradora-Aerolineas_0_1659434171.html
p3
aVhttps://www.clarin.com/politica/Procesaron-ex-procuradora-Aerolineas_0_1659434171.html
p4
aVhttps://www.clarin.com/politica/Cristina-condecorada-vio-Correa_0_1659434169.html
p5
aVhttps://www.clarin.com/politica/Cristina-condecorada-vio-Correa_0_1659434169.html
p6
aVhttps://www.clarin.com/politica/Adepa-destaco-dialogo-celebraciones-asamblea_0_1659434167.html
p7
aVhttps://www.clarin.com/politica/Adepa-destaco-dialogo-celebraciones-asamblea_0_1659434167.html
p8
aVhttps://www.clarin.com/politica/Malvinas-seducir-laborista-soberania-compartida_0_1659434092.html
p9
aVhttps://www.clarin.com/politica/Malvinas-seducir-laborista-soberania-compartida_0_1659434092.html
p10
aVhttps://www.clarin.com/sociedad/santiaguena-nueva-reina-estudiantes_0_1659434161.html
p11
aVhttps://www.clarin.com/sociedad/santiaguena-nueva-reina-estudiantes_0_1659434161.html
p12
a.