(lp0
S'https://www.clarin.com/politica/Ultimatum-caciques-PJ-presionan-apoderados_0_1683431828.html'
p1
aS'https://www.clarin.com/sociedad/Violencia-genero-sistema-tobilleras-lanzara_0_1683431829.html'
p2
aS'https://www.clarin.com/sociedad/temible-jurado-puntos-grandes-vinos_0_1683431770.html'
p3
aS'https://www.clarin.com/politica/CGT-busca-frente-chacareros-marcha_0_1683431821.html'
p4
aS'https://www.clarin.com/politica/Ordenan-US-secuestrados-Jose-Lopez_0_1683431825.html'
p5
aS'https://www.clarin.com/politica/macristas-Hillary-Trump-reditos-antisistema_0_1683431815.html'
p6
a.