(lp0
Vhttps://www.clarin.com/politica/Lorenzetti-pueden-depender-contexto-politico_0_1572442851.html
p1
aVhttps://www.clarin.com/politica/Lorenzetti-pueden-depender-contexto-politico_0_1572442851.html
p2
aVhttps://www.clarin.com/sociedad/Mira-habitacion-Francisco-elegido-jubilara_0_1572442849.html
p3
aVhttps://www.clarin.com/sociedad/Mira-habitacion-Francisco-elegido-jubilara_0_1572442849.html
p4
aVhttps://www.clarin.com/sociedad/anos-misma-hora_0_1572442844.html
p5
aVhttps://www.clarin.com/sociedad/anos-misma-hora_0_1572442844.html
p6
aVhttps://www.clarin.com/sociedad/tradicion-circo-Ringling-jubila-elefantes_0_1572442836.html
p7
aVhttps://www.clarin.com/sociedad/tradicion-circo-Ringling-jubila-elefantes_0_1572442836.html
p8
a.