(lp0
S'https://www.clarin.com/politica/provincias-exigen-Gobierno_0_1541246308.html'
p1
aS'https://www.clarin.com/politica/Obama-homenaje-victimas-dictadura-Golpe_0_1541246304.html'
p2
aS'https://www.clarin.com/politica/Obama-homenaje-victimas-dictadura-Golpe_0_1541246304.html'
p3
aS'https://www.clarin.com/politica/Video-Rosadita-Macri-indignado-corrupcion_0_1541246282.html'
p4
aS'https://www.clarin.com/politica/Video-Rosadita-Macri-indignado-corrupcion_0_1541246282.html'
p5
aS'https://www.clarin.com/ieco/YPF-apelara-mostrara-acuerdo-Chevron_0_1541246276.html'
p6
aS'https://www.clarin.com/ieco/YPF-apelara-mostrara-acuerdo-Chevron_0_1541246276.html'
p7
a.