(lp0
Vhttps://www.clarin.com/ieco/economia/primo-Macri-planta-papas-congeladas_0_1647435377.html
p1
aVhttps://www.clarin.com/ieco/economia/primo-Macri-planta-papas-congeladas_0_1647435377.html
p2
aVhttps://www.clarin.com/sociedad/Mama-filmame-videos-generacion-youtuber_0_1647435368.html
p3
aVhttps://www.clarin.com/sociedad/Mama-filmame-videos-generacion-youtuber_0_1647435368.html
p4
a.