(lp0
S'https://www.clarin.com/opinion/valor-archivos-preservar-memoria_0_1633636766.html'
p1
aS'https://www.clarin.com/ieco/economia/alimentos-canasta-indigencia-subio-julio_0_1633636786.html'
p2
aS'https://www.clarin.com/opinion/amor-resiste-estrago-paco_0_1633636760.html'
p3
aS'https://www.clarin.com/sociedad/anos-asesinos-turistas-argentinas-Ecuador_0_1633636835.html'
p4
aS'https://www.clarin.com/sociedad/anos-asesinos-turistas-argentinas-Ecuador_0_1633636835.html'
p5
aS'https://www.clarin.com/ieco/economia/segunda-empresa-mundial-anteojos-Argentina_0_1633636779.html'
p6
aS'https://www.clarin.com/ieco/economia/segunda-empresa-mundial-anteojos-Argentina_0_1633636779.html'
p7
aS'https://www.clarin.com/politica/Operacion-Liquid-Paper-adulteradas-Cristina_0_1633636846.html'
p8
aS'https://www.clarin.com/politica/Operacion-Liquid-Paper-adulteradas-Cristina_0_1633636846.html'
p9
a.