(lp0
S'https://www.clarin.com/sociedad/Falta-reclamo-sociedad_0_1636636491.html'
p1
aS'https://www.clarin.com/sociedad/retraso-escolar-respecto-mejores-mundo_0_1636636492.html'
p2
aS'https://www.clarin.com/sociedad/autonomia-trauma_0_1636636487.html'
p3
aS'https://www.clarin.com/sociedad/Prendes-tele-viene-realidad-encima_0_1636636483.html'
p4
aS'https://www.clarin.com/sociedad/Abstinencia-olimpica-emocion-llego-bajon_0_1636636484.html'
p5
aS'https://www.clarin.com/politica/Jose-Lopez-regalos-empresarios-contratistas_0_1636636501.html'
p6
aS'https://www.clarin.com/sociedad/Cumplio-regalo-Mini-Cooper-joven_0_1636636488.html'
p7
a.