(lp0
S'https://www.clarin.com/sociedad/Time-Warp-Massa-conocer-Stinfale_0_1579642133.html'
p1
aS'https://www.clarin.com/politica/oposicion-Justicia-tarifazo-gas_0_1579642137.html'
p2
aS'https://www.clarin.com/politica/presidencial-Ernesto-Sanz-premio-internacional_0_1579642135.html'
p3
aS'https://www.clarin.com/sociedad/colas-famosas-Instagram-argentinas_0_1579642128.html'
p4
aS'https://www.clarin.com/politica/Macri-anuncio-prestamo-BID-antidespidos_0_1579642142.html'
p5
aS'https://www.clarin.com/politica/Malcorra-ratifico-China-publicas-Neuquen_0_1579642141.html'
p6
a.