(lp0
S'https://www.clarin.com/sociedad/Problemas-volar-pais-personal-rampas_0_1655834423.html'
p1
aS'https://www.clarin.com/sociedad/Problemas-volar-pais-personal-rampas_0_1655834423.html'
p2
aS'https://www.clarin.com/ieco/economia/Prat-Gay-aumento-deuda-preocupante_0_1655234519.html'
p3
aS'https://www.clarin.com/ieco/economia/Prat-Gay-aumento-deuda-preocupante_0_1655234519.html'
p4
aS'https://www.clarin.com/politica/Ley-Comunicaciones-plataforma-online-sugerencias_0_1655234589.html'
p5
aS'https://www.clarin.com/politica/Ley-Comunicaciones-plataforma-online-sugerencias_0_1655234589.html'
p6
aS'https://www.clarin.com/ieco/actividad-economia-mayor-esperada_0_1655234616.html'
p7
aS'https://www.clarin.com/ieco/semana-proxima-cerrarian-Citi-Santander_0_1655234615.html'
p8
aS'https://www.clarin.com/ieco/semana-proxima-cerrarian-Citi-Santander_0_1655234615.html'
p9
aS'https://www.clarin.com/ieco/economia/Transener-compra-parte-Electroingenieria_0_1655234614.html'
p10
aS'https://www.clarin.com/ieco/economia/Transener-compra-parte-Electroingenieria_0_1655234614.html'
p11
aS'https://www.clarin.com/ieco/economia/Indec-familia-necesito-agosto-pobreza_0_1655234583.html'
p12
aS'https://www.clarin.com/politica/Peronismo-reunidos-Presupuesto_0_1655234584.html'
p13
aS'https://www.clarin.com/politica/AMIA-Stiuso-Cristina-investigar-Iran_0_1655234622.html'
p14
aS'https://www.clarin.com/politica/AMIA-Stiuso-Cristina-investigar-Iran_0_1655234622.html'
p15
a.