(lp0
S'https://www.clarin.com/sociedad/nacional-docente-adhesion-escuelas-publicas_0_1637836252.html'
p1
aS'https://www.clarin.com/sociedad/nacional-docente-adhesion-escuelas-publicas_0_1637836252.html'
p2
aS'https://www.clarin.com/politica/Justicia-Jose-Lopez-recibir-jubilacion_0_1637836214.html'
p3
aS'https://www.clarin.com/politica/Justicia-Jose-Lopez-recibir-jubilacion_0_1637836214.html'
p4
aS'https://www.clarin.com/ieco/Informaran-AFIP-depositos-US-exterior_0_1637836249.html'
p5
aS'https://www.clarin.com/ieco/Informaran-AFIP-depositos-US-exterior_0_1637836249.html'
p6
aS'https://www.clarin.com/sociedad/Beatriz-Aguirre-Urreta-paleontologia-pase-banarme_0_1637836244.html'
p7
aS'https://www.clarin.com/sociedad/Beatriz-Aguirre-Urreta-paleontologia-pase-banarme_0_1637836244.html'
p8
aS'https://www.clarin.com/politica/Arroyo-Salgado-Perez-Corradi-Unidos_0_1637836245.html'
p9
aS'https://www.clarin.com/politica/Arroyo-Salgado-Perez-Corradi-Unidos_0_1637836245.html'
p10
aS'https://www.clarin.com/sociedad/Bronca-padres-colegio-Ecos-prescripcion_0_1637836238.html'
p11
aS'https://www.clarin.com/sociedad/Bronca-padres-colegio-Ecos-prescripcion_0_1637836238.html'
p12
a.