(lp0
Vhttps://www.clarin.com/sociedad/comer-chicos-necesita-ayuda-hijo_0_1613238822.html
p1
aVhttps://www.clarin.com/sociedad/comer-chicos-necesita-ayuda-hijo_0_1613238822.html
p2
aVhttps://www.clarin.com/sociedad/Milagro-Bariloche-micro-heridos-graves_0_1615038526.html
p3
aVhttps://www.clarin.com/sociedad/Milagro-Bariloche-micro-heridos-graves_0_1615038526.html
p4
aVhttps://www.clarin.com/politica/Diana-Conti-Cristina-presa-tememos_0_1615038520.html
p5
aVhttps://www.clarin.com/politica/Diana-Conti-Cristina-presa-tememos_0_1615038520.html
p6
aVhttps://www.clarin.com/sociedad/Tragedia-recital-Renga-descompenso-murio_0_1615038518.html
p7
aVhttps://www.clarin.com/sociedad/Tragedia-recital-Renga-descompenso-murio_0_1615038518.html
p8
a.