(lp0
Vhttps://www.clarin.com/sociedad/velocista-argentino-gustaria-tener-competidores_0_1597640283.html
p1
aVhttps://www.clarin.com/sociedad/velocista-argentino-gustaria-tener-competidores_0_1597640283.html
p2
aVhttps://www.clarin.com/politica/Realizan-manana-allanamiento-Lopez-Tigre_0_1597640280.html
p3
aVhttps://www.clarin.com/politica/Realizan-manana-allanamiento-Lopez-Tigre_0_1597640280.html
p4
aVhttps://www.clarin.com/sociedad/Topolino-cumple-fanaticos-impiden-jubilacion_0_1597640279.html
p5
aVhttps://www.clarin.com/sociedad/Buscando-certezas_0_1597040407.html
p6
a.