(lp0
Vhttps://www.clarin.com/ieco/economia/ventas-crecieron-febrero_0_1533446773.html
p1
aVhttps://www.clarin.com/ieco/economia/ventas-crecieron-febrero_0_1533446773.html
p2
aVhttps://www.clarin.com/ieco/economia/Lebac-podria-impactar-creditos-depositos_0_1533446770.html
p3
aVhttps://www.clarin.com/ieco/economia/Lebac-podria-impactar-creditos-depositos_0_1533446770.html
p4
aVhttps://www.clarin.com/ieco/economia/tasas-enfrio-dolar-intervencion-Central_0_1533446769.html
p5
aVhttps://www.clarin.com/politica/Alicia-Kirchner-involucrado-Milagro-Sala_0_1533446755.html
p6
aVhttps://www.clarin.com/politica/Alicia-Kirchner-involucrado-Milagro-Sala_0_1533446755.html
p7
aVhttps://www.clarin.com/politica/Quebracho-respondio-Stiuso-Vino-Cristina_0_1533446749.html
p8
aVhttps://www.clarin.com/politica/Quebracho-respondio-Stiuso-Vino-Cristina_0_1533446749.html
p9
aVhttps://www.clarin.com/politica/Cristobal-Lopez-version-impresa-Herald_0_1532847152.html
p10
a.