(lp0
Vhttps://www.clarin.com/ieco/The-Economist-Macri-necesarias-dolorosas_0_1658234201.html
p1
aVhttps://www.clarin.com/sociedad/restaurantes-argentinos-mejores-America-Latina_0_1658234200.html
p2
aVhttps://www.clarin.com/sociedad/restaurantes-argentinos-mejores-America-Latina_0_1658234200.html
p3
aVhttps://www.clarin.com/politica/Rechazan-Juan-Suris-Corte-Suprema_0_1658234194.html
p4
aVhttps://www.clarin.com/politica/Rechazan-Juan-Suris-Corte-Suprema_0_1658234194.html
p5
aVhttps://www.clarin.com/politica/Acampe-Plaza-Mayo-previsto-quedarnos_0_1658234192.html
p6
aVhttps://www.clarin.com/politica/Acampe-Plaza-Mayo-previsto-quedarnos_0_1658234192.html
p7
aVhttps://www.clarin.com/ieco/Gazprom-desembarca-invierte-US-millones_0_1658234190.html
p8
a.