(lp0
Vhttps://www.clarin.com/politica/Escuchas_ilegales-Macri-Leonardo_0_1515448740.html
p1
aVhttps://www.clarin.com/sociedad/policia-acusado-matar-perro-violencia-animales-salta_0_1515448719.html
p2
aVhttps://www.clarin.com/politica/gobernador-deuda-millones-vacaciones-Brasil_0_1515448696.html
p3
aVhttps://www.clarin.com/politica/gobernador-deuda-millones-vacaciones-Brasil_0_1515448696.html
p4
aVhttps://www.clarin.com/sociedad/Puerto-Madryn-salio-cazar-mato_0_1515448712.html
p5
aVhttps://www.clarin.com/politica/Jujuy-levantan-Milagro-Sala-instancia_0_1515448709.html
p6
aVhttps://www.clarin.com/politica/Jujuy-levantan-Milagro-Sala-instancia_0_1515448709.html
p7
a.