(lp0
S'https://www.clarin.com/ieco/Banco-Central-libero-cepo-importadores_0_1562843907.html'
p1
aS'https://www.clarin.com/sociedad/educacion-clave-lograr-igualdad-genero_0_1562843906.html'
p2
aS'https://www.clarin.com/sociedad/educacion-clave-lograr-igualdad-genero_0_1562843906.html'
p3
aS'https://www.clarin.com/sociedad/Time-Warp-chicos-siguen-critico_0_1562843898.html'
p4
aS'https://www.clarin.com/sociedad/Malcorra-descarta-empezar-discutir-despenalizacion_0_1562843886.html'
p5
aS'https://www.clarin.com/politica/Postergan-indagatoria-Vido-Vazquez-declarar_0_1562843868.html'
p6
aS'https://www.clarin.com/politica/Postergan-indagatoria-Vido-Vazquez-declarar_0_1562843868.html'
p7
aS'https://www.clarin.com/sociedad/drama-vuelven-evacuar-personas-Concordia_0_1562843877.html'
p8
aS'https://www.clarin.com/sociedad/drama-vuelven-evacuar-personas-Concordia_0_1562843877.html'
p9
a.