(lp0
Vhttps://www.clarin.com/sociedad/Mundos-Tapiamos-biblioteca-dictadura-liberamos_0_1639036225.html
p1
aVhttps://www.clarin.com/sociedad/Mundos-Tapiamos-biblioteca-dictadura-liberamos_0_1639036225.html
p2
aVhttps://www.clarin.com/sociedad/nuevo-planeta-alrededor-Sol-dificil_0_1639036268.html
p3
aVhttps://www.clarin.com/sociedad/nuevo-planeta-alrededor-Sol-dificil_0_1639036268.html
p4
aVhttps://www.clarin.com/politica/guerra-televisores-finalmente-bajaran-precios_0_1639636077.html
p5
aVhttps://www.clarin.com/politica/Gas-Gobierno-propondra-aumento_0_1639036280.html
p6
aVhttps://www.clarin.com/opinion/marcha-kirchnerista-Macri-arranco-gente_0_1639636076.html
p7
aVhttps://www.clarin.com/opinion/marcha-kirchnerista-Macri-arranco-gente_0_1639636076.html
p8
aVhttps://www.clarin.com/sociedad/Globos-negros-repudio-prescripcion-Ecos_0_1639036292.html
p9
aVhttps://www.clarin.com/sociedad/Globos-negros-repudio-prescripcion-Ecos_0_1639036292.html
p10
aVhttps://www.clarin.com/opinion/Solo-atajos-promesas-sueno-pibes_0_1639036223.html
p11
aVhttps://www.clarin.com/opinion/normal-anormalidad-paros_0_1639636075.html
p12
aVhttps://www.clarin.com/sociedad/Jupiter-Venus-atardecer-Santa-Rosa_0_1639036227.html
p13
aVhttps://www.clarin.com/opinion/resistencia-plan-politico-kirchnerismo_0_1639636074.html
p14
a.