(lp0
S'https://www.clarin.com/sociedad/guardia-denuncia-sedaron-practicarle-oral_0_1682231789.html'
p1
aS'https://www.clarin.com/sociedad/guardia-denuncia-sedaron-practicarle-oral_0_1682231789.html'
p2
aS'https://www.clarin.com/politica/Macri-integracion-Chile-mercados-Pacifico_0_1682231787.html'
p3
aS'https://www.clarin.com/politica/Macri-integracion-Chile-mercados-Pacifico_0_1682231787.html'
p4
aS'https://www.clarin.com/opinion/hablo-camino-hago-entender_0_1682231788.html'
p5
a.