(lp0
Vhttps://www.clarin.com/politica/gobernador-San-Luis-Gripe_0_1581441991.html
p1
aVhttps://www.clarin.com/politica/gobernador-San-Luis-Gripe_0_1581441991.html
p2
aVhttps://www.clarin.com/sociedad/Investigan-denuncia-madre-robaron-beba_0_1581441989.html
p3
aVhttps://www.clarin.com/sociedad/Investigan-denuncia-madre-robaron-beba_0_1581441989.html
p4
aVhttps://www.clarin.com/sociedad/Lanzan-subasta-tesoros-Marilyn-Monroe_0_1581441984.html
p5
aVhttps://www.clarin.com/sociedad/Lanzan-subasta-tesoros-Marilyn-Monroe_0_1581441984.html
p6
aVhttps://www.clarin.com/politica/veto-deja-zona-liberada-despidos_0_1581441976.html
p7
aVhttps://www.clarin.com/politica/veto-deja-zona-liberada-despidos_0_1581441976.html
p8
aVhttps://www.clarin.com/ieco/economia/ER-atraso-cambiario-peso-revaluara_0_1581441969.html
p9
aVhttps://www.clarin.com/ieco/economia/gerentes-manejan-plata-Buenos-Aires_0_1581441975.html
p10
aVhttps://www.clarin.com/ieco/economia/gerentes-manejan-plata-Buenos-Aires_0_1581441975.html
p11
aVhttps://www.clarin.com/sociedad/Chile-mataron-leones-salvar-hombre_0_1581441960.html
p12
aVhttps://www.clarin.com/sociedad/Chile-mataron-leones-salvar-hombre_0_1581441960.html
p13
aVhttps://www.clarin.com/ieco/economia/CAME-considero-tarifas-positiva-insuficiente_0_1581441956.html
p14
a.