(lp0
Vhttps://www.clarin.com/opinion/Macri-peronismo-grietas_0_1585641426.html
p1
aVhttps://www.clarin.com/opinion/Maria-Eugenia-plan-Macri_0_1585641425.html
p2
aVhttps://www.clarin.com/opinion/cacarean-ponen-huevos_0_1585641424.html
p3
aVhttps://www.clarin.com/opinion/Simeone-diciendo-importante_0_1585641423.html
p4
aVhttps://www.clarin.com/ieco/petroleros-complica-crisis-Santa-Cruz_0_1585041635.html
p5
aVhttps://www.clarin.com/ieco/economia/Moratoria-fiscal-perdon-planes-cuotas_0_1585041626.html
p6
aVhttps://www.clarin.com/politica/Inflacion-alza-tarifas-problemas-preocupan_0_1585041617.html
p7
aVhttps://www.clarin.com/politica/Revelan-Echegaray-AFIP-controlo-lavado_0_1585041614.html
p8
aVhttps://www.clarin.com/politica/Revelan-Echegaray-AFIP-controlo-lavado_0_1585041614.html
p9
aVhttps://www.clarin.com/politica/Negocios-compartidos-contrato-Maximo-Baez_0_1585041619.html
p10
aVhttps://www.clarin.com/politica/Negocios-compartidos-contrato-Maximo-Baez_0_1585041619.html
p11
aVhttps://www.clarin.com/opinion/adolescentes_0_1585041628.html
p12
aVhttps://www.clarin.com/opinion/adolescentes_0_1585041628.html
p13
aVhttps://www.clarin.com/opinion/Excusas-amores-fuga_0_1585041612.html
p14
aVhttps://www.clarin.com/ieco/economia/naftas-agua-inflacion-mayo-ubico_0_1585041620.html
p15
a.