(lp0
S'https://www.clarin.com/opinion/Sebastian-Crismanich-retiro-llega-destiempo_0_1648035279.html'
p1
aS'https://www.clarin.com/sociedad/Sabado-Abuelos-jovenes-pelirrojos-Obelisco_0_1648035278.html'
p2
aS'https://www.clarin.com/politica/Scioli-Urtubey-mueven-Conurbano_0_1648035283.html'
p3
aS'https://www.clarin.com/ieco/economia/Cabrera-Mendiguren-dura-discusion-importaciones_0_1648035285.html'
p4
aS'https://www.clarin.com/opinion/dirigir-ochenta-voluntades-mismo-sonido_0_1648035281.html'
p5
aS'https://www.clarin.com/politica/Arranca-Congreso-controlara-Gils-Carbo_0_1648035293.html'
p6
aS'https://www.clarin.com/opinion/busqueda-nuevo-ideal_0_1648035284.html'
p7
aS'https://www.clarin.com/ieco/Anunciaron-inversiones-US-millones-economia_0_1648035275.html'
p8
aS'https://www.clarin.com/opinion/Soluciones-posibles-refugiados_0_1648035286.html'
p9
a.