(lp0
Vhttps://www.clarin.com/ieco/hacer-inversiones-reclaman-suba-peajes_0_1609039328.html
p1
aVhttps://www.clarin.com/ieco/economia/Gobierno-capto-US-millones-Letes_0_1609039269.html
p2
aVhttps://www.clarin.com/ieco/Proyectan-crecimiento_0_1609039312.html
p3
aVhttps://www.clarin.com/ieco/Primer-cortocircuito-administracion-Macri-desplante_0_1609039282.html
p4
aVhttps://www.clarin.com/ieco/Primer-cortocircuito-administracion-Macri-desplante_0_1609039282.html
p5
aVhttps://www.clarin.com/politica/Ahora-Bonadio-congelo-bancarias-Cristina_0_1609039260.html
p6
aVhttps://www.clarin.com/politica/Ahora-Bonadio-congelo-bancarias-Cristina_0_1609039260.html
p7
aVhttps://www.clarin.com/ieco/economia/IRSA-control-predio-Rural-Palermo_0_1609039277.html
p8
aVhttps://www.clarin.com/ieco/economia/IRSA-control-predio-Rural-Palermo_0_1609039277.html
p9
aVhttps://www.clarin.com/politica/Fondo-Conurbano-Vidal-oposicion-Senado_0_1609039322.html
p10
aVhttps://www.clarin.com/politica/Fondo-Conurbano-Vidal-oposicion-Senado_0_1609039322.html
p11
a.