(lp0
Vhttps://www.clarin.com/sociedad/fotos-fiesta-Proyecto-XXX-realizo_0_1655234486.html
p1
aVhttps://www.clarin.com/sociedad/Veladero-Gobierno-nacional-denunciara-Barrick_0_1655234484.html
p2
aVhttps://www.clarin.com/sociedad/Veladero-Gobierno-nacional-denunciara-Barrick_0_1655234484.html
p3
aVhttps://www.clarin.com/politica/ataque-tiros-delegado-sindical-Neuquen_0_1655234481.html
p4
aVhttps://www.clarin.com/politica/ataque-tiros-delegado-sindical-Neuquen_0_1655234481.html
p5
aVhttps://www.clarin.com/sociedad/avioneta-decapita-piloto_0_1655234478.html
p6
aVhttps://www.clarin.com/sociedad/avioneta-decapita-piloto_0_1655234478.html
p7
aVhttps://www.clarin.com/politica/sindical-salio-bancar-Mauricio-Macri_0_1655234477.html
p8
aVhttps://www.clarin.com/politica/sindical-salio-bancar-Mauricio-Macri_0_1655234477.html
p9
aVhttps://www.clarin.com/politica/Daran-cursos-policias-corrompan-VIP_0_1655234475.html
p10
aVhttps://www.clarin.com/politica/Daran-cursos-policias-corrompan-VIP_0_1655234475.html
p11
a.