(lp0
Vhttps://www.clarin.com/ieco/espanol-Amancio-Ortega-Bill-Gates_0_1646235443.html
p1
aVhttps://www.clarin.com/ieco/espanol-Amancio-Ortega-Bill-Gates_0_1646235443.html
p2
aVhttps://www.clarin.com/ieco/economia/Cabrera-empresarios-responsables-inflacion_0_1646235440.html
p3
aVhttps://www.clarin.com/ieco/economia/Cabrera-empresarios-responsables-inflacion_0_1646235440.html
p4
aVhttps://www.clarin.com/politica/Apelaron-decision-investigar-Pena-ANSES_0_1646235439.html
p5
aVhttps://www.clarin.com/ieco/economia/YPF-Edesur-empresas-energias-renovables_0_1646235436.html
p6
aVhttps://www.clarin.com/ieco/economia/YPF-Edesur-empresas-energias-renovables_0_1646235436.html
p7
aVhttps://www.clarin.com/sociedad/profecias-tecno-anticipo-Star-Trek_0_1646235435.html
p8
aVhttps://www.clarin.com/sociedad/profecias-tecno-anticipo-Star-Trek_0_1646235435.html
p9
aVhttps://www.clarin.com/politica/Lazaro-Baez-cierre-sueldos-ejemplares_0_1646235415.html
p10
aVhttps://www.clarin.com/politica/Lazaro-Baez-cierre-sueldos-ejemplares_0_1646235415.html
p11
a.