(lp0
S'https://www.clarin.com/politica/Macri-armo-propio-relato-Gobierno_0_1544245778.html'
p1
aS'https://www.clarin.com/politica/Macri-armo-propio-relato-Gobierno_0_1544245778.html'
p2
aS'https://www.clarin.com/politica/Carrio-federales-escandalo-institucional-Argentina_0_1544245781.html'
p3
aS'https://www.clarin.com/politica/Carrio-federales-escandalo-institucional-Argentina_0_1544245781.html'
p4
aS'https://www.clarin.com/politica/Ruta-viajaban-sospechosos-Lazaro-Baez_0_1544245779.html'
p5
aS'https://www.clarin.com/politica/Ruta-viajaban-sospechosos-Lazaro-Baez_0_1544245779.html'
p6
aS'https://www.clarin.com/sociedad/Brasil-frenar-canciones-violencia-genero_0_1544245759.html'
p7
aS'https://www.clarin.com/sociedad/Brasil-frenar-canciones-violencia-genero_0_1544245759.html'
p8
aS'https://www.clarin.com/sociedad/estorninos-plaga-Plata_0_1544245718.html'
p9
aS'https://www.clarin.com/sociedad/estorninos-plaga-Plata_0_1544245718.html'
p10
a.