(lp0
S'https://www.clarin.com/politica/Ponen-informe-revelaria-PRO-Tinelli_0_1620438072.html'
p1
aS'https://www.clarin.com/politica/Ponen-informe-revelaria-PRO-Tinelli_0_1620438072.html'
p2
aS'https://www.clarin.com/politica/Procesan-intendente-quedarse-camioneta-municipal_0_1620438063.html'
p3
aS'https://www.clarin.com/politica/Procesan-intendente-quedarse-camioneta-municipal_0_1620438063.html'
p4
aS'https://www.clarin.com/ieco/Latam-pagara-US-millones-multas_0_1620438066.html'
p5
aS'https://www.clarin.com/sociedad/Denuncia-policias-obligaron-guardar-amamantaba_0_1620438064.html'
p6
aS'https://www.clarin.com/sociedad/Denuncia-policias-obligaron-guardar-amamantaba_0_1620438064.html'
p7
a.