(lp0
S'https://www.clarin.com/politica/profugos-Lanatta-Shillaci-triple_crimen_0_1504649723.html'
p1
aS'https://www.clarin.com/ieco/economia/petroleo-China-sigue-arrastrando-mercados_0_1504649725.html'
p2
aS'https://www.clarin.com/ieco/economia/Central-habilito-ofrecer-resumenes-electronicos_0_1504649737.html'
p3
aS'https://www.clarin.com/ieco/empresas-y-negocios/Fusion-aseguradoras_0_1504649733.html'
p4
aS'https://www.clarin.com/ieco/economia/funcionario-contrato-hijos_0_1504649719.html'
p5
aS'https://www.clarin.com/politica/Lanatta-llamados_0_1504649720.html'
p6
aS'https://www.clarin.com/ieco/economia/aerolinea-Sol-confirmo-cese-actividades_0_1504649728.html'
p7
aS'https://www.clarin.com/sociedad/Victor_Hugo_Morales-echan-Medios_estatales-Radio_Continental-programas_0_1504649705.html'
p8
a.