(lp0
S'https://www.clarin.com/politica/Indice-optimismo-apenas-numeros-Macri_0_1661233961.html'
p1
aS'https://www.clarin.com/politica/Indice-optimismo-apenas-numeros-Macri_0_1661233961.html'
p2
aS'https://www.clarin.com/politica/Moreno-Roberto-Navarro-destruir-INDEC_0_1660634045.html'
p3
aS'https://www.clarin.com/politica/Moreno-Roberto-Navarro-destruir-INDEC_0_1660634045.html'
p4
aS'https://www.clarin.com/ieco/economia/franquicias-siguen-sumando-inversores_0_1661233881.html'
p5
aS'https://www.clarin.com/ieco/economia/franquicias-siguen-sumando-inversores_0_1661233881.html'
p6
aS'https://www.clarin.com/ieco/economia/regreso-larga-dinastia_0_1660034150.html'
p7
a.