(lp0
S'https://www.clarin.com/politica/demoras-ley-arrepentido-harian-retoques_0_1607239383.html'
p1
aS'https://www.clarin.com/sociedad/Eligen-ilusion-optica-extrana-ano_0_1607239373.html'
p2
aS'https://www.clarin.com/politica/Solo-podra-convocar-peronista-presidente_0_1607239385.html'
p3
a.