(lp0
Vhttps://www.clarin.com/politica/Acto-Bahia-Blanca-reclaman-nacional_0_1642635816.html
p1
aVhttps://www.clarin.com/politica/Acto-Bahia-Blanca-reclaman-nacional_0_1642635816.html
p2
aVhttps://www.clarin.com/politica/Rafecas-procesamiento-Jose-Lopez-Iglesia_0_1642635815.html
p3
aVhttps://www.clarin.com/politica/Rafecas-procesamiento-Jose-Lopez-Iglesia_0_1642635815.html
p4
aVhttps://www.clarin.com/ieco/FMI-alerto-crecimiento-medidas-G20_0_1642635814.html
p5
aVhttps://www.clarin.com/ieco/FMI-alerto-crecimiento-medidas-G20_0_1642635814.html
p6
aVhttps://www.clarin.com/sociedad/convento-allanado-filmaron-negaron-torturas_0_1642635810.html
p7
aVhttps://www.clarin.com/sociedad/convento-allanado-filmaron-negaron-torturas_0_1642635810.html
p8
aVhttps://www.clarin.com/politica/procuradora-Tesoro-indagada-pidio-postergacion_0_1642635796.html
p9
aVhttps://www.clarin.com/politica/procuradora-Tesoro-indagada-pidio-postergacion_0_1642635796.html
p10
aVhttps://www.clarin.com/sociedad/Gigolo-complicado-quedo-borde-juicio_0_1642635807.html
p11
aVhttps://www.clarin.com/sociedad/Gigolo-complicado-quedo-borde-juicio_0_1642635807.html
p12
aVhttps://www.clarin.com/ieco/FMI-respaldo-INDEC-retirar-censura_0_1642635806.html
p13
aVhttps://www.clarin.com/ieco/FMI-respaldo-INDEC-retirar-censura_0_1642635806.html
p14
aVhttps://www.clarin.com/sociedad/Exploto-cohete-Cabo-Canaveral_0_1642635792.html
p15
aVhttps://www.clarin.com/sociedad/Exploto-cohete-Cabo-Canaveral_0_1642635792.html
p16
aVhttps://www.clarin.com/ieco/economia/Seguros-Gobierno-promete-contratos-abusivos_0_1642635803.html
p17
aVhttps://www.clarin.com/ieco/economia/Seguros-Gobierno-promete-contratos-abusivos_0_1642635803.html
p18
a.