(lp0
S'https://www.clarin.com/sociedad/Mato-mujer-jardin-infantes-enfermo_0_1636636398.html'
p1
aS'https://www.clarin.com/sociedad/Mato-mujer-jardin-infantes-enfermo_0_1636636398.html'
p2
aS'https://www.clarin.com/politica/Fugas-accidentado-Congreso-CGT-reunificacion_0_1636636395.html'
p3
aS'https://www.clarin.com/politica/Fugas-accidentado-Congreso-CGT-reunificacion_0_1636636395.html'
p4
aS'https://www.clarin.com/politica/Abogado-profesor-perfil-nuevo-Corte_0_1636036518.html'
p5
aS'https://www.clarin.com/politica/Abogado-profesor-perfil-nuevo-Corte_0_1636036518.html'
p6
aS'https://www.clarin.com/ieco/Gobierno-Argentina-oportunidades-inversion-US_0_1636636390.html'
p7
aS'https://www.clarin.com/ieco/Gobierno-Argentina-oportunidades-inversion-US_0_1636636390.html'
p8
aS'https://www.clarin.com/sociedad/mision-simula-Marte-lograr-objetivo_0_1636636387.html'
p9
aS'https://www.clarin.com/sociedad/mision-simula-Marte-lograr-objetivo_0_1636636387.html'
p10
a.