(lp0
S'https://www.clarin.com/sociedad/adolescentes-jovenes-vulnerables-violencia-genero_0_1577842389.html'
p1
aS'https://www.clarin.com/sociedad/pico-femicidios-da-anos_0_1577842386.html'
p2
aS'https://www.clarin.com/politica/cortocircuitos-FpV-oposicion-posiciones-Congreso_0_1577842385.html'
p3
aS'https://www.clarin.com/politica/cortocircuitos-FpV-oposicion-posiciones-Congreso_0_1577842385.html'
p4
aS'https://www.clarin.com/ieco/CEO-interino-YPF-volvera-aumenta_0_1577842383.html'
p5
aS'https://www.clarin.com/ieco/CEO-interino-YPF-volvera-aumenta_0_1577842383.html'
p6
aS'https://www.clarin.com/ieco/bancos-blanqueo-alcanzara-US-millones_0_1577842382.html'
p7
aS'https://www.clarin.com/ieco/bancos-blanqueo-alcanzara-US-millones_0_1577842382.html'
p8
aS'https://www.clarin.com/politica/dirigente-aparece-video-Oyarbide-esconder_0_1577842379.html'
p9
aS'https://www.clarin.com/politica/dirigente-aparece-video-Oyarbide-esconder_0_1577842379.html'
p10
aS'https://www.clarin.com/politica/Consejo-Nacional-PJ-gobernadores-Gobierno_0_1577842367.html'
p11
aS'https://www.clarin.com/politica/Consejo-Nacional-PJ-gobernadores-Gobierno_0_1577842367.html'
p12
a.