(lp0
S'https://www.clarin.com/sociedad/Procesan-medica-desfibrilador-chico-murio_0_1687031289.html'
p1
aS'https://www.clarin.com/ieco/economia/Libros-pintar-secreto-Faber-Castell_0_1686431415.html'
p2
aS'https://www.clarin.com/politica/CGT-convoca-debatir-propuestas-economia_0_1686431444.html'
p3
aS'https://www.clarin.com/ieco/economia/primera-cosecha-Macri-millones-toneladas_0_1686431414.html'
p4
aS'https://www.clarin.com/politica/agredieron-Nicolas-Winazki-TN-Plata_0_1687031286.html'
p5
aS'https://www.clarin.com/ieco/jubilados-cobran-reajuste-haberes_0_1686431439.html'
p6
aS'https://www.clarin.com/politica/Casacion-rechazaria-maniobra-denuncia-Nisman_0_1687031285.html'
p7
aS'https://www.clarin.com/politica/Visita-Macri-Espana-cerveza-Tevez_0_1687031284.html'
p8
aS'https://www.clarin.com/opinion/comun-Yabran-Vido_0_1687031282.html'
p9
aS'https://www.clarin.com/ieco/economia/venta-autos-usados-octubre-derrumbo_0_1686431394.html'
p10
aS'https://www.clarin.com/politica/fantasma-diciembre-apura-acuerdos_0_1687031283.html'
p11
a.