(lp0
S'https://www.clarin.com/sociedad/Rusia-quieren-accidentes-transito-desnudas_0_1645635461.html'
p1
aS'https://www.clarin.com/sociedad/Rusia-quieren-accidentes-transito-desnudas_0_1645635461.html'
p2
aS'https://www.clarin.com/sociedad/usuarios-argentinos-Internet-miran-porno_0_1645635456.html'
p3
aS'https://www.clarin.com/sociedad/usuarios-argentinos-Internet-miran-porno_0_1645635456.html'
p4
aS'https://www.clarin.com/politica/Gils-Carbo-favor-suspender-Provincia_0_1645635451.html'
p5
aS'https://www.clarin.com/politica/Gils-Carbo-favor-suspender-Provincia_0_1645635451.html'
p6
aS'https://www.clarin.com/politica/Malentendidos-Macri-semestre-Prat-Gay-inflacion_0_1645635452.html'
p7
aS'https://www.clarin.com/politica/Malentendidos-Macri-semestre-Prat-Gay-inflacion_0_1645635452.html'
p8
a.