(lp0
Vhttps://www.clarin.com/politica/Menem-Jr-Macri-releve-secreto_0_1544845737.html
p1
aVhttps://www.clarin.com/politica/Menem-Jr-Macri-releve-secreto_0_1544845737.html
p2
aVhttps://www.clarin.com/sociedad/plantacion-legal-marihuana-America-Latina_0_1544845735.html
p3
aVhttps://www.clarin.com/sociedad/plantacion-legal-marihuana-America-Latina_0_1544845735.html
p4
aVhttps://www.clarin.com/politica/agenda-Obama-hora_0_1544845725.html
p5
aVhttps://www.clarin.com/politica/agenda-Obama-hora_0_1544845725.html
p6
aVhttps://www.clarin.com/politica/Eduardo-Costa-Rosadita-video-alcanza_0_1544845727.html
p7
aVhttps://www.clarin.com/politica/Eduardo-Costa-Rosadita-video-alcanza_0_1544845727.html
p8
aVhttps://www.clarin.com/ieco/frigorifico-Cristobal-Lopez-funciono-anos_0_1544845694.html
p9
a.