(lp0
S'https://www.clarin.com/sociedad/escena-repite-Conurbano_0_1621038065.html'
p1
aS'https://www.clarin.com/politica/PAMI-Gobierno-avanza-datos-personales_0_1621038073.html'
p2
aS'https://www.clarin.com/politica/Reducirian-ciento-custodia-personal-Cristina_0_1621038015.html'
p3
aS'https://www.clarin.com/sociedad/Deberiamos-rever-tema-cifras-subsidios_0_1621038063.html'
p4
aS'https://www.clarin.com/opinion/Pregon-amor-abuela_0_1621038043.html'
p5
aS'https://www.clarin.com/politica/Lanata-imagen-Cristina-presa-inflexion_0_1621038098.html'
p6
aS'https://www.clarin.com/sociedad/guardias-hospitales-nuevo-refugio-invierno_0_1621038067.html'
p7
aS'https://www.clarin.com/politica/vertientes-CGT-pediran-Gobierno-economica_0_1621637821.html'
p8
aS'https://www.clarin.com/politica/alerta-terrorismo-desplazan-jefe-AFI_0_1621038032.html'
p9
a.