(lp0
Vhttps://www.clarin.com/politica/Afirman-AFI-oculto-pruebas-AMIA_0_1615038591.html
p1
aVhttps://www.clarin.com/politica/Afirman-AFI-oculto-pruebas-AMIA_0_1615038591.html
p2
aVhttps://www.clarin.com/ieco/agrava-conflicto-empresa-agroindustrial-Salta_0_1615038553.html
p3
aVhttps://www.clarin.com/ieco/agrava-conflicto-empresa-agroindustrial-Salta_0_1615038553.html
p4
aVhttps://www.clarin.com/ieco/economia/Argentina-pais-caro-distorsion-precios_0_1615038590.html
p5
aVhttps://www.clarin.com/ieco/economia/Argentina-pais-caro-distorsion-precios_0_1615038590.html
p6
aVhttps://www.clarin.com/politica/Schoklender-Lopez-arquitecto-patrimonial-Kirchner_0_1615038588.html
p7
aVhttps://www.clarin.com/politica/Schoklender-Lopez-arquitecto-patrimonial-Kirchner_0_1615038588.html
p8
aVhttps://www.clarin.com/politica/Indagaran-Parrilli-proteger-Perez-Corradi_0_1615038549.html
p9
aVhttps://www.clarin.com/politica/Indagaran-Parrilli-proteger-Perez-Corradi_0_1615038549.html
p10
aVhttps://www.clarin.com/politica/Macri-Bourne-Chaqueno-Salta_0_1615038585.html
p11
aVhttps://www.clarin.com/politica/Macri-Bourne-Chaqueno-Salta_0_1615038585.html
p12
aVhttps://www.clarin.com/sociedad/Darle-lugar-tiempo-interno_0_1615038581.html
p13
aVhttps://www.clarin.com/politica/conmemoraciones_0_1615038572.html
p14
aVhttps://www.clarin.com/politica/conmemoraciones_0_1615038572.html
p15
aVhttps://www.clarin.com/politica/final-Macri-acto-aniversario-atentado_0_1615038537.html
p16
aVhttps://www.clarin.com/politica/final-Macri-acto-aniversario-atentado_0_1615038537.html
p17
a.