(lp0
Vhttps://www.clarin.com/politica/justicia-despidos_0_1510649324.html
p1
aVhttps://www.clarin.com/ieco/Petroleras-Despidos-Chubut-Das_Neves-Aranguren_0_1510649298.html
p2
aVhttps://www.clarin.com/ieco/economia/Banco-Mundial-beneficios-tecnologia-esperados_0_1510649289.html
p3
aVhttps://www.clarin.com/ieco/economia/Indec-formalizo-San-Luis-CABA_0_1510649281.html
p4
aVhttps://www.clarin.com/ieco/economia/Leve-suba-Bolsa_0_1510649269.html
p5
aVhttps://www.clarin.com/politica/amia-juicio_en_ausencia_0_1510649274.html
p6
a.