(lp0
Vhttps://www.clarin.com/politica/Frigerio-pone-limites-reclamos-gremios_0_1660633998.html
p1
aVhttps://www.clarin.com/politica/Frigerio-pone-limites-reclamos-gremios_0_1660633998.html
p2
aVhttps://www.clarin.com/sociedad/Sexo-filmarse-riesgo-sufrir-filtracion_0_1660634024.html
p3
aVhttps://www.clarin.com/sociedad/Sexo-filmarse-riesgo-sufrir-filtracion_0_1660634024.html
p4
aVhttps://www.clarin.com/politica/Scioli-Macri-depresion-economica-profunda_0_1660634023.html
p5
aVhttps://www.clarin.com/politica/Scioli-Macri-depresion-economica-profunda_0_1660634023.html
p6
aVhttps://www.clarin.com/opinion/encuestadoras-juegan-credibilidad-prestigio_0_1660634013.html
p7
aVhttps://www.clarin.com/opinion/explicitar-limites-mediciones_0_1660634012.html
p8
aVhttps://www.clarin.com/opinion/Colombia-paz-America-Latina_0_1660634009.html
p9
a.