(lp0
Vhttps://www.clarin.com/sociedad/libro-Harry-Potter-batio-records_0_1625237543.html
p1
aVhttps://www.clarin.com/sociedad/libro-Harry-Potter-batio-records_0_1625237543.html
p2
aVhttps://www.clarin.com/politica/Primera-Cambiemos-UCR-Garro-Plata_0_1625237541.html
p3
aVhttps://www.clarin.com/politica/Primera-Cambiemos-UCR-Garro-Plata_0_1625237541.html
p4
aVhttps://www.clarin.com/politica/Lazaro-Baez-momento-contener-familiar_0_1624637579.html
p5
aVhttps://www.clarin.com/politica/Lazaro-Baez-momento-contener-familiar_0_1624637579.html
p6
aVhttps://www.clarin.com/sociedad/Encuentran-bebe-abandonado-estacion-Once_0_1625237539.html
p7
aVhttps://www.clarin.com/sociedad/Encuentran-bebe-abandonado-estacion-Once_0_1625237539.html
p8
aVhttps://www.clarin.com/ieco/economia/protesta-tamberos-salieron-regalar-leche_0_1625237538.html
p9
aVhttps://www.clarin.com/ieco/economia/protesta-tamberos-salieron-regalar-leche_0_1625237538.html
p10
aVhttps://www.clarin.com/sociedad/Efecto-manteca-viene-tarifazo-medialunas_0_1625237535.html
p11
aVhttps://www.clarin.com/sociedad/Efecto-manteca-viene-tarifazo-medialunas_0_1625237535.html
p12
aVhttps://www.clarin.com/ieco/Sancor-Vicentin-discuten-uso-marcas_0_1625237528.html
p13
aVhttps://www.clarin.com/ieco/Sancor-Vicentin-discuten-uso-marcas_0_1625237528.html
p14
a.