(lp0
Vhttps://www.clarin.com/ieco/economia/kirchnerismo-insistir-Congreso-Macri-antidespidos_0_1574242633.html
p1
aVhttps://www.clarin.com/ieco/economia/kirchnerismo-insistir-Congreso-Macri-antidespidos_0_1574242633.html
p2
aVhttps://www.clarin.com/politica/Hector-Recalde-antidespidos-cerca-quorum_0_1574242631.html
p3
aVhttps://www.clarin.com/politica/Hector-Recalde-antidespidos-cerca-quorum_0_1574242631.html
p4
aVhttps://www.clarin.com/politica/Reunion-Macri-CGT-Calo-heladeras_0_1574242624.html
p5
aVhttps://www.clarin.com/politica/Reunion-Macri-CGT-Calo-heladeras_0_1574242624.html
p6
aVhttps://www.clarin.com/politica/Aparecio-Lazaro-Baez-ganado-millonario_0_1574242632.html
p7
aVhttps://www.clarin.com/politica/Aparecio-Lazaro-Baez-ganado-millonario_0_1574242632.html
p8
aVhttps://www.clarin.com/politica/UIF-querellante-causa-campana-CFK_0_1574242629.html
p9
aVhttps://www.clarin.com/politica/UIF-querellante-causa-campana-CFK_0_1574242629.html
p10
aVhttps://www.clarin.com/politica/Unidos-proximo-destino-Fragata_0_1574242623.html
p11
aVhttps://www.clarin.com/sociedad/mujer-anos-primer-hijo-India_0_1574242619.html
p12
aVhttps://www.clarin.com/sociedad/mujer-anos-primer-hijo-India_0_1574242619.html
p13
aVhttps://www.clarin.com/politica/Confirman-Hebe-Bonafini-Papa-Francisco_0_1574242618.html
p14
aVhttps://www.clarin.com/politica/Confirman-Hebe-Bonafini-Papa-Francisco_0_1574242618.html
p15
a.