(lp0
Vhttps://www.clarin.com/politica/Lazaro-Baez-levanten-pagarle-AFIP_0_1662433840.html
p1
aVhttps://www.clarin.com/politica/Lazaro-Baez-levanten-pagarle-AFIP_0_1662433840.html
p2
aVhttps://www.clarin.com/sociedad/Parana-personas-disfraces-grande-Latinoamerica_0_1662433830.html
p3
aVhttps://www.clarin.com/sociedad/Parana-personas-disfraces-grande-Latinoamerica_0_1662433830.html
p4
a.