(lp0
S'https://www.clarin.com/politica/Reflotan-inversiones-frenaron-Massa-FpV_0_1679232179.html'
p1
aS'https://www.clarin.com/politica/Justicia-rechazo-Cristina-frenar-futuro_0_1679232178.html'
p2
aS'https://www.clarin.com/politica/Intento-desesperado-Lazaro-Baez-indagatoria_0_1679232185.html'
p3
aS'https://www.clarin.com/sociedad/Aeroparque-pocas-sorpresas-nuevo-DNI_0_1679232180.html'
p4
a.