(lp0
S'https://www.clarin.com/politica/paraliza-negociacion-Aerolineas-pilotos_0_1675032609.html'
p1
aS'https://www.clarin.com/politica/paraliza-negociacion-Aerolineas-pilotos_0_1675032609.html'
p2
aS'https://www.clarin.com/politica/Contrabando-detienen-aduanero-captura-Vido_0_1675032604.html'
p3
aS'https://www.clarin.com/politica/Contrabando-detienen-aduanero-captura-Vido_0_1675032604.html'
p4
aS'https://www.clarin.com/politica/Carrio-Diputados-proyecto-Gils-Carbo_0_1675032600.html'
p5
aS'https://www.clarin.com/politica/Carrio-Diputados-proyecto-Gils-Carbo_0_1675032600.html'
p6
a.