(lp0
S'https://www.clarin.com/sociedad/Nina-llega-fin-espera-debil_0_1621637957.html'
p1
aS'https://www.clarin.com/politica/suspendio-Puerto-Madryn-gobernadores-Rosada_0_1621637953.html'
p2
aS'https://www.clarin.com/politica/suspendio-Puerto-Madryn-gobernadores-Rosada_0_1621637953.html'
p3
aS'https://www.clarin.com/politica/Vidal-regreso-tren-provincia-gradual_0_1621637951.html'
p4
aS'https://www.clarin.com/politica/Vidal-regreso-tren-provincia-gradual_0_1621637951.html'
p5
aS'https://www.clarin.com/ieco/economia/Acindar-suspende-empleados-caida-ventas_0_1621637950.html'
p6
aS'https://www.clarin.com/ieco/economia/Acindar-suspende-empleados-caida-ventas_0_1621637950.html'
p7
a.