(lp0
Vhttps://www.clarin.com/ieco/Frenkel-atrasado-nivel-abrir-economia_0_1673232824.html
p1
aVhttps://www.clarin.com/ieco/Frenkel-atrasado-nivel-abrir-economia_0_1673232824.html
p2
aVhttps://www.clarin.com/ieco/atractivo-bonos-argentinos-mundo-cero_0_1672632900.html
p3
aVhttps://www.clarin.com/ieco/economia/Pagani-Reflotar-Mercosur-prioridad_0_1672632899.html
p4
aVhttps://www.clarin.com/ieco/economia/Economico-politico-analisis-discusion-ideas_0_1672632897.html
p5
aVhttps://www.clarin.com/ieco/economia/America-Latina-direccion-Papa-quiere_0_1672632888.html
p6
aVhttps://www.clarin.com/ieco/economia/America-Latina-direccion-Papa-quiere_0_1672632888.html
p7
aVhttps://www.clarin.com/politica/agravo-situacion-judicial-Cristina-patrimonio_0_1673832607.html
p8
aVhttps://www.clarin.com/politica/agravo-situacion-judicial-Cristina-patrimonio_0_1673832607.html
p9
a.