(lp0
S'https://www.clarin.com/sociedad/marcha-multitudinaria-mujeres-derechos-Rosario_0_1665433547.html'
p1
aS'https://www.clarin.com/sociedad/marcha-multitudinaria-mujeres-derechos-Rosario_0_1665433547.html'
p2
aS'https://www.clarin.com/politica/Dietrich-contesto-kirchnerismo-ladrones-gobernando_0_1665433546.html'
p3
aS'https://www.clarin.com/politica/Dietrich-contesto-kirchnerismo-ladrones-gobernando_0_1665433546.html'
p4
aS'https://www.clarin.com/opinion/prevenir-mal-destino-abandono-escolar_0_1665433542.html'
p5
aS'https://www.clarin.com/politica/Malena-Galmarini-Juliana-Cristina-Kirchner_0_1665433540.html'
p6
aS'https://www.clarin.com/politica/Malena-Galmarini-Juliana-Cristina-Kirchner_0_1665433540.html'
p7
aS'https://www.clarin.com/opinion/Dilemas-democracia-directa_0_1665433541.html'
p8
aS'https://www.clarin.com/sociedad/disfrazo-payaso-buscar-trabajo-consiguio_0_1665433533.html'
p9
aS'https://www.clarin.com/sociedad/disfrazo-payaso-buscar-trabajo-consiguio_0_1665433533.html'
p10
aS'https://www.clarin.com/politica/Insaurralde-creo-Cristina-candidata_0_1665433532.html'
p11
aS'https://www.clarin.com/politica/Insaurralde-creo-Cristina-candidata_0_1665433532.html'
p12
a.