(lp0
Vhttps://www.clarin.com/ieco/economia/Gobierno-captar-dolares-debajo-colchon_0_1566443546.html
p1
aVhttps://www.clarin.com/ieco/economia/Condenan-YPF-pagar-US-millones_0_1566443467.html
p2
aVhttps://www.clarin.com/ieco/economia/Condenan-YPF-pagar-US-millones_0_1566443467.html
p3
aVhttps://www.clarin.com/ieco/FMI-recuperacion-llegara-segunda-mitad_0_1566443472.html
p4
aVhttps://www.clarin.com/sociedad/desayuno-escolar-leche-demasiada-azucar_0_1559844385.html
p5
aVhttps://www.clarin.com/sociedad/desayuno-escolar-leche-demasiada-azucar_0_1559844385.html
p6
aVhttps://www.clarin.com/politica/Acuerdo-fomentar-desarrollo-pymes_0_1566443526.html
p7
aVhttps://www.clarin.com/sociedad/Investigan-bolsas-droga-desaparecieron_0_1566443520.html
p8
aVhttps://www.clarin.com/ieco/Tension-Gobierno-nuevo-aumento-nafta_0_1567043287.html
p9
aVhttps://www.clarin.com/politica/Massa-evitar-costo-recurrir-veto_0_1567043286.html
p10
aVhttps://www.clarin.com/politica/Massa-evitar-costo-recurrir-veto_0_1567043286.html
p11
aVhttps://www.clarin.com/ieco/Suben-costos-mantendran-tarifas-subsidios_0_1567043285.html
p12
aVhttps://www.clarin.com/ieco/Suben-costos-mantendran-tarifas-subsidios_0_1567043285.html
p13
aVhttps://www.clarin.com/politica/ley-antidespidos-media-sancion-Senado_0_1566443556.html
p14
aVhttps://www.clarin.com/politica/ley-antidespidos-media-sancion-Senado_0_1566443556.html
p15
aVhttps://www.clarin.com/politica/AFIP-aporto-pruebas-comprometen-Echegaray_0_1567043284.html
p16
aVhttps://www.clarin.com/politica/AFIP-aporto-pruebas-comprometen-Echegaray_0_1567043284.html
p17
aVhttps://www.clarin.com/politica/Encontraron-US-tierra-propiedades-Baez_0_1566443551.html
p18
aVhttps://www.clarin.com/politica/Encontraron-US-tierra-propiedades-Baez_0_1566443551.html
p19
aVhttps://www.clarin.com/politica/Entrepisos-paredes-dobles-metros-cuadrados_0_1566443529.html
p20
aVhttps://www.clarin.com/politica/Entrepisos-paredes-dobles-metros-cuadrados_0_1566443529.html
p21
aVhttps://www.clarin.com/sociedad/medio-protestas-UBA-aprobo-presupuesto_0_1566443536.html
p22
aVhttps://www.clarin.com/sociedad/medio-protestas-UBA-aprobo-presupuesto_0_1566443536.html
p23
a.