(lp0
S'https://www.clarin.com/ieco/Ahora-sigue-enero-sumara-juguetes_0_1657034391.html'
p1
aS'https://www.clarin.com/ieco/Ahora-sigue-enero-sumara-juguetes_0_1657034391.html'
p2
aS'https://www.clarin.com/politica/Federico-Pinedo-Macri-gobierno-izquierda_0_1657034387.html'
p3
aS'https://www.clarin.com/politica/Federico-Pinedo-Macri-gobierno-izquierda_0_1657034387.html'
p4
aS'https://www.clarin.com/politica/Macri-Twitter-tonteria-disculpeme-Presidente_0_1657034383.html'
p5
aS'https://www.clarin.com/politica/Macri-Twitter-tonteria-disculpeme-Presidente_0_1657034383.html'
p6
aS'https://www.clarin.com/sociedad/barrio-GBA-alerta-patotas-atacan_0_1657034382.html'
p7
aS'https://www.clarin.com/sociedad/barrio-GBA-alerta-patotas-atacan_0_1657034382.html'
p8
aS'https://www.clarin.com/politica/Rafecas-defender-desempeno-critico-remocion_0_1657034380.html'
p9
aS'https://www.clarin.com/politica/Rafecas-defender-desempeno-critico-remocion_0_1657034380.html'
p10
aS'https://www.clarin.com/politica/Indice-optimsimo-reafirma-indicadores-Gobierno_0_1657034379.html'
p11
aS'https://www.clarin.com/politica/Indice-optimsimo-reafirma-indicadores-Gobierno_0_1657034379.html'
p12
a.