(lp0
S'https://www.clarin.com/sociedad/enologo-unio-mejor-argentino-rock_0_1546645584.html'
p1
aS'https://www.clarin.com/sociedad/enologo-unio-mejor-argentino-rock_0_1546645584.html'
p2
aS'https://www.clarin.com/ieco/economia/Justicia-apelacion-YPF-contrato-Chevron_0_1546645578.html'
p3
aS'https://www.clarin.com/ieco/economia/Justicia-EEUU-complica-agenda-default_0_1546645575.html'
p4
aS'https://www.clarin.com/ieco/economia/Justicia-EEUU-complica-agenda-default_0_1546645575.html'
p5
aS'https://www.clarin.com/politica/explicacion-Martiniano-confundir-Pozo-Quilmes_0_1546645571.html'
p6
aS'https://www.clarin.com/politica/explicacion-Martiniano-confundir-Pozo-Quilmes_0_1546645571.html'
p7
a.