(lp0
S'https://www.clarin.com/sociedad/paraiso-ballenas-nafta-plenas-vacaciones_0_1622237822.html'
p1
aS'https://www.clarin.com/sociedad/paraiso-ballenas-nafta-plenas-vacaciones_0_1622237822.html'
p2
aS'https://www.clarin.com/sociedad/elefanta-mato-nena-anos-zoologico_0_1622237819.html'
p3
aS'https://www.clarin.com/sociedad/elefanta-mato-nena-anos-zoologico_0_1622237819.html'
p4
aS'https://www.clarin.com/ieco/economia/Empresas-petroleras-aumentos-acordados-paritarias_0_1622237818.html'
p5
aS'https://www.clarin.com/ieco/economia/Empresas-petroleras-aumentos-acordados-paritarias_0_1622237818.html'
p6
aS'https://www.clarin.com/sociedad/Crimen-country-Farre-cometio-femicidio_0_1622237814.html'
p7
aS'https://www.clarin.com/sociedad/Crimen-country-Farre-cometio-femicidio_0_1622237814.html'
p8
aS'https://www.clarin.com/ieco/FMI-confiesa-sacrifico-Grecia-europeos_0_1622237816.html'
p9
aS'https://www.clarin.com/ieco/FMI-confiesa-sacrifico-Grecia-europeos_0_1622237816.html'
p10
aS'https://www.clarin.com/sociedad/Quiso-impedir-marido-vacaciones-termino_0_1622237811.html'
p11
aS'https://www.clarin.com/sociedad/Quiso-impedir-marido-vacaciones-termino_0_1622237811.html'
p12
a.