(lp0
Vhttps://www.clarin.com/politica/Macri-visita-Obama-momento-perfecto_0_1545445924.html
p1
aVhttps://www.clarin.com/politica/Macri-visita-Obama-momento-perfecto_0_1545445924.html
p2
aVhttps://www.clarin.com/sociedad/Explosion-derrumbe-centro-Rosario-heridos_0_1545445911.html
p3
aVhttps://www.clarin.com/sociedad/Explosion-derrumbe-centro-Rosario-heridos_0_1545445911.html
p4
aVhttps://www.clarin.com/sociedad/cientificas-premiadas_0_1545445897.html
p5
aVhttps://www.clarin.com/sociedad/cientificas-premiadas_0_1545445897.html
p6
a.