(lp0
Vhttps://www.clarin.com/sociedad/Repudio-solidaridad-incidentes-multitudinaria-Rosario_0_1666033487.html
p1
aVhttps://www.clarin.com/sociedad/Repudio-solidaridad-incidentes-multitudinaria-Rosario_0_1666033487.html
p2
aVhttps://www.clarin.com/ieco/economia/Viento-favorable-mercados-mundiales-petroleo_0_1666033482.html
p3
aVhttps://www.clarin.com/ieco/economia/Viento-favorable-mercados-mundiales-petroleo_0_1666033482.html
p4
aVhttps://www.clarin.com/politica/Lanzan-campana-instalar-telefonia-celular_0_1666033481.html
p5
aVhttps://www.clarin.com/politica/Lanzan-campana-instalar-telefonia-celular_0_1666033481.html
p6
a.