(lp0
Vhttps://www.clarin.com/sociedad/reina-gatos-casa-mil_0_1553245002.html
p1
aVhttps://www.clarin.com/sociedad/reina-gatos-casa-mil_0_1553245002.html
p2
aVhttps://www.clarin.com/politica/Bonadio-denuncio-amenazas-indagatoria-Cristina_0_1553244995.html
p3
aVhttps://www.clarin.com/politica/Bonadio-denuncio-amenazas-indagatoria-Cristina_0_1553244995.html
p4
aVhttps://www.clarin.com/sociedad/Video-senoras-logran-sacarse-selfie_0_1553244999.html
p5
aVhttps://www.clarin.com/sociedad/Pitbull-duena-provoco-importantes-heridas_0_1553244970.html
p6
aVhttps://www.clarin.com/sociedad/Pitbull-duena-provoco-importantes-heridas_0_1553244970.html
p7
aVhttps://www.clarin.com/politica/Empresa-offshore-Scioli-respaldar-Macri_0_1553244992.html
p8
aVhttps://www.clarin.com/politica/Empresa-offshore-Scioli-respaldar-Macri_0_1553244992.html
p9
a.