(lp0
Vhttps://www.clarin.com/ieco/Fondos-buitre-NML-Stiglitz_0_1555044912.html
p1
aVhttps://www.clarin.com/sociedad/problema-Banelco-impide-pagar-cuentas_0_1555044903.html
p2
aVhttps://www.clarin.com/sociedad/problema-Banelco-impide-pagar-cuentas_0_1555044903.html
p3
a.