(lp0
S'https://www.clarin.com/politica/Pena-voceros-respondio-criticas-subestimacion_0_1655834500.html'
p1
aS'https://www.clarin.com/politica/Pena-voceros-respondio-criticas-subestimacion_0_1655834500.html'
p2
aS'https://www.clarin.com/politica/Macri-foto-Cardoso-visita-Temer_0_1655834497.html'
p3
aS'https://www.clarin.com/politica/Macri-foto-Cardoso-visita-Temer_0_1655834497.html'
p4
aS'https://www.clarin.com/sociedad/zapatillas-Volver-Futuro-salen-noviembre_0_1655834474.html'
p5
aS'https://www.clarin.com/sociedad/zapatillas-Volver-Futuro-salen-noviembre_0_1655834474.html'
p6
aS'https://www.clarin.com/ieco/Marriott-completo-compra-propietario-Sheraton_0_1655834491.html'
p7
aS'https://www.clarin.com/ieco/Marriott-completo-compra-propietario-Sheraton_0_1655834491.html'
p8
a.