(lp0
S'https://www.clarin.com/politica/Arroyo-Salgado-detalles-familiares-enteraron_0_1646835513.html'
p1
aS'https://www.clarin.com/politica/Arroyo-Salgado-detalles-familiares-enteraron_0_1646835513.html'
p2
aS'https://www.clarin.com/sociedad/radios-profundizan-crisis-pierden-figuras_0_1646835510.html'
p3
aS'https://www.clarin.com/sociedad/radios-profundizan-crisis-pierden-figuras_0_1646835510.html'
p4
aS'https://www.clarin.com/politica/aval-Carrio-alarma-Bullrich_0_1646835505.html'
p5
aS'https://www.clarin.com/politica/aval-Carrio-alarma-Bullrich_0_1646835505.html'
p6
aS'https://www.clarin.com/politica/Hallaron-barriles-efedrina-aeropuerto-Ezeiza_0_1646835496.html'
p7
aS'https://www.clarin.com/politica/Hallaron-barriles-efedrina-aeropuerto-Ezeiza_0_1646835496.html'
p8
aS'https://www.clarin.com/sociedad/NASA-mision-entender-origen-Tierra_0_1646835501.html'
p9
aS'https://www.clarin.com/sociedad/NASA-mision-entender-origen-Tierra_0_1646835501.html'
p10
a.