(lp0
S'https://www.clarin.com/sociedad/Macri-entregar-contenido-exclusivo-extranjero_0_1546645471.html'
p1
aS'https://www.clarin.com/ieco/economia/Nino-sector-perdera-millones-pesos_0_1546045724.html'
p2
aS'https://www.clarin.com/sociedad/siestas-largas-pueden-perjudiciales-salud_0_1546645485.html'
p3
aS'https://www.clarin.com/ieco/economia/Macri-inflacion-digito-equilibrio-fiscal_0_1546645473.html'
p4
a.