(lp0
Vhttps://www.clarin.com/politica/Panama-investigar-Casa-Rosada-preocupacion_0_1552644883.html
p1
aVhttps://www.clarin.com/politica/Panama-investigar-Casa-Rosada-preocupacion_0_1552644883.html
p2
aVhttps://www.clarin.com/politica/Memes-Laura-Alonso-Panama-Papers_0_1552644889.html
p3
aVhttps://www.clarin.com/politica/Memes-Laura-Alonso-Panama-Papers_0_1552644889.html
p4
aVhttps://www.clarin.com/ieco/canasta-basica-aumento-Consumidores-Libres_0_1552644887.html
p5
aVhttps://www.clarin.com/ieco/canasta-basica-aumento-Consumidores-Libres_0_1552644887.html
p6
aVhttps://www.clarin.com/politica/secretario-Nestor-intendente-PRO-vinculados_0_1552644881.html
p7
aVhttps://www.clarin.com/politica/secretario-Nestor-intendente-PRO-vinculados_0_1552644881.html
p8
aVhttps://www.clarin.com/politica/Almodovar-despega-escandalo-cuentas-offshore_0_1552644873.html
p9
aVhttps://www.clarin.com/politica/Almodovar-despega-escandalo-cuentas-offshore_0_1552644873.html
p10
aVhttps://www.clarin.com/ieco/Sigue-funcionarios-AFIP-respondian-Echegaray_0_1552644867.html
p11
a.