(lp0
S'https://www.clarin.com/sociedad/multitud-grito-violencia-machista_0_1588641330.html'
p1
aS'https://www.clarin.com/sociedad/multitud-grito-violencia-machista_0_1588641330.html'
p2
aS'https://www.clarin.com/politica/PJ-defensa-medias_0_1588641327.html'
p3
aS'https://www.clarin.com/politica/PJ-defensa-medias_0_1588641327.html'
p4
aS'https://www.clarin.com/sociedad/amigas-marchas-mismo-deseo-justicia_0_1588641325.html'
p5
aS'https://www.clarin.com/sociedad/amigas-marchas-mismo-deseo-justicia_0_1588641325.html'
p6
aS'https://www.clarin.com/sociedad/Lanzan-femeninos-fomentar-igualdad-genero_0_1588641265.html'
p7
aS'https://www.clarin.com/sociedad/Lanzan-femeninos-fomentar-igualdad-genero_0_1588641265.html'
p8
aS'https://www.clarin.com/politica/PJ-salir-nombra-alguien-idoneo_0_1588641321.html'
p9
aS'https://www.clarin.com/politica/buitres-persigan-Fragata-Libertad-EEUU_0_1588641320.html'
p10
aS'https://www.clarin.com/politica/buitres-persigan-Fragata-Libertad-EEUU_0_1588641320.html'
p11
aS'https://www.clarin.com/sociedad/recuerdo-Chiara-interior-pais_0_1588641317.html'
p12
aS'https://www.clarin.com/sociedad/recuerdo-Chiara-interior-pais_0_1588641317.html'
p13
a.