(lp0
Vhttps://www.clarin.com/politica/Malvinas-leyes-cumplir-acuerdo-petroleo_0_1651035055.html
p1
aVhttps://www.clarin.com/politica/Malvinas-leyes-cumplir-acuerdo-petroleo_0_1651035055.html
p2
aVhttps://www.clarin.com/sociedad/pilotos-paran-Aerolineas-Austral_0_1651035059.html
p3
aVhttps://www.clarin.com/sociedad/pilotos-paran-Aerolineas-Austral_0_1651035059.html
p4
aVhttps://www.clarin.com/politica/Piden-mandar-juicio-Caballo-Suarez_0_1651035056.html
p5
aVhttps://www.clarin.com/politica/Piden-mandar-juicio-Caballo-Suarez_0_1651035056.html
p6
aVhttps://www.clarin.com/ieco/economia/entidades-usuarios-preparan-ventas_0_1651035057.html
p7
aVhttps://www.clarin.com/politica/embajada-Caracas-seguira-encargado-negocios_0_1651035029.html
p8
aVhttps://www.clarin.com/politica/embajada-Caracas-seguira-encargado-negocios_0_1651035029.html
p9
aVhttps://www.clarin.com/opinion/salvar-muertes-evitables_0_1651035047.html
p10
aVhttps://www.clarin.com/opinion/noticia-Argentina-Brasil-encauza-crisis_0_1651035045.html
p11
aVhttps://www.clarin.com/politica/Detuvieron-hombre-amenazo-Quinta-Olivos_0_1651035036.html
p12
aVhttps://www.clarin.com/politica/Detuvieron-hombre-amenazo-Quinta-Olivos_0_1651035036.html
p13
a.