(lp0
S'https://www.clarin.com/politica/Milani-acusaciones-represion-desaparecio-Ledo_0_1601239944.html'
p1
aS'https://www.clarin.com/politica/Milani-acusaciones-represion-desaparecio-Ledo_0_1601239944.html'
p2
aS'https://www.clarin.com/sociedad/Piquetero-inesperado-elefante-crias-cruzaran_0_1601239943.html'
p3
aS'https://www.clarin.com/sociedad/Piquetero-inesperado-elefante-crias-cruzaran_0_1601239943.html'
p4
aS'https://www.clarin.com/ieco/economia/Permitiran-veces-facturas-ultimo-bimestre_0_1601239942.html'
p5
aS'https://www.clarin.com/ieco/economia/Permitiran-veces-facturas-ultimo-bimestre_0_1601239942.html'
p6
aS'https://www.clarin.com/sociedad/Trasladaron-Buenos-Aires-pinguinos-accidento_0_1601239938.html'
p7
aS'https://www.clarin.com/sociedad/Trasladaron-Buenos-Aires-pinguinos-accidento_0_1601239938.html'
p8
aS'https://www.clarin.com/sociedad/Video-camion-quedo-llego-frenar_0_1601239935.html'
p9
aS'https://www.clarin.com/sociedad/Video-camion-quedo-llego-frenar_0_1601239935.html'
p10
a.