(lp0
Vhttps://www.clarin.com/sociedad/guardianes-morrion-simbolo-Granaderos_0_1609039244.html
p1
aVhttps://www.clarin.com/sociedad/guardianes-morrion-simbolo-Granaderos_0_1609039244.html
p2
aVhttps://www.clarin.com/sociedad/ejercito-organizado-disciplinado-uniformado_0_1609039246.html
p3
aVhttps://www.clarin.com/sociedad/ejercito-organizado-disciplinado-uniformado_0_1609039246.html
p4
aVhttps://www.clarin.com/politica/fallo-suspendio-aumento-Gobierno-apelara_0_1609039323.html
p5
aVhttps://www.clarin.com/politica/fallo-suspendio-aumento-Gobierno-apelara_0_1609039323.html
p6
aVhttps://www.clarin.com/sociedad/Granaderos-clave-independencia_0_1609039247.html
p7
aVhttps://www.clarin.com/opinion/Viajar-siempre-sacar-jugo-vida_0_1609039276.html
p8
aVhttps://www.clarin.com/politica/Macri-cumbre-magnates-Unidos_0_1609039308.html
p9
a.