(lp0
Vhttps://www.clarin.com/sociedad/Mar-Plata-saquearon-escuela-temporal_0_1651634864.html
p1
aVhttps://www.clarin.com/politica/Presidida-Aranguren-arranco-Audiencia-precio_0_1651634866.html
p2
aVhttps://www.clarin.com/politica/Presidida-Aranguren-arranco-Audiencia-precio_0_1651634866.html
p3
aVhttps://www.clarin.com/ieco/protestan-media-cuadra-Usina-Arte_0_1651634859.html
p4
aVhttps://www.clarin.com/ieco/protestan-media-cuadra-Usina-Arte_0_1651634859.html
p5
aVhttps://www.clarin.com/politica/Aranguren-Usina-Arte-arranca-Audiencia_0_1651035075.html
p6
aVhttps://www.clarin.com/politica/Aranguren-Usina-Arte-arranca-Audiencia_0_1651035075.html
p7
aVhttps://www.clarin.com/politica/paro-dinamito-delicado-equilibrio_0_1651634856.html
p8
aVhttps://www.clarin.com/politica/paro-dinamito-delicado-equilibrio_0_1651634856.html
p9
aVhttps://www.clarin.com/sociedad/presidenta-Aerolineas-califico-locura-pilotos_0_1651634854.html
p10
aVhttps://www.clarin.com/sociedad/presidenta-Aerolineas-califico-locura-pilotos_0_1651634854.html
p11
aVhttps://www.clarin.com/ieco/economia/Cuentas-publicas-rojo-alcanzara-PBI_0_1651634851.html
p12
aVhttps://www.clarin.com/ieco/economia/Cuentas-publicas-rojo-alcanzara-PBI_0_1651634851.html
p13
a.