(lp0
Vhttps://www.clarin.com/sociedad/Genero-policias-chalecos-antibala-femeninos_0_1688231286.html
p1
aVhttps://www.clarin.com/sociedad/Genero-policias-chalecos-antibala-femeninos_0_1688231286.html
p2
aVhttps://www.clarin.com/politica/Piden-Fernando-Esteche-Universidad-Plata_0_1688231269.html
p3
aVhttps://www.clarin.com/politica/Piden-Fernando-Esteche-Universidad-Plata_0_1688231269.html
p4
a.