(lp0
Vhttps://www.clarin.com/opinion/Tiempos-nuevos-trampas-viejas_0_1570042983.html
p1
aVhttps://www.clarin.com/opinion/Necesitamos-energias-contaminantes_0_1569443143.html
p2
aVhttps://www.clarin.com/opinion/Necesitamos-energias-contaminantes_0_1569443143.html
p3
aVhttps://www.clarin.com/opinion/Borges-Bicentenario-Independencia_0_1569443141.html
p4
aVhttps://www.clarin.com/opinion/Pobreza-perspectiva-genero_0_1569443144.html
p5
aVhttps://www.clarin.com/politica/Descubren-nuevos-contactos-Farina-financieras_0_1569443201.html
p6
aVhttps://www.clarin.com/politica/Descubren-nuevos-contactos-Farina-financieras_0_1569443201.html
p7
aVhttps://www.clarin.com/politica/Farina-Lazaro-Baez-gusto-exposicion_0_1570042982.html
p8
aVhttps://www.clarin.com/politica/Farina-Lazaro-Baez-gusto-exposicion_0_1570042982.html
p9
aVhttps://www.clarin.com/politica/gremios-cerraron-aumentos-salariales-encima_0_1569443195.html
p10
aVhttps://www.clarin.com/sociedad/Imputaron-prefectos-parte-dentro-fiesta_0_1569443199.html
p11
aVhttps://www.clarin.com/sociedad/Imputaron-prefectos-parte-dentro-fiesta_0_1569443199.html
p12
aVhttps://www.clarin.com/sociedad/hackers-delicuentes-empresarios_0_1569443192.html
p13
aVhttps://www.clarin.com/sociedad/Gracias-vicedirectora-Raton-Perez-trajo_0_1569443200.html
p14
aVhttps://www.clarin.com/sociedad/Gracias-vicedirectora-Raton-Perez-trajo_0_1569443200.html
p15
a.