(lp0
Vhttps://www.clarin.com/politica/Llega-ministro-brasileno-reactivar-comercio_0_1623437785.html
p1
aVhttps://www.clarin.com/politica/Llega-ministro-brasileno-reactivar-comercio_0_1623437785.html
p2
aVhttps://www.clarin.com/politica/Felipe-Gonzalez-Tucuman-Maduro-Macri_0_1623437775.html
p3
aVhttps://www.clarin.com/politica/Felipe-Gonzalez-Tucuman-Maduro-Macri_0_1623437775.html
p4
aVhttps://www.clarin.com/politica/Macri-descarto-legalizar-marihuana-medicinales_0_1623437769.html
p5
aVhttps://www.clarin.com/politica/Macri-descarto-legalizar-marihuana-medicinales_0_1623437769.html
p6
a.