(lp0
S'https://www.clarin.com/ieco/agencia-recaudacion-bonaerense-relanza-pagina_0_1619838037.html'
p1
aS'https://www.clarin.com/ieco/agencia-recaudacion-bonaerense-relanza-pagina_0_1619838037.html'
p2
aS'https://www.clarin.com/sociedad/Polemica-Lujan-Hospital-atendera-distrito_0_1619838033.html'
p3
aS'https://www.clarin.com/sociedad/Polemica-Lujan-Hospital-atendera-distrito_0_1619838033.html'
p4
aS'https://www.clarin.com/ieco/millonarios-Asia-gangas-dejo-Brexit_0_1619838028.html'
p5
aS'https://www.clarin.com/ieco/millonarios-Asia-gangas-dejo-Brexit_0_1619838028.html'
p6
aS'https://www.clarin.com/ieco/Brexit-complica-Europa-commodities-inestable_0_1619838026.html'
p7
aS'https://www.clarin.com/ieco/Brexit-complica-Europa-commodities-inestable_0_1619838026.html'
p8
aS'https://www.clarin.com/sociedad/Muerte-casero-fiscal-podria-evitado_0_1619838025.html'
p9
aS'https://www.clarin.com/sociedad/Muerte-casero-fiscal-podria-evitado_0_1619838025.html'
p10
a.