(lp0
Vhttps://www.clarin.com/politica/Massa-gobierno-familias-planilla-excel_0_1612638834.html
p1
aVhttps://www.clarin.com/politica/Confirman-sobreprecios-Cordoba-apuntan-candidato_0_1612638826.html
p2
aVhttps://www.clarin.com/politica/Confirman-sobreprecios-Cordoba-apuntan-candidato_0_1612638826.html
p3
aVhttps://www.clarin.com/sociedad/Presentaron-Gualicho-especie-dinosaurio-Patagonia_0_1612638824.html
p4
aVhttps://www.clarin.com/sociedad/Presentaron-Gualicho-especie-dinosaurio-Patagonia_0_1612638824.html
p5
a.