(lp0
Vhttps://www.clarin.com/sociedad/Murio-Jose-Nucete-olivicultura-argentina_0_1508249389.html
p1
aVhttps://www.clarin.com/sociedad/Murio-Jose-Nucete-olivicultura-argentina_0_1508249389.html
p2
aVhttps://www.clarin.com/politica/Jujuy-marcharon-gobernador-Gerardo-Morales_0_1508249396.html
p3
aVhttps://www.clarin.com/politica/Jujuy-marcharon-gobernador-Gerardo-Morales_0_1508249396.html
p4
aVhttps://www.clarin.com/sociedad/Elon-Musk-visionario-cambiar-cohetes_0_1508249361.html
p5
aVhttps://www.clarin.com/sociedad/Elon-Musk-visionario-cambiar-cohetes_0_1508249361.html
p6
aVhttps://www.clarin.com/politica/Diputados-Emilio_Monzo-poda_0_1508249394.html
p7
aVhttps://www.clarin.com/politica/Diputados-Emilio_Monzo-poda_0_1508249394.html
p8
aVhttps://www.clarin.com/politica/Kelpers-Mauricio_Macri-David_Cameron-Malvinas_0_1508249384.html
p9
aVhttps://www.clarin.com/politica/Kelpers-Mauricio_Macri-David_Cameron-Malvinas_0_1508249384.html
p10
aVhttps://www.clarin.com/politica/ingleses-hablaron-capitulo-reunion-Macri-Cameron_0_1508249377.html
p11
aVhttps://www.clarin.com/politica/ingleses-hablaron-capitulo-reunion-Macri-Cameron_0_1508249377.html
p12
aVhttps://www.clarin.com/politica/Macri-vicepresidente-Unidos-holdouts-Obama_0_1508249378.html
p13
aVhttps://www.clarin.com/politica/Macri-vicepresidente-Unidos-holdouts-Obama_0_1508249378.html
p14
aVhttps://www.clarin.com/sociedad/bullying-acoso_escolar-nino-suicidio-Madrid_0_1508249351.html
p15
aVhttps://www.clarin.com/sociedad/bullying-acoso_escolar-nino-suicidio-Madrid_0_1508249351.html
p16
aVhttps://www.clarin.com/sociedad/reacciona-estadounidense-probar-tipicos-argentinos_0_1508249360.html
p17
aVhttps://www.clarin.com/sociedad/reacciona-estadounidense-probar-tipicos-argentinos_0_1508249360.html
p18
a.