(lp0
S'https://www.clarin.com/sociedad/diagnosticaron-muerte-cerebral-acido-error_0_1590441079.html'
p1
aS'https://www.clarin.com/politica/Fernando-Espinoza-peronismo-contando-billetes_0_1590441075.html'
p2
aS'https://www.clarin.com/sociedad/vuelo-turbulencia-primera-persona_0_1590441051.html'
p3
aS'https://www.clarin.com/politica/Comer-Casa-Rosada-aumento-ciento_0_1590441076.html'
p4
aS'https://www.clarin.com/politica/Polemica-pensiones-presidenciales-cobra-Cristina_0_1590441081.html'
p5
a.