(lp0
S'https://www.clarin.com/politica/pleno-cruce-Yoma-Moro-Inatratables_0_1567643327.html'
p1
aS'https://www.clarin.com/politica/pleno-cruce-Yoma-Moro-Inatratables_0_1567643327.html'
p2
aS'https://www.clarin.com/sociedad/Lee-completo-polemico-fallo-Gallardo_0_1567643319.html'
p3
aS'https://www.clarin.com/sociedad/Lee-completo-polemico-fallo-Gallardo_0_1567643319.html'
p4
aS'https://www.clarin.com/sociedad/perdio-vicedirectora-certificado-Raton-Perez_0_1567643314.html'
p5
aS'https://www.clarin.com/sociedad/perdio-vicedirectora-certificado-Raton-Perez_0_1567643314.html'
p6
aS'https://www.clarin.com/ieco/economia/YPF-financiero-CEO-comienza-petrolera_0_1567643310.html'
p7
aS'https://www.clarin.com/ieco/economia/YPF-financiero-CEO-comienza-petrolera_0_1567643310.html'
p8
a.