(lp0
S'https://www.clarin.com/politica/Quen-Yussuf-Khalil-dirigente-AFI_0_1548445468.html'
p1
aS'https://www.clarin.com/ieco/campus-ieco/Lanzan-Segunda-Olimpiada-Argentina-Tecnologia_0_1548445486.html'
p2
aS'https://www.clarin.com/sociedad/Empezaron-distribuir-vacuna-antigripal-pais_0_1548445475.html'
p3
aS'https://www.clarin.com/politica/Alfredo-Casero-Adolfo-Esquivel-Telesur_0_1548445471.html'
p4
aS'https://www.clarin.com/sociedad/Condenan-iglesia-evangelica-indemnizar-molestos_0_1548445464.html'
p5
aS'https://www.clarin.com/sociedad/milagro-viajo-correo-comida-sobrevivio_0_1548445474.html'
p6
a.