(lp0
Vhttps://www.clarin.com/sociedad/Protectores-indignados-Victoria-Vannucci-escrache_0_1673232722.html
p1
aVhttps://www.clarin.com/sociedad/Protectores-indignados-Victoria-Vannucci-escrache_0_1673232722.html
p2
aVhttps://www.clarin.com/sociedad/Aparecio-ballena-costa-Vicente-Lopez_0_1673232740.html
p3
aVhttps://www.clarin.com/sociedad/Aparecio-ballena-costa-Vicente-Lopez_0_1673232740.html
p4
aVhttps://www.clarin.com/politica/Macri-Gabinete-volvio-timbreos-GBA_0_1673232739.html
p5
aVhttps://www.clarin.com/politica/Macri-Gabinete-volvio-timbreos-GBA_0_1673232739.html
p6
aVhttps://www.clarin.com/politica/Triaca-CGT-aceptaria-bono-cuotas_0_1673232735.html
p7
aVhttps://www.clarin.com/politica/Triaca-CGT-aceptaria-bono-cuotas_0_1673232735.html
p8
a.