(lp0
Vhttps://www.clarin.com/ieco/YPF-definio-reemplazara-Galuccio_0_1537046681.html
p1
aVhttps://www.clarin.com/ieco/YPF-definio-reemplazara-Galuccio_0_1537046681.html
p2
aVhttps://www.clarin.com/sociedad/perito-moreno-antes-despues_0_1537046675.html
p3
aVhttps://www.clarin.com/sociedad/perito-moreno-antes-despues_0_1537046675.html
p4
aVhttps://www.clarin.com/ieco/economia/Sociedad-Rural-Macri-gobierna-ricos_0_1537046663.html
p5
aVhttps://www.clarin.com/politica/Crean-comision-redactar-Ley-Comunicaciones_0_1537046674.html
p6
aVhttps://www.clarin.com/ieco/economia/provincia-Buenos-Aires-US-millones_0_1537046671.html
p7
aVhttps://www.clarin.com/ieco/economia/provincia-Buenos-Aires-US-millones_0_1537046671.html
p8
aVhttps://www.clarin.com/politica/Liberaron-Turismo-Mar-Plata-corrupcion_0_1537046661.html
p9
aVhttps://www.clarin.com/politica/Liberaron-Turismo-Mar-Plata-corrupcion_0_1537046661.html
p10
aVhttps://www.clarin.com/ieco/economia/Afirman-perdieron-empleos-construccion-diciembre_0_1537046641.html
p11
aVhttps://www.clarin.com/ieco/Holdouts-Pollack-acuerdos-US-millones_0_1537046655.html
p12
a.