(lp0
Vhttps://www.clarin.com/sociedad/Enfocarse-estudiantes_0_1632436852.html
p1
aVhttps://www.clarin.com/politica/Bullrich-nadie-quiera-matar-presidente_0_1632436885.html
p2
aVhttps://www.clarin.com/politica/Bullrich-nadie-quiera-matar-presidente_0_1632436885.html
p3
aVhttps://www.clarin.com/politica/Milagro-Sala-iniciaron-Plaza-Mayo_0_1632436883.html
p4
aVhttps://www.clarin.com/politica/Milagro-Sala-iniciaron-Plaza-Mayo_0_1632436883.html
p5
aVhttps://www.clarin.com/sociedad/argentino-invento-sordos-perciban-sonidos_0_1632436880.html
p6
aVhttps://www.clarin.com/sociedad/argentino-invento-sordos-perciban-sonidos_0_1632436880.html
p7
aVhttps://www.clarin.com/politica/Macri-movilizara-camioneta-blindada_0_1632436876.html
p8
aVhttps://www.clarin.com/politica/Macri-movilizara-camioneta-blindada_0_1632436876.html
p9
aVhttps://www.clarin.com/ieco/economia/oposicion-coincide-reclamo-anular-tarifazo_0_1632436873.html
p10
aVhttps://www.clarin.com/ieco/economia/oposicion-coincide-reclamo-anular-tarifazo_0_1632436873.html
p11
aVhttps://www.clarin.com/politica/dias-agresion-causas-detenido_0_1632436872.html
p12
a.