(lp0
S'https://www.clarin.com/politica/Choripanes-PlayStation-VIP-frente-BCRA_0_1534046983.html'
p1
aS'https://www.clarin.com/sociedad/poblacion-mundial-convive-mosquito-dengue_0_1534047013.html'
p2
aS'https://www.clarin.com/politica/Urtubey-apoyar-proyecto-pagarles-holdouts_0_1534047028.html'
p3
aS'https://www.clarin.com/sociedad/Video-escucharon-pileta-encontraron-cocodrilo_0_1534047023.html'
p4
a.