(lp0
Vhttps://www.clarin.com/politica/Gobierno-Iglesia-mesa-dialogo-social_0_1670233130.html
p1
aVhttps://www.clarin.com/politica/Diputados-dictamen-descabeza-Procuracion-General_0_1670233127.html
p2
aVhttps://www.clarin.com/politica/Diputados-dictamen-descabeza-Procuracion-General_0_1670233127.html
p3
aVhttps://www.clarin.com/politica/Buscan-mayor-poder-Seguridad-fronteras_0_1670233093.html
p4
aVhttps://www.clarin.com/politica/Buscan-mayor-poder-Seguridad-fronteras_0_1670233093.html
p5
aVhttps://www.clarin.com/politica/Cristina-Kirchner-nacional-Dia-Lealtad_0_1670233124.html
p6
aVhttps://www.clarin.com/politica/Cristina-Kirchner-nacional-Dia-Lealtad_0_1670233124.html
p7
aVhttps://www.clarin.com/politica/Gobierno-quiere-contener-movimientos-sociales_0_1670233125.html
p8
aVhttps://www.clarin.com/politica/Gobierno-quiere-contener-movimientos-sociales_0_1670233125.html
p9
aVhttps://www.clarin.com/ieco/reservas-Banco-Central-maximo-mayo_0_1670233113.html
p10
aVhttps://www.clarin.com/ieco/reservas-Banco-Central-maximo-mayo_0_1670233113.html
p11
aVhttps://www.clarin.com/sociedad/Matan-mujeres-octubre-femicidios_0_1670233121.html
p12
a.