(lp0
Vhttps://www.clarin.com/ieco/economia/Prat-Gay-tarifas-equidad-Interior_0_1552644930.html
p1
aVhttps://www.clarin.com/ieco/economia/Prat-Gay-tarifas-equidad-Interior_0_1552644930.html
p2
aVhttps://www.clarin.com/sociedad/Millonarios-usaban-empresas-evadir-esposas_0_1552644936.html
p3
aVhttps://www.clarin.com/sociedad/Millonarios-usaban-empresas-evadir-esposas_0_1552644936.html
p4
aVhttps://www.clarin.com/sociedad/docente-Interior-escuelas-publicas-privadas_0_1552644934.html
p5
aVhttps://www.clarin.com/sociedad/docente-Interior-escuelas-publicas-privadas_0_1552644934.html
p6
aVhttps://www.clarin.com/ieco/precios-pega-fuerte-canasta-jubilados_0_1552644927.html
p7
aVhttps://www.clarin.com/ieco/precios-pega-fuerte-canasta-jubilados_0_1552644927.html
p8
aVhttps://www.clarin.com/sociedad/Federico-Storani-dijo-Manuel-chance_0_1552644900.html
p9
aVhttps://www.clarin.com/sociedad/Federico-Storani-dijo-Manuel-chance_0_1552644900.html
p10
aVhttps://www.clarin.com/politica/Sauces-SA-complicar-Cristina-Justicia_0_1552644861.html
p11
aVhttps://www.clarin.com/politica/Sauces-SA-complicar-Cristina-Justicia_0_1552644861.html
p12
a.