(lp0
S'https://www.clarin.com/politica/Visita-Aranguren-Vido-Congreso_0_1633036756.html'
p1
aS'https://www.clarin.com/politica/Visita-Aranguren-Vido-Congreso_0_1633036756.html'
p2
aS'https://www.clarin.com/sociedad/descubrio-marido-amante-escapo-desnudo_0_1633036755.html'
p3
aS'https://www.clarin.com/sociedad/descubrio-marido-amante-escapo-desnudo_0_1633036755.html'
p4
aS'https://www.clarin.com/politica/Macri-sueno-Argentina-vuelva-crecer_0_1633036752.html'
p5
aS'https://www.clarin.com/politica/Macri-sueno-Argentina-vuelva-crecer_0_1633036752.html'
p6
aS'https://www.clarin.com/sociedad/incendio-forestal-control-Rioja_0_1633036751.html'
p7
aS'https://www.clarin.com/sociedad/incendio-forestal-control-Rioja_0_1633036751.html'
p8
aS'https://www.clarin.com/politica/ex-funcionarios-acusados-obra-publica_0_1633036736.html'
p9
aS'https://www.clarin.com/politica/ex-funcionarios-acusados-obra-publica_0_1633036736.html'
p10
aS'https://www.clarin.com/ieco/Buffett-aumenta-participacion-Apple_0_1633036748.html'
p11
aS'https://www.clarin.com/ieco/Buffett-aumenta-participacion-Apple_0_1633036748.html'
p12
a.