(lp0
S'https://www.clarin.com/opinion/color-vuelta-vida_0_1673832668.html'
p1
aS'https://www.clarin.com/sociedad/artista-trans-derriba-estigmas-historietas_0_1672032919.html'
p2
aS'https://www.clarin.com/sociedad/Juez-chavismo-rehace-Vicente-Lopez_0_1673832661.html'
p3
aS'https://www.clarin.com/politica/Indice-optimismo-estabilidad-economica-retroceso_0_1673832655.html'
p4
aS'https://www.clarin.com/opinion/epica-queda-cuerpo_0_1673832669.html'
p5
aS'https://www.clarin.com/politica/Carlotto-Verbitsky-bastante-propenso-ofensas_0_1673832653.html'
p6
a.