(lp0
S'https://www.clarin.com/sociedad/el_nino-Clima-Meteorologia-fenomeno-lluvias-tormentas-inundaciones-argentina-smn_0_1499250228.html'
p1
aS'https://www.clarin.com/sociedad/el_nino-Clima-Meteorologia-fenomeno-lluvias-tormentas-inundaciones-argentina-smn_0_1499250228.html'
p2
aS'https://www.clarin.com/sociedad/Mar-Plata-corre-desnudo-costa_0_1499250239.html'
p3
aS'https://www.clarin.com/sociedad/Mar-Plata-corre-desnudo-costa_0_1499250239.html'
p4
aS'https://www.clarin.com/politica/Rua-operado-permanece-internado_0_1499250246.html'
p5
aS'https://www.clarin.com/politica/Rua-operado-permanece-internado_0_1499250246.html'
p6
aS'https://www.clarin.com/sociedad/Despechado-intimas-Facebook-investiga-Justicia_0_1499250243.html'
p7
aS'https://www.clarin.com/sociedad/Despechado-intimas-Facebook-investiga-Justicia_0_1499250243.html'
p8
aS'https://www.clarin.com/ieco/economia/Oficializan-impuestos-autos-alta-gama_0_1499250244.html'
p9
a.