(lp0
Vhttps://www.clarin.com/politica/dice-Macri-impepinable_0_1550245234.html
p1
aVhttps://www.clarin.com/politica/dice-Macri-impepinable_0_1550245234.html
p2
aVhttps://www.clarin.com/sociedad/avion-despegue-segunda-etapa-viaje_0_1550245235.html
p3
aVhttps://www.clarin.com/sociedad/avion-despegue-segunda-etapa-viaje_0_1550245235.html
p4
aVhttps://www.clarin.com/ieco/economia/oportunidad-Argentina-financie-transicion_0_1550245238.html
p5
aVhttps://www.clarin.com/sociedad/violencia-genero-dejo-hijos-madre_0_1550245226.html
p6
aVhttps://www.clarin.com/sociedad/violencia-genero-dejo-hijos-madre_0_1550245226.html
p7
aVhttps://www.clarin.com/sociedad/Apunalo-mujer-delante-despues-suicido_0_1550245215.html
p8
a.