(lp0
S'https://www.clarin.com/politica/Justicia-declarar-Jose-Lopez-fraude_0_1658834149.html'
p1
aS'https://www.clarin.com/ieco/facturas-atrasadas-podran-pagarse-cuotas_0_1658834143.html'
p2
aS'https://www.clarin.com/politica/vicecanciller-Foradori-comunicado-Gran-Bretana_0_1658834135.html'
p3
a.