(lp0
Vhttps://www.clarin.com/opinion/Argentina-invisible-drama-trabajo-informal_0_1657034421.html
p1
aVhttps://www.clarin.com/sociedad/gaucho-ciudad-colecciona-premios_0_1657034385.html
p2
aVhttps://www.clarin.com/sociedad/gaucho-ciudad-colecciona-premios_0_1657034385.html
p3
aVhttps://www.clarin.com/sociedad/Denuncian-comunidad-originaria-Santiago-Estero_0_1657034416.html
p4
a.