(lp0
S'https://www.clarin.com/politica/Marcos-Pena-acorralado-tarifas-Mirtha_0_1623437729.html'
p1
aS'https://www.clarin.com/sociedad/hombre-cavernas-tucumano-vive-cueva_0_1623437718.html'
p2
aS'https://www.clarin.com/sociedad/Cronica-TV-desmiente-crisis_0_1623437736.html'
p3
a.