(lp0
Vhttps://www.clarin.com/politica/esposa-Sabbatella-informes-modista-Vidal_0_1645635522.html
p1
aVhttps://www.clarin.com/politica/esposa-Sabbatella-informes-modista-Vidal_0_1645635522.html
p2
aVhttps://www.clarin.com/ieco/economia/EY-contratara-estudiantes-Economicas-Sistemas_0_1645635524.html
p3
aVhttps://www.clarin.com/ieco/economia/EY-contratara-estudiantes-Economicas-Sistemas_0_1645635524.html
p4
aVhttps://www.clarin.com/politica/Carrio-peleando-Corte-patrimonio-privilegios_0_1645635517.html
p5
aVhttps://www.clarin.com/politica/Carrio-peleando-Corte-patrimonio-privilegios_0_1645635517.html
p6
aVhttps://www.clarin.com/politica/Sospechas-allanamiento-Provincia-denuncia-Scioli_0_1645635513.html
p7
aVhttps://www.clarin.com/politica/Sospechas-allanamiento-Provincia-denuncia-Scioli_0_1645635513.html
p8
aVhttps://www.clarin.com/sociedad/archivo-digital-Clarin-millones-portadas_0_1645635511.html
p9
aVhttps://www.clarin.com/sociedad/archivo-digital-Clarin-millones-portadas_0_1645635511.html
p10
a.