(lp0
Vhttps://www.clarin.com/politica/Macri-Papa-mantendran-reunion-octubre_0_1616838453.html
p1
aVhttps://www.clarin.com/politica/Macri-Papa-mantendran-reunion-octubre_0_1616838453.html
p2
aVhttps://www.clarin.com/politica/abogado-Perez-Corradi-buscaron-Paraguay_0_1616838449.html
p3
aVhttps://www.clarin.com/politica/abogado-Perez-Corradi-buscaron-Paraguay_0_1616838449.html
p4
aVhttps://www.clarin.com/ieco/economia/sueldos-Rio-Negro-emitira-millones_0_1616838444.html
p5
aVhttps://www.clarin.com/ieco/Mapuches-ingreso-maquinaria-Vaca-Muerta_0_1616838443.html
p6
aVhttps://www.clarin.com/ieco/Mapuches-ingreso-maquinaria-Vaca-Muerta_0_1616838443.html
p7
aVhttps://www.clarin.com/ieco/sector-ganadero-posible-duplicar-produccion_0_1616838428.html
p8
aVhttps://www.clarin.com/ieco/sector-ganadero-posible-duplicar-produccion_0_1616838428.html
p9
a.