(lp0
S'https://www.clarin.com/politica/Marcos-Pena-pidio-empresarios-inviertan_0_1650435158.html'
p1
aS'https://www.clarin.com/sociedad/Argentina-paises-sufren-desercion_0_1650435167.html'
p2
aS'https://www.clarin.com/sociedad/escuela-puerta-premian-docentes-alumnos_0_1650435168.html'
p3
aS'https://www.clarin.com/politica/Iglesia-pidio-CGT-agotar-dialogo_0_1650435163.html'
p4
aS'https://www.clarin.com/politica/Alfonso-Prat-Gay-tomaron-semestre-cumplimos_0_1650435171.html'
p5
aS'https://www.clarin.com/politica/Gobierno-CCK-piensa-freno-oposicion_0_1650435165.html'
p6
a.