(lp0
S'https://www.clarin.com/politica/Indagado-previsional-Martin-Baez-responsabilizo_0_1650435041.html'
p1
aS'https://www.clarin.com/ieco/economia/Eximbank-EEUU-volvera-operar-Argentina_0_1650435049.html'
p2
aS'https://www.clarin.com/ieco/economia/Impulsan-marca-alimentos-productos-Norte_0_1650435048.html'
p3
a.