(lp0
Vhttps://www.clarin.com/politica/Fuerte-alza-pobreza_0_1550845133.html
p1
aVhttps://www.clarin.com/politica/Fuerte-alza-pobreza_0_1550845133.html
p2
aVhttps://www.clarin.com/sociedad/caballos-chicos-mundo-perros-guardavidas_0_1550845130.html
p3
aVhttps://www.clarin.com/sociedad/caballos-chicos-mundo-perros-guardavidas_0_1550845130.html
p4
aVhttps://www.clarin.com/ieco/economia/Protestas-Centro-Atomico-Bariloche_0_1550845121.html
p5
aVhttps://www.clarin.com/sociedad/Tecnologia-investiga-Argentina-pornografia-infantil_0_1550845110.html
p6
aVhttps://www.clarin.com/sociedad/Tecnologia-investiga-Argentina-pornografia-infantil_0_1550845110.html
p7
aVhttps://www.clarin.com/ieco/Aranguren-nafta-petroleo-pesos-subio_0_1550845122.html
p8
aVhttps://www.clarin.com/ieco/Aranguren-nafta-petroleo-pesos-subio_0_1550845122.html
p9
aVhttps://www.clarin.com/politica/polemica-represas-Macri-presidente-China_0_1550845113.html
p10
aVhttps://www.clarin.com/politica/polemica-represas-Macri-presidente-China_0_1550845113.html
p11
a.