(lp0
Vhttps://www.clarin.com/sociedad/Cambio-climatico-verdes-Argentina-reducen_0_1585641554.html
p1
aVhttps://www.clarin.com/sociedad/Cambio-climatico-verdes-Argentina-reducen_0_1585641554.html
p2
aVhttps://www.clarin.com/sociedad/Volvio-bailar-asesinada-acusa-pareja_0_1585641553.html
p3
aVhttps://www.clarin.com/sociedad/proyectos-mejorar-faltan-fondos_0_1585641549.html
p4
a.