(lp0
S'https://www.clarin.com/ieco/Gobierno-millones-Galuccio-dejara-YPF_0_1574842517.html'
p1
aS'https://www.clarin.com/sociedad/siamesa-sobrevivio-separacion-sigue-mejorando_0_1574842522.html'
p2
aS'https://www.clarin.com/ieco/economia/Provincia-recibe-mejor-nota-deuda_0_1574842519.html'
p3
aS'https://www.clarin.com/sociedad/edema-agudo-pulmon_0_1574842529.html'
p4
a.