(lp0
Vhttps://www.clarin.com/politica/cumpleanos-Vidal-canticos-pila-regalos_0_1646835418.html
p1
aVhttps://www.clarin.com/politica/cumpleanos-Vidal-canticos-pila-regalos_0_1646835418.html
p2
aVhttps://www.clarin.com/sociedad/Hallaron-desaparecida-Cordoba-detuvieron-hombre_0_1646835422.html
p3
aVhttps://www.clarin.com/sociedad/Condenaron-abusador-hijas-juicio-jurado_0_1646835416.html
p4
aVhttps://www.clarin.com/sociedad/cuerpo-calcinado-aparecio-duena-hostel_0_1646835412.html
p5
aVhttps://www.clarin.com/sociedad/cuerpo-calcinado-aparecio-duena-hostel_0_1646835412.html
p6
aVhttps://www.clarin.com/politica/Allanan-aeropuerto-Ezeiza-barriles-efedrina_0_1646835410.html
p7
aVhttps://www.clarin.com/politica/Allanan-aeropuerto-Ezeiza-barriles-efedrina_0_1646835410.html
p8
a.