(lp0
S'https://www.clarin.com/sociedad/Juliana-Awada-invita-junto-Macri_0_1639636112.html'
p1
aS'https://www.clarin.com/sociedad/Juliana-Awada-invita-junto-Macri_0_1639636112.html'
p2
aS'https://www.clarin.com/ieco/arranca-blanqueo-capitales_0_1639036270.html'
p3
aS'https://www.clarin.com/ieco/arranca-blanqueo-capitales_0_1639036270.html'
p4
aS'https://www.clarin.com/politica/Cristileaks-caso-sensible-Cristina-Kirchner_0_1639036263.html'
p5
aS'https://www.clarin.com/politica/Cristileaks-caso-sensible-Cristina-Kirchner_0_1639036263.html'
p6
aS'https://www.clarin.com/politica/razones-ocultas-detras-tierras-Moreno_0_1639636127.html'
p7
aS'https://www.clarin.com/politica/razones-ocultas-detras-tierras-Moreno_0_1639636127.html'
p8
aS'https://www.clarin.com/sociedad/Choco-adolescente-manejando-Mini-Cooper_0_1639636125.html'
p9
aS'https://www.clarin.com/sociedad/Choco-adolescente-manejando-Mini-Cooper_0_1639636125.html'
p10
aS'https://www.clarin.com/politica/Larroque-plan-desestabilizador-motoriza-Gobierno_0_1639636120.html'
p11
aS'https://www.clarin.com/politica/Larroque-plan-desestabilizador-motoriza-Gobierno_0_1639636120.html'
p12
a.