(lp0
S'https://www.clarin.com/sociedad/Video-Everest-grados_0_1582641825.html'
p1
aS'https://www.clarin.com/sociedad/demanda-Caritas-abrio-nuevos-comedores_0_1582641831.html'
p2
aS'https://www.clarin.com/ieco/economia/Monsanto-rechazo-oferta-Bayer-considerarla_0_1582641829.html'
p3
aS'https://www.clarin.com/politica/Carrio-Nueva-York-desentranar-empresas_0_1582641820.html'
p4
aS'https://www.clarin.com/sociedad/pelicula-alerta-global-cambio-climatico_0_1582641834.html'
p5
aS'https://www.clarin.com/sociedad/Polemica-Twitter-hashtag-MasAnorexiaMenosGordas_0_1582641827.html'
p6
aS'https://www.clarin.com/politica/Primera-cautelar-beneficia-San-Martin_0_1582641823.html'
p7
a.