(lp0
S'https://www.clarin.com/politica/Abad-Gomez-Centurion-podra-colaboradores_0_1667833224.html'
p1
aS'https://www.clarin.com/politica/Abad-Gomez-Centurion-podra-colaboradores_0_1667833224.html'
p2
aS'https://www.clarin.com/politica/Triaca-grupo-familiar-cantidad-hijos_0_1667833218.html'
p3
aS'https://www.clarin.com/politica/Triaca-grupo-familiar-cantidad-hijos_0_1667833218.html'
p4
aS'https://www.clarin.com/politica/Interna-insolita-Cambiemos-pelean-semanas_0_1667233416.html'
p5
aS'https://www.clarin.com/politica/Interna-insolita-Cambiemos-pelean-semanas_0_1667233416.html'
p6
aS'https://www.clarin.com/sociedad/Alerta-meteorologico-Capital-provincias_0_1667833213.html'
p7
aS'https://www.clarin.com/sociedad/Alerta-meteorologico-Capital-provincias_0_1667833213.html'
p8
aS'https://www.clarin.com/sociedad/manana-vuelos-cancelados-conflictos-gremiales_0_1667833212.html'
p9
aS'https://www.clarin.com/sociedad/manana-vuelos-cancelados-conflictos-gremiales_0_1667833212.html'
p10
aS'https://www.clarin.com/sociedad/Nobel-Literatura-Bob-Dylan_0_1667833210.html'
p11
aS'https://www.clarin.com/sociedad/Nobel-Literatura-Bob-Dylan_0_1667833210.html'
p12
aS'https://www.clarin.com/politica/CGT-Gobierno-dialogo-produccion-trabajo_0_1667833209.html'
p13
aS'https://www.clarin.com/politica/CGT-Gobierno-dialogo-produccion-trabajo_0_1667833209.html'
p14
a.