(lp0
S'https://www.clarin.com/opinion/Hace-anos-hermanas-Vietnam_0_1534646876.html'
p1
aS'https://www.clarin.com/opinion/Ludovica-Squirru-cuento-chino_0_1534646870.html'
p2
aS'https://www.clarin.com/opinion/Ludovica-Squirru-cuento-chino_0_1534646870.html'
p3
aS'https://www.clarin.com/opinion/Gils-Carbo-relacion-politico-Justicia_0_1535246480.html'
p4
aS'https://www.clarin.com/ieco/economista-Wall-Street-Banco-Central_0_1534646945.html'
p5
aS'https://www.clarin.com/politica/Guerra-despacho-Stiuso-SIDE-reventado_0_1534646936.html'
p6
aS'https://www.clarin.com/politica/Guerra-despacho-Stiuso-SIDE-reventado_0_1534646936.html'
p7
aS'https://www.clarin.com/politica/oposicion-reclama-Macri-millones_0_1534646850.html'
p8
aS'https://www.clarin.com/politica/oposicion-reclama-Macri-millones_0_1534646850.html'
p9
aS'https://www.clarin.com/politica/Gobierno-quiere-mostrar-gestion-optimista_0_1534646882.html'
p10
a.