(lp0
Vhttps://www.clarin.com/sociedad/Sudamerica-vivio-boom-demografico-anos_0_1554444990.html
p1
aVhttps://www.clarin.com/politica/PJ-unica-recorta-espacios-Campora_0_1554445090.html
p2
aVhttps://www.clarin.com/politica/Garzon-Moreno-Ocampo-nombrados-Cristina_0_1554445089.html
p3
aVhttps://www.clarin.com/politica/Garzon-Moreno-Ocampo-nombrados-Cristina_0_1554445089.html
p4
aVhttps://www.clarin.com/politica/Carrio-presiona-Macri-dice-impunidad_0_1554445097.html
p5
aVhttps://www.clarin.com/politica/Carrio-presiona-Macri-dice-impunidad_0_1554445097.html
p6
aVhttps://www.clarin.com/opinion/sociedad-conciencia-derecho-animales_0_1554444902.html
p7
aVhttps://www.clarin.com/sociedad/leyes-talles-cumplen-solo-mujeres_0_1554445036.html
p8
aVhttps://www.clarin.com/politica/Macri-anuncio-fideicomiso-administrara-fortuna_0_1554445086.html
p9
aVhttps://www.clarin.com/politica/Macri-anuncio-fideicomiso-administrara-fortuna_0_1554445086.html
p10
aVhttps://www.clarin.com/politica/Macri-pide-Justicia-aclare-situacion_0_1554445075.html
p11
aVhttps://www.clarin.com/politica/Macri-pide-Justicia-aclare-situacion_0_1554445075.html
p12
aVhttps://www.clarin.com/politica/Fideicomiso-decision-apurada-escandalo_0_1554445067.html
p13
aVhttps://www.clarin.com/politica/Fideicomiso-decision-apurada-escandalo_0_1554445067.html
p14
a.