(lp0
Vhttps://www.clarin.com/ieco/economia/YPF-acuerdo-empresa-noruega-explorar_0_1676832361.html
p1
aVhttps://www.clarin.com/ieco/economia/YPF-acuerdo-empresa-noruega-explorar_0_1676832361.html
p2
aVhttps://www.clarin.com/politica/Vidal-Lorenzetti-Massa-Macri-Carrio_0_1676832355.html
p3
aVhttps://www.clarin.com/politica/Vidal-Lorenzetti-Massa-Macri-Carrio_0_1676832355.html
p4
aVhttps://www.clarin.com/sociedad/Videos-fogonazos-turbina-conversacion-control_0_1676832351.html
p5
aVhttps://www.clarin.com/sociedad/Videos-fogonazos-turbina-conversacion-control_0_1676832351.html
p6
aVhttps://www.clarin.com/sociedad/video-Pen-Pineapple-Apple-Pen-entro-record-Guinness_0_1676832348.html
p7
aVhttps://www.clarin.com/sociedad/video-Pen-Pineapple-Apple-Pen-entro-record-Guinness_0_1676832348.html
p8
aVhttps://www.clarin.com/politica/Denunciaron-acceso-pagina-Poder-Judicial_0_1676232534.html
p9
aVhttps://www.clarin.com/politica/Denunciaron-acceso-pagina-Poder-Judicial_0_1676232534.html
p10
aVhttps://www.clarin.com/sociedad/Crean-Antartida-reserva-marina-mundo_0_1676832345.html
p11
aVhttps://www.clarin.com/sociedad/Crean-Antartida-reserva-marina-mundo_0_1676832345.html
p12
a.