(lp0
Vhttps://www.clarin.com/politica/Tarifas-Macri-mostrara-Tecnopolis-Corte_0_1634236578.html
p1
aVhttps://www.clarin.com/politica/Tarifas-Macri-mostrara-Tecnopolis-Corte_0_1634236578.html
p2
aVhttps://www.clarin.com/politica/Massa-celebro-Twitter-reeleccion-indefinida_0_1634236579.html
p3
aVhttps://www.clarin.com/politica/Massa-celebro-Twitter-reeleccion-indefinida_0_1634236579.html
p4
aVhttps://www.clarin.com/sociedad/Increible-Hospital-Clinicas-fuselaje-funciona_0_1633636803.html
p5
aVhttps://www.clarin.com/sociedad/Increible-Hospital-Clinicas-fuselaje-funciona_0_1633636803.html
p6
aVhttps://www.clarin.com/politica/gratificaciones-retiro-laboral-pagan-Ganancias_0_1634236573.html
p7
aVhttps://www.clarin.com/politica/gratificaciones-retiro-laboral-pagan-Ganancias_0_1634236573.html
p8
aVhttps://www.clarin.com/ieco/economia/crisis-fruta-crecio-importacion-Chile_0_1633636684.html
p9
aVhttps://www.clarin.com/ieco/economia/crisis-fruta-crecio-importacion-Chile_0_1633636684.html
p10
a.