(lp0
Vhttps://www.clarin.com/sociedad/Paro-oficinas-salieronal-mediodia-protestar_0_1671433013.html
p1
aVhttps://www.clarin.com/sociedad/Paro-oficinas-salieronal-mediodia-protestar_0_1671433013.html
p2
aVhttps://www.clarin.com/sociedad/primarias-publicas-perdieron-alumnos-ultimo_0_1671433006.html
p3
aVhttps://www.clarin.com/sociedad/primarias-publicas-perdieron-alumnos-ultimo_0_1671433006.html
p4
aVhttps://www.clarin.com/sociedad/jubilados-podran-volar-destinos-descuento_0_1671433009.html
p5
aVhttps://www.clarin.com/sociedad/jubilados-podran-volar-destinos-descuento_0_1671433009.html
p6
aVhttps://www.clarin.com/sociedad/prueba-Aprender-ayuda-escuela_0_1671433007.html
p7
aVhttps://www.clarin.com/sociedad/castores-Sur-primera-buscaran-erradicarlos_0_1671433005.html
p8
aVhttps://www.clarin.com/sociedad/castores-Sur-primera-buscaran-erradicarlos_0_1671433005.html
p9
aVhttps://www.clarin.com/politica/negocio-criticar-facturar_0_1671432987.html
p10
aVhttps://www.clarin.com/politica/negocio-criticar-facturar_0_1671432987.html
p11
aVhttps://www.clarin.com/politica/PJ-intendentes-definir-reclamos-Vidal_0_1671433004.html
p12
a.