(lp0
Vhttps://www.clarin.com/ieco/economia/Propusieron-candidatos-unidad-antilavado_0_1511249021.html
p1
aVhttps://www.clarin.com/ieco/economia/divisas-agro-ingresaron-mercado-financiero_0_1511249018.html
p2
aVhttps://www.clarin.com/politica/persecucion-detienen-legislador-oficialista-marihuana_0_1511249016.html
p3
aVhttps://www.clarin.com/politica/persecucion-detienen-legislador-oficialista-marihuana_0_1511249016.html
p4
aVhttps://www.clarin.com/sociedad/Demoras-cancelaciones-LAN-reclamo-aeronauticos_0_1511249007.html
p5
aVhttps://www.clarin.com/ieco/economia/credito_puente-millones_0_1510649403.html
p6
aVhttps://www.clarin.com/opinion/Diana_Baccaro_0_1511248937.html
p7
aVhttps://www.clarin.com/sociedad/batallas-madre_0_1511248927.html
p8
aVhttps://www.clarin.com/opinion/Nadie-cuida-cuidacoches_0_1511248925.html
p9
a.