(lp0
S'https://www.clarin.com/ieco/economia/Hillarynomics-Paul-Krugman_0_1631836813.html'
p1
aS'https://www.clarin.com/sociedad/pifia-bellisima-sociedad_0_1631236977.html'
p2
aS'https://www.clarin.com/ieco/economia/Fabricando-comunidades_0_1631836822.html'
p3
aS'https://www.clarin.com/ieco/economia/claves-sinceramiento_0_1631836819.html'
p4
aS'https://www.clarin.com/ieco/economia/Cordoba-mundo_0_1631836821.html'
p5
aS'https://www.clarin.com/ieco/Gobierno-apuesta-volver-crecer-inflacion_0_1631237034.html'
p6
aS'https://www.clarin.com/ieco/economia/Megabancos-pequenas-empresas-Wall-Street_0_1631836810.html'
p7
aS'https://www.clarin.com/ieco/economia/Nube-nueva-revolucion-industrial_0_1631836811.html'
p8
aS'https://www.clarin.com/ieco/economia/Consenso-economistas-deficit-fiscal-achicaria_0_1631836812.html'
p9
a.