(lp0
Vhttps://www.clarin.com/politica/Malvinas-Argentina-Gran_Bretana-soberania_0_1520848116.html
p1
aVhttps://www.clarin.com/politica/Malvinas-Argentina-Gran_Bretana-soberania_0_1520848116.html
p2
aVhttps://www.clarin.com/politica/Urtubey-optimista-relacion-Gobierno-Congreso_0_1520848103.html
p3
aVhttps://www.clarin.com/politica/Urtubey-optimista-relacion-Gobierno-Congreso_0_1520848103.html
p4
aVhttps://www.clarin.com/sociedad/elefante-salvaje-provoca-destrozos-India_0_1520848100.html
p5
aVhttps://www.clarin.com/sociedad/elefante-salvaje-provoca-destrozos-India_0_1520848100.html
p6
aVhttps://www.clarin.com/ieco/economia/Banco-Nacion-otorgara-creditos-jubilados_0_1520848096.html
p7
aVhttps://www.clarin.com/ieco/economia/Banco-Nacion-otorgara-creditos-jubilados_0_1520848096.html
p8
aVhttps://www.clarin.com/sociedad/abril-DNI-tarjeta-unico-valido_0_1520848094.html
p9
aVhttps://www.clarin.com/sociedad/abril-DNI-tarjeta-unico-valido_0_1520848094.html
p10
aVhttps://www.clarin.com/politica/Procesaron-Guillermo-Moreno-merchandising-Clar_0_1520848092.html
p11
aVhttps://www.clarin.com/politica/Procesaron-Guillermo-Moreno-merchandising-Clar_0_1520848092.html
p12
aVhttps://www.clarin.com/sociedad/crucero-tormenta-Royal_Caribbean-fotos-Anthem_of_The_Seas_0_1520848056.html
p13
aVhttps://www.clarin.com/sociedad/crucero-tormenta-Royal_Caribbean-fotos-Anthem_of_The_Seas_0_1520848056.html
p14
a.