(lp0
Vhttps://www.clarin.com/politica/Lavagna-crecimiento-ano-inflacion-cerrara_0_1651035091.html
p1
aVhttps://www.clarin.com/politica/Lavagna-crecimiento-ano-inflacion-cerrara_0_1651035091.html
p2
aVhttps://www.clarin.com/politica/Michetti-empleado-Senado-insultando-Cristina_0_1651035088.html
p3
aVhttps://www.clarin.com/politica/Michetti-empleado-Senado-insultando-Cristina_0_1651035088.html
p4
aVhttps://www.clarin.com/sociedad/Vuelven-Barrick-Gold-despiden-gerente_0_1651035087.html
p5
aVhttps://www.clarin.com/sociedad/Vuelven-Barrick-Gold-despiden-gerente_0_1651035087.html
p6
aVhttps://www.clarin.com/politica/Suma-apoyos-acceso-informacion-publica_0_1651035073.html
p7
aVhttps://www.clarin.com/politica/Suma-apoyos-acceso-informacion-publica_0_1651035073.html
p8
aVhttps://www.clarin.com/politica/Secuestran-documentos-UTN-Rio-Gallegos_0_1651035085.html
p9
aVhttps://www.clarin.com/politica/Secuestran-documentos-UTN-Rio-Gallegos_0_1651035085.html
p10
aVhttps://www.clarin.com/sociedad/podra-cambiar-carrera-repetir-materias_0_1651035081.html
p11
aVhttps://www.clarin.com/sociedad/dolar-adelantan-reservas-veranear-afuera_0_1651035065.html
p12
aVhttps://www.clarin.com/sociedad/dolar-adelantan-reservas-veranear-afuera_0_1651035065.html
p13
aVhttps://www.clarin.com/politica/oposicion-Presupuesto-optimista_0_1651035080.html
p14
a.