(lp0
Vhttps://www.clarin.com/politica/paridad-prenda-acuerdo-reforma-politica_0_1652234818.html
p1
aVhttps://www.clarin.com/politica/Lazaro-Baez-entrar-moratoria-Gobierno_0_1651634976.html
p2
aVhttps://www.clarin.com/politica/Lazaro-Baez-entrar-moratoria-Gobierno_0_1651634976.html
p3
aVhttps://www.clarin.com/politica/exquista-cava-propiedaes-sciolista-dragon_0_1651634984.html
p4
aVhttps://www.clarin.com/politica/exquista-cava-propiedaes-sciolista-dragon_0_1651634984.html
p5
aVhttps://www.clarin.com/politica/Macri-Federacion-Agraria-escuchar-reclamos_0_1652234817.html
p6
aVhttps://www.clarin.com/opinion/eliminar-Ganancias-tarifazo-Di-Stefano_0_1652234815.html
p7
aVhttps://www.clarin.com/opinion/Aerolineas-Malcorra_0_1652234814.html
p8
aVhttps://www.clarin.com/opinion/Rosario-sangra_0_1652234813.html
p9
aVhttps://www.clarin.com/sociedad/chicos-participaran-prueba-nacional_0_1651635037.html
p10
aVhttps://www.clarin.com/sociedad/chicos-participaran-prueba-nacional_0_1651635037.html
p11
aVhttps://www.clarin.com/sociedad/herramienta-actuar-problemas_0_1651635032.html
p12
aVhttps://www.clarin.com/sociedad/evaluacion-camino-aprendizaje-mejora_0_1651635030.html
p13
a.