(lp0
S'https://www.clarin.com/politica/Mauricio-Macri-viajaria-Villa-Angostura_0_1547845445.html'
p1
aS'https://www.clarin.com/politica/Mauricio-Macri-viajaria-Villa-Angostura_0_1547845445.html'
p2
aS'https://www.clarin.com/sociedad/enigma-Pascua-volvio-viral-huevo_0_1547845406.html'
p3
aS'https://www.clarin.com/sociedad/enigma-Pascua-volvio-viral-huevo_0_1547845406.html'
p4
aS'https://www.clarin.com/politica/Stolbizer-disponible-jueza-Corte-Suprema_0_1547845414.html'
p5
aS'https://www.clarin.com/politica/Stolbizer-disponible-jueza-Corte-Suprema_0_1547845414.html'
p6
aS'https://www.clarin.com/politica/Nancy-Duplaa-Rosadita-contando-plata_0_1547845408.html'
p7
aS'https://www.clarin.com/politica/Nancy-Duplaa-Rosadita-contando-plata_0_1547845408.html'
p8
aS'https://www.clarin.com/politica/Acuerdan-aumento-abono-telefonia-fija_0_1547845401.html'
p9
aS'https://www.clarin.com/politica/Acuerdan-aumento-abono-telefonia-fija_0_1547845401.html'
p10
a.