(lp0
S'https://www.clarin.com/ieco/economia/estatales-bonaerenses-rechazaron-oferta-Vidal_0_1534046769.html'
p1
aS'https://www.clarin.com/ieco/economia/ventas-Central-siguio-cayendo-cerro_0_1534046764.html'
p2
aS'https://www.clarin.com/politica/Moyano-apoye-Macri-campana-siquiera_0_1534046779.html'
p3
aS'https://www.clarin.com/ieco/provincias-preparan-emitir-deuda_0_1534046761.html'
p4
a.