(lp0
S'https://www.clarin.com/opinion/Luchar-pobreza-implica-proteger-infancia_0_1624037705.html'
p1
aS'https://www.clarin.com/opinion/Luchar-pobreza-implica-proteger-infancia_0_1624037705.html'
p2
aS'https://www.clarin.com/politica/fiscal-sigue-acusando_0_1625237464.html'
p3
aS'https://www.clarin.com/sociedad/Cruces-tiempo-seguira-faltando-manteca_0_1624637693.html'
p4
aS'https://www.clarin.com/sociedad/Cruces-tiempo-seguira-faltando-manteca_0_1624637693.html'
p5
aS'https://www.clarin.com/politica/Libertad-expresion-Macri-declaracion-Chapultepec_0_1624637712.html'
p6
aS'https://www.clarin.com/politica/Retoques-Senado-proyectos-clave-corrupcion_0_1624637719.html'
p7
a.