(lp0
Vhttps://www.clarin.com/ieco/oposicion-analizara-lupa-presupuesto_0_1651034959.html
p1
aVhttps://www.clarin.com/ieco/oposicion-analizara-lupa-presupuesto_0_1651034959.html
p2
aVhttps://www.clarin.com/ieco/Reparacion-Historica-jubilados-consultar-recalculado_0_1651034958.html
p3
aVhttps://www.clarin.com/ieco/Reparacion-Historica-jubilados-consultar-recalculado_0_1651034958.html
p4
aVhttps://www.clarin.com/ieco/economia/Audiencia-Kicillof-Weretilneck-Samid-expositores_0_1651034956.html
p5
aVhttps://www.clarin.com/ieco/economia/Audiencia-Kicillof-Weretilneck-Samid-expositores_0_1651034956.html
p6
aVhttps://www.clarin.com/sociedad/minera-Barrick-insiste-dano-ambiental_0_1651034952.html
p7
aVhttps://www.clarin.com/sociedad/minera-Barrick-insiste-dano-ambiental_0_1651034952.html
p8
aVhttps://www.clarin.com/ieco/dolar-sube-centavo_0_1651034950.html
p9
aVhttps://www.clarin.com/ieco/dolar-sube-centavo_0_1651034950.html
p10
aVhttps://www.clarin.com/ieco/economia/retribucion-dependera-solo-tiempo-trabajo_0_1651034946.html
p11
aVhttps://www.clarin.com/ieco/Gobierno-admite-crecera-deficit-fiscal_0_1651034945.html
p12
aVhttps://www.clarin.com/ieco/Gobierno-admite-crecera-deficit-fiscal_0_1651034945.html
p13
a.