(lp0
Vhttps://www.clarin.com/sociedad/muerte-Topo-Lopez-reclama-seguro_0_1680431986.html
p1
aVhttps://www.clarin.com/sociedad/muerte-Topo-Lopez-reclama-seguro_0_1680431986.html
p2
aVhttps://www.clarin.com/sociedad/Video-estrello-haciendo-vivio-contarlo_0_1680431989.html
p3
aVhttps://www.clarin.com/sociedad/Video-estrello-haciendo-vivio-contarlo_0_1680431989.html
p4
aVhttps://www.clarin.com/ieco/economia/Viacom-quedarse-Telefe-US-millones_0_1680431992.html
p5
aVhttps://www.clarin.com/ieco/economia/Viacom-quedarse-Telefe-US-millones_0_1680431992.html
p6
aVhttps://www.clarin.com/sociedad/SIP-constitucionalista-Gregorio-Badeni-libertad_0_1680431987.html
p7
aVhttps://www.clarin.com/sociedad/SIP-constitucionalista-Gregorio-Badeni-libertad_0_1680431987.html
p8
aVhttps://www.clarin.com/politica/Interna-publicos-abogados-familia-Baez_0_1680431982.html
p9
aVhttps://www.clarin.com/politica/Interna-publicos-abogados-familia-Baez_0_1680431982.html
p10
aVhttps://www.clarin.com/sociedad/Video-homenaje-ensena-salvar-vidas_0_1680431978.html
p11
aVhttps://www.clarin.com/sociedad/Video-homenaje-ensena-salvar-vidas_0_1680431978.html
p12
aVhttps://www.clarin.com/ieco/Gobierno-analiza-ampliar-Ahora_0_1680431975.html
p13
aVhttps://www.clarin.com/ieco/Gobierno-analiza-ampliar-Ahora_0_1680431975.html
p14
aVhttps://www.clarin.com/politica/Involucran-gremio-CGT-afiliados-SMATA_0_1680431974.html
p15
aVhttps://www.clarin.com/politica/Involucran-gremio-CGT-afiliados-SMATA_0_1680431974.html
p16
a.