(lp0
Vhttps://www.clarin.com/sociedad/escuela-primaria-inclusion-escaso-aprendizaje_0_1651635042.html
p1
aVhttps://www.clarin.com/sociedad/escuela-primaria-inclusion-escaso-aprendizaje_0_1651635042.html
p2
aVhttps://www.clarin.com/sociedad/Incide-oportunidades-futura-calidad-vida_0_1651635040.html
p3
aVhttps://www.clarin.com/sociedad/Proponen-fomentar-pensamiento-cientifico-partir_0_1651635039.html
p4
aVhttps://www.clarin.com/politica/Julia-Pomares-Sigue-obstaculos-candidatas_0_1651635038.html
p5
aVhttps://www.clarin.com/politica/Julia-Pomares-Sigue-obstaculos-candidatas_0_1651635038.html
p6
aVhttps://www.clarin.com/sociedad/aventura-educar-mentes-curiosas_0_1651635036.html
p7
aVhttps://www.clarin.com/politica/Moreno-Luis-Majul-Dario-Loperfido_0_1651635034.html
p8
aVhttps://www.clarin.com/politica/Moreno-Luis-Majul-Dario-Loperfido_0_1651635034.html
p9
aVhttps://www.clarin.com/sociedad/Surgen-nuevos-paradigmas-ferias-ciencias_0_1651635035.html
p10
aVhttps://www.clarin.com/sociedad/pilotos-levantaron-paro-problemas-martes_0_1651635033.html
p11
aVhttps://www.clarin.com/sociedad/pilotos-levantaron-paro-problemas-martes_0_1651635033.html
p12
aVhttps://www.clarin.com/politica/paridad-prenda-acuerdo-reforma-politica_0_1651635031.html
p13
aVhttps://www.clarin.com/politica/Embargaron-bienes-Lazaro-Baez_0_1651635029.html
p14
aVhttps://www.clarin.com/sociedad/inauguro-Festival-Internacional-Cuentacuentos_0_1651635028.html
p15
a.