(lp0
S'https://www.clarin.com/ieco/economia/Renault-produccion-nuevo-duplica-personal_0_1675032660.html'
p1
aS'https://www.clarin.com/politica/Schiaretti-Macri-firman-convenio-Cordoba_0_1675032666.html'
p2
a.