(lp0
S'https://www.clarin.com/ieco/agrava-conflicto-empresa-agroindustrial-Salta_0_1615038553.html'
p1
aS'https://www.clarin.com/politica/Afirman-AFI-oculto-pruebas-AMIA_0_1615038591.html'
p2
aS'https://www.clarin.com/politica/Indagaran-Parrilli-proteger-Perez-Corradi_0_1615038549.html'
p3
aS'https://www.clarin.com/politica/final-Macri-acto-aniversario-atentado_0_1615038537.html'
p4
aS'https://www.clarin.com/politica/Macri-Bourne-Chaqueno-Salta_0_1615038585.html'
p5
aS'https://www.clarin.com/politica/Schoklender-Lopez-arquitecto-patrimonial-Kirchner_0_1615038588.html'
p6
aS'https://www.clarin.com/ieco/economia/Argentina-pais-caro-distorsion-precios_0_1615038590.html'
p7
aS'https://www.clarin.com/sociedad/Darle-lugar-tiempo-interno_0_1615038581.html'
p8
aS'https://www.clarin.com/politica/conmemoraciones_0_1615038572.html'
p9
a.