(lp0
S'https://www.clarin.com/ieco/economia/escasez-profesionales-tecnicos-industria-vino_0_1639036231.html'
p1
aS'https://www.clarin.com/opinion/Malvinas-tentacion-volver-politica-seduccion_0_1639636161.html'
p2
aS'https://www.clarin.com/opinion/sociales-afirman-ciudadano-politicos-invisibilizan_0_1639636154.html'
p3
aS'https://www.clarin.com/opinion/capitalismo-china-crujiendo_0_1639636157.html'
p4
aS'https://www.clarin.com/politica/Macri-Sanz-Morales-peronismo-Senado_0_1639036113.html'
p5
aS'https://www.clarin.com/opinion/sombra-Milani-persigue-Macri_0_1640235966.html'
p6
aS'https://www.clarin.com/sociedad/Aparecio-estudiante-rosarina-buscada-Brasil_0_1640235973.html'
p7
a.