(lp0
Vhttps://www.clarin.com/politica/UCR-cumbre-pedir-pista-listas_0_1597040461.html
p1
aVhttps://www.clarin.com/politica/Diferencias-semejanzas-Tecnopolis-kirchnerista_0_1597040459.html
p2
aVhttps://www.clarin.com/politica/caso-Lopez-sigue-prensa-extranjera_0_1597040455.html
p3
aVhttps://www.clarin.com/politica/caso-Lopez-sigue-prensa-extranjera_0_1597040455.html
p4
a.