(lp0
Vhttps://www.clarin.com/politica/partido-Carrio-votara-Macri-AFI_0_1625837553.html
p1
aVhttps://www.clarin.com/politica/partido-Carrio-votara-Macri-AFI_0_1625837553.html
p2
aVhttps://www.clarin.com/ieco/economia/Brasil-EEUU-Canada-importacion-Argentina_0_1625837542.html
p3
aVhttps://www.clarin.com/politica/ordeno-detener-Bonafini-pasara-comisaria_0_1625837511.html
p4
aVhttps://www.clarin.com/politica/ordeno-detener-Bonafini-pasara-comisaria_0_1625837511.html
p5
aVhttps://www.clarin.com/politica/Aerolineas-reclama-Bariloche-cedido-Recalde_0_1625837535.html
p6
aVhttps://www.clarin.com/politica/Aerolineas-reclama-Bariloche-cedido-Recalde_0_1625837535.html
p7
a.