(lp0
S'https://www.clarin.com/politica/Encuesta-Macri-Vidal-Larreta-mejor_0_1589841095.html'
p1
aS'https://www.clarin.com/politica/Sospechosa-demora-ley-arrepentido-corrupcion_0_1589841100.html'
p2
aS'https://www.clarin.com/politica/aprueba-feriado-nacional-Macri-vetaria_0_1589841104.html'
p3
aS'https://www.clarin.com/politica/chicos-GBA-presenta-deficit-nutricion_0_1585641533.html'
p4
aS'https://www.clarin.com/ieco/economia/CAME-ventas-minoristas-cayeron-mayo_0_1589841094.html'
p5
aS'https://www.clarin.com/ieco/economia/Atucha-III-IV-hacer-chinos_0_1589841106.html'
p6
a.