(lp0
S'https://www.clarin.com/sociedad/metio-contramano-choco-autos-estacionados_0_1639636098.html'
p1
aS'https://www.clarin.com/sociedad/metio-contramano-choco-autos-estacionados_0_1639636098.html'
p2
aS'https://www.clarin.com/politica/Dudas-distribuidoras-refacturacion_0_1639036274.html'
p3
aS'https://www.clarin.com/politica/Bullrich-protesta-afirma-buscan-Gobierno_0_1639636096.html'
p4
aS'https://www.clarin.com/politica/Bullrich-protesta-afirma-buscan-Gobierno_0_1639636096.html'
p5
aS'https://www.clarin.com/sociedad/muestran-criticos-incendio-San-Luis_0_1639636092.html'
p6
aS'https://www.clarin.com/sociedad/muestran-criticos-incendio-San-Luis_0_1639636092.html'
p7
aS'https://www.clarin.com/sociedad/San-Luis-controlan-pobladas-sierras_0_1639636089.html'
p8
aS'https://www.clarin.com/sociedad/San-Luis-controlan-pobladas-sierras_0_1639636089.html'
p9
a.