(lp0
S'https://www.clarin.com/sociedad/inteligencia-artificial-todavia-superar-Medicina_0_1666033452.html'
p1
aS'https://www.clarin.com/sociedad/denunciaron-violencia-encontro-arsenal-objetos_0_1666033454.html'
p2
aS'https://www.clarin.com/sociedad/Amenazo-hijos-novia-mujer-asesino_0_1666033457.html'
p3
aS'https://www.clarin.com/ieco/Nobel-Economia-Hart-Holmstrom-contratos_0_1666033459.html'
p4
aS'https://www.clarin.com/politica/senadores-radicales-infarto-pusieron-stents_0_1666033450.html'
p5
a.