(lp0
S'https://www.clarin.com/ieco/economia/invertir-fallar-predicciones_0_1687031415.html'
p1
aS'https://www.clarin.com/ieco/economia/invertir-fallar-predicciones_0_1687031415.html'
p2
aS'https://www.clarin.com/opinion/romper-mirada-sustentable-sofisticado_0_1687031407.html'
p3
aS'https://www.clarin.com/opinion/romper-mirada-sustentable-sofisticado_0_1687031407.html'
p4
aS'https://www.clarin.com/sociedad/Desesperado-pedido-argentino-accidentado-Peru_0_1687031400.html'
p5
aS'https://www.clarin.com/sociedad/Desesperado-pedido-argentino-accidentado-Peru_0_1687031400.html'
p6
aS'https://www.clarin.com/politica/Aduana-preventiva-Cuqui-Barreiro-Laborda_0_1687031399.html'
p7
aS'https://www.clarin.com/politica/Aduana-preventiva-Cuqui-Barreiro-Laborda_0_1687031399.html'
p8
a.