(lp0
S'https://www.clarin.com/politica/Macri-sento-perro-sillon-presidencial_0_1505849744.html'
p1
aS'https://www.clarin.com/politica/Macri-sento-perro-sillon-presidencial_0_1505849744.html'
p2
aS'https://www.clarin.com/opinion/Silvia_Fesquet_0_1505849747.html'
p3
aS'https://www.clarin.com/opinion/Alberto_Amato_0_1505849745.html'
p4
aS'https://www.clarin.com/opinion/Marcelo_A-_Moreno_0_1505849739.html'
p5
a.