(lp0
S'https://www.clarin.com/politica/Relats-intiman-Kirchner-recibir-llaves_0_1642635872.html'
p1
aS'https://www.clarin.com/politica/Relats-intiman-Kirchner-recibir-llaves_0_1642635872.html'
p2
aS'https://www.clarin.com/politica/Stolbizer-Vidal-Massa-pidio-corrupcion_0_1642635951.html'
p3
aS'https://www.clarin.com/politica/Stolbizer-Vidal-Massa-pidio-corrupcion_0_1642635951.html'
p4
aS'https://www.clarin.com/politica/espionaje-AFI-Gomez-Centurion-meses_0_1642635941.html'
p5
aS'https://www.clarin.com/politica/espionaje-AFI-Gomez-Centurion-meses_0_1642635941.html'
p6
a.