(lp0
S'https://www.clarin.com/politica/misteriosos-millones-jubilados-Banco-Provincia_0_1681032049.html'
p1
aS'https://www.clarin.com/sociedad/Prevencion-investigacion-ejes-combatir-droga_0_1681032043.html'
p2
aS'https://www.clarin.com/sociedad/amedrentamiento-testigos-caracteristica-crimen-organizado_0_1681032030.html'
p3
aS'https://www.clarin.com/opinion/Ley-Educacion-letra-muerta_0_1681032036.html'
p4
aS'https://www.clarin.com/opinion/EEUU-frente-eleccion-siglo_0_1681032029.html'
p5
aS'https://www.clarin.com/ieco/afterwork/burbujas-rinden_0_1681032048.html'
p6
aS'https://www.clarin.com/sociedad/mosquitos-vuelta-polemica-vacuna-dengue_0_1681032034.html'
p7
aS'https://www.clarin.com/ieco/economia/bodegas-dependencia-Malbec-mercados-externos_0_1681032032.html'
p8
a.