(lp0
S'https://www.clarin.com/opinion/Merecemos-oportunidad_0_1661233925.html'
p1
aS'https://www.clarin.com/sociedad/indiferentes-pobreza-cardenal-Poli-Lujan_0_1661233926.html'
p2
aS'https://www.clarin.com/ieco/campus-ieco/proyecto-cientifico-argentino-competira-Espana_0_1660034111.html'
p3
aS'https://www.clarin.com/ieco/campus-ieco/funciona-sirve-pensamiento-diseno_0_1660034142.html'
p4
aS'https://www.clarin.com/ieco/Gerchunoff-Argentina-trampa-condenada-exito_0_1661233923.html'
p5
aS'https://www.clarin.com/ieco/economia/hackaton-corporativo-ruta-lograr-innovacion_0_1660034104.html'
p6
aS'https://www.clarin.com/sociedad/Belleza-XL-convocatoria-desfilar-grandes_0_1659434166.html'
p7
a.