(lp0
S'https://www.clarin.com/ieco/economia/enfrio-Vaca-Muerta-igual-promesa_0_1621638034.html'
p1
aS'https://www.clarin.com/ieco/economia/enfrio-Vaca-Muerta-igual-promesa_0_1621638034.html'
p2
aS'https://www.clarin.com/ieco/consultaron-mil-jubilados-reajuste_0_1621638026.html'
p3
aS'https://www.clarin.com/ieco/economia/desplomaron-industria-construccion_0_1621637956.html'
p4
aS'https://www.clarin.com/politica/Duros-cruces-Gobierno-supermercados-inflacion_0_1621638002.html'
p5
aS'https://www.clarin.com/politica/Duros-cruces-Gobierno-supermercados-inflacion_0_1621638002.html'
p6
aS'https://www.clarin.com/politica/Pena-advierte-tarde-temprano-pagar_0_1621637901.html'
p7
aS'https://www.clarin.com/politica/Pena-advierte-tarde-temprano-pagar_0_1621637901.html'
p8
aS'https://www.clarin.com/politica/empresarios-vinculados-Vido-US-millones_0_1621638028.html'
p9
aS'https://www.clarin.com/politica/empresarios-vinculados-Vido-US-millones_0_1621638028.html'
p10
aS'https://www.clarin.com/sociedad/Peligra-normal-reinicio-clases-Provincia_0_1621638013.html'
p11
aS'https://www.clarin.com/opinion/Crimenes-honor-argumentos-matar-distinto_0_1621637998.html'
p12
aS'https://www.clarin.com/opinion/Boletas-luz-guia-racional-ahorrar_0_1621637954.html'
p13
a.