(lp0
Vhttps://www.clarin.com/politica/senador-explico-intento-salir-US_0_1617438345.html
p1
aVhttps://www.clarin.com/politica/senador-explico-intento-salir-US_0_1617438345.html
p2
aVhttps://www.clarin.com/sociedad/nuevo-dino-Gigantes-ladrones-Patagonia_0_1617438342.html
p3
aVhttps://www.clarin.com/sociedad/nuevo-dino-Gigantes-ladrones-Patagonia_0_1617438342.html
p4
aVhttps://www.clarin.com/sociedad/argentino-deslumbrar-reality-talentos-EEUU_0_1617438327.html
p5
aVhttps://www.clarin.com/sociedad/argentino-deslumbrar-reality-talentos-EEUU_0_1617438327.html
p6
aVhttps://www.clarin.com/sociedad/Video-volando-tobogan-acuatico-acantilado_0_1617438338.html
p7
aVhttps://www.clarin.com/sociedad/Video-volando-tobogan-acuatico-acantilado_0_1617438338.html
p8
aVhttps://www.clarin.com/ieco/economia/Paro-transportistas-Santa-Fe-Cordoba_0_1617438334.html
p9
aVhttps://www.clarin.com/ieco/economia/Paro-transportistas-Santa-Fe-Cordoba_0_1617438334.html
p10
aVhttps://www.clarin.com/politica/AMIA-Velayati-entro-Singapur-Malasia_0_1617438321.html
p11
aVhttps://www.clarin.com/politica/AMIA-Velayati-entro-Singapur-Malasia_0_1617438321.html
p12
a.