(lp0
S'https://www.clarin.com/politica/Jose-Lopez-Insaurralde-Puerto-Madero_0_1604239655.html'
p1
aS'https://www.clarin.com/ieco/economia/Cortan-venta-GNC_0_1604239650.html'
p2
aS'https://www.clarin.com/sociedad/Insolito-drone-capturo-pareja-monasterio_0_1604239651.html'
p3
aS'https://www.clarin.com/politica/Oficina-Anticorrupcion-Justicia-expediente-Aranguren_0_1604239646.html'
p4
aS'https://www.clarin.com/politica/Baez-volvio-pedir-aparten-Casanello_0_1604239647.html'
p5
a.