(lp0
Vhttps://www.clarin.com/ieco/economia/Gobierno-organizara-foro-atraer-inversiones_0_1570043088.html
p1
aVhttps://www.clarin.com/politica/Argentina-analiza-comprar-helicopteros-Rusia_0_1570043080.html
p2
aVhttps://www.clarin.com/politica/Argentina-analiza-comprar-helicopteros-Rusia_0_1570043080.html
p3
aVhttps://www.clarin.com/sociedad/Despues-volvio-arrancar-primeros-motores_0_1569443071.html
p4
aVhttps://www.clarin.com/sociedad/Despues-volvio-arrancar-primeros-motores_0_1569443071.html
p5
aVhttps://www.clarin.com/sociedad/pareja-torturaba-mujeres-casa-horrores_0_1570043077.html
p6
aVhttps://www.clarin.com/sociedad/pareja-torturaba-mujeres-casa-horrores_0_1570043077.html
p7
a.