(lp0
S'https://www.clarin.com/sociedad/Gestos-insolidarios-falta-soluciones_0_1620437943.html'
p1
aS'https://www.clarin.com/opinion/goles-unen_0_1619838153.html'
p2
aS'https://www.clarin.com/politica/guerra-tuits-husmear-vida-ajena_0_1620437942.html'
p3
aS'https://www.clarin.com/sociedad/vecinos-Lujan-favor-restriccion_0_1619838177.html'
p4
aS'https://www.clarin.com/sociedad/riesgos-aconsejan-realizar-partos-caseros_0_1619838182.html'
p5
aS'https://www.clarin.com/sociedad/Bajan-muertes-cancer-falta-prevencion_0_1619838183.html'
p6
aS'https://www.clarin.com/sociedad/Hospitales-vecinos-acotan-Conurbano-polemica_0_1619838176.html'
p7
aS'https://www.clarin.com/sociedad/Capital-mitad-pacientes-llegan-portenos_0_1619838178.html'
p8
a.