(lp0
S'https://www.clarin.com/opinion/Jardines-infantes-unidad-economica-Macri_0_1678632125.html'
p1
aS'https://www.clarin.com/politica/Polemica-suba-dietas-Congreso_0_1678032274.html'
p2
aS'https://www.clarin.com/politica/Cristina-corrupcion-arranca-judicial-caliente_0_1678032237.html'
p3
aS'https://www.clarin.com/politica/Reproches-tension-dificiles-acuerdos_0_1678632124.html'
p4
aS'https://www.clarin.com/opinion/Chicos-armados-derrame-inseguridad_0_1678632121.html'
p5
aS'https://www.clarin.com/politica/Video-Lanata-gobiernos-Ecuador-Venezuela_0_1678032277.html'
p6
aS'https://www.clarin.com/politica/penal-Maximo-Polino-politica_0_1678032273.html'
p7
aS'https://www.clarin.com/politica/presidenta-despego-Baez-vinculos-unen_0_1678632123.html'
p8
aS'https://www.clarin.com/politica/Libre-podria-detener-Cristina-ahora_0_1678032229.html'
p9
aS'https://www.clarin.com/politica/Llega-contingente-efectivos-federales-Conurbano_0_1678032228.html'
p10
a.