(lp0
Vhttps://www.clarin.com/politica/Vido-Gobierno-mentira-invirtio-energia_0_1609039331.html
p1
aVhttps://www.clarin.com/politica/Vido-Gobierno-mentira-invirtio-energia_0_1609039331.html
p2
aVhttps://www.clarin.com/ieco/Optimismo-Espana-acuerdo-Mercosur-UE_0_1609039329.html
p3
aVhttps://www.clarin.com/sociedad/Series-TV-fuerte-control-contenidos_0_1609039327.html
p4
aVhttps://www.clarin.com/sociedad/Series-TV-fuerte-control-contenidos_0_1609039327.html
p5
aVhttps://www.clarin.com/ieco/Ollas-populares-frente-supermercados_0_1609039326.html
p6
aVhttps://www.clarin.com/politica/Federal-rastros-Casanello-residencia-Olivos_0_1609039320.html
p7
aVhttps://www.clarin.com/politica/Federal-rastros-Casanello-residencia-Olivos_0_1609039320.html
p8
aVhttps://www.clarin.com/politica/Gobierno-admiten-quedaron-anunciar-aumentos_0_1609039303.html
p9
aVhttps://www.clarin.com/sociedad/Abanderados-descalzos-foto-puede-repetirse_0_1609039316.html
p10
aVhttps://www.clarin.com/sociedad/imagino-pais-pobres-educacion_0_1609039315.html
p11
aVhttps://www.clarin.com/sociedad/jovenes-mayores-aprovechar-oportunidad-historica_0_1609039311.html
p12
aVhttps://www.clarin.com/sociedad/jovenes-mayores-aprovechar-oportunidad-historica_0_1609039311.html
p13
a.