(lp0
Vhttps://www.clarin.com/politica/San-Cayetano-mensaje-Iglesia-desocupacion_0_1627637296.html
p1
aVhttps://www.clarin.com/politica/San-Cayetano-mensaje-Iglesia-desocupacion_0_1627637296.html
p2
aVhttps://www.clarin.com/politica/ataque-furia-CFK-Twitter-medianoche_0_1627637294.html
p3
aVhttps://www.clarin.com/politica/ataque-furia-CFK-Twitter-medianoche_0_1627637294.html
p4
aVhttps://www.clarin.com/ieco/economia/recesion-puso-techo-aceleracion-inflacion_0_1627637246.html
p5
aVhttps://www.clarin.com/ieco/economia/recesion-puso-techo-aceleracion-inflacion_0_1627637246.html
p6
aVhttps://www.clarin.com/ieco/economia/Gobierno-limites-industria-electronica-fueguina_0_1627637248.html
p7
aVhttps://www.clarin.com/ieco/economia/Gobierno-limites-industria-electronica-fueguina_0_1627637248.html
p8
aVhttps://www.clarin.com/ieco/economia/Producir-energia-basura_0_1627637253.html
p9
aVhttps://www.clarin.com/ieco/economia/Producir-energia-basura_0_1627637253.html
p10
aVhttps://www.clarin.com/sociedad/bloguera-fitness-conmociona-Nueva-York_0_1627637289.html
p11
aVhttps://www.clarin.com/sociedad/bloguera-fitness-conmociona-Nueva-York_0_1627637289.html
p12
aVhttps://www.clarin.com/sociedad/Convirtio-muerto-quiere-fabricar-helicoptero_0_1627637291.html
p13
aVhttps://www.clarin.com/sociedad/Convirtio-muerto-quiere-fabricar-helicoptero_0_1627637291.html
p14
aVhttps://www.clarin.com/ieco/economia/Llego-streaming-deportivo_0_1627637262.html
p15
aVhttps://www.clarin.com/ieco/economia/Llego-streaming-deportivo_0_1627637262.html
p16
aVhttps://www.clarin.com/politica/Stolbizer-afirma-tranquila-mediacion-Cristina_0_1627637285.html
p17
aVhttps://www.clarin.com/politica/Stolbizer-afirma-tranquila-mediacion-Cristina_0_1627637285.html
p18
a.