(lp0
Vhttps://www.clarin.com/politica/obras-senaladas-fiscales-complican-Baez_0_1679832041.html
p1
aVhttps://www.clarin.com/politica/obras-senaladas-fiscales-complican-Baez_0_1679832041.html
p2
aVhttps://www.clarin.com/sociedad/Condenan-incumplir-deber-seguridad-femicidio_0_1679832042.html
p3
aVhttps://www.clarin.com/sociedad/Condenan-incumplir-deber-seguridad-femicidio_0_1679832042.html
p4
aVhttps://www.clarin.com/ieco/Presupuesto-deparara_0_1679832038.html
p5
aVhttps://www.clarin.com/ieco/Presupuesto-deparara_0_1679832038.html
p6
aVhttps://www.clarin.com/politica/presidencial-Macri-hashtag-polemica-Mirtha_0_1679832028.html
p7
aVhttps://www.clarin.com/politica/presidencial-Macri-hashtag-polemica-Mirtha_0_1679832028.html
p8
aVhttps://www.clarin.com/sociedad/Zarate-sufrido-bullying-escuela-suicidar_0_1679832034.html
p9
aVhttps://www.clarin.com/sociedad/entrego-acusado-abuso-sexual-menores_0_1679832030.html
p10
a.