(lp0
S'https://www.clarin.com/politica/piden-Vido-renuncie-fueros_0_1553845020.html'
p1
aS'https://www.clarin.com/politica/piden-Vido-renuncie-fueros_0_1553845020.html'
p2
aS'https://www.clarin.com/sociedad/Corrientes-ciudades-enteras-quedaron-aisladas_0_1553845019.html'
p3
aS'https://www.clarin.com/sociedad/Lanzan-sistema-saber-celular-robado_0_1553845017.html'
p4
aS'https://www.clarin.com/sociedad/Lanzan-sistema-saber-celular-robado_0_1553845017.html'
p5
aS'https://www.clarin.com/politica/sindicalismo-reclamo-Senado-emergencia-ocupacional_0_1553845010.html'
p6
aS'https://www.clarin.com/politica/sindicalismo-reclamo-Senado-emergencia-ocupacional_0_1553845010.html'
p7
aS'https://www.clarin.com/politica/Casanello-excarcelacion-Baez-Perez-Gadin_0_1553845006.html'
p8
aS'https://www.clarin.com/politica/Casanello-excarcelacion-Baez-Perez-Gadin_0_1553845006.html'
p9
aS'https://www.clarin.com/politica/defensa-Baez-apunto-autenticidad-Telenoche_0_1553844980.html'
p10
a.