(lp0
S'https://www.clarin.com/sociedad/paquistani-hijos-busca-esposa-llegar_0_1588641264.html'
p1
aS'https://www.clarin.com/sociedad/fentanilo-droga-mato-Prince_0_1588641257.html'
p2
aS'https://www.clarin.com/sociedad/objetos-prisioneros-nazis-esperan-dueno_0_1588641261.html'
p3
aS'https://www.clarin.com/politica/Papa-confisquen-bienes-narcos-corruptos_0_1588641254.html'
p4
aS'https://www.clarin.com/politica/Moyano-Calo-Barrionuevo-reunificacion-CGT_0_1588641260.html'
p5
aS'https://www.clarin.com/politica/consiguio-suspender-Echegaray-Ahora-PJ_0_1588641256.html'
p6
aS'https://www.clarin.com/sociedad/Arranca-Congreso-nueva-marcha-NiUnaMenos_0_1588641255.html'
p7
a.