(lp0
S'https://www.clarin.com/politica/Hackearon-Twitter-Abal-Medina-insolitos_0_1567643380.html'
p1
aS'https://www.clarin.com/politica/Hackearon-Twitter-Abal-Medina-insolitos_0_1567643380.html'
p2
aS'https://www.clarin.com/sociedad/interactivo-ayuda-prevenir-cancer-mama_0_1567643369.html'
p3
aS'https://www.clarin.com/sociedad/interactivo-ayuda-prevenir-cancer-mama_0_1567643369.html'
p4
aS'https://www.clarin.com/ieco/economia/Gabriel-Martino-retorno-presidencia-HSBC_0_1567643366.html'
p5
aS'https://www.clarin.com/ieco/economia/Gabriel-Martino-retorno-presidencia-HSBC_0_1567643366.html'
p6
a.