(lp0
Vhttps://www.clarin.com/sociedad/Alemania-alerta-pacientes-medicina-alternativa_0_1626437379.html
p1
aVhttps://www.clarin.com/sociedad/Alemania-alerta-pacientes-medicina-alternativa_0_1626437379.html
p2
aVhttps://www.clarin.com/politica/Martinez-Giorgi-Ordene-Bonafini-constructora_0_1626437377.html
p3
aVhttps://www.clarin.com/politica/Martinez-Giorgi-Ordene-Bonafini-constructora_0_1626437377.html
p4
aVhttps://www.clarin.com/ieco/economia/YPF-perdio-millones-trimestre_0_1626437376.html
p5
aVhttps://www.clarin.com/sociedad/Paso-paso-funciona-billetera-digital_0_1626437375.html
p6
aVhttps://www.clarin.com/sociedad/Paso-paso-funciona-billetera-digital_0_1626437375.html
p7
aVhttps://www.clarin.com/sociedad/rayos-lograron-resolver-misterio-mundo_0_1626437371.html
p8
aVhttps://www.clarin.com/sociedad/rayos-lograron-resolver-misterio-mundo_0_1626437371.html
p9
aVhttps://www.clarin.com/politica/Pese-detencion-Bonafini-Mar-Plata_0_1626437372.html
p10
aVhttps://www.clarin.com/politica/Pese-detencion-Bonafini-Mar-Plata_0_1626437372.html
p11
aVhttps://www.clarin.com/ieco/Cae-resultado-operativo-YPF_0_1626437370.html
p12
aVhttps://www.clarin.com/sociedad/Crearon-Papa-consagraria-canonizacion-Brochero_0_1626437367.html
p13
aVhttps://www.clarin.com/sociedad/Crearon-Papa-consagraria-canonizacion-Brochero_0_1626437367.html
p14
aVhttps://www.clarin.com/politica/Maximo-Kirchner-Macri-Massa-reune_0_1626437365.html
p15
aVhttps://www.clarin.com/politica/Maximo-Kirchner-Macri-Massa-reune_0_1626437365.html
p16
aVhttps://www.clarin.com/sociedad/limpiar-cocinar-selecto-Beverly-Hills_0_1626437364.html
p17
aVhttps://www.clarin.com/sociedad/limpiar-cocinar-selecto-Beverly-Hills_0_1626437364.html
p18
a.