(lp0
S'https://www.clarin.com/opinion/Educating-Mr-Macri_0_1657034282.html'
p1
aS'https://www.clarin.com/politica/politicos-famosos-Urtubey-Macedo-Salta_0_1656434461.html'
p2
aS'https://www.clarin.com/politica/bonaerenses-cree-policia-bien-capacitada_0_1656434460.html'
p3
aS'https://www.clarin.com/politica/Cartera-bonos-Nacion-provincias_0_1656434466.html'
p4
aS'https://www.clarin.com/politica/ocultaba-Kirchner-plata-Santa-Cruz_0_1656434465.html'
p5
aS'https://www.clarin.com/politica/Inseguridad-bonaerense-policias-locales-preparados_0_1656434464.html'
p6
aS'https://www.clarin.com/politica/Macri-noticias-monitorea-radios-TV_0_1656434462.html'
p7
aS'https://www.clarin.com/sociedad/Amistad-posible-alquilar-compania-amigo_0_1656434458.html'
p8
aS'https://www.clarin.com/politica/Tomo-Massa-Maria-Eugenia-absolutamente_0_1656434463.html'
p9
a.