(lp0
S'https://www.clarin.com/politica/Bossio-pegarle-Campora-Anibal-Fernandez_0_1556244629.html'
p1
aS'https://www.clarin.com/politica/Garavano-importante-Justicia-tener-Oyarbide_0_1556244649.html'
p2
a.