(lp0
Vhttps://www.clarin.com/politica/Urutbey-interna-peronista-Grupo-Esmeralda_0_1622237866.html
p1
aVhttps://www.clarin.com/politica/Urutbey-interna-peronista-Grupo-Esmeralda_0_1622237866.html
p2
aVhttps://www.clarin.com/politica/Vido-despego-empresario-embargado-millones_0_1622237865.html
p3
aVhttps://www.clarin.com/politica/Vido-despego-empresario-embargado-millones_0_1622237865.html
p4
aVhttps://www.clarin.com/sociedad/Alerta-Florida-Zika-transmitido-mosquitos_0_1622237861.html
p5
aVhttps://www.clarin.com/sociedad/Alerta-Florida-Zika-transmitido-mosquitos_0_1622237861.html
p6
aVhttps://www.clarin.com/ieco/jean-cuesta-Miami-Argentina_0_1622237860.html
p7
aVhttps://www.clarin.com/ieco/jean-cuesta-Miami-Argentina_0_1622237860.html
p8
aVhttps://www.clarin.com/ieco/Basar-competitividad-funcion-cambio-estrategia_0_1622237859.html
p9
aVhttps://www.clarin.com/ieco/Basar-competitividad-funcion-cambio-estrategia_0_1622237859.html
p10
aVhttps://www.clarin.com/sociedad/multimillonario-Lewis-hidroelectrica-venderle-Chile_0_1622237855.html
p11
aVhttps://www.clarin.com/sociedad/multimillonario-Lewis-hidroelectrica-venderle-Chile_0_1622237855.html
p12
a.