(lp0
S'https://www.clarin.com/politica/Casacion-financista-Greppi-proseguir-investigacion_0_1685231596.html'
p1
aS'https://www.clarin.com/sociedad/viene-nueva-moda-gastrosexuales_0_1685231591.html'
p2
aS'https://www.clarin.com/politica/Duhalde-Macri-experiencia-momentos-dificiles_0_1685231575.html'
p3
aS'https://www.clarin.com/ieco/economia/Gobierno-coloca-Banco-Nacion-millones_0_1685231588.html'
p4
aS'https://www.clarin.com/sociedad/Consumio-pastillas-adelgazar-allanaron-consultorio_0_1685231595.html'
p5
aS'https://www.clarin.com/politica/Gobierno-intimo-medios-regularicen-deudas_0_1685231577.html'
p6
aS'https://www.clarin.com/sociedad/gremio-Pinedo-puede-vivir-docente_0_1685231585.html'
p7
a.