(lp0
Vhttps://www.clarin.com/politica/Vido-vuelve-lupa-Justicia-Brasil_0_1603039850.html
p1
aVhttps://www.clarin.com/politica/Procuracion-apuran-Bicameral-control_0_1603039849.html
p2
aVhttps://www.clarin.com/politica/Procuracion-apuran-Bicameral-control_0_1603039849.html
p3
aVhttps://www.clarin.com/sociedad/Suspension-clases-cortadas-intensa-nieve_0_1603039848.html
p4
aVhttps://www.clarin.com/sociedad/Suspension-clases-cortadas-intensa-nieve_0_1603039848.html
p5
aVhttps://www.clarin.com/politica/funcionario-obtuvo-cuentas-Baez-gobierno_0_1603039831.html
p6
aVhttps://www.clarin.com/politica/funcionario-obtuvo-cuentas-Baez-gobierno_0_1603039831.html
p7
aVhttps://www.clarin.com/sociedad/Resistente-luminosa-existe-madera-transparente_0_1603039842.html
p8
aVhttps://www.clarin.com/sociedad/Resistente-luminosa-existe-madera-transparente_0_1603039842.html
p9
aVhttps://www.clarin.com/sociedad/Autos-conductor-fantasia-realidad_0_1603039838.html
p10
aVhttps://www.clarin.com/sociedad/Autos-conductor-fantasia-realidad_0_1603039838.html
p11
a.