(lp0
S'https://www.clarin.com/sociedad/Recoleta-clausuran-obligaban-empleadas-prostituirse_0_1632436767.html'
p1
aS'https://www.clarin.com/ieco/venta-autos-usados-cayo-julio_0_1632436771.html'
p2
aS'https://www.clarin.com/sociedad/Desesperada-chico-sufria-bullying-suicido_0_1632436765.html'
p3
aS'https://www.clarin.com/ieco/empresa-Bitcoin-comienza-creditos-usuarios_0_1632436770.html'
p4
aS'https://www.clarin.com/ieco/empresas-colocaron-US-millones-ano_0_1632436761.html'
p5
aS'https://www.clarin.com/politica/detenidos-Macri-fiscal-observa-agresion_0_1632436762.html'
p6
a.