(lp0
Vhttps://www.clarin.com/politica/Rompio-silencio-Lazaro-Baez-escuchar_0_1567043494.html
p1
aVhttps://www.clarin.com/politica/Rompio-silencio-Lazaro-Baez-escuchar_0_1567043494.html
p2
aVhttps://www.clarin.com/politica/Jujuy-defendio-ONU-detencion-Sala_0_1567043386.html
p3
aVhttps://www.clarin.com/politica/Jujuy-defendio-ONU-detencion-Sala_0_1567043386.html
p4
aVhttps://www.clarin.com/ieco/economia/julio-entraran-circulacion-nuevos-billetes_0_1567043489.html
p5
aVhttps://www.clarin.com/sociedad/Conmocion-muerte-conocida-activista-trans_0_1567043479.html
p6
aVhttps://www.clarin.com/sociedad/Conmocion-muerte-conocida-activista-trans_0_1567043479.html
p7
a.