(lp0
S'https://www.clarin.com/politica/Faltazos-reunion-Macri-gremios-estatales_0_1582041952.html'
p1
aS'https://www.clarin.com/politica/Gobierno-acepto-poner-tope-aumento_0_1582041974.html'
p2
aS'https://www.clarin.com/politica/Gobierno-acepto-poner-tope-aumento_0_1582041974.html'
p3
aS'https://www.clarin.com/politica/oficialismo-denuncia-laboratorios-escandalosos-medicamentos_0_1582041946.html'
p4
aS'https://www.clarin.com/politica/oficialismo-denuncia-laboratorios-escandalosos-medicamentos_0_1582041946.html'
p5
aS'https://www.clarin.com/ieco/economia/provincia-amenaza-judicializar-Fondo-Conurbano_0_1582041821.html'
p6
aS'https://www.clarin.com/ieco/economia/provincia-amenaza-judicializar-Fondo-Conurbano_0_1582041821.html'
p7
aS'https://www.clarin.com/ieco/Bayer-ofrecio-US-millones-Monsanto_0_1582041812.html'
p8
aS'https://www.clarin.com/ieco/Bayer-ofrecio-US-millones-Monsanto_0_1582041812.html'
p9
aS'https://www.clarin.com/politica/Vidal-anuncio-aumento-asignaciones-familiares_0_1582041977.html'
p10
aS'https://www.clarin.com/politica/Vidal-anuncio-aumento-asignaciones-familiares_0_1582041977.html'
p11
aS'https://www.clarin.com/ieco/economia/SanCor-venta-yogures-postres-cremas_0_1582041945.html'
p12
aS'https://www.clarin.com/ieco/economia/SanCor-venta-yogures-postres-cremas_0_1582041945.html'
p13
aS'https://www.clarin.com/politica/Entregan-Hector-Magnetto-Libertad-Expresion_0_1582041953.html'
p14
aS'https://www.clarin.com/politica/Reconocimiento-destacadas-personalidades_0_1582041956.html'
p15
aS'https://www.clarin.com/politica/Freedom-House-defensora-libertad-derechos_0_1582041960.html'
p16
aS'https://www.clarin.com/politica/obra-publica-sigue-esperando-turno_0_1582641723.html'
p17
aS'https://www.clarin.com/politica/Beatriz-Sarlo-dura-gobierno-Macri_0_1582641722.html'
p18
aS'https://www.clarin.com/politica/Beatriz-Sarlo-dura-gobierno-Macri_0_1582641722.html'
p19
a.