(lp0
S'https://www.clarin.com/sociedad/chicos-internados-mordidos-perros-Pitbull_0_1604839561.html'
p1
aS'https://www.clarin.com/politica/Marjiuan-Baez-dinero-pedira-detencion_0_1604839551.html'
p2
aS'https://www.clarin.com/politica/Allanan-inmobiliaria-Maximo-Kirchner_0_1604839555.html'
p3
aS'https://www.clarin.com/politica/Reunion-Rosada-futbol-funcionarios-dirigentes_0_1604839558.html'
p4
aS'https://www.clarin.com/politica/abogado-Baez-adelanto-postergacion-indagatoria_0_1604839549.html'
p5
aS'https://www.clarin.com/ieco/economia/dolar-sube-centavos_0_1604839550.html'
p6
aS'https://www.clarin.com/sociedad/aleman-muere-Machu-Picchu-sacarse_0_1604839553.html'
p7
a.