(lp0
Vhttps://www.clarin.com/opinion/Tarifas-Macri-sostiene-Aranguren-audiencia_0_1630636936.html
p1
aVhttps://www.clarin.com/politica/empleo-mantiene-precario-problemas_0_1630636935.html
p2
aVhttps://www.clarin.com/politica/empleo-mantiene-precario-problemas_0_1630636935.html
p3
aVhttps://www.clarin.com/opinion/hablan-matar-Presidente_0_1630636934.html
p4
aVhttps://www.clarin.com/opinion/hablan-matar-Presidente_0_1630636934.html
p5
aVhttps://www.clarin.com/opinion/pantano-tarifas-oportunismo_0_1630636933.html
p6
aVhttps://www.clarin.com/politica/Lamberto-presidira-AGN-quiero-rueda_0_1630037200.html
p7
aVhttps://www.clarin.com/politica/Lamberto-presidira-AGN-quiero-rueda_0_1630037200.html
p8
aVhttps://www.clarin.com/sociedad/corbatas-oscuro-episodio-dictadura-militar_0_1628837212.html
p9
aVhttps://www.clarin.com/sociedad/corbatas-oscuro-episodio-dictadura-militar_0_1628837212.html
p10
aVhttps://www.clarin.com/opinion/Bibliotecas_0_1630037178.html
p11
aVhttps://www.clarin.com/politica/Corte-altera-nervios-Casa-Rosada_0_1630037173.html
p12
aVhttps://www.clarin.com/sociedad/Afirman-chicos-abusado-familiar-anos_0_1630037184.html
p13
a.