(lp0
S'https://www.clarin.com/sociedad/Gael-dieron-pronto-podra-volver_0_1544845811.html'
p1
aS'https://www.clarin.com/politica/Prorrogan-meses-prision-Suris_0_1544845807.html'
p2
aS'https://www.clarin.com/sociedad/pelea-egiptologos-esconde-hallazgos-Tutankamon_0_1544845794.html'
p3
aS'https://www.clarin.com/politica/Obama-Cuba-antesala-cambios-profundos_0_1544845814.html'
p4
a.