(lp0
S'https://www.clarin.com/ieco/yerba-argentina-chapa-propia-champagne_0_1540646110.html'
p1
aS'https://www.clarin.com/ieco/economia/Preven-fusiones-sector-petrolero-argentino_0_1540646127.html'
p2
aS'https://www.clarin.com/sociedad/Denuncian-aumentos-medicamentos_0_1540646112.html'
p3
aS'https://www.clarin.com/politica/Exclusivo-audio-Nisman-horas-morir_0_1540646122.html'
p4
aS'https://www.clarin.com/politica/Lazaro-Baez-Maria-Julia-Alsogaray_0_1540646132.html'
p5
aS'https://www.clarin.com/politica/Santa-Cruz-vuelven-cortes-UOCRA_0_1540646049.html'
p6
aS'https://www.clarin.com/sociedad/increible-relacion-nena-autista-gato_0_1540646116.html'
p7
aS'https://www.clarin.com/sociedad/Detienen-profesor-organizar-sexuales-alumnos_0_1540646106.html'
p8
a.