(lp0
S'https://www.clarin.com/ieco/Pago-Stiglitz-repercusiones-financiero-internacional_0_1550845083.html'
p1
aS'https://www.clarin.com/politica/Lazaro-Baez-sospechas-sobreprecio-terminar_0_1550845100.html'
p2
aS'https://www.clarin.com/sociedad/Buscan-Federico-Storani-Rio-Lujan_0_1550845098.html'
p3
aS'https://www.clarin.com/sociedad/Tragedia-Lujan-muertos-desaparecido-lanchas_0_1550845089.html'
p4
aS'https://www.clarin.com/politica/Consumidores-aumentos-gravisimo-error_0_1550845118.html'
p5
aS'https://www.clarin.com/ieco/economia/Naftas-estacioneros-saber-compensara-devaluacion_0_1550845078.html'
p6
aS'https://www.clarin.com/sociedad/pueblo-Eslovenia-fuente-publica-cerveza_0_1550845085.html'
p7
aS'https://www.clarin.com/ieco/economia/Suben-ciento-porcentaje-bioetanol-naftas_0_1550845112.html'
p8
aS'https://www.clarin.com/politica/Longobardi-ministro-Aranguren-Julio-Vido_0_1550845096.html'
p9
a.