(lp0
Vhttps://www.clarin.com/ieco/AFIP-Dolar_Ahorro-Compras_con_Tarjeta_0_1507649244.html
p1
aVhttps://www.clarin.com/politica/Ley_de_Medios-Sabbatella-Julio_Raffo_0_1507649243.html
p2
aVhttps://www.clarin.com/politica/Narcotrafico-decreto-Macri-autoriza-entificados_0_1507649239.html
p3
aVhttps://www.clarin.com/politica/Narcotrafico-decreto-Macri-autoriza-entificados_0_1507649239.html
p4
aVhttps://www.clarin.com/sociedad/verano-Lucas-pileta-podra-conocer_0_1507049725.html
p5
aVhttps://www.clarin.com/sociedad/fenomeno-cumbia-ritmo-noches-Pinamar_0_1507049687.html
p6
aVhttps://www.clarin.com/sociedad/fenomeno-cumbia-ritmo-noches-Pinamar_0_1507049687.html
p7
aVhttps://www.clarin.com/sociedad/gestos-solidaridad-argentinos_0_1507049727.html
p8
aVhttps://www.clarin.com/politica/Denuncian-Berni-encubrir-banda-efedrina_0_1507649233.html
p9
aVhttps://www.clarin.com/politica/Denuncian-Berni-encubrir-banda-efedrina_0_1507649233.html
p10
aVhttps://www.clarin.com/politica/Macri-Milagro-Sala-Detencion-Justicia_0_1507649237.html
p11
aVhttps://www.clarin.com/politica/Macri-Milagro-Sala-Detencion-Justicia_0_1507649237.html
p12
aVhttps://www.clarin.com/politica/Milagro-Sala-Causas-Judiciales-Enriquecimiento-Ilicito_0_1507649236.html
p13
aVhttps://www.clarin.com/politica/Milagro_Sala-Martin_Sabbatella-Frente_para_la_Victoria-PJ-plazas-division_0_1507649235.html
p14
aVhttps://www.clarin.com/sociedad/Datos-blindados-proteger-charlas-celular_0_1507049712.html
p15
aVhttps://www.clarin.com/sociedad/Datos-blindados-proteger-charlas-celular_0_1507049712.html
p16
aVhttps://www.clarin.com/sociedad/revista-erotica-Penthouse-despide-papel_0_1507049761.html
p17
a.