(lp0
S'https://www.clarin.com/sociedad/derrumbo-puente-aislo-pueblo-bonaerense_0_1561044206.html'
p1
aS'https://www.clarin.com/sociedad/derrumbo-puente-aislo-pueblo-bonaerense_0_1561044206.html'
p2
aS'https://www.clarin.com/politica/Sindicalistas-recibieron-Pastoral-Social-despidos_0_1561044209.html'
p3
aS'https://www.clarin.com/politica/Sindicalistas-recibieron-Pastoral-Social-despidos_0_1561044209.html'
p4
aS'https://www.clarin.com/politica/Procesaron-embargaron-Baez-indagaran-Echegaray_0_1561044194.html'
p5
aS'https://www.clarin.com/politica/Procesaron-embargaron-Baez-indagaran-Echegaray_0_1561044194.html'
p6
aS'https://www.clarin.com/politica/Ahora-Casanello-estructura-delictiva-internacional_0_1561044200.html'
p7
aS'https://www.clarin.com/politica/Ahora-Casanello-estructura-delictiva-internacional_0_1561044200.html'
p8
aS'https://www.clarin.com/sociedad/Pellegrini-toma-separaron-preceptores-acusados_0_1561044195.html'
p9
aS'https://www.clarin.com/sociedad/Pellegrini-toma-separaron-preceptores-acusados_0_1561044195.html'
p10
aS'https://www.clarin.com/sociedad/miedo-padres-llena-preguntas_0_1561044217.html'
p11
aS'https://www.clarin.com/opinion/droga-hipocresia_0_1561643823.html'
p12
aS'https://www.clarin.com/opinion/Brasil-delicada-salida-pasado_0_1561044148.html'
p13
aS'https://www.clarin.com/opinion/oportunidad-mejorar-nutricion_0_1561044150.html'
p14
aS'https://www.clarin.com/opinion/oportunidad-mejorar-nutricion_0_1561044150.html'
p15
a.