(lp0
S'https://www.clarin.com/sociedad/Pinto-pasto-obra-biodegradable-metros_0_1626437443.html'
p1
aS'https://www.clarin.com/politica/Gobierno-define-estrategia-espera-Corte_0_1626437461.html'
p2
aS'https://www.clarin.com/politica/Presentaron-eximicion-prision-Hebe-Bonafini_0_1626437455.html'
p3
aS'https://www.clarin.com/politica/gobierno-Maduro-solidariza-Bonafini_0_1626437460.html'
p4
aS'https://www.clarin.com/politica/Malcorra-tercera-votacion-titularidad-ONU_0_1626437462.html'
p5
aS'https://www.clarin.com/sociedad/Sol-Chicos-festeja-anos-solidaridad_0_1626437472.html'
p6
aS'https://www.clarin.com/politica/Alfonsin-Carrio-honesta-buena-persona_0_1626437456.html'
p7
aS'https://www.clarin.com/politica/Rafecas-DAIA-investigacion-denuncia-Nisman_0_1626437463.html'
p8
a.