(lp0
S'https://www.clarin.com/politica/Stolbizer-cuestiono-decreto-habilita-derribar_0_1507649487.html'
p1
aS'https://www.clarin.com/politica/PJ-bonaerense-marcarle-cancha-Vidal_0_1507049744.html'
p2
aS'https://www.clarin.com/politica/Ahora-opositor-Yasky-paritarias-semestrales_0_1507649466.html'
p3
aS'https://www.clarin.com/sociedad/primer-libro-leimos_0_1507649462.html'
p4
aS'https://www.clarin.com/politica/Gabriela_Michetti-Mauricio_Macri-Davos_0_1507649479.html'
p5
aS'https://www.clarin.com/politica/Lombardi-Tecnopolis-Centro-Cultural-Kirchner_0_1507649471.html'
p6
aS'https://www.clarin.com/politica/Rio_Turbio-Alicia_Kirchner-usina-Santa_Cruz-UOCRA_0_1507649482.html'
p7
aS'https://www.clarin.com/politica/Horacio_Pietragalla-Gustavo_Peters_Castro-Archivo_Nacional_de_la_Memoria_0_1507649463.html'
p8
aS'https://www.clarin.com/sociedad/Descubren-Antartida-canon-grande-Colorado_0_1507649476.html'
p9
a.