(lp0
S'https://www.clarin.com/ieco/EEUU-devolvera-beneficio-Argentina-ano_0_1676232490.html'
p1
aS'https://www.clarin.com/sociedad/Rosario-arrojaron-botella-edificio-grave_0_1676232495.html'
p2
aS'https://www.clarin.com/sociedad/Levantan-prohibicion-Provincia-pueden-celular_0_1676232492.html'
p3
aS'https://www.clarin.com/sociedad/Yoko-Ono-convierte-realidad-Simpsons_0_1676232493.html'
p4
a.