(lp0
S'https://www.clarin.com/politica/Gobierno-sale-ordenar-Cambiemos-provincias_0_1663633819.html'
p1
aS'https://www.clarin.com/politica/Gobierno-sale-ordenar-Cambiemos-provincias_0_1663633819.html'
p2
aS'https://www.clarin.com/politica/Bancarios-convocan-paro-nacional-octubre_0_1663633820.html'
p3
aS'https://www.clarin.com/politica/Bancarios-convocan-paro-nacional-octubre_0_1663633820.html'
p4
aS'https://www.clarin.com/sociedad/Cae-poblacion-abejas-produccion-alimentos_0_1663633818.html'
p5
aS'https://www.clarin.com/sociedad/Cae-poblacion-abejas-produccion-alimentos_0_1663633818.html'
p6
aS'https://www.clarin.com/politica/German-Garavano-presento-procesal-excarcelaciones_0_1663633815.html'
p7
aS'https://www.clarin.com/politica/German-Garavano-presento-procesal-excarcelaciones_0_1663633815.html'
p8
aS'https://www.clarin.com/opinion/Compartir-ancianos-riqueza-delas-maduras_0_1663633807.html'
p9
aS'https://www.clarin.com/politica/Hallaron-US-casa-vinculada-Tomeo_0_1663633793.html'
p10
aS'https://www.clarin.com/politica/Hallaron-US-casa-vinculada-Tomeo_0_1663633793.html'
p11
a.