(lp0
S'https://www.clarin.com/sociedad/Portugal-puerta-Europa-sefardies-argentinos_0_1682831862.html'
p1
aS'https://www.clarin.com/sociedad/equipo-argentino-Japon-Mundial-ciberseguridad_0_1682831863.html'
p2
aS'https://www.clarin.com/sociedad/fiesta-pizza-exito-gana-adversidad_0_1682831865.html'
p3
a.