(lp0
S'https://www.clarin.com/politica/Rivolo-Cristina-Siempre-persecucion-investigados_0_1679232077.html'
p1
aS'https://www.clarin.com/sociedad/cocina-argentina-bife-Malbec_0_1679232074.html'
p2
aS'https://www.clarin.com/politica/Vidal-nueva-debilidad-Duran-Barba_0_1678632280.html'
p3
aS'https://www.clarin.com/politica/Stolbizer-vinculos-comerciales-Kirchner-Baez_0_1679232079.html'
p4
aS'https://www.clarin.com/politica/Di-Tullio-manos-Cristina-supuesto_0_1679232085.html'
p5
aS'https://www.clarin.com/sociedad/Denuncian-violencia-jugador-Deportivo-Laferrere_0_1679232080.html'
p6
a.