(lp0
S'https://www.clarin.com/politica/Macri-felicito-Trump-Malcorra-encaminar_0_1684031767.html'
p1
aS'https://www.clarin.com/sociedad/nacio-enferma-culpan-centro-fertilidad_0_1684031759.html'
p2
aS'https://www.clarin.com/sociedad/nacio-enferma-culpan-centro-fertilidad_0_1684031759.html'
p3
aS'https://www.clarin.com/politica/Preocupa-AFIP-cambio-coartada-Echegaray_0_1684031718.html'
p4
aS'https://www.clarin.com/politica/Preocupa-AFIP-cambio-coartada-Echegaray_0_1684031718.html'
p5
aS'https://www.clarin.com/sociedad/Chicas-vulnerables-victimas-negocio-Ushuaia_0_1684031753.html'
p6
aS'https://www.clarin.com/sociedad/Chicas-vulnerables-victimas-negocio-Ushuaia_0_1684031753.html'
p7
aS'https://www.clarin.com/politica/Sospechan-Baez-papeles-allanamientos-Austral_0_1684031730.html'
p8
aS'https://www.clarin.com/politica/Sospechan-Baez-papeles-allanamientos-Austral_0_1684031730.html'
p9
a.