(lp0
Vhttps://www.clarin.com/sociedad/Mundos_intimos-tartamudez-Daniel_Ulanovsky_0_1517848335.html
p1
aVhttps://www.clarin.com/sociedad/Mundos_intimos-tartamudez-Mauro_Quesada_0_1517848333.html
p2
aVhttps://www.clarin.com/sociedad/Mundos_intimos-tartamudez-Mauro_Quesada_0_1517848333.html
p3
a.