(lp0
Vhttps://www.clarin.com/ieco/economia/SP-subio-argentina-deuda-pesos_0_1516648526.html
p1
aVhttps://www.clarin.com/politica/Guillermo-Moreno-confiteria-Mar-Plata_0_1516648509.html
p2
aVhttps://www.clarin.com/politica/Guillermo-Moreno-confiteria-Mar-Plata_0_1516648509.html
p3
aVhttps://www.clarin.com/sociedad/Aluvion-tramites-Edenor-Edesur-acceder_0_1516648512.html
p4
aVhttps://www.clarin.com/sociedad/Aluvion-tramites-Edenor-Edesur-acceder_0_1516648512.html
p5
aVhttps://www.clarin.com/sociedad/Insolito-Mendoza-Hombre-Arana-ladron_0_1516648473.html
p6
aVhttps://www.clarin.com/sociedad/Insolito-Mendoza-Hombre-Arana-ladron_0_1516648473.html
p7
aVhttps://www.clarin.com/politica/desabastecimiento-consecuencia-obreros-Lazaro-Baez_0_1516648494.html
p8
aVhttps://www.clarin.com/politica/desabastecimiento-consecuencia-obreros-Lazaro-Baez_0_1516648494.html
p9
a.