(lp0
Vhttps://www.clarin.com/politica/Lazaro-Baez-Maria-Julia-Alsogaray_0_1540646132.html
p1
aVhttps://www.clarin.com/politica/Lazaro-Baez-Maria-Julia-Alsogaray_0_1540646132.html
p2
aVhttps://www.clarin.com/ieco/economia/Preven-fusiones-sector-petrolero-argentino_0_1540646127.html
p3
aVhttps://www.clarin.com/ieco/economia/Preven-fusiones-sector-petrolero-argentino_0_1540646127.html
p4
aVhttps://www.clarin.com/politica/Exclusivo-audio-Nisman-horas-morir_0_1540646122.html
p5
aVhttps://www.clarin.com/politica/Exclusivo-audio-Nisman-horas-morir_0_1540646122.html
p6
aVhttps://www.clarin.com/politica/Santa-Cruz-vuelven-cortes-UOCRA_0_1540646049.html
p7
aVhttps://www.clarin.com/politica/Santa-Cruz-vuelven-cortes-UOCRA_0_1540646049.html
p8
aVhttps://www.clarin.com/ieco/yerba-argentina-chapa-propia-champagne_0_1540646110.html
p9
aVhttps://www.clarin.com/ieco/yerba-argentina-chapa-propia-champagne_0_1540646110.html
p10
aVhttps://www.clarin.com/sociedad/increible-relacion-nena-autista-gato_0_1540646116.html
p11
aVhttps://www.clarin.com/sociedad/increible-relacion-nena-autista-gato_0_1540646116.html
p12
aVhttps://www.clarin.com/sociedad/Denuncian-aumentos-medicamentos_0_1540646112.html
p13
aVhttps://www.clarin.com/sociedad/Denuncian-aumentos-medicamentos_0_1540646112.html
p14
aVhttps://www.clarin.com/sociedad/Detienen-profesor-organizar-sexuales-alumnos_0_1540646106.html
p15
a.