(lp0
S'https://www.clarin.com/ieco/economia/Braun-UE-Mercosur-Argentina-dispuesta-concesiones_0_1541246169.html'
p1
aS'https://www.clarin.com/politica/Futbol-peritaron-camionetas-entregadas-Iveco_0_1541246168.html'
p2
aS'https://www.clarin.com/ieco/dolar-pierde-centavos-vende_0_1541246127.html'
p3
aS'https://www.clarin.com/politica/AGN-derogo-plan-auditorias-Echegaray_0_1541246166.html'
p4
aS'https://www.clarin.com/politica/Ruta-dinero-extrano-e-mail-abogado_0_1541246147.html'
p5
aS'https://www.clarin.com/sociedad/Argentina-paises-felices-mundo_0_1541246135.html'
p6
a.