(lp0
S'https://www.clarin.com/sociedad/antecesor-Pokemon-Go-Plaza-Mayo_0_1627037401.html'
p1
aS'https://www.clarin.com/sociedad/Medalla-belleza-deportistas-rompieron-apertura_0_1627037393.html'
p2
aS'https://www.clarin.com/sociedad/explosion-Rosario-recordaron-pidieron-justicia_0_1627037387.html'
p3
a.