(lp0
Vhttps://www.clarin.com/sociedad/cambio-cultural-implica-proceso-largo_0_1673832700.html
p1
aVhttps://www.clarin.com/sociedad/Conductores-educados-ensenaran-chicos-secundario_0_1673832697.html
p2
aVhttps://www.clarin.com/politica/Embargo-confirman-apartar-Florencia-Kirchner_0_1673832687.html
p3
aVhttps://www.clarin.com/politica/Embargo-confirman-apartar-Florencia-Kirchner_0_1673832687.html
p4
aVhttps://www.clarin.com/politica/Confirman-Lazaro-Baez-seguira-preso_0_1673832695.html
p5
aVhttps://www.clarin.com/politica/Confirman-Lazaro-Baez-seguira-preso_0_1673832695.html
p6
aVhttps://www.clarin.com/sociedad/Record-inscriptos-escuelas-preuniversitarias-Plata_0_1673832696.html
p7
aVhttps://www.clarin.com/sociedad/neurona-atenta-mujer-reparar-brazo_0_1673832690.html
p8
aVhttps://www.clarin.com/sociedad/partir-casual-logro-tener-digna_0_1673832693.html
p9
aVhttps://www.clarin.com/sociedad/partir-casual-logro-tener-digna_0_1673832693.html
p10
aVhttps://www.clarin.com/politica/Llega-Tabare-afinanzar-relacion-Macri_0_1673832689.html
p11
aVhttps://www.clarin.com/politica/Llega-Tabare-afinanzar-relacion-Macri_0_1673832689.html
p12
aVhttps://www.clarin.com/politica/compensar-inflacion-bono-fin-ano_0_1673832664.html
p13
aVhttps://www.clarin.com/politica/compensar-inflacion-bono-fin-ano_0_1673832664.html
p14
aVhttps://www.clarin.com/politica/Arrranca-negociacion-bono-fin-estatales_0_1673832686.html
p15
aVhttps://www.clarin.com/politica/Arrranca-negociacion-bono-fin-estatales_0_1673832686.html
p16
aVhttps://www.clarin.com/sociedad/BGH-aseguro-Garfunkel-relacion-compania_0_1673832683.html
p17
a.