(lp0
Vhttps://www.clarin.com/ieco/economia/grandes-oportunidades_0_1647435397.html
p1
aVhttps://www.clarin.com/ieco/economia/grandes-oportunidades_0_1647435397.html
p2
aVhttps://www.clarin.com/politica/reconversion-Baranao-rendi-evidencia_0_1647435396.html
p3
aVhttps://www.clarin.com/politica/reconversion-Baranao-rendi-evidencia_0_1647435396.html
p4
aVhttps://www.clarin.com/politica/Llamaron-indagatoria-Baez-evasion-previsional_0_1647435391.html
p5
aVhttps://www.clarin.com/politica/Llamaron-indagatoria-Baez-evasion-previsional_0_1647435391.html
p6
aVhttps://www.clarin.com/opinion/guevos-Maradona-tero-Martin-Fierro_0_1647435393.html
p7
aVhttps://www.clarin.com/ieco/economia/Definir-estrategia-insercion_0_1647435390.html
p8
aVhttps://www.clarin.com/ieco/economia/Definir-estrategia-insercion_0_1647435390.html
p9
aVhttps://www.clarin.com/ieco/economia/Vaca-Muerta-renovables-recuperar-autoabastecimiento_0_1647435387.html
p10
aVhttps://www.clarin.com/ieco/economia/Vaca-Muerta-renovables-recuperar-autoabastecimiento_0_1647435387.html
p11
aVhttps://www.clarin.com/ieco/celulares-discordia-Puja-gobierno-importadora_0_1646835444.html
p12
aVhttps://www.clarin.com/ieco/celulares-discordia-Puja-gobierno-importadora_0_1646835444.html
p13
aVhttps://www.clarin.com/sociedad/Finalmente-segundo-partido-Paz-Roma_0_1647435386.html
p14
aVhttps://www.clarin.com/sociedad/Finalmente-segundo-partido-Paz-Roma_0_1647435386.html
p15
aVhttps://www.clarin.com/sociedad/mochila-vinculos-dificiles_0_1647435385.html
p16
aVhttps://www.clarin.com/sociedad/Mundos-intimos-quise-psicofarmacos-convencieron_0_1647435381.html
p17
aVhttps://www.clarin.com/sociedad/Mundos-intimos-quise-psicofarmacos-convencieron_0_1647435381.html
p18
aVhttps://www.clarin.com/ieco/economia/inflacion-agosto-puede-quedar_0_1647435379.html
p19
aVhttps://www.clarin.com/ieco/economia/inflacion-agosto-puede-quedar_0_1647435379.html
p20
aVhttps://www.clarin.com/opinion/fallos-Corte-coherentes_0_1647435378.html
p21
a.