(lp0
S'https://www.clarin.com/sociedad/expectativa-mayor-nuevo-desafio-familiar_0_1624037747.html'
p1
aS'https://www.clarin.com/politica/Pichetto-presidentes-hablaran-cuestiones-coyuntura_0_1624637521.html'
p2
aS'https://www.clarin.com/politica/Pichetto-presidentes-hablaran-cuestiones-coyuntura_0_1624637521.html'
p3
aS'https://www.clarin.com/politica/inflacion-gremios-buscan-discutir-sueldos_0_1624037743.html'
p4
aS'https://www.clarin.com/sociedad/fuerte-afloja-esperan-verano-lluvias_0_1624037764.html'
p5
aS'https://www.clarin.com/sociedad/fuerte-afloja-esperan-verano-lluvias_0_1624037764.html'
p6
aS'https://www.clarin.com/politica/Florencia-Kirchner-policias-custodia_0_1624037690.html'
p7
aS'https://www.clarin.com/politica/Florencia-Kirchner-policias-custodia_0_1624037690.html'
p8
a.