(lp0
S'https://www.clarin.com/sociedad/Detienen-policia-camioneta-investigan-borracho_0_1687031296.html'
p1
aS'https://www.clarin.com/politica/Bonadio-futurologia-decir-Cristina-presa_0_1687031305.html'
p2
aS'https://www.clarin.com/sociedad/Trasladan-oso-polar-triste-mundo_0_1687031308.html'
p3
aS'https://www.clarin.com/politica/Tiros-Rio-Gallegos-Lazaro-Baez_0_1686431408.html'
p4
aS'https://www.clarin.com/politica/fotos-grave-accidente-juez-Lorenzetti_0_1687031297.html'
p5
aS'https://www.clarin.com/sociedad/grande-brillante-noche-disfruto-mundo_0_1687031291.html'
p6
a.