(lp0
S'https://www.clarin.com/sociedad/Iba-jardin-murio-arbol-encima_0_1685231541.html'
p1
aS'https://www.clarin.com/politica/Finalmente-Justicia-Cristina-Puerto-Madero_0_1685231539.html'
p2
aS'https://www.clarin.com/politica/Finalmente-Justicia-Cristina-Puerto-Madero_0_1685231539.html'
p3
aS'https://www.clarin.com/politica/Murio-diputado-sanjuanino-Daniel-Tomas_0_1685231535.html'
p4
aS'https://www.clarin.com/politica/Murio-diputado-sanjuanino-Daniel-Tomas_0_1685231535.html'
p5
aS'https://www.clarin.com/ieco/economia/dolar-sigue-alza_0_1685231534.html'
p6
aS'https://www.clarin.com/ieco/economia/dolar-sigue-alza_0_1685231534.html'
p7
aS'https://www.clarin.com/sociedad/terrible-historia-bloguera-terror-padres_0_1685231530.html'
p8
aS'https://www.clarin.com/sociedad/terrible-historia-bloguera-terror-padres_0_1685231530.html'
p9
aS'https://www.clarin.com/ieco/Bolsa-sigue-baja-victoria-Trump_0_1685231531.html'
p10
aS'https://www.clarin.com/ieco/Bolsa-sigue-baja-victoria-Trump_0_1685231531.html'
p11
a.