(lp0
Vhttps://www.clarin.com/ieco/economia/consumo-cayo-interior-primer-semestre_0_1618638249.html
p1
aVhttps://www.clarin.com/ieco/economia/consumo-cayo-interior-primer-semestre_0_1618638249.html
p2
aVhttps://www.clarin.com/politica/extrana-noche-Jose-Lopez-televisor_0_1618638277.html
p3
aVhttps://www.clarin.com/politica/extrana-noche-Jose-Lopez-televisor_0_1618638277.html
p4
aVhttps://www.clarin.com/sociedad/murio-casero-acusan-homicidio-padres_0_1618638288.html
p5
aVhttps://www.clarin.com/sociedad/murio-casero-acusan-homicidio-padres_0_1618638288.html
p6
aVhttps://www.clarin.com/sociedad/Parir-practica-riesgos-eligen-mujeres_0_1618638286.html
p7
aVhttps://www.clarin.com/sociedad/misteriosa-Travolta-Tom-Cruise-Argentina_0_1618638285.html
p8
aVhttps://www.clarin.com/sociedad/misteriosa-Travolta-Tom-Cruise-Argentina_0_1618638285.html
p9
aVhttps://www.clarin.com/politica/Cristina-gano-juicio-Stolbizer_0_1618638284.html
p10
a.