(lp0
S'https://www.clarin.com/ieco/economia/subas-familia-Capital-debera-pagar_0_1550245362.html'
p1
aS'https://www.clarin.com/politica/Macri-Canada-Nueva-Zelanda-G-20_0_1550245391.html'
p2
aS'https://www.clarin.com/politica/Carrio-gente-quedando-trabajo-trabajaba_0_1550245377.html'
p3
aS'https://www.clarin.com/sociedad/Viral-video-Obama-canta-argentino_0_1550245350.html'
p4
a.