(lp0
Vhttps://www.clarin.com/ieco/Walmart-US-comercio-electronico-Jetcom_0_1628837181.html
p1
aVhttps://www.clarin.com/ieco/Walmart-US-comercio-electronico-Jetcom_0_1628837181.html
p2
aVhttps://www.clarin.com/politica/Tarifas-Corte-Suprema-Gils-Carbo_0_1628837177.html
p3
aVhttps://www.clarin.com/politica/Tarifas-Corte-Suprema-Gils-Carbo_0_1628837177.html
p4
aVhttps://www.clarin.com/sociedad/Tragedia-asado-familiar-alguien-atraganta_0_1628837171.html
p5
aVhttps://www.clarin.com/sociedad/Tragedia-asado-familiar-alguien-atraganta_0_1628837171.html
p6
aVhttps://www.clarin.com/ieco/economia/Hilados-caprinos-negocio-revolucionar-Neuquen_0_1628837167.html
p7
aVhttps://www.clarin.com/ieco/economia/Hilados-caprinos-negocio-revolucionar-Neuquen_0_1628837167.html
p8
aVhttps://www.clarin.com/politica/jueza-ordeno-Gobierno-justifique-ANSeS_0_1628837166.html
p9
aVhttps://www.clarin.com/politica/jueza-ordeno-Gobierno-justifique-ANSeS_0_1628837166.html
p10
a.