(lp0
S'https://www.clarin.com/politica/sueldos-presidente-Macri-ministros_0_1660034136.html'
p1
aS'https://www.clarin.com/politica/sueldos-presidente-Macri-ministros_0_1660034136.html'
p2
aS'https://www.clarin.com/opinion/dia-Patria-volvio-inhospita-Macondo_0_1660034134.html'
p3
aS'https://www.clarin.com/sociedad/Pequenos-cambios-temblores_0_1660034131.html'
p4
aS'https://www.clarin.com/sociedad/Mundos-intimos-Luego-perder-artista_0_1660034129.html'
p5
aS'https://www.clarin.com/sociedad/Mundos-intimos-Luego-perder-artista_0_1660034129.html'
p6
a.