(lp0
Vhttps://www.clarin.com/politica/Bergman-bajarse-marcha-pasteras_0_1571243082.html
p1
aVhttps://www.clarin.com/politica/Bergman-bajarse-marcha-pasteras_0_1571243082.html
p2
aVhttps://www.clarin.com/politica/veto-oficialismo-puede-sostenerlo-justo_0_1571243080.html
p3
aVhttps://www.clarin.com/politica/veto-oficialismo-puede-sostenerlo-justo_0_1571243080.html
p4
aVhttps://www.clarin.com/sociedad/Suman-pedidos-nueva-Ley-Comunicaciones_0_1571243076.html
p5
aVhttps://www.clarin.com/sociedad/Pagina12-acto-pase-manos-porteros_0_1571243072.html
p6
aVhttps://www.clarin.com/politica/diputado-Hector-Recalde-entrevista-radial_0_1571243069.html
p7
aVhttps://www.clarin.com/politica/diputado-Hector-Recalde-entrevista-radial_0_1571243069.html
p8
a.