(lp0
Vhttps://www.clarin.com/sociedad/Mato-novia-selfie-cadaver-social_0_1588041222.html
p1
aVhttps://www.clarin.com/sociedad/Mato-novia-selfie-cadaver-social_0_1588041222.html
p2
aVhttps://www.clarin.com/politica/Cambiemos-sacar-blanqueo-jueces-legisladores_0_1588041230.html
p3
aVhttps://www.clarin.com/politica/Cambiemos-sacar-blanqueo-jueces-legisladores_0_1588041230.html
p4
aVhttps://www.clarin.com/ieco/economia/Emiten-Letra-cancelar-Argentina-FMI_0_1588041228.html
p5
aVhttps://www.clarin.com/ieco/economia/Emiten-Letra-cancelar-Argentina-FMI_0_1588041228.html
p6
aVhttps://www.clarin.com/sociedad/hara-ingeniero-argentino-tunel-record_0_1588041226.html
p7
aVhttps://www.clarin.com/sociedad/hara-ingeniero-argentino-tunel-record_0_1588041226.html
p8
aVhttps://www.clarin.com/sociedad/robaron-Facebook-sugirio-ladron-amigo_0_1588041224.html
p9
aVhttps://www.clarin.com/sociedad/robaron-Facebook-sugirio-ladron-amigo_0_1588041224.html
p10
aVhttps://www.clarin.com/sociedad/maestra-anos-confeso-relacion-alumno_0_1588041223.html
p11
aVhttps://www.clarin.com/sociedad/maestra-anos-confeso-relacion-alumno_0_1588041223.html
p12
aVhttps://www.clarin.com/ieco/economia/inflacion-Eurozona-Banco-Central-Europeo_0_1588041221.html
p13
aVhttps://www.clarin.com/ieco/economia/inflacion-Eurozona-Banco-Central-Europeo_0_1588041221.html
p14
a.