(lp0
Vhttps://www.clarin.com/sociedad/Revelan-mujeres-necesitan-dormir-hombres_0_1582641880.html
p1
aVhttps://www.clarin.com/sociedad/Revelan-mujeres-necesitan-dormir-hombres_0_1582641880.html
p2
aVhttps://www.clarin.com/ieco/economia/Gobierno-prepara-anuncio-blanqueo-jubilados_0_1582641871.html
p3
aVhttps://www.clarin.com/ieco/economia/Gobierno-prepara-anuncio-blanqueo-jubilados_0_1582641871.html
p4
aVhttps://www.clarin.com/politica/Memorandum-Iran-validan-prueba-Timerman_0_1582641865.html
p5
aVhttps://www.clarin.com/politica/Memorandum-Iran-validan-prueba-Timerman_0_1582641865.html
p6
aVhttps://www.clarin.com/ieco/economia/Unilever-anuncio-inversiones-millones-proximos_0_1582641868.html
p7
a.