(lp0
Vhttps://www.clarin.com/sociedad/Sorpresa-Copacabana-aparecio-tiburon-metros_0_1591640868.html
p1
aVhttps://www.clarin.com/sociedad/Sorpresa-Copacabana-aparecio-tiburon-metros_0_1591640868.html
p2
aVhttps://www.clarin.com/politica/Lombardi-freno-Brancatelli-escuche-tranquilito_0_1591640865.html
p3
aVhttps://www.clarin.com/politica/Lombardi-freno-Brancatelli-escuche-tranquilito_0_1591640865.html
p4
aVhttps://www.clarin.com/ieco/economia/Gobierno-pidio-usuarios-paguen-tarifazos_0_1591640863.html
p5
aVhttps://www.clarin.com/ieco/economia/Gobierno-pidio-usuarios-paguen-tarifazos_0_1591640863.html
p6
aVhttps://www.clarin.com/sociedad/Murio-meses-gripe-Mar-Plata_0_1591640861.html
p7
aVhttps://www.clarin.com/sociedad/Murio-meses-gripe-Mar-Plata_0_1591640861.html
p8
aVhttps://www.clarin.com/sociedad/primera-vez-estudian-tiburones-argentino_0_1591640844.html
p9
aVhttps://www.clarin.com/sociedad/primera-vez-estudian-tiburones-argentino_0_1591640844.html
p10
aVhttps://www.clarin.com/politica/Boudou-declarar-DNI-presento-inocente_0_1591640859.html
p11
aVhttps://www.clarin.com/politica/Boudou-declarar-DNI-presento-inocente_0_1591640859.html
p12
aVhttps://www.clarin.com/politica/Descubren-Lazaro-Baez-Cristina-Kirchner_0_1591640858.html
p13
aVhttps://www.clarin.com/politica/Descubren-Lazaro-Baez-Cristina-Kirchner_0_1591640858.html
p14
aVhttps://www.clarin.com/sociedad/restaurante-jurados-MasterChef-posiciones-mejores_0_1591640855.html
p15
aVhttps://www.clarin.com/sociedad/restaurante-jurados-MasterChef-posiciones-mejores_0_1591640855.html
p16
a.