(lp0
S'https://www.clarin.com/sociedad/buena-Pistorius-apelaran-condena_0_1639036103.html'
p1
aS'https://www.clarin.com/sociedad/buena-Pistorius-apelaran-condena_0_1639036103.html'
p2
aS'https://www.clarin.com/politica/Aranguren-pego-faltazo_0_1638436301.html'
p3
aS'https://www.clarin.com/ieco/Guillermo-Calvo-tarifas-Gobierno-paso_0_1638436369.html'
p4
aS'https://www.clarin.com/ieco/economia/Dejan-fabricar-autos-anos-mercado_0_1638436219.html'
p5
aS'https://www.clarin.com/ieco/economia/Dejan-fabricar-autos-anos-mercado_0_1638436219.html'
p6
a.