(lp0
S'https://www.clarin.com/politica/emergencia_seguridad-criticas_0_1511248920.html'
p1
aS'https://www.clarin.com/politica/malcorra-espana-venezuela_0_1511248919.html'
p2
aS'https://www.clarin.com/politica/corte-macri-candidatos_0_1511248918.html'
p3
aS'https://www.clarin.com/opinion/Parlasur-inmunidades-autoridades-Jorge_Taiana-Milagro_Sala_0_1511248910.html'
p4
aS'https://www.clarin.com/opinion/Traspaso_de_la_policia-Ciudad_autonoma_0_1511248909.html'
p5
aS'https://www.clarin.com/opinion/Ley_de_Servicios_de_Comunicacion_Audiovisual-Ente_Nacional_de_Comunicaciones-AFSCA-AFTIC_0_1511248908.html'
p6
aS'https://www.clarin.com/opinion/Ley_de_Servicios_de_Comunicacion_Audiovisual-Ente_Nacional_de_Comunicaciones-AFSCA-AFTIC_0_1511248908.html'
p7
aS'https://www.clarin.com/ieco/Petroleras-Subsidios-Tecpetrol-YPF-Pan_American_0_1511248897.html'
p8
aS'https://www.clarin.com/politica/Petroleras-Despidos-Chubut-Das_Neves-Aranguren_0_1511248896.html'
p9
aS'https://www.clarin.com/politica/Coparticipacion-Decreto_15-Rogelio_Frigerio-gobernadores_0_1511248895.html'
p10
a.