(lp0
Vhttps://www.clarin.com/sociedad/Hugh-Jackman-vistio-rescato-personas_0_1547845398.html
p1
aVhttps://www.clarin.com/sociedad/Hugh-Jackman-vistio-rescato-personas_0_1547845398.html
p2
aVhttps://www.clarin.com/politica/Iglesia-corrupcion-alerto-sociales-impunidad_0_1547845389.html
p3
aVhttps://www.clarin.com/politica/Iglesia-corrupcion-alerto-sociales-impunidad_0_1547845389.html
p4
aVhttps://www.clarin.com/politica/TV-Zulema-Julio-Barbaro-Menem_0_1547845376.html
p5
aVhttps://www.clarin.com/politica/TV-Zulema-Julio-Barbaro-Menem_0_1547845376.html
p6
aVhttps://www.clarin.com/sociedad/arbol-centenario-Mar-Negro_0_1547845370.html
p7
aVhttps://www.clarin.com/sociedad/arbol-centenario-Mar-Negro_0_1547845370.html
p8
aVhttps://www.clarin.com/ieco/economia/Argentina-mercado-ofrecerle-US30000-millones_0_1547845328.html
p9
aVhttps://www.clarin.com/ieco/economia/Argentina-mercado-ofrecerle-US30000-millones_0_1547845328.html
p10
aVhttps://www.clarin.com/ieco/economia/fuerza-buena-historia_0_1547845341.html
p11
aVhttps://www.clarin.com/ieco/economia/fuerza-buena-historia_0_1547845341.html
p12
a.