(lp0
Vhttps://www.clarin.com/sociedad/Protesta-corte-calle-docentes-UBA_0_1565843596.html
p1
aVhttps://www.clarin.com/sociedad/Protesta-corte-calle-docentes-UBA_0_1565843596.html
p2
aVhttps://www.clarin.com/sociedad/Time-Warp-organizador-acusan-homicidios_0_1565843595.html
p3
aVhttps://www.clarin.com/politica/FpV-antidespidos-Senado-presion-Gobierno_0_1565843623.html
p4
aVhttps://www.clarin.com/politica/FpV-antidespidos-Senado-presion-Gobierno_0_1565843623.html
p5
aVhttps://www.clarin.com/sociedad/llegaron-pais-smartphones-protegen-privacidad_0_1565843593.html
p6
aVhttps://www.clarin.com/sociedad/llegaron-pais-smartphones-protegen-privacidad_0_1565843593.html
p7
aVhttps://www.clarin.com/sociedad/Dicen-inspectores-siempre-mismos_0_1565843608.html
p8
aVhttps://www.clarin.com/politica/Fuerte-rechazo-empresario-proyectos-oposicion_0_1565843619.html
p9
aVhttps://www.clarin.com/politica/Fuerte-rechazo-empresario-proyectos-oposicion_0_1565843619.html
p10
aVhttps://www.clarin.com/sociedad/metros-cerraron-costanera-Mar-Plata_0_1565843599.html
p11
aVhttps://www.clarin.com/sociedad/metros-cerraron-costanera-Mar-Plata_0_1565843599.html
p12
aVhttps://www.clarin.com/sociedad/pregunte-Mica-cayo-lagrima_0_1565843597.html
p13
aVhttps://www.clarin.com/politica/Justicia-Gioja-Scioli-cabezas-peronismo_0_1565843591.html
p14
aVhttps://www.clarin.com/politica/Justicia-Gioja-Scioli-cabezas-peronismo_0_1565843591.html
p15
aVhttps://www.clarin.com/ieco/Suben-subsidio-colectivos-interior_0_1565843615.html
p16
aVhttps://www.clarin.com/sociedad/nuevo-dinosaurio-argentino-Sarmientosaurus_0_1565843571.html
p17
aVhttps://www.clarin.com/politica/fiscal-exitosos-allanamientos-propiedades-Baez_0_1565843626.html
p18
aVhttps://www.clarin.com/politica/fiscal-exitosos-allanamientos-propiedades-Baez_0_1565843626.html
p19
a.