(lp0
S'https://www.clarin.com/politica/Macri-pais-camino-correcto_0_1628237277.html'
p1
aS'https://www.clarin.com/politica/Macri-pais-camino-correcto_0_1628237277.html'
p2
aS'https://www.clarin.com/politica/grieta-escraches-anti-k-aviones-aeropuertos_0_1628237274.html'
p3
aS'https://www.clarin.com/politica/grieta-escraches-anti-k-aviones-aeropuertos_0_1628237274.html'
p4
aS'https://www.clarin.com/politica/Cristina-lugar-seguro-villa_0_1628237276.html'
p5
aS'https://www.clarin.com/politica/Cristina-lugar-seguro-villa_0_1628237276.html'
p6
aS'https://www.clarin.com/sociedad/Lali-Axel-cumplieron-sueno-luchar_0_1626437497.html'
p7
aS'https://www.clarin.com/sociedad/Lali-Axel-cumplieron-sueno-luchar_0_1626437497.html'
p8
aS'https://www.clarin.com/ieco/dolar-minorista-perforo_0_1628237272.html'
p9
aS'https://www.clarin.com/ieco/dolar-minorista-perforo_0_1628237272.html'
p10
aS'https://www.clarin.com/politica/mediacion-fallida-denuncias-Cristina-Stolbizer_0_1628237261.html'
p11
aS'https://www.clarin.com/politica/mediacion-fallida-denuncias-Cristina-Stolbizer_0_1628237261.html'
p12
aS'https://www.clarin.com/politica/Reabrio-ultimo-medio-cerro-Szpolski_0_1628237267.html'
p13
aS'https://www.clarin.com/politica/Reabrio-ultimo-medio-cerro-Szpolski_0_1628237267.html'
p14
aS'https://www.clarin.com/politica/asesor-Obama-consejos-reforma-electoral_0_1628237265.html'
p15
aS'https://www.clarin.com/politica/asesor-Obama-consejos-reforma-electoral_0_1628237265.html'
p16
a.