(lp0
Vhttps://www.clarin.com/opinion/Mama-Cristina-Papa-Mauricio_0_1560443953.html
p1
aVhttps://www.clarin.com/politica/Washington-dicen-Argentina-vuelta_0_1559844432.html
p2
aVhttps://www.clarin.com/politica/Misiones-siguen-buscando-hombre-Baez_0_1559844362.html
p3
aVhttps://www.clarin.com/politica/Misiones-siguen-buscando-hombre-Baez_0_1559844362.html
p4
aVhttps://www.clarin.com/opinion/celebrar-vida_0_1559244426.html
p5
aVhttps://www.clarin.com/opinion/celebrar-vida_0_1559244426.html
p6
aVhttps://www.clarin.com/sociedad/Fiestas-electronicas-templos-jovenes-consume_0_1559844417.html
p7
aVhttps://www.clarin.com/sociedad/Fiestas-electronicas-templos-jovenes-consume_0_1559844417.html
p8
aVhttps://www.clarin.com/politica/Macri-anuncio-medidas-amortiguar-inflacion_0_1559844404.html
p9
aVhttps://www.clarin.com/politica/Anuncios-escenas-pensadas-apaciguar-malhumor_0_1559844394.html
p10
aVhttps://www.clarin.com/opinion/Veo-venganza-desesperacion_0_1559844370.html
p11
aVhttps://www.clarin.com/opinion/Veo-venganza-desesperacion_0_1559844370.html
p12
aVhttps://www.clarin.com/ieco/Tomamos-decisiones-costo-corto-plazo_0_1559844431.html
p13
aVhttps://www.clarin.com/ieco/Tomamos-decisiones-costo-corto-plazo_0_1559844431.html
p14
aVhttps://www.clarin.com/ieco/arsenal-medidas-restricciones-fiscales_0_1559844430.html
p15
aVhttps://www.clarin.com/ieco/arsenal-medidas-restricciones-fiscales_0_1559844430.html
p16
aVhttps://www.clarin.com/ieco/Lagarde-FMI-auditara-Argentina-septiembre_0_1559844423.html
p17
a.