(lp0
Vhttps://www.clarin.com/politica/Cristina-mantiene-comercial-Cristobal-Lopez_0_1605439613.html
p1
aVhttps://www.clarin.com/sociedad/ovulos-congelados-muerta-podra-madre_0_1605439616.html
p2
aVhttps://www.clarin.com/ieco/Central-pasara-Tesoro-millones-pesos_0_1605439607.html
p3
aVhttps://www.clarin.com/ieco/Central-pasara-Tesoro-millones-pesos_0_1605439607.html
p4
a.