(lp0
S'https://www.clarin.com/politica/Ordenan-tasar-alquilaba-Lopez-Tigre_0_1616838347.html'
p1
aS'https://www.clarin.com/politica/Ordenan-tasar-alquilaba-Lopez-Tigre_0_1616838347.html'
p2
aS'https://www.clarin.com/ieco/economia/Vuelven-cruces-Argentina-Uruguay-pastera_0_1616838344.html'
p3
aS'https://www.clarin.com/ieco/economia/Vuelven-cruces-Argentina-Uruguay-pastera_0_1616838344.html'
p4
aS'https://www.clarin.com/sociedad/cuestan-termotanques-solares-usara-Macri_0_1616838342.html'
p5
aS'https://www.clarin.com/sociedad/cuestan-termotanques-solares-usara-Macri_0_1616838342.html'
p6
aS'https://www.clarin.com/politica/AMIA-Piden-Singapur-Malasia-extradicion_0_1616838336.html'
p7
aS'https://www.clarin.com/politica/AMIA-Piden-Singapur-Malasia-extradicion_0_1616838336.html'
p8
aS'https://www.clarin.com/politica/Secuestraron-BMW-investigan-Milagro-Sala_0_1616838338.html'
p9
aS'https://www.clarin.com/politica/Secuestraron-BMW-investigan-Milagro-Sala_0_1616838338.html'
p10
aS'https://www.clarin.com/ieco/FMI-impacto-economia-argentina-previsto_0_1616838335.html'
p11
aS'https://www.clarin.com/ieco/FMI-impacto-economia-argentina-previsto_0_1616838335.html'
p12
aS'https://www.clarin.com/sociedad/Sol-Chicos-festejara-Luna-solidaridad_0_1616838334.html'
p13
aS'https://www.clarin.com/sociedad/Sol-Chicos-festejara-Luna-solidaridad_0_1616838334.html'
p14
a.