(lp0
S'https://www.clarin.com/sociedad/Habla-disenador-perdio-publicidad-enganosa_0_1652234832.html'
p1
aS'https://www.clarin.com/politica/funcionario-despedido-Cristina-civilizados-pensando_0_1652234841.html'
p2
aS'https://www.clarin.com/politica/Diputados-senadores-abren-segundo-audiencias_0_1652234840.html'
p3
aS'https://www.clarin.com/politica/dragon-Lleve-taller-intervengan-artisticamente_0_1652234837.html'
p4
aS'https://www.clarin.com/sociedad/Murio-italiano-realizo-exorcismos-anos_0_1652234846.html'
p5
a.