(lp0
S'https://www.clarin.com/ieco/economia/Merval-sigue-marcando-records_0_1668433218.html'
p1
aS'https://www.clarin.com/politica/vez-ir-bien-Macri-Papa_0_1668433215.html'
p2
aS'https://www.clarin.com/politica/mini-comitiva-Macri-Roma_0_1668433211.html'
p3
aS'https://www.clarin.com/sociedad/Ponen-semaforos-peatones-mirando-celular_0_1668433213.html'
p4
a.