(lp0
Vhttps://www.clarin.com/sociedad/humanos-perros-pueden-sufrir-demencia_0_1679832012.html
p1
aVhttps://www.clarin.com/sociedad/humanos-perros-pueden-sufrir-demencia_0_1679832012.html
p2
aVhttps://www.clarin.com/politica/Vidal-minigira-ministro-Obras-Publicas_0_1679232211.html
p3
aVhttps://www.clarin.com/politica/Vidal-minigira-ministro-Obras-Publicas_0_1679232211.html
p4
aVhttps://www.clarin.com/sociedad/Matan-argentino-pelea-bar-Brasil_0_1679832010.html
p5
aVhttps://www.clarin.com/sociedad/Matan-argentino-pelea-bar-Brasil_0_1679832010.html
p6
aVhttps://www.clarin.com/sociedad/dijo-muerta-apunalo-salve-centimetro_0_1679232242.html
p7
aVhttps://www.clarin.com/sociedad/dijo-muerta-apunalo-salve-centimetro_0_1679232242.html
p8
aVhttps://www.clarin.com/ieco/Bono-UIA-paraguas-fuerte-actividad_0_1679232251.html
p9
aVhttps://www.clarin.com/ieco/Bono-UIA-paraguas-fuerte-actividad_0_1679232251.html
p10
aVhttps://www.clarin.com/ieco/economia/Supermercados-chinos-acuerdan-superprecios-mayoristas_0_1679232195.html
p11
aVhttps://www.clarin.com/ieco/economia/Supermercados-chinos-acuerdan-superprecios-mayoristas_0_1679232195.html
p12
aVhttps://www.clarin.com/politica/pymes-metalurgicas-reclaman-bono-ano_0_1679232250.html
p13
aVhttps://www.clarin.com/politica/cae-financiamiento-ruso-represa_0_1679232248.html
p14
aVhttps://www.clarin.com/politica/realidad-CGT-cupo-femenino-cumple_0_1679232249.html
p15
aVhttps://www.clarin.com/politica/realidad-CGT-cupo-femenino-cumple_0_1679232249.html
p16
aVhttps://www.clarin.com/sociedad/canadienses-enamoraron-argentino-construyeron-bodega_0_1679232128.html
p17
aVhttps://www.clarin.com/sociedad/canadienses-enamoraron-argentino-construyeron-bodega_0_1679232128.html
p18
aVhttps://www.clarin.com/politica/desacelera-recaudacion-octubre-crecio-ciento_0_1679232243.html
p19
aVhttps://www.clarin.com/ieco/Buscan-llevar-inversiones-tecnologia-PBI_0_1679232241.html
p20
a.