(lp0
S'https://www.clarin.com/ieco/Herencia-AFIP-depositos-fiscales-Echegaray_0_1533446837.html'
p1
aS'https://www.clarin.com/sociedad/trabajo-pausa-laboratorio-pelea-dengue_0_1533447184.html'
p2
aS'https://www.clarin.com/ieco/economia/Anulan-construccion-acueducto_0_1534046766.html'
p3
aS'https://www.clarin.com/ieco/AFIP-baja-CUIT-contribuyentes-incumplimientos_0_1533446816.html'
p4
aS'https://www.clarin.com/ieco/Prat-Gay-Sturzenegger-ritmo-trepada-dolar_0_1533447190.html'
p5
aS'https://www.clarin.com/politica/Congreso-arranca-debatir-salida-default_0_1534046638.html'
p6
aS'https://www.clarin.com/politica/destapo-cloaca-caso-Nisman_0_1534046635.html'
p7
aS'https://www.clarin.com/ieco/provincias-preparan-emitir-deuda_0_1534046760.html'
p8
aS'https://www.clarin.com/politica/Parrilli-admitio-Nisman-mataron-arrepintio_0_1534046655.html'
p9
aS'https://www.clarin.com/opinion/Nisman-Stiuso-relato-retirada_0_1534046632.html'
p10
aS'https://www.clarin.com/ieco/Gobierno-aprobo-venta-Telecom-Fintech_0_1533447202.html'
p11
a.