(lp0
S'https://www.clarin.com/politica/Cristina-Kirchner-anule-indagatoria-publica_0_1667233343.html'
p1
aS'https://www.clarin.com/politica/Reina-Maxima-reunion-Macri-pobre_0_1667233352.html'
p2
aS'https://www.clarin.com/ieco/econonia-argentina-caera-ano-Cepal_0_1667233347.html'
p3
aS'https://www.clarin.com/sociedad/Premiaron-Clarin-Mejor-Servicio-Movil_0_1666633391.html'
p4
aS'https://www.clarin.com/sociedad/paises-alerta-payasos-asesinos_0_1667233345.html'
p5
a.