(lp0
Vhttps://www.clarin.com/opinion/curar-impuntualidad_0_1588041296.html
p1
aVhttps://www.clarin.com/sociedad/mitad-victimas-femicidio-murio-casa_0_1588041388.html
p2
aVhttps://www.clarin.com/sociedad/mitad-victimas-femicidio-murio-casa_0_1588041388.html
p3
aVhttps://www.clarin.com/politica/Milani-declarar-desaparicion-soldado-Tucuman_0_1588041400.html
p4
aVhttps://www.clarin.com/politica/Milani-declarar-desaparicion-soldado-Tucuman_0_1588041400.html
p5
aVhttps://www.clarin.com/politica/Periodismo-diversas-estreno-TV-Publica_0_1588041399.html
p6
aVhttps://www.clarin.com/politica/Periodismo-diversas-estreno-TV-Publica_0_1588041399.html
p7
aVhttps://www.clarin.com/politica/Procesaron-Echegaray-buscan-sacarlo-AGN_0_1588041397.html
p8
aVhttps://www.clarin.com/politica/Procesaron-Echegaray-buscan-sacarlo-AGN_0_1588041397.html
p9
aVhttps://www.clarin.com/politica/presion-radical-PASO-optativas_0_1588041396.html
p10
aVhttps://www.clarin.com/politica/presion-radical-PASO-optativas_0_1588041396.html
p11
aVhttps://www.clarin.com/politica/Jubilaciones-debate-venta-acciones-ANSeS_0_1588041395.html
p12
aVhttps://www.clarin.com/politica/Jubilaciones-debate-venta-acciones-ANSeS_0_1588041395.html
p13
aVhttps://www.clarin.com/politica/Monzo-Michetti-resolucion-Echegaray-AGN_0_1588041393.html
p14
aVhttps://www.clarin.com/politica/Monzo-Michetti-resolucion-Echegaray-AGN_0_1588041393.html
p15
aVhttps://www.clarin.com/politica/CTA-Plaza-Mayo-Macri-nacional_0_1588041390.html
p16
aVhttps://www.clarin.com/politica/CTA-Plaza-Mayo-Macri-nacional_0_1588041390.html
p17
aVhttps://www.clarin.com/sociedad/dar-respuestas_0_1588041389.html
p18
a.