(lp0
Vhttps://www.clarin.com/politica/decretaron-quiebra-financista-Elaskar_0_1689431082.html
p1
aVhttps://www.clarin.com/politica/decretaron-quiebra-financista-Elaskar_0_1689431082.html
p2
aVhttps://www.clarin.com/politica/Tinelli-Campanella-Ocana-Defensora-Pueblo_0_1689431079.html
p3
aVhttps://www.clarin.com/politica/Tinelli-Campanella-Ocana-Defensora-Pueblo_0_1689431079.html
p4
aVhttps://www.clarin.com/sociedad/Subastaron-US-Monroe-Birthday-MrPresident_0_1689431077.html
p5
aVhttps://www.clarin.com/sociedad/Subastaron-US-Monroe-Birthday-MrPresident_0_1689431077.html
p6
aVhttps://www.clarin.com/politica/Izquierda-fuerza-convoca-cancha-futbol_0_1689431068.html
p7
aVhttps://www.clarin.com/politica/Izquierda-fuerza-convoca-cancha-futbol_0_1689431068.html
p8
a.