(lp0
Vhttps://www.clarin.com/ieco/Avanzan-gestiones-volver-exportar-EEUU_0_1660034035.html
p1
aVhttps://www.clarin.com/ieco/Avanzan-gestiones-volver-exportar-EEUU_0_1660034035.html
p2
aVhttps://www.clarin.com/politica/Argentina-Unidos-firman-acuerdo-militares_0_1660034025.html
p3
aVhttps://www.clarin.com/politica/Argentina-Unidos-firman-acuerdo-militares_0_1660034025.html
p4
aVhttps://www.clarin.com/politica/Kicillof-choca-realidad-limite-relato_0_1660034024.html
p5
aVhttps://www.clarin.com/politica/Kicillof-choca-realidad-limite-relato_0_1660034024.html
p6
aVhttps://www.clarin.com/politica/Macri-intendentes-dialogo-hacemos-electorales_0_1660034023.html
p7
aVhttps://www.clarin.com/politica/Macri-intendentes-dialogo-hacemos-electorales_0_1660034023.html
p8
aVhttps://www.clarin.com/sociedad/Rosetta-estrello-seguia-termino-espacio_0_1660034011.html
p9
aVhttps://www.clarin.com/sociedad/Rosetta-estrello-seguia-termino-espacio_0_1660034011.html
p10
a.