(lp0
Vhttps://www.clarin.com/politica/diputada-Cerruti-denuncio-Macri-enriquecimiento_0_1586241484.html
p1
aVhttps://www.clarin.com/politica/diputada-Cerruti-denuncio-Macri-enriquecimiento_0_1586241484.html
p2
aVhttps://www.clarin.com/politica/Ruta-dinero-Justicia-libertad-expresion_0_1586241518.html
p3
aVhttps://www.clarin.com/politica/Ruta-dinero-Justicia-libertad-expresion_0_1586241518.html
p4
aVhttps://www.clarin.com/sociedad/pesar-campanas-argentinos-fumador_0_1586241496.html
p5
aVhttps://www.clarin.com/sociedad/pesar-campanas-argentinos-fumador_0_1586241496.html
p6
aVhttps://www.clarin.com/sociedad/INADI-defiende-reina-belleza-mama_0_1586241500.html
p7
aVhttps://www.clarin.com/sociedad/INADI-defiende-reina-belleza-mama_0_1586241500.html
p8
aVhttps://www.clarin.com/politica/allanaron-Boca-Rio-Gallegos-Baez_0_1586241515.html
p9
aVhttps://www.clarin.com/politica/allanaron-Boca-Rio-Gallegos-Baez_0_1586241515.html
p10
a.