(lp0
Vhttps://www.clarin.com/politica/Operaron-historico-dirigente-peronista_0_1685831500.html
p1
aVhttps://www.clarin.com/politica/Operaron-historico-dirigente-peronista_0_1685831500.html
p2
aVhttps://www.clarin.com/sociedad/teatro-paciente-Moyano-salidas-transitorias_0_1685831499.html
p3
aVhttps://www.clarin.com/sociedad/teatro-paciente-Moyano-salidas-transitorias_0_1685831499.html
p4
aVhttps://www.clarin.com/sociedad/tablon-tablas_0_1685831494.html
p5
aVhttps://www.clarin.com/sociedad/tablon-tablas_0_1685831494.html
p6
aVhttps://www.clarin.com/sociedad/parejas-toman-recreo-renovar-entusiasmo_0_1685831492.html
p7
aVhttps://www.clarin.com/sociedad/parejas-toman-recreo-renovar-entusiasmo_0_1685831492.html
p8
a.