(lp0
Vhttps://www.clarin.com/politica/Luis-DElia-corrupcion-Jose-Lopez_0_1598840134.html
p1
aVhttps://www.clarin.com/politica/Luis-DElia-corrupcion-Jose-Lopez_0_1598840134.html
p2
aVhttps://www.clarin.com/sociedad/muerte-bicho-conmueve-redes-sociales_0_1598840128.html
p3
aVhttps://www.clarin.com/sociedad/muerte-bicho-conmueve-redes-sociales_0_1598840128.html
p4
aVhttps://www.clarin.com/ieco/economia/Temor-dudas-city-londinense-Brexit_0_1598840127.html
p5
aVhttps://www.clarin.com/ieco/economia/economias-regionales-repuntan-piden-medidas_0_1598840125.html
p6
aVhttps://www.clarin.com/politica/Hablo-Perez-Corradi-Jose-Luis_0_1598840121.html
p7
aVhttps://www.clarin.com/politica/Hablo-Perez-Corradi-Jose-Luis_0_1598840121.html
p8
aVhttps://www.clarin.com/politica/Perez-Corradi-Justicia-Paraguay-extradicion_0_1598840120.html
p9
aVhttps://www.clarin.com/politica/Perez-Corradi-Justicia-Paraguay-extradicion_0_1598840120.html
p10
aVhttps://www.clarin.com/sociedad/increible-atajada-super-papa_0_1598840119.html
p11
aVhttps://www.clarin.com/sociedad/increible-atajada-super-papa_0_1598840119.html
p12
aVhttps://www.clarin.com/sociedad/Cientificos-luchan-arrecifes-afectados-Nino_0_1598840118.html
p13
aVhttps://www.clarin.com/sociedad/Cientificos-luchan-arrecifes-afectados-Nino_0_1598840118.html
p14
a.