(lp0
Vhttps://www.clarin.com/politica/Cristina-visita-Bonafini-ronda-Madres_0_1630037033.html
p1
aVhttps://www.clarin.com/politica/Cristina-visita-Bonafini-ronda-Madres_0_1630037033.html
p2
aVhttps://www.clarin.com/ieco/provincia-obtuvo-millones-colocacion-Letras_0_1630037028.html
p3
aVhttps://www.clarin.com/ieco/provincia-obtuvo-millones-colocacion-Letras_0_1630037028.html
p4
aVhttps://www.clarin.com/politica/Cristina-campana-intendencias-Conurbano-Ensenada_0_1630037020.html
p5
aVhttps://www.clarin.com/politica/Cristina-campana-intendencias-Conurbano-Ensenada_0_1630037020.html
p6
aVhttps://www.clarin.com/sociedad/nutricionistas-ahora-consejos-redes-sociales_0_1630037023.html
p7
aVhttps://www.clarin.com/sociedad/nutricionistas-ahora-consejos-redes-sociales_0_1630037023.html
p8
aVhttps://www.clarin.com/sociedad/presentaron-deuncias-Cordera-apologia-delito_0_1630037024.html
p9
aVhttps://www.clarin.com/sociedad/presentaron-deuncias-Cordera-apologia-delito_0_1630037024.html
p10
aVhttps://www.clarin.com/ieco/incertidumbre-politica-mundial-crece-interes_0_1630037021.html
p11
aVhttps://www.clarin.com/ieco/incertidumbre-politica-mundial-crece-interes_0_1630037021.html
p12
aVhttps://www.clarin.com/ieco/discusiones-tarifarias-asisten-millones-distribuidoras_0_1630037022.html
p13
aVhttps://www.clarin.com/ieco/discusiones-tarifarias-asisten-millones-distribuidoras_0_1630037022.html
p14
aVhttps://www.clarin.com/politica/dura-cancion-Vido-agrupacion-macrista_0_1630037017.html
p15
aVhttps://www.clarin.com/politica/dura-cancion-Vido-agrupacion-macrista_0_1630037017.html
p16
a.