(lp0
Vhttps://www.clarin.com/politica/Milani-Verbitsky-explicar-dictadura-militar_0_1659434127.html
p1
aVhttps://www.clarin.com/politica/Milani-Verbitsky-explicar-dictadura-militar_0_1659434127.html
p2
aVhttps://www.clarin.com/sociedad/padre-expulsado-video-sexual-circulado_0_1659434122.html
p3
aVhttps://www.clarin.com/sociedad/padre-expulsado-video-sexual-circulado_0_1659434122.html
p4
aVhttps://www.clarin.com/ieco/Moodys-advierte-Argentina-mejorar-nota_0_1659434115.html
p5
aVhttps://www.clarin.com/ieco/Moodys-advierte-Argentina-mejorar-nota_0_1659434115.html
p6
aVhttps://www.clarin.com/sociedad/choferes-llevaban-estudiantes-Bariloche-pasaron_0_1659434114.html
p7
aVhttps://www.clarin.com/sociedad/choferes-llevaban-estudiantes-Bariloche-pasaron_0_1659434114.html
p8
aVhttps://www.clarin.com/politica/dice-acta-firmo-Gobierno-CGT_0_1659434110.html
p9
a.