(lp0
Vhttps://www.clarin.com/sociedad/secretarias-famosos-celebran-dia_0_1643835740.html
p1
aVhttps://www.clarin.com/sociedad/secretarias-famosos-celebran-dia_0_1643835740.html
p2
aVhttps://www.clarin.com/sociedad/Rosas-alla-antesala_0_1643835742.html
p3
aVhttps://www.clarin.com/sociedad/Rosas-alla-antesala_0_1643835742.html
p4
a.