(lp0
Vhttps://www.clarin.com/politica/Maximo-coca-mano-entrada-tarde_0_1540646183.html
p1
aVhttps://www.clarin.com/politica/Maximo-coca-mano-entrada-tarde_0_1540646183.html
p2
aVhttps://www.clarin.com/politica/Macri-Congreso-Judio-Mundial-escuchara_0_1540646120.html
p3
aVhttps://www.clarin.com/politica/Macri-Congreso-Judio-Mundial-escuchara_0_1540646120.html
p4
aVhttps://www.clarin.com/politica/Lorenzetti-urgente-politica-impunidad_0_1540646165.html
p5
aVhttps://www.clarin.com/politica/Lorenzetti-urgente-politica-impunidad_0_1540646165.html
p6
aVhttps://www.clarin.com/politica/municipio-convocan-docentes-marcha-buitres_0_1540646162.html
p7
aVhttps://www.clarin.com/politica/municipio-convocan-docentes-marcha-buitres_0_1540646162.html
p8
aVhttps://www.clarin.com/sociedad/Explosiones-explicarian-desapariciones-Triangulo-Bermudas_0_1540646159.html
p9
aVhttps://www.clarin.com/sociedad/Explosiones-explicarian-desapariciones-Triangulo-Bermudas_0_1540646159.html
p10
aVhttps://www.clarin.com/ieco/finanzas/Quinta-caida-consecutiva-Bolsa-portena_0_1540646158.html
p11
aVhttps://www.clarin.com/ieco/gobierno-apura-medidas-rescate-tamberos_0_1540646153.html
p12
aVhttps://www.clarin.com/ieco/gobierno-apura-medidas-rescate-tamberos_0_1540646153.html
p13
a.