(lp0
Vhttps://www.clarin.com/politica/Confeso-Urtubey-Isabel-bastante-limitada_0_1688231201.html
p1
aVhttps://www.clarin.com/politica/Confeso-Urtubey-Isabel-bastante-limitada_0_1688231201.html
p2
aVhttps://www.clarin.com/politica/diputado-PRO-dolar-deberia-pesos_0_1688231195.html
p3
aVhttps://www.clarin.com/politica/diputado-PRO-dolar-deberia-pesos_0_1688231195.html
p4
aVhttps://www.clarin.com/sociedad/hombre-mundo-kilos-comienza-tratamiento_0_1688231196.html
p5
aVhttps://www.clarin.com/sociedad/hombre-mundo-kilos-comienza-tratamiento_0_1688231196.html
p6
aVhttps://www.clarin.com/ieco/Snapchat-comienza-proceso-salir-Bolsa_0_1688231197.html
p7
aVhttps://www.clarin.com/ieco/Snapchat-comienza-proceso-salir-Bolsa_0_1688231197.html
p8
aVhttps://www.clarin.com/politica/Guino-Massa-votan-proyectos-dando_0_1688231191.html
p9
aVhttps://www.clarin.com/politica/Guino-Massa-votan-proyectos-dando_0_1688231191.html
p10
aVhttps://www.clarin.com/sociedad/denuncia-separan-vicedecano-Universidad-Moron_0_1688231185.html
p11
aVhttps://www.clarin.com/sociedad/denuncia-separan-vicedecano-Universidad-Moron_0_1688231185.html
p12
aVhttps://www.clarin.com/politica/debate-presidencial-obligatorio-quedo-convertirse_0_1688231190.html
p13
aVhttps://www.clarin.com/politica/debate-presidencial-obligatorio-quedo-convertirse_0_1688231190.html
p14
a.