(lp0
S'https://www.clarin.com/opinion/cultivar-arte-conversacion-publica_0_1504649556.html'
p1
aS'https://www.clarin.com/sociedad/Celulares-caros-ano-arranca-subas_0_1504050045.html'
p2
aS'https://www.clarin.com/sociedad/dinosaurio-grande-Patagonia-Nueva-York_0_1504050006.html'
p3
aS'https://www.clarin.com/politica/Criminales-policias-narcos-espias_0_1504649551.html'
p4
aS'https://www.clarin.com/politica/Presupuesto-Provincia-kirchnerismo-dividido-aprobo_0_1504649547.html'
p5
aS'https://www.clarin.com/politica/Presupuesto-Provincia-kirchnerismo-dividido-aprobo_0_1504649547.html'
p6
a.