(lp0
S'https://www.clarin.com/politica/Fuerzas_Armadas-Suner-Bari_del_valle_sosa-Srur-Amrein_0_1504049967.html'
p1
aS'https://www.clarin.com/politica/Fuerzas_Armadas-Suner-Bari_del_valle_sosa-Srur-Amrein_0_1504049967.html'
p2
aS'https://www.clarin.com/ieco/economia/dolar-baja-centavos_0_1504049848.html'
p3
aS'https://www.clarin.com/politica/nisman-afi_0_1504049958.html'
p4
aS'https://www.clarin.com/politica/nisman-afi_0_1504049958.html'
p5
aS'https://www.clarin.com/sociedad/argentino-Kate-Castillo-Chapo-Guzman_0_1504049945.html'
p6
aS'https://www.clarin.com/sociedad/argentino-Kate-Castillo-Chapo-Guzman_0_1504049945.html'
p7
aS'https://www.clarin.com/politica/Campora-ofensiva-cuadras-Quinta-Olivos_0_1504049942.html'
p8
aS'https://www.clarin.com/politica/Jujuy-Milagro_Sala-acampe-Gerardo_Morales_0_1504049946.html'
p9
aS'https://www.clarin.com/politica/Jujuy-Milagro_Sala-acampe-Gerardo_Morales_0_1504049946.html'
p10
a.