(lp0
S'https://www.clarin.com/politica/kelpers-siguen-rechazando-directo-Argentina_0_1630636988.html'
p1
aS'https://www.clarin.com/sociedad/Aprueban-Chubut-hospitales-garanticen-medicinal_0_1630636993.html'
p2
aS'https://www.clarin.com/sociedad/insolito-pato-robaron-vuelta-mundo_0_1630636973.html'
p3
aS'https://www.clarin.com/sociedad/Stolbizer-apoyar-Rio-hermoso-Juegos_0_1630636987.html'
p4
a.