(lp0
S'https://www.clarin.com/sociedad/chicos-consumen-extasis-partir-anos_0_1563443856.html'
p1
aS'https://www.clarin.com/sociedad/anoranza-hoy-revancha_0_1562843859.html'
p2
aS'https://www.clarin.com/sociedad/financiarse-bomberos-construyen-edificio-departamentos_0_1564043639.html'
p3
aS'https://www.clarin.com/politica/testigo-protegido-Farina-aislado-preso_0_1564043634.html'
p4
aS'https://www.clarin.com/politica/millonario-patrimonio-abogado-Lazaro-Baez_0_1564043640.html'
p5
aS'https://www.clarin.com/sociedad/Investigan-Costa-Salguero-borraron-tragica_0_1564043632.html'
p6
a.