(lp0
S'https://www.clarin.com/sociedad/Iglesia-critica-Justicia-allanamiento-clausura_0_1655234540.html'
p1
aS'https://www.clarin.com/politica/Peronistas-kirchneristas-cierran-gobernadores-pedir_0_1655234549.html'
p2
aS'https://www.clarin.com/opinion/ratones-dudas-amor_0_1654634669.html'
p3
aS'https://www.clarin.com/politica/Imputan-Recalde-polemico-convenio_0_1655234547.html'
p4
a.