(lp0
S'https://www.clarin.com/politica/Angola-Davos_0_1507649274.html'
p1
aS'https://www.clarin.com/ieco/economia/China-politica_0_1507649412.html'
p2
aS'https://www.clarin.com/ieco/economia/China-politica_0_1507649412.html'
p3
aS'https://www.clarin.com/politica/Macri-Davos-relacion-Reino-Unido_0_1507649260.html'
p4
aS'https://www.clarin.com/politica/Macri-Davos-relacion-Reino-Unido_0_1507649260.html'
p5
aS'https://www.clarin.com/politica/berni-perez_corradi-efedrina_0_1507649266.html'
p6
aS'https://www.clarin.com/politica/perez_corradi-triple_fuga-berni_0_1507649265.html'
p7
aS'https://www.clarin.com/opinion/Mauricio_Macri-Tabare_Vazquez-relaciones_bilaterales-pasteras-contaminacion_0_1507649255.html'
p8
aS'https://www.clarin.com/opinion/Cambiemos-PRO-UCR-partidos-coalicion_de_gobierno_0_1507649254.html'
p9
aS'https://www.clarin.com/opinion/Cambiemos-PRO-UCR-partidos-coalicion_de_gobierno_0_1507649254.html'
p10
aS'https://www.clarin.com/opinion/Protesta_social-derechos_civiles-piquetes-estado_de_derecho_0_1507649253.html'
p11
aS'https://www.clarin.com/politica/6-7-8-Medios-PPT-Anses-Publicidad-Denuncias_0_1507649247.html'
p12
aS'https://www.clarin.com/politica/Petrobras-De_Vido-Corrupcion-Electroingenieria_0_1507649246.html'
p13
aS'https://www.clarin.com/politica/ANSeS-AUH-Jubilaciones-Movilidad-Basavilbaso_0_1507649245.html'
p14
a.