(lp0
S'https://www.clarin.com/politica/Ahora-Lazaro-Martin-Baez-facturacion_0_1638436205.html'
p1
aS'https://www.clarin.com/politica/Ahora-Lazaro-Martin-Baez-facturacion_0_1638436205.html'
p2
aS'https://www.clarin.com/ieco/Fuerte-ventas-consumo-masivo-Ciudad_0_1638436201.html'
p3
aS'https://www.clarin.com/ieco/Fuerte-ventas-consumo-masivo-Ciudad_0_1638436201.html'
p4
aS'https://www.clarin.com/politica/Malvinas-Confirman-Israel-ayudo-Argentina_0_1638436193.html'
p5
aS'https://www.clarin.com/politica/Malvinas-Confirman-Israel-ayudo-Argentina_0_1638436193.html'
p6
aS'https://www.clarin.com/ieco/economia/Cabrera-admitio-problemas-empleo-productividad_0_1638436197.html'
p7
aS'https://www.clarin.com/ieco/economia/Cabrera-admitio-problemas-empleo-productividad_0_1638436197.html'
p8
aS'https://www.clarin.com/sociedad/Allanan-convento-Rios-torturas-monjas_0_1638436198.html'
p9
aS'https://www.clarin.com/sociedad/Allanan-convento-Rios-torturas-monjas_0_1638436198.html'
p10
aS'https://www.clarin.com/ieco/Expertos-advierten-esperar-llegada-inversiones_0_1638436196.html'
p11
aS'https://www.clarin.com/ieco/Expertos-advierten-esperar-llegada-inversiones_0_1638436196.html'
p12
aS'https://www.clarin.com/sociedad/Murio-Sonia-Rykiel-reina-tejido_0_1638436192.html'
p13
aS'https://www.clarin.com/sociedad/Murio-Sonia-Rykiel-reina-tejido_0_1638436192.html'
p14
aS'https://www.clarin.com/sociedad/Egresados-simbolos-sancionaran-alumnos-colegio_0_1638436190.html'
p15
aS'https://www.clarin.com/sociedad/Egresados-simbolos-sancionaran-alumnos-colegio_0_1638436190.html'
p16
a.