(lp0
Vhttps://www.clarin.com/politica/Gomez-Centurion-apunta-inteligencia-Ejercito_0_1655234608.html
p1
aVhttps://www.clarin.com/politica/Gomez-Centurion-apunta-inteligencia-Ejercito_0_1655234608.html
p2
aVhttps://www.clarin.com/politica/Rechazan-prision-domiciliaria-Lazaro-Baez_0_1655834581.html
p3
aVhttps://www.clarin.com/politica/Rechazan-prision-domiciliaria-Lazaro-Baez_0_1655834581.html
p4
aVhttps://www.clarin.com/sociedad/Buscan-establecer-dias-clase-partir_0_1655834579.html
p5
aVhttps://www.clarin.com/sociedad/Buscan-establecer-dias-clase-partir_0_1655834579.html
p6
aVhttps://www.clarin.com/sociedad/aula-celebracion-aprendizaje_0_1655834578.html
p7
aVhttps://www.clarin.com/sociedad/Cumplir-calendario-garantizar-derechos_0_1655834577.html
p8
a.