(lp0
S'https://www.clarin.com/politica/Elisa-Carrio-Gils-Carbo-personal_0_1686431371.html'
p1
aS'https://www.clarin.com/politica/Elisa-Carrio-Gils-Carbo-personal_0_1686431371.html'
p2
aS'https://www.clarin.com/sociedad/abuela-Zarate-festejo-anos_0_1686431368.html'
p3
aS'https://www.clarin.com/sociedad/abuela-Zarate-festejo-anos_0_1686431368.html'
p4
aS'https://www.clarin.com/politica/Elisa-Carrio-Gils-Carbo-personal_0_1686431365.html'
p5
aS'https://www.clarin.com/politica/Elisa-Carrio-Gils-Carbo-personal_0_1686431365.html'
p6
aS'https://www.clarin.com/politica/Elisa-Carrio-Gils-Carbo-personal_0_1686431362.html'
p7
aS'https://www.clarin.com/politica/Elisa-Carrio-Gils-Carbo-personal_0_1686431362.html'
p8
aS'https://www.clarin.com/sociedad/llevaron-camioneta-California-trajeron-vuelta_0_1686431360.html'
p9
aS'https://www.clarin.com/sociedad/llevaron-camioneta-California-trajeron-vuelta_0_1686431360.html'
p10
a.