(lp0
Vhttps://www.clarin.com/sociedad/pedido-casamiento-olimpico-despues-rugby_0_1628837200.html
p1
aVhttps://www.clarin.com/sociedad/pedido-casamiento-olimpico-despues-rugby_0_1628837200.html
p2
aVhttps://www.clarin.com/politica/Debate-Gobierno-audiencia-avanzar-aumento_0_1628837201.html
p3
aVhttps://www.clarin.com/politica/Debate-Gobierno-audiencia-avanzar-aumento_0_1628837201.html
p4
aVhttps://www.clarin.com/sociedad/Tragedia-fisicoculturistas-muertos-campeona-nacional_0_1628837193.html
p5
aVhttps://www.clarin.com/sociedad/Tragedia-fisicoculturistas-muertos-campeona-nacional_0_1628837193.html
p6
aVhttps://www.clarin.com/politica/Villa-desmienten-Cristina-Kirchner_0_1628837196.html
p7
aVhttps://www.clarin.com/politica/Villa-desmienten-Cristina-Kirchner_0_1628837196.html
p8
aVhttps://www.clarin.com/ieco/Facebook-firme-bloqueadores-avisos-online_0_1628837194.html
p9
aVhttps://www.clarin.com/ieco/Facebook-firme-bloqueadores-avisos-online_0_1628837194.html
p10
aVhttps://www.clarin.com/sociedad/Segunda-Guerra-descubren-presuntos-criminales_0_1628837189.html
p11
aVhttps://www.clarin.com/sociedad/Segunda-Guerra-descubren-presuntos-criminales_0_1628837189.html
p12
aVhttps://www.clarin.com/sociedad/desesperada-carta-logro-ataque-marido_0_1628837186.html
p13
aVhttps://www.clarin.com/sociedad/desesperada-carta-logro-ataque-marido_0_1628837186.html
p14
aVhttps://www.clarin.com/sociedad/toboganes-acuaticos-impresionantes-mundo_0_1628837184.html
p15
aVhttps://www.clarin.com/sociedad/toboganes-acuaticos-impresionantes-mundo_0_1628837184.html
p16
a.