(lp0
Vhttps://www.clarin.com/politica/Carrio-respaldo-politica-economica-Macri_0_1591040887.html
p1
aVhttps://www.clarin.com/politica/Carrio-respaldo-politica-economica-Macri_0_1591040887.html
p2
aVhttps://www.clarin.com/sociedad/Puso-inmobiliaria-acusan-liderar-trata_0_1590441096.html
p3
aVhttps://www.clarin.com/sociedad/Puso-inmobiliaria-acusan-liderar-trata_0_1590441096.html
p4
aVhttps://www.clarin.com/ieco/dolar-volvio-bajar-Gobierno-preocupacion_0_1590441113.html
p5
aVhttps://www.clarin.com/ieco/dolar-volvio-bajar-Gobierno-preocupacion_0_1590441113.html
p6
aVhttps://www.clarin.com/politica/aguinaldo-sube-descuento-Ganancias-junio_0_1590441110.html
p7
aVhttps://www.clarin.com/politica/aguinaldo-sube-descuento-Ganancias-junio_0_1590441110.html
p8
aVhttps://www.clarin.com/sociedad/paro-medicos-podran-jubilarse-anos_0_1590441118.html
p9
aVhttps://www.clarin.com/sociedad/paro-medicos-podran-jubilarse-anos_0_1590441118.html
p10
aVhttps://www.clarin.com/opinion/espias-siempre-primer-plano_0_1591040885.html
p11
aVhttps://www.clarin.com/opinion/espias-siempre-primer-plano_0_1591040885.html
p12
aVhttps://www.clarin.com/sociedad/falta-boletines-notas-tiritas-papel_0_1590441115.html
p13
aVhttps://www.clarin.com/sociedad/falta-boletines-notas-tiritas-papel_0_1590441115.html
p14
a.