(lp0
S'https://www.clarin.com/politica/Senado-Gabriela_Michetti-Amado_Boudou_0_1498050538.html'
p1
aS'https://www.clarin.com/politica/Senado-Gabriela_Michetti-Amado_Boudou_0_1498050538.html'
p2
aS'https://www.clarin.com/sociedad/cancer-fumador_0_1498050537.html'
p3
aS'https://www.clarin.com/sociedad/cancer-fumador_0_1498050537.html'
p4
aS'https://www.clarin.com/ieco/economia/Wall-Street-perdidas-Dow-Jones_0_1498050480.html'
p5
aS'https://www.clarin.com/politica/Disolvieron-encargada-planificar-inversiones-hidrocarburos_0_1498050526.html'
p6
aS'https://www.clarin.com/politica/Disolvieron-encargada-planificar-inversiones-hidrocarburos_0_1498050526.html'
p7
aS'https://www.clarin.com/politica/Sobreseyeron-Ernestina-Herrera-Noble-apropiacion_0_1498050518.html'
p8
aS'https://www.clarin.com/politica/mails-jofre-arroyo_salgado_0_1498050523.html'
p9
aS'https://www.clarin.com/politica/mails-jofre-arroyo_salgado_0_1498050523.html'
p10
aS'https://www.clarin.com/sociedad/Apunalo-novia-calle-horas-preso_0_1498050514.html'
p11
aS'https://www.clarin.com/sociedad/Apunalo-novia-calle-horas-preso_0_1498050514.html'
p12
a.