(lp0
Vhttps://www.clarin.com/politica/Maximo-Kirchner-Bonafini-dispuesta-cuerpo_0_1625837597.html
p1
aVhttps://www.clarin.com/politica/Maximo-Kirchner-Bonafini-dispuesta-cuerpo_0_1625837597.html
p2
aVhttps://www.clarin.com/politica/lanzo-carrera-unificacion-CGT_0_1625837596.html
p3
a.