(lp0
Vhttps://www.clarin.com/sociedad/Fotos-videos-grados-apuesta-celulares_0_1526847707.html
p1
aVhttps://www.clarin.com/sociedad/Fotos-videos-grados-apuesta-celulares_0_1526847707.html
p2
aVhttps://www.clarin.com/sociedad/busqueda-diferenciarse_0_1526847709.html
p3
aVhttps://www.clarin.com/sociedad/Horror-Ballester-mato-nietos-suicido_0_1526847728.html
p4
aVhttps://www.clarin.com/sociedad/Horror-Ballester-mato-nietos-suicido_0_1526847728.html
p5
aVhttps://www.clarin.com/politica/hollande-derechos_humanos_0_1526847757.html
p6
aVhttps://www.clarin.com/politica/milagro-rosario-papa_0_1526847755.html
p7
aVhttps://www.clarin.com/politica/milagro_sala-de_vido_0_1526847754.html
p8
aVhttps://www.clarin.com/ieco/economia/griesa-negociaciones-Congreso_0_1526847751.html
p9
aVhttps://www.clarin.com/ieco/economia/financista-300_millones_0_1526847748.html
p10
a.