(lp0
Vhttps://www.clarin.com/sociedad/UBA-entro-selecto-mejores-universidades_0_1645035644.html
p1
aVhttps://www.clarin.com/sociedad/UBA-entro-selecto-mejores-universidades_0_1645035644.html
p2
aVhttps://www.clarin.com/sociedad/Deuda-chicos-apenas-horas-colegio_0_1645035634.html
p3
aVhttps://www.clarin.com/sociedad/Deuda-chicos-apenas-horas-colegio_0_1645035634.html
p4
a.