(lp0
S'https://www.clarin.com/politica/Coctel-movidas-fiscales-legales-politicas_0_1545445907.html'
p1
aS'https://www.clarin.com/sociedad/Tecnica-virtuosismo-maravillan-gran-publico_0_1545445922.html'
p2
aS'https://www.clarin.com/politica/Acuerdos-EEUU-comercio-lucha-terrorismo_0_1545445958.html'
p3
aS'https://www.clarin.com/politica/querellas-celebran-Lagomarsino-estudia-apelar_0_1545445844.html'
p4
aS'https://www.clarin.com/politica/CNEA-senalado-Stiuso-gerente-general_0_1545445826.html'
p5
aS'https://www.clarin.com/politica/Obama-homenaje-desaparecidos-parque-Memoria_0_1545445871.html'
p6
aS'https://www.clarin.com/politica/Alicia-Kirchner-Baez-socio-familia_0_1545445936.html'
p7
aS'https://www.clarin.com/politica/crisis-Brasil-buitre-temario-reunion_0_1545445952.html'
p8
aS'https://www.clarin.com/politica/marchas-actos-interior-anos-golpe_0_1545445908.html'
p9
a.