(lp0
S'https://www.clarin.com/ieco/economia/Retroceso-automotriz-cayo-produccion-exportaciones_0_1533447048.html'
p1
aS'https://www.clarin.com/politica/Servini-intervenga-Cancilleria-Perez-Corradi_0_1533447028.html'
p2
aS'https://www.clarin.com/ieco/recaudacion-impositiva-crecio-febrero_0_1533447044.html'
p3
aS'https://www.clarin.com/ieco/economia/mercado-inmobiliario-recuperandose-crecio-enero_0_1533447027.html'
p4
aS'https://www.clarin.com/sociedad/Comienza-ciclo-Maestria-Periodismo-Clarin_0_1533447024.html'
p5
aS'https://www.clarin.com/ieco/Fondos-buitre-Prat-Gay-manana-Congreso_0_1533447049.html'
p6
a.