(lp0
Vhttps://www.clarin.com/sociedad/blanca-atraveso-cielo-Ovni-NASA_0_1585041570.html
p1
aVhttps://www.clarin.com/sociedad/blanca-atraveso-cielo-Ovni-NASA_0_1585041570.html
p2
aVhttps://www.clarin.com/politica/Ocana-pedira-investigue-Casanello_0_1585041568.html
p3
a.