(lp0
S'https://www.clarin.com/sociedad/Italia-eligieron-Miss-Suegra_0_1586241437.html'
p1
aS'https://www.clarin.com/sociedad/Italia-eligieron-Miss-Suegra_0_1586241437.html'
p2
aS'https://www.clarin.com/sociedad/Gripe-produjeron-muertes-Argentina_0_1586241440.html'
p3
aS'https://www.clarin.com/sociedad/Gripe-produjeron-muertes-Argentina_0_1586241440.html'
p4
aS'https://www.clarin.com/politica/Crisis-Santa-Cruz-semana-clases_0_1586241443.html'
p5
aS'https://www.clarin.com/politica/Crisis-Santa-Cruz-semana-clases_0_1586241443.html'
p6
aS'https://www.clarin.com/sociedad/Video-aterrizaje-cohete-primera-persona_0_1586241439.html'
p7
aS'https://www.clarin.com/sociedad/Video-aterrizaje-cohete-primera-persona_0_1586241439.html'
p8
aS'https://www.clarin.com/ieco/economia/produccion-pymes-industriales-cayo-abril_0_1586241438.html'
p9
aS'https://www.clarin.com/ieco/economia/produccion-pymes-industriales-cayo-abril_0_1586241438.html'
p10
aS'https://www.clarin.com/ieco/economia/Buscan-habilitar-acciones-ANSES-jubilados_0_1586241433.html'
p11
aS'https://www.clarin.com/ieco/economia/Buscan-habilitar-acciones-ANSES-jubilados_0_1586241433.html'
p12
aS'https://www.clarin.com/politica/titular-Anses-blanqueo-juicio-jubilados_0_1586241432.html'
p13
aS'https://www.clarin.com/politica/titular-Anses-blanqueo-juicio-jubilados_0_1586241432.html'
p14
a.