(lp0
S'https://www.clarin.com/politica/Boudou-visitar-Milagro-Sala-carcel_0_1621038064.html'
p1
aS'https://www.clarin.com/politica/Boudou-visitar-Milagro-Sala-carcel_0_1621038064.html'
p2
aS'https://www.clarin.com/politica/Levantan-aeropuertos-funcionaran-normalmente-manana_0_1621038062.html'
p3
aS'https://www.clarin.com/politica/Levantan-aeropuertos-funcionaran-normalmente-manana_0_1621038062.html'
p4
a.