(lp0
S'https://www.clarin.com/politica/Urtubey-bovedas-plata-profunda-verguenza_0_1564643596.html'
p1
aS'https://www.clarin.com/politica/Urtubey-bovedas-plata-profunda-verguenza_0_1564643596.html'
p2
aS'https://www.clarin.com/sociedad/MiPrimerAcoso-mujeres-comparten-desgarradoras-historias_0_1564643594.html'
p3
aS'https://www.clarin.com/sociedad/MiPrimerAcoso-mujeres-comparten-desgarradoras-historias_0_1564643594.html'
p4
aS'https://www.clarin.com/sociedad/Tenso-comienzo-Mirtha-reclamo-trabajadores_0_1564643541.html'
p5
aS'https://www.clarin.com/sociedad/Tenso-comienzo-Mirtha-reclamo-trabajadores_0_1564643541.html'
p6
aS'https://www.clarin.com/sociedad/Grieta-arde_0_1564043736.html'
p7
aS'https://www.clarin.com/politica/Parrafo-manuscrito-Farina-compromete-Maximo_0_1564643537.html'
p8
aS'https://www.clarin.com/politica/Parrafo-manuscrito-Farina-compromete-Maximo_0_1564643537.html'
p9
aS'https://www.clarin.com/politica/Maximo-Kirchner-Vaya-preparando-valijas_0_1564643534.html'
p10
aS'https://www.clarin.com/politica/Maximo-Kirchner-Vaya-preparando-valijas_0_1564643534.html'
p11
a.