(lp0
S'https://www.clarin.com/sociedad/Mundos_intimos-tartamudez-Daniel_Ulanovsky_0_1517848335.html'
p1
aS'https://www.clarin.com/sociedad/Mundos_intimos-tartamudez-Mauro_Quesada_0_1517848333.html'
p2
aS'https://www.clarin.com/sociedad/Mundos_intimos-tartamudez-Mauro_Quesada_0_1517848333.html'
p3
a.