(lp0
Vhttps://www.clarin.com/politica/ADEPA-actitud-intolerante-Guillermo-Moreno_0_1625837524.html
p1
aVhttps://www.clarin.com/politica/ADEPA-actitud-intolerante-Guillermo-Moreno_0_1625837524.html
p2
aVhttps://www.clarin.com/sociedad/Global-Entry-utilizar-argentinos-EEUU_0_1625837519.html
p3
aVhttps://www.clarin.com/sociedad/Global-Entry-utilizar-argentinos-EEUU_0_1625837519.html
p4
aVhttps://www.clarin.com/politica/Arranco-Congreso-debate-reforma-electoral_0_1625837515.html
p5
aVhttps://www.clarin.com/politica/Arranco-Congreso-debate-reforma-electoral_0_1625837515.html
p6
aVhttps://www.clarin.com/politica/AMIA-investigar-denuncia-Nisman-Cristina_0_1625837513.html
p7
aVhttps://www.clarin.com/politica/AMIA-investigar-denuncia-Nisman-Cristina_0_1625837513.html
p8
aVhttps://www.clarin.com/politica/Cristobal-Lopez-Justicia-levante-inhibicion_0_1625837503.html
p9
aVhttps://www.clarin.com/politica/Cristobal-Lopez-Justicia-levante-inhibicion_0_1625837503.html
p10
a.