(lp0
Vhttps://www.clarin.com/sociedad/Wikipedia-agresiva-campana-conseguir-donaciones_0_1567043377.html
p1
aVhttps://www.clarin.com/sociedad/Wikipedia-agresiva-campana-conseguir-donaciones_0_1567043377.html
p2
aVhttps://www.clarin.com/ieco/Nicolas-Caputo-Macri-asumio-Merval_0_1567043375.html
p3
aVhttps://www.clarin.com/ieco/Nicolas-Caputo-Macri-asumio-Merval_0_1567043375.html
p4
aVhttps://www.clarin.com/politica/Pilar-aprobaron-ordenanza-prohibe-despidos_0_1567043372.html
p5
aVhttps://www.clarin.com/politica/Pilar-aprobaron-ordenanza-prohibe-despidos_0_1567043372.html
p6
aVhttps://www.clarin.com/sociedad/primeras-fotos-tomaron-disponibles-online_0_1567043368.html
p7
aVhttps://www.clarin.com/sociedad/primeras-fotos-tomaron-disponibles-online_0_1567043368.html
p8
aVhttps://www.clarin.com/ieco/economia/Prat-Gay-reclamo-funcionamiento-organismos_0_1567043366.html
p9
aVhttps://www.clarin.com/ieco/economia/Prat-Gay-reclamo-funcionamiento-organismos_0_1567043366.html
p10
aVhttps://www.clarin.com/politica/picantes-Pena-primer-informe-Diputados_0_1567043365.html
p11
aVhttps://www.clarin.com/politica/picantes-Pena-primer-informe-Diputados_0_1567043365.html
p12
aVhttps://www.clarin.com/sociedad/criticas-cambian-nombre-Policia-Infantil_0_1567043360.html
p13
aVhttps://www.clarin.com/sociedad/criticas-cambian-nombre-Policia-Infantil_0_1567043360.html
p14
aVhttps://www.clarin.com/politica/misteriosos-contenedores-Lazaro-Baez-Uruguay_0_1567043363.html
p15
aVhttps://www.clarin.com/politica/misteriosos-contenedores-Lazaro-Baez-Uruguay_0_1567043363.html
p16
aVhttps://www.clarin.com/ieco/primera-anos-cayeron-beneficios-Apple_0_1567043362.html
p17
aVhttps://www.clarin.com/ieco/primera-anos-cayeron-beneficios-Apple_0_1567043362.html
p18
a.