(lp0
S'https://www.clarin.com/ieco/economia/Apretarse-cinturon-adelgazar_0_1623437686.html'
p1
aS'https://www.clarin.com/ieco/economia/Apretarse-cinturon-adelgazar_0_1623437686.html'
p2
aS'https://www.clarin.com/ieco/economia/Universidades-estudiantes-organizan-clubes-negocios_0_1623437685.html'
p3
aS'https://www.clarin.com/ieco/economia/Universidades-estudiantes-organizan-clubes-negocios_0_1623437685.html'
p4
aS'https://www.clarin.com/ieco/economia/gana-pelea_0_1623437681.html'
p5
aS'https://www.clarin.com/ieco/economia/gana-pelea_0_1623437681.html'
p6
aS'https://www.clarin.com/ieco/economia/estrategias-empresas-encontrar-personal_0_1623437679.html'
p7
aS'https://www.clarin.com/ieco/economia/estrategias-empresas-encontrar-personal_0_1623437679.html'
p8
aS'https://www.clarin.com/ieco/economia/TIC-demanda-empleados-supera-oferta_0_1623437677.html'
p9
aS'https://www.clarin.com/ieco/economia/TIC-demanda-empleados-supera-oferta_0_1623437677.html'
p10
aS'https://www.clarin.com/ieco/economia/Buscan-afinar-estrategia-Buenos-Aires_0_1623437675.html'
p11
aS'https://www.clarin.com/ieco/economia/Gobierno-consigue-achicar-deficit-fiscal_0_1623437671.html'
p12
aS'https://www.clarin.com/ieco/economia/superavit-record-Alemania_0_1623437670.html'
p13
aS'https://www.clarin.com/ieco/economia/superavit-record-Alemania_0_1623437670.html'
p14
aS'https://www.clarin.com/ieco/economia/Preocupan-Greenspan-precios-demasiado-bonos_0_1623437669.html'
p15
aS'https://www.clarin.com/ieco/economia/Preocupan-Greenspan-precios-demasiado-bonos_0_1623437669.html'
p16
aS'https://www.clarin.com/ieco/economia/petroleo-enfrenta-gran-prueba_0_1623437668.html'
p17
a.