(lp0
Vhttps://www.clarin.com/politica/Echegaray-auditar-organismos-gestion-kirchnerista_0_1541246117.html
p1
aVhttps://www.clarin.com/politica/Echegaray-auditar-organismos-gestion-kirchnerista_0_1541246117.html
p2
aVhttps://www.clarin.com/sociedad/primer-stent-soluble-cerca-aprobado_0_1541246133.html
p3
aVhttps://www.clarin.com/sociedad/primer-stent-soluble-cerca-aprobado_0_1541246133.html
p4
aVhttps://www.clarin.com/sociedad/Sorprendieron-ahora-filman-arreo-ganado_0_1541246101.html
p5
aVhttps://www.clarin.com/sociedad/Sorprendieron-ahora-filman-arreo-ganado_0_1541246101.html
p6
aVhttps://www.clarin.com/ieco/Sube-Bolsa-media-sancion-Diputados_0_1541246132.html
p7
aVhttps://www.clarin.com/sociedad/Muchas-bicicletas-shopping-cero-controles_0_1541246128.html
p8
aVhttps://www.clarin.com/sociedad/Muchas-bicicletas-shopping-cero-controles_0_1541246128.html
p9
aVhttps://www.clarin.com/sociedad/Doble-Ecuador-argentinos-confirmaron-mendocinas_0_1541246120.html
p10
aVhttps://www.clarin.com/sociedad/Doble-Ecuador-argentinos-confirmaron-mendocinas_0_1541246120.html
p11
aVhttps://www.clarin.com/politica/Tagliaferro-separo-Maria-Eugenia-Vidal_0_1541246113.html
p12
aVhttps://www.clarin.com/politica/Tagliaferro-separo-Maria-Eugenia-Vidal_0_1541246113.html
p13
a.