(lp0
Vhttps://www.clarin.com/politica/PRO-dicen-campanas-buena_0_1683431845.html
p1
aVhttps://www.clarin.com/politica/PRO-dicen-campanas-buena_0_1683431845.html
p2
aVhttps://www.clarin.com/politica/delegacion-politicos-argentinos-numerosas-Washington_0_1683431841.html
p3
aVhttps://www.clarin.com/politica/delegacion-politicos-argentinos-numerosas-Washington_0_1683431841.html
p4
aVhttps://www.clarin.com/sociedad/quiero-hombres-elijan-pedazos-carne_0_1683431837.html
p5
aVhttps://www.clarin.com/sociedad/quiero-hombres-elijan-pedazos-carne_0_1683431837.html
p6
aVhttps://www.clarin.com/sociedad/Sexto-Provincia-clases-millones-chicos_0_1683431834.html
p7
aVhttps://www.clarin.com/politica/Casacion-desistio-impulsar-denuncia-Nisman_0_1683431814.html
p8
aVhttps://www.clarin.com/politica/Casacion-desistio-impulsar-denuncia-Nisman_0_1683431814.html
p9
aVhttps://www.clarin.com/politica/gesto-opositor-Senado-inversiones-Macri_0_1683431833.html
p10
aVhttps://www.clarin.com/politica/Traicion-Patria-Timerman-seguira-investigacion_0_1683431822.html
p11
aVhttps://www.clarin.com/politica/Traicion-Patria-Timerman-seguira-investigacion_0_1683431822.html
p12
a.