(lp0
S'https://www.clarin.com/sociedad/casos-dengue-Provincia-sospechosos-chikungunya_0_1513048927.html'
p1
aS'https://www.clarin.com/sociedad/casos-dengue-Provincia-sospechosos-chikungunya_0_1513048927.html'
p2
aS'https://www.clarin.com/sociedad/vacuna-zika-podria-tardar-llegar_0_1513048918.html'
p3
aS'https://www.clarin.com/sociedad/vacuna-zika-podria-tardar-llegar_0_1513048918.html'
p4
aS'https://www.clarin.com/politica/Cafe-Literario-Marquitos-Pino-Abal_0_1513048908.html'
p5
aS'https://www.clarin.com/politica/Cafe-Literario-Marquitos-Pino-Abal_0_1513048908.html'
p6
aS'https://www.clarin.com/ieco/economia/desencuentro-ministro-Agroindustria-Mesa-Enlace_0_1513048903.html'
p7
aS'https://www.clarin.com/ieco/economia/Central-empleados-incluidos-pareja-Vanoli_0_1513048904.html'
p8
aS'https://www.clarin.com/ieco/economia/Central-empleados-incluidos-pareja-Vanoli_0_1513048904.html'
p9
a.