(lp0
Vhttps://www.clarin.com/sociedad/Stinfale-Casanello-reciba-puerta_0_1570043104.html
p1
aVhttps://www.clarin.com/sociedad/Stinfale-Casanello-reciba-puerta_0_1570043104.html
p2
aVhttps://www.clarin.com/politica/duro-cruce-Brancatelli-funcionario-macrista_0_1570043089.html
p3
aVhttps://www.clarin.com/politica/duro-cruce-Brancatelli-funcionario-macrista_0_1570043089.html
p4
aVhttps://www.clarin.com/sociedad/Time-Warp-detener-Victor-Stinfale_0_1570043085.html
p5
aVhttps://www.clarin.com/sociedad/Time-Warp-detener-Victor-Stinfale_0_1570043085.html
p6
a.