(lp0
S'https://www.clarin.com/ieco/economia/Trabas-biodiesel-argentino-Peru-US_0_1675632603.html'
p1
aS'https://www.clarin.com/ieco/economia/Trabas-biodiesel-argentino-Peru-US_0_1675632603.html'
p2
a.