(lp0
S'https://www.clarin.com/ieco/economia/Google-destrona-Apple-compania-valuada_0_1515448653.html'
p1
aS'https://www.clarin.com/ieco/economia/Google-destrona-Apple-compania-valuada_0_1515448653.html'
p2
aS'https://www.clarin.com/sociedad/humedales-delta-parana-ramsar-importancia-internacional_0_1515448642.html'
p3
aS'https://www.clarin.com/sociedad/humedales-delta-parana-ramsar-importancia-internacional_0_1515448642.html'
p4
aS'https://www.clarin.com/sociedad/mitos-dengue_0_1515448636.html'
p5
aS'https://www.clarin.com/sociedad/mitos-dengue_0_1515448636.html'
p6
aS'https://www.clarin.com/sociedad/Baradel-reitero-aumento-debe_0_1515448634.html'
p7
aS'https://www.clarin.com/sociedad/Baradel-reitero-aumento-debe_0_1515448634.html'
p8
aS'https://www.clarin.com/ieco/economia/mayoria-trabajadores-cumplir-Bienes-Personales_0_1515448641.html'
p9
aS'https://www.clarin.com/sociedad/paso-fronterizo-cristo-redentor_0_1515448619.html'
p10
aS'https://www.clarin.com/sociedad/paso-fronterizo-cristo-redentor_0_1515448619.html'
p11
aS'https://www.clarin.com/ieco/WhatsApp-supero-millones-usuarios_0_1515448635.html'
p12
aS'https://www.clarin.com/ieco/WhatsApp-supero-millones-usuarios_0_1515448635.html'
p13
aS'https://www.clarin.com/politica/Hugo-Yasky-Ponerle-paritarias-inaceptable_0_1515448631.html'
p14
aS'https://www.clarin.com/politica/Hugo-Yasky-Ponerle-paritarias-inaceptable_0_1515448631.html'
p15
aS'https://www.clarin.com/ieco/economia/elecciones-EEUU-juega-destino-planeta_0_1515448625.html'
p16
aS'https://www.clarin.com/ieco/economia/dolar-abre-estable_0_1515448623.html'
p17
a.