(lp0
S'https://www.clarin.com/politica/final-frenan-traslado-Puente-Noria_0_1543645973.html'
p1
aS'https://www.clarin.com/opinion/Semana-Santa-alla-religioso_0_1543645927.html'
p2
aS'https://www.clarin.com/opinion/traspaso-Federal-recuperar-seguridad_0_1543645929.html'
p3
aS'https://www.clarin.com/politica/Echegaray-beneficio-empresarios-medios_0_1544245591.html'
p4
aS'https://www.clarin.com/opinion/recordada-Cristina_0_1544245583.html'
p5
aS'https://www.clarin.com/politica/Casanello-videos-Rosadita-verdadera-sorpresa_0_1544245576.html'
p6
aS'https://www.clarin.com/politica/EEUU-reanuda-cooperacion-Argentina-dinero_0_1544245590.html'
p7
aS'https://www.clarin.com/politica/Intiman-Cristobal-Lopez-deudas-Ciudad_0_1544245604.html'
p8
aS'https://www.clarin.com/politica/dias-caida-temores_0_1544245585.html'
p9
aS'https://www.clarin.com/opinion/mujeres-incubadoras_0_1543645932.html'
p10
aS'https://www.clarin.com/sociedad/especialistas-piden-regule-alquiler-vientres_0_1543645988.html'
p11
a.