(lp0
S'https://www.clarin.com/sociedad/huellas-permiten-descubrirnos_0_1668433301.html'
p1
aS'https://www.clarin.com/ieco/coloquioidea/Massa-IDEA-Vengo-plantear-economico_0_1668433311.html'
p2
aS'https://www.clarin.com/sociedad/vida-Brochero-ficcion-llego-cine_0_1668433330.html'
p3
aS'https://www.clarin.com/politica/Gobierno-Londres-maniobras-militares-Malvinas_0_1668433286.html'
p4
a.