(lp0
S'https://www.clarin.com/ieco/economia/grandes-oportunidades_0_1648635145.html'
p1
aS'https://www.clarin.com/ieco/economia/grandes-oportunidades_0_1648635145.html'
p2
aS'https://www.clarin.com/ieco/economia/Vaca-Muerta-energias-renovables-autoabastecimiento_0_1648635160.html'
p3
aS'https://www.clarin.com/ieco/economia/Vaca-Muerta-energias-renovables-autoabastecimiento_0_1648635160.html'
p4
aS'https://www.clarin.com/ieco/economia/Orejano-duplica-produccion-gas_0_1648635159.html'
p5
aS'https://www.clarin.com/ieco/economia/Orejano-duplica-produccion-gas_0_1648635159.html'
p6
aS'https://www.clarin.com/ieco/economia/China-dice-producira-acero_0_1648635153.html'
p7
aS'https://www.clarin.com/ieco/economia/China-dice-producira-acero_0_1648635153.html'
p8
aS'https://www.clarin.com/ieco/economia/nuevo-lider-innovacion_0_1648635155.html'
p9
aS'https://www.clarin.com/ieco/economia/nuevo-lider-innovacion_0_1648635155.html'
p10
aS'https://www.clarin.com/sociedad/biblioteca-temio-cambios-ahora-festeja_0_1648635157.html'
p11
aS'https://www.clarin.com/sociedad/biblioteca-temio-cambios-ahora-festeja_0_1648635157.html'
p12
a.