(lp0
Vhttps://www.clarin.com/sociedad/Protestaron-animales-muertos-pedir-protejan_0_1681631931.html
p1
aVhttps://www.clarin.com/sociedad/Protestaron-animales-muertos-pedir-protejan_0_1681631931.html
p2
aVhttps://www.clarin.com/politica/Defensa-recuperar-capacidades-Fuerzas-Armadas_0_1681631928.html
p3
aVhttps://www.clarin.com/politica/Defensa-recuperar-capacidades-Fuerzas-Armadas_0_1681631928.html
p4
aVhttps://www.clarin.com/politica/Micheli-Boudou-echar-velorio-Kirchner_0_1681631916.html
p5
aVhttps://www.clarin.com/politica/Micheli-Boudou-echar-velorio-Kirchner_0_1681631916.html
p6
aVhttps://www.clarin.com/politica/Sospechosa-desaparicion-complicaba-Anibal-Fernandez_0_1681631920.html
p7
aVhttps://www.clarin.com/politica/Sospechosa-desaparicion-complicaba-Anibal-Fernandez_0_1681631920.html
p8
a.