(lp0
Vhttps://www.clarin.com/opinion/Mirada-lejana-padre-joven_0_1642635887.html
p1
aVhttps://www.clarin.com/politica/efedrina-declaro-secreto-nombrara-politicos_0_1642635961.html
p2
aVhttps://www.clarin.com/politica/efedrina-declaro-secreto-nombrara-politicos_0_1642635961.html
p3
aVhttps://www.clarin.com/sociedad/esperanza-Valentin-fabricaron-protesis-caminar_0_1642635959.html
p4
aVhttps://www.clarin.com/sociedad/esperanza-Valentin-fabricaron-protesis-caminar_0_1642635959.html
p5
aVhttps://www.clarin.com/politica/Libertad-ADEPA-premio-Magnetto-Saguier_0_1642635958.html
p6
aVhttps://www.clarin.com/politica/Libertad-ADEPA-premio-Magnetto-Saguier_0_1642635958.html
p7
aVhttps://www.clarin.com/politica/Rafecas-proceso-esposa-Jose-Lopez_0_1642635956.html
p8
aVhttps://www.clarin.com/politica/Rafecas-proceso-esposa-Jose-Lopez_0_1642635956.html
p9
aVhttps://www.clarin.com/politica/fiscal-Marijuan-investigar-telefonos-Cristina_0_1642635923.html
p10
aVhttps://www.clarin.com/politica/fiscal-Marijuan-investigar-telefonos-Cristina_0_1642635923.html
p11
a.