(lp0
Vhttps://www.clarin.com/politica/Dictaminan-combatientes-Malvinas-deberan-pension_0_1641435950.html
p1
aVhttps://www.clarin.com/politica/Dictaminan-combatientes-Malvinas-deberan-pension_0_1641435950.html
p2
aVhttps://www.clarin.com/politica/Lazaro-Baez-apelo-confirmo-Casanello_0_1641435872.html
p3
aVhttps://www.clarin.com/politica/Lazaro-Baez-apelo-confirmo-Casanello_0_1641435872.html
p4
aVhttps://www.clarin.com/politica/Vialidad-Nacional-quedarse-maquinaria-Austral_0_1641435932.html
p5
aVhttps://www.clarin.com/politica/Vialidad-Nacional-quedarse-maquinaria-Austral_0_1641435932.html
p6
a.