(lp0
Vhttps://www.clarin.com/politica/importa-saber-mato-Nisman_0_1545445624.html
p1
aVhttps://www.clarin.com/politica/importa-saber-mato-Nisman_0_1545445624.html
p2
aVhttps://www.clarin.com/sociedad/filmaron-abusando-subieron-video-Web_0_1545445620.html
p3
aVhttps://www.clarin.com/ieco/economia/Mejoran-calificacion-sector-asegurador_0_1545445621.html
p4
aVhttps://www.clarin.com/politica/Llego-Obama-reaparecio-Obaca-Ezeiza_0_1545445617.html
p5
aVhttps://www.clarin.com/politica/Llego-Obama-reaparecio-Obaca-Ezeiza_0_1545445617.html
p6
aVhttps://www.clarin.com/politica/Obama-camino-reunirse-Macri_0_1545445588.html
p7
aVhttps://www.clarin.com/politica/Obama-camino-reunirse-Macri_0_1545445588.html
p8
aVhttps://www.clarin.com/sociedad/Frances-argentino-hace-vino-mundos_0_1542446067.html
p9
aVhttps://www.clarin.com/sociedad/Frances-argentino-hace-vino-mundos_0_1542446067.html
p10
aVhttps://www.clarin.com/politica/hombre-Radio-Nacional-diciendo-bomba_0_1545445608.html
p11
aVhttps://www.clarin.com/politica/hombre-Radio-Nacional-diciendo-bomba_0_1545445608.html
p12
aVhttps://www.clarin.com/ieco/economia/Prat-Gay-crecimiento-economico-inflacion_0_1545445607.html
p13
aVhttps://www.clarin.com/ieco/economia/Prat-Gay-crecimiento-economico-inflacion_0_1545445607.html
p14
aVhttps://www.clarin.com/politica/Vaticano-confirmo-conocer-archivos-dictadura_0_1545445605.html
p15
aVhttps://www.clarin.com/politica/Vaticano-confirmo-conocer-archivos-dictadura_0_1545445605.html
p16
a.