(lp0
Vhttps://www.clarin.com/politica/Deuda-Gobierno-referencia-pagara-intereses_0_1549045204.html
p1
aVhttps://www.clarin.com/politica/Macri-prometio-chiste-Obama-Awada_0_1549045205.html
p2
aVhttps://www.clarin.com/politica/CGT-van-Congreso-Ganancias-movilizacion_0_1548445586.html
p3
aVhttps://www.clarin.com/politica/CGT-van-Congreso-Ganancias-movilizacion_0_1548445586.html
p4
aVhttps://www.clarin.com/politica/Gobierno-adelanto-Jujuy-millones-pesos_0_1548445297.html
p5
aVhttps://www.clarin.com/politica/Gobierno-adelanto-Jujuy-millones-pesos_0_1548445297.html
p6
aVhttps://www.clarin.com/ieco/Cargill-nuevo-podio-exportadores-agricolas_0_1547845519.html
p7
aVhttps://www.clarin.com/politica/Allano-AFIP-casinos-Cristobal-Lopez_0_1549045130.html
p8
aVhttps://www.clarin.com/politica/Allano-AFIP-casinos-Cristobal-Lopez_0_1549045130.html
p9
aVhttps://www.clarin.com/sociedad/Pagaran-afectados-cortes-luz-febrero_0_1548445625.html
p10
aVhttps://www.clarin.com/politica/polemica-Cristina-hoteles-Santa-Cruz_0_1549045114.html
p11
a.