(lp0
Vhttps://www.clarin.com/sociedad/Denuncian-prefecto-doble-femicidio-violento_0_1682831761.html
p1
aVhttps://www.clarin.com/sociedad/Denuncian-prefecto-doble-femicidio-violento_0_1682831761.html
p2
aVhttps://www.clarin.com/ieco/HSBC-advierten-recesion-profunda-anticipado_0_1682831762.html
p3
aVhttps://www.clarin.com/ieco/HSBC-advierten-recesion-profunda-anticipado_0_1682831762.html
p4
aVhttps://www.clarin.com/sociedad/Comenzo-primer-juicio-impulsado-victima_0_1682831759.html
p5
aVhttps://www.clarin.com/sociedad/Comenzo-primer-juicio-impulsado-victima_0_1682831759.html
p6
aVhttps://www.clarin.com/politica/Baez-rechazan-veedores-CIDH-CELS_0_1682831734.html
p7
aVhttps://www.clarin.com/politica/Baez-rechazan-veedores-CIDH-CELS_0_1682831734.html
p8
aVhttps://www.clarin.com/sociedad/Video-pleno-vuelo-aparecio-serpiente_0_1682831758.html
p9
aVhttps://www.clarin.com/sociedad/Video-pleno-vuelo-aparecio-serpiente_0_1682831758.html
p10
aVhttps://www.clarin.com/sociedad/Vargas-Llosa-conocio-familia-novia_0_1682831753.html
p11
aVhttps://www.clarin.com/sociedad/Vargas-Llosa-conocio-familia-novia_0_1682831753.html
p12
a.