(lp0
S'https://www.clarin.com/sociedad/Sale-coleccion-cuentos-Peppa-Pig_0_1511249184.html'
p1
aS'https://www.clarin.com/politica/Macri-modificar-ganancias-arranquen-Congreso_0_1511249179.html'
p2
aS'https://www.clarin.com/sociedad/Descubren-numero-primo-largo-historia_0_1511249207.html'
p3
aS'https://www.clarin.com/sociedad/reloj_del_apocalipsis-armas_nucleares-cambio_climatico-robots_0_1511249164.html'
p4
aS'https://www.clarin.com/politica/Gobernadores-PJ-Rogelio_Frigerio-Casa_Rosada_0_1511249191.html'
p5
aS'https://www.clarin.com/politica/Macri-mensaje-gobernadores-asistir-cosas_0_1511249169.html'
p6
aS'https://www.clarin.com/sociedad/Quejas-limites-aerolineas-llevar-repelente_0_1511249189.html'
p7
aS'https://www.clarin.com/sociedad/primer-anuncio-SuperBowl-Pokemon_0_1511249148.html'
p8
a.