(lp0
Vhttps://www.clarin.com/sociedad/Altisima-cocina-reunen-lideres-mundo_0_1675632467.html
p1
aVhttps://www.clarin.com/sociedad/Altisima-cocina-reunen-lideres-mundo_0_1675632467.html
p2
aVhttps://www.clarin.com/ieco/ingreso-pareja-profesionales-cuota-hipotecaria_0_1675632465.html
p3
aVhttps://www.clarin.com/ieco/ingreso-pareja-profesionales-cuota-hipotecaria_0_1675632465.html
p4
aVhttps://www.clarin.com/politica/Latas-expedientes-increibles-Mafia-Aduana_0_1675632460.html
p5
aVhttps://www.clarin.com/politica/Latas-expedientes-increibles-Mafia-Aduana_0_1675632460.html
p6
aVhttps://www.clarin.com/politica/Das-Neves-sintiera-limitacion-primero_0_1675632457.html
p7
aVhttps://www.clarin.com/politica/Das-Neves-sintiera-limitacion-primero_0_1675632457.html
p8
aVhttps://www.clarin.com/sociedad/adicto-vivia-calle-ahora-millonario_0_1675632453.html
p9
aVhttps://www.clarin.com/sociedad/adicto-vivia-calle-ahora-millonario_0_1675632453.html
p10
a.