(lp0
Vhttps://www.clarin.com/politica/Boudou-retrasa-elevacion-juicio-Ciccone_0_1663633700.html
p1
aVhttps://www.clarin.com/politica/Boudou-retrasa-elevacion-juicio-Ciccone_0_1663633700.html
p2
aVhttps://www.clarin.com/ieco/economia/Twitter-desploma-Bolsa-interesados-comprarla_0_1663633694.html
p3
aVhttps://www.clarin.com/ieco/economia/Twitter-desploma-Bolsa-interesados-comprarla_0_1663633694.html
p4
aVhttps://www.clarin.com/sociedad/aplicacion-compra-venta-Facebook-arranco-mal_0_1663633693.html
p5
aVhttps://www.clarin.com/sociedad/aplicacion-compra-venta-Facebook-arranco-mal_0_1663633693.html
p6
aVhttps://www.clarin.com/politica/Armaron-campana-apurar-paridad-genero_0_1663633678.html
p7
aVhttps://www.clarin.com/politica/Armaron-campana-apurar-paridad-genero_0_1663633678.html
p8
aVhttps://www.clarin.com/ieco/economia/medio-millon-jubilados-cobraron-reajustes_0_1663633684.html
p9
aVhttps://www.clarin.com/ieco/economia/medio-millon-jubilados-cobraron-reajustes_0_1663633684.html
p10
a.