(lp0
S'https://www.clarin.com/politica/fiscal-probado-Baez-declaro_0_1567643454.html'
p1
aS'https://www.clarin.com/politica/fiscal-probado-Baez-declaro_0_1567643454.html'
p2
aS'https://www.clarin.com/politica/Mansiones-vacias-lavador-version-Baez_0_1567643453.html'
p3
aS'https://www.clarin.com/politica/Mansiones-vacias-lavador-version-Baez_0_1567643453.html'
p4
aS'https://www.clarin.com/politica/Gobierno-eligio-confrontar-sindicalismo-dividido_0_1567643457.html'
p5
aS'https://www.clarin.com/ieco/empresario-argentino-Mindlin-vocero-NML_0_1567643444.html'
p6
aS'https://www.clarin.com/politica/Milagro-Sala-maquina-contar-billetes_0_1567643456.html'
p7
aS'https://www.clarin.com/politica/Milagro-Sala-maquina-contar-billetes_0_1567643456.html'
p8
aS'https://www.clarin.com/ieco/Aumentaran-cigarrillos_0_1567643448.html'
p9
aS'https://www.clarin.com/politica/demostracion-fuerza-gremial-Scioli-Anibal_0_1567643447.html'
p10
aS'https://www.clarin.com/politica/palco-clima-reunificacion-despedida-Moyano_0_1567643460.html'
p11
aS'https://www.clarin.com/politica/palco-clima-reunificacion-despedida-Moyano_0_1567643460.html'
p12
aS'https://www.clarin.com/ieco/Galuccio-YPF-criticas-sueldo_0_1567643412.html'
p13
a.