(lp0
S'https://www.clarin.com/politica/Fotos-Jose-Lopez-General-Rodriguez_0_1595240520.html'
p1
aS'https://www.clarin.com/politica/fusil-semiautomatico-Lopez_0_1595240515.html'
p2
aS'https://www.clarin.com/sociedad/increible-moto-cae_0_1595240530.html'
p3
aS'https://www.clarin.com/ieco/economia/nuevos-datos-pobreza-conoceran-septiembre_0_1595240526.html'
p4
aS'https://www.clarin.com/politica/Dario-Kubar-intendente-General-Rodriguez_0_1595240518.html'
p5
aS'https://www.clarin.com/sociedad/Descubren-planeta-parecido-Star-Wars_0_1595240529.html'
p6
aS'https://www.clarin.com/politica/Lopez-investigado-enriquecimiento-declaro-millones_0_1595240528.html'
p7
aS'https://www.clarin.com/politica/Enriquecimiento-favores-Baez-enfrente-Lopez_0_1595240527.html'
p8
a.