(lp0
S'https://www.clarin.com/politica/Servini-extradicion-Perez-Corradi-Unidos_0_1639036202.html'
p1
aS'https://www.clarin.com/ieco/economia/Preocupacion-empleados-petroleras-posibles-despidos_0_1639036204.html'
p2
aS'https://www.clarin.com/sociedad/memes-Marcha-Resistencia_0_1639036196.html'
p3
aS'https://www.clarin.com/politica/funcionarios-Rosada-Gobierno-prepara-operativo_0_1639036194.html'
p4
aS'https://www.clarin.com/politica/Ultiman-detalles-Resistencia-frente-Rosada_0_1639036187.html'
p5
aS'https://www.clarin.com/politica/Cristina-Casacion-confirmo-Bonadio-futuro_0_1639036200.html'
p6
a.