(lp0
S'https://www.clarin.com/politica/Intendentes-PJ-Gobierno-tranquiliza-reactivacion_0_1523247934.html'
p1
aS'https://www.clarin.com/politica/Intendentes-PJ-Gobierno-tranquiliza-reactivacion_0_1523247934.html'
p2
aS'https://www.clarin.com/sociedad/Video-salvo-elefante-llevo-vivir_0_1523247931.html'
p3
aS'https://www.clarin.com/sociedad/Video-salvo-elefante-llevo-vivir_0_1523247931.html'
p4
aS'https://www.clarin.com/politica/Macri-Renzi-Malcorra-Rodriguez_Larreta-_visita-Italia-Argentina_0_1523247923.html'
p5
aS'https://www.clarin.com/politica/Macri-Renzi-Malcorra-Rodriguez_Larreta-_visita-Italia-Argentina_0_1523247923.html'
p6
aS'https://www.clarin.com/politica/Militantes-quisieron-escrachar-Macri-queremos_0_1523247922.html'
p7
aS'https://www.clarin.com/politica/Militantes-quisieron-escrachar-Macri-queremos_0_1523247922.html'
p8
aS'https://www.clarin.com/sociedad/robot-resolvio-Rubik-apenas-milisegundos_0_1523247910.html'
p9
aS'https://www.clarin.com/sociedad/robot-resolvio-Rubik-apenas-milisegundos_0_1523247910.html'
p10
a.