(lp0
S'https://www.clarin.com/sociedad/desalojo-torre-control-Aeroparque-paro_0_1593440771.html'
p1
aS'https://www.clarin.com/sociedad/perros-distinguen-duenos-egoistas-generosos_0_1593440775.html'
p2
aS'https://www.clarin.com/politica/desplante-Papa-Macri-devolver-donacion_0_1593440805.html'
p3
aS'https://www.clarin.com/politica/Moyano-endurecio-posicion-frente-Gobierno_0_1593440793.html'
p4
aS'https://www.clarin.com/sociedad/Descubren-sotano-castillo-coleccion-XIX_0_1593440802.html'
p5
aS'https://www.clarin.com/politica/Tomaron-Radio-America-cortaron-programacion_0_1593440801.html'
p6
aS'https://www.clarin.com/politica/Ola-amparos-intendentes-conurbano-tarifas_0_1593440804.html'
p7
aS'https://www.clarin.com/politica/Vera-Gobierno-Francisco-puntero-Berazategui_0_1593440807.html'
p8
aS'https://www.clarin.com/opinion/Noches-desamparo-frio-solidaridad_0_1593440790.html'
p9
aS'https://www.clarin.com/sociedad/Historias-Hilo-Rojo-volvio-unirlos_0_1593440796.html'
p10
a.