(lp0
S'https://www.clarin.com/sociedad/agua_potable-concordia-rio-inundacion_0_1509449103.html'
p1
aS'https://www.clarin.com/sociedad/Rige-tormentas-Buenos-Aires-Rios_0_1509449098.html'
p2
aS'https://www.clarin.com/ieco/economia/claves-dejo-Davos-Argentina_0_1508849587.html'
p3
aS'https://www.clarin.com/ieco/economia/Gobierno-difundira-informes-Fondo-Argentina_0_1508849566.html'
p4
aS'https://www.clarin.com/ieco/AFIP-recargo-dolar_ahorro_0_1508849609.html'
p5
aS'https://www.clarin.com/ieco/economia/Macri-inflacion-cerca_0_1508849564.html'
p6
aS'https://www.clarin.com/politica/Preparan-regreso-Cristina-Campora-organizaria_0_1508849570.html'
p7
a.