(lp0
S'https://www.clarin.com/politica/Lazaro_Baez-2008-2013-aumento-patrimonio_0_1519648022.html'
p1
aS'https://www.clarin.com/ieco/Anses-Jubilados-Corte_Suprema-Dano_Moral_0_1519648044.html'
p2
aS'https://www.clarin.com/politica/Gobierno_nacional-PRO-PJ-gobernadores_0_1519648040.html'
p3
aS'https://www.clarin.com/politica/Mauricio_Macri-Gobierno_nacional-Cordoba_0_1519648039.html'
p4
aS'https://www.clarin.com/politica/Efedrina-Perez_Corradi-triple_crimen_0_1519648041.html'
p5
aS'https://www.clarin.com/politica/paritarias-salarios-docentes-provincias_0_1519648037.html'
p6
aS'https://www.clarin.com/opinion/Cascos_Blancos-Naciones_Unidas-intervencion_humanitaria_0_1519648050.html'
p7
aS'https://www.clarin.com/politica/paritarias-salarios-docentes-Mauricio_Macri-Capital_Federal_0_1519648038.html'
p8
aS'https://www.clarin.com/politica/investigan-costos-traslado-gasoil-Antartida_0_1519648024.html'
p9
aS'https://www.clarin.com/ieco/Deuda-Fondos_Buitre-Griesa-Caputo-Oferta_0_1519648045.html'
p10
aS'https://www.clarin.com/politica/paritarias-salarios-docentes-Mauricio_Macri-Maria_Eugenia_Vidal_0_1519648036.html'
p11
a.