(lp0
Vhttps://www.clarin.com/sociedad/deficit-calidad-educativa-jovenes-desempleo_0_1642635802.html
p1
aVhttps://www.clarin.com/sociedad/deficit-calidad-educativa-jovenes-desempleo_0_1642635802.html
p2
aVhttps://www.clarin.com/sociedad/practicas-empresas-cierran-brecha_0_1642635801.html
p3
aVhttps://www.clarin.com/sociedad/Desarrollar-talento-recuperar-competitividad_0_1642635800.html
p4
aVhttps://www.clarin.com/politica/Vidal-publico-declaracion-jurada-patrimonio_0_1642635799.html
p5
aVhttps://www.clarin.com/politica/Vidal-publico-declaracion-jurada-patrimonio_0_1642635799.html
p6
a.