(lp0
S'https://www.clarin.com/politica/paritarias-_transporte-_colectivos-_UTA_0_1524447558.html'
p1
aS'https://www.clarin.com/politica/paritarias-_transporte-_colectivos-_UTA_0_1524447558.html'
p2
aS'https://www.clarin.com/politica/inicio-Cristina-hablando-Plan-Qunita_0_1523848019.html'
p3
aS'https://www.clarin.com/politica/Quinita-Procesaron-Anibal-Manzur-Gollan_0_1523848035.html'
p4
aS'https://www.clarin.com/sociedad/Rige-tormentas-fuertes-Capital-provincias_0_1524447548.html'
p5
aS'https://www.clarin.com/sociedad/Rige-tormentas-fuertes-Capital-provincias_0_1524447548.html'
p6
aS'https://www.clarin.com/politica/matteo_renzi-italia-mauricio_macri-cristobal_colon_0_1524447545.html'
p7
aS'https://www.clarin.com/politica/matteo_renzi-italia-mauricio_macri_0_1524447544.html'
p8
aS'https://www.clarin.com/opinion/Marcelo_Guerrero-Pasiones_argentinas_0_1524447542.html'
p9
aS'https://www.clarin.com/ieco/economia/uia-macri-tarifas_0_1523848085.html'
p10
a.