(lp0
S'https://www.clarin.com/politica/Gobierno-pierde-espacio-politico-tarifazo_0_1616238528.html'
p1
aS'https://www.clarin.com/politica/Macri-mesianico-afirmo-inflacion-bajando_0_1616238524.html'
p2
aS'https://www.clarin.com/politica/Macri-mesianico-afirmo-inflacion-bajando_0_1616238524.html'
p3
aS'https://www.clarin.com/politica/Michetti-dijo-problema-investiguen-robo_0_1616238521.html'
p4
aS'https://www.clarin.com/politica/Michetti-dijo-problema-investiguen-robo_0_1616238521.html'
p5
aS'https://www.clarin.com/politica/Cristobal-Lopez-quedarse-quitaron-Baez_0_1616238492.html'
p6
aS'https://www.clarin.com/politica/Cristobal-Lopez-quedarse-quitaron-Baez_0_1616238492.html'
p7
a.