(lp0
S'https://www.clarin.com/ieco/Levantan-amparos-suba-gas_0_1592840896.html'
p1
aS'https://www.clarin.com/ieco/Tarifas-Aranguren-anticipo-aumentos_0_1592840901.html'
p2
aS'https://www.clarin.com/politica/Arroyo-Salgado-veedor-CIDH-Nisman_0_1592840910.html'
p3
aS'https://www.clarin.com/ieco/Arsat-comenzo-operar-ocupa-capacidad_0_1592840905.html'
p4
aS'https://www.clarin.com/politica/Pena-EEUU-podria-recibir-refugiados_0_1592840913.html'
p5
aS'https://www.clarin.com/sociedad/Celulares-usuarios-sufre-sindrome-bateria_0_1592840907.html'
p6
a.