(lp0
S'https://www.clarin.com/sociedad/Fiestas-clandestinas-enviaran-espias-controlarlas_0_1655234637.html'
p1
aS'https://www.clarin.com/sociedad/Miles-portenos-pagan-haga-compras_0_1655234630.html'
p2
aS'https://www.clarin.com/sociedad/ahorras-tiempo-energia-cuentan-usuarios_0_1655234636.html'
p3
aS'https://www.clarin.com/politica/Crean-gabinete-refugiados-modelo-Canada_0_1655234619.html'
p4
aS'https://www.clarin.com/sociedad/Condicionan-Barrick-poder-reabrir-Veladero_0_1655234632.html'
p5
a.