(lp0
S'https://www.clarin.com/politica/Despues-cambios-internos-Malcorra-Cuba_0_1538246304.html'
p1
aS'https://www.clarin.com/politica/Despues-cambios-internos-Malcorra-Cuba_0_1538246304.html'
p2
aS'https://www.clarin.com/sociedad/Argentinos-homenajearon-jovenes-mendocinas-Quito_0_1538246299.html'
p3
aS'https://www.clarin.com/sociedad/Argentinos-homenajearon-jovenes-mendocinas-Quito_0_1538246299.html'
p4
aS'https://www.clarin.com/ieco/deficit-llego-Hacienda-ajuste-gradual_0_1537646709.html'
p5
aS'https://www.clarin.com/politica/Desvinculaciones-Intercargo-espera-Aerolineas_0_1537646682.html'
p6
aS'https://www.clarin.com/politica/Acuerdan-Congreso-primer-unificar-CGT_0_1537646708.html'
p7
aS'https://www.clarin.com/politica/Acuerdan-Congreso-primer-unificar-CGT_0_1537646708.html'
p8
a.