(lp0
S'https://www.clarin.com/ieco/economia/Advierten-abusos-grandes-empresas_0_1525047635.html'
p1
aS'https://www.clarin.com/sociedad/Muerte-picada-Parque-Chacabuco_0_1525047622.html'
p2
aS'https://www.clarin.com/sociedad/Muerte-picada-Parque-Chacabuco_0_1525047622.html'
p3
aS'https://www.clarin.com/politica/gesto-Massa-Vidal-Gabinete-Tigre_0_1525047614.html'
p4
aS'https://www.clarin.com/politica/gesto-Massa-Vidal-Gabinete-Tigre_0_1525047614.html'
p5
aS'https://www.clarin.com/politica/Patricia-Bullrich-piquetes-minutos-vamos_0_1525047599.html'
p6
aS'https://www.clarin.com/politica/Patricia-Bullrich-piquetes-minutos-vamos_0_1525047599.html'
p7
a.