(lp0
S'https://www.clarin.com/politica/Periodistas-defienden-premio-Senado-Sabat_0_1674432656.html'
p1
aS'https://www.clarin.com/politica/Sumaran-chicos-asignacion-universal-hijo_0_1674432655.html'
p2
aS'https://www.clarin.com/sociedad/salvaje-ataque-Mendoza-joven-desfigurada_0_1674432657.html'
p3
aS'https://www.clarin.com/sociedad/Procuradora-Mendoza-Zalazar-imputable_0_1674432647.html'
p4
a.