(lp0
Vhttps://www.clarin.com/politica/ex-militar-llegada-directa-Macri_0_1634836702.html
p1
aVhttps://www.clarin.com/sociedad/empresario-atropello-mujer-dijo-cuenta_0_1634836689.html
p2
aVhttps://www.clarin.com/sociedad/empresario-atropello-mujer-dijo-cuenta_0_1634836689.html
p3
aVhttps://www.clarin.com/sociedad/Lange-ganaron-cancer-triunfan-deportes_0_1634836693.html
p4
aVhttps://www.clarin.com/sociedad/Lange-ganaron-cancer-triunfan-deportes_0_1634836693.html
p5
a.