(lp0
Vhttps://www.clarin.com/ieco/billetes-desgastan-rapido_0_1552645015.html
p1
aVhttps://www.clarin.com/ieco/billetes-desgastan-rapido_0_1552645015.html
p2
aVhttps://www.clarin.com/politica/cambio-Gobierno-Espana-promete-inversiones_0_1552645172.html
p3
aVhttps://www.clarin.com/politica/cambio-Gobierno-Espana-promete-inversiones_0_1552645172.html
p4
aVhttps://www.clarin.com/ieco/economia/Agroexportadores-liquidaron-ultima-millones-dolares_0_1552645049.html
p5
aVhttps://www.clarin.com/ieco/recaudacion-subio-mejora-comercio-exterior_0_1552645126.html
p6
aVhttps://www.clarin.com/sociedad/Lanzaron-nuevo-billete-seguro_0_1552645161.html
p7
aVhttps://www.clarin.com/sociedad/Lanzaron-nuevo-billete-seguro_0_1552645161.html
p8
aVhttps://www.clarin.com/ieco/Calculan-sobreprecio-obras-viales_0_1552645169.html
p9
aVhttps://www.clarin.com/ieco/Calculan-sobreprecio-obras-viales_0_1552645169.html
p10
aVhttps://www.clarin.com/politica/Presidente-empresa-offshore-legal_0_1552645193.html
p11
aVhttps://www.clarin.com/politica/suba-tarifas-canasta-jubilado-cuesta_0_1553244697.html
p12
aVhttps://www.clarin.com/politica/Mossack-visito-Clarin-preocupado-imagen_0_1552645175.html
p13
aVhttps://www.clarin.com/sociedad/abanderado-operaron-apendicitis-sufrio-cerebral_0_1552645171.html
p14
aVhttps://www.clarin.com/sociedad/abanderado-operaron-apendicitis-sufrio-cerebral_0_1552645171.html
p15
aVhttps://www.clarin.com/sociedad/ingles-alcanza-impone-tercer-idioma_0_1552645147.html
p16
aVhttps://www.clarin.com/sociedad/ingles-alcanza-impone-tercer-idioma_0_1552645147.html
p17
aVhttps://www.clarin.com/politica/Elisa-Carrio-respaldo-Presidente_0_1552645186.html
p18
aVhttps://www.clarin.com/politica/Elisa-Carrio-respaldo-Presidente_0_1552645186.html
p19
a.