(lp0
Vhttps://www.clarin.com/sociedad/Arranco-temporada-ballenas-sol-ejemplares_0_1593440744.html
p1
aVhttps://www.clarin.com/sociedad/Arranco-temporada-ballenas-sol-ejemplares_0_1593440744.html
p2
aVhttps://www.clarin.com/politica/Scholas-donacion-millones-Gobierno-Macri_0_1593440753.html
p3
aVhttps://www.clarin.com/politica/Scholas-donacion-millones-Gobierno-Macri_0_1593440753.html
p4
aVhttps://www.clarin.com/sociedad/Sacaron-aire-Radio-America_0_1593440751.html
p5
aVhttps://www.clarin.com/sociedad/ayudar-llego-Libano-asistir-refugiados_0_1593440741.html
p6
a.