(lp0
Vhttps://www.clarin.com/politica/Perez-Corradi-declara-ruta-efedrina_0_1610239081.html
p1
aVhttps://www.clarin.com/politica/Perez-Corradi-declara-ruta-efedrina_0_1610239081.html
p2
aVhttps://www.clarin.com/sociedad/Turismo-semana-supero-ampliamente-expectativas_0_1610239078.html
p3
aVhttps://www.clarin.com/sociedad/Turismo-semana-supero-ampliamente-expectativas_0_1610239078.html
p4
aVhttps://www.clarin.com/opinion/Gibraltar-caso-seguir-cerca_0_1610239076.html
p5
aVhttps://www.clarin.com/sociedad/Miles-personas-desnudaron-pintaron-sesion_0_1610239068.html
p6
aVhttps://www.clarin.com/sociedad/Miles-personas-desnudaron-pintaron-sesion_0_1610239068.html
p7
a.