(lp0
S'https://www.clarin.com/sociedad/Almirante-Brown-panaderias-evitar-hipertension_0_1581441912.html'
p1
aS'https://www.clarin.com/politica/Micheli-hablo-nacional-primeros-junio_0_1581441869.html'
p2
aS'https://www.clarin.com/politica/Stolbizer-insistio-unificar-Baez-juicio_0_1581441918.html'
p3
a.