(lp0
S'https://www.clarin.com/politica/Gobierno-reforzo-medidas-seguridad-recapturados_0_1502849760.html'
p1
aS'https://www.clarin.com/opinion/Cristobal_Reinoso_0_1502849766.html'
p2
aS'https://www.clarin.com/politica/triple_crimen-vidal_0_1502849746.html'
p3
aS'https://www.clarin.com/ieco/economia/buitres-abogado_0_1502250209.html'
p4
aS'https://www.clarin.com/politica/triple_crimen-vidal_0_1502849749.html'
p5
aS'https://www.clarin.com/politica/triple_crimen-vidal_0_1502849748.html'
p6
aS'https://www.clarin.com/opinion/preocupacion-Macri_0_1502849744.html'
p7
a.