(lp0
Vhttps://www.clarin.com/politica/Lagomarsino-indica-Nisman-solo-murio_0_1506449622.html
p1
aVhttps://www.clarin.com/politica/Lagomarsino-indica-Nisman-solo-murio_0_1506449622.html
p2
aVhttps://www.clarin.com/sociedad/Confirman-casos-dengue-Cordoba_0_1506449590.html
p3
aVhttps://www.clarin.com/sociedad/Confirman-casos-dengue-Cordoba_0_1506449590.html
p4
a.