(lp0
Vhttps://www.clarin.com/politica/Mauricio-Nestor-soberania-despues-siempre_0_1654634622.html
p1
aVhttps://www.clarin.com/politica/Mauricio-Nestor-soberania-despues-siempre_0_1654634622.html
p2
aVhttps://www.clarin.com/sociedad/festejos-Dia-Primavera-Palermo-supercustodiados_0_1654634621.html
p3
aVhttps://www.clarin.com/sociedad/festejos-Dia-Primavera-Palermo-supercustodiados_0_1654634621.html
p4
aVhttps://www.clarin.com/politica/kirchnerismo-Macri-papelon-internacional_0_1654634619.html
p5
aVhttps://www.clarin.com/politica/kirchnerismo-Macri-papelon-internacional_0_1654634619.html
p6
aVhttps://www.clarin.com/politica/mujer-Maximo-Kirchner-declaro-bienes_0_1654634616.html
p7
aVhttps://www.clarin.com/politica/mujer-Maximo-Kirchner-declaro-bienes_0_1654634616.html
p8
aVhttps://www.clarin.com/politica/Malvinas-Londres-contacto-Macri-May_0_1654634615.html
p9
aVhttps://www.clarin.com/politica/Malvinas-Londres-contacto-Macri-May_0_1654634615.html
p10
aVhttps://www.clarin.com/sociedad/Condenan-psicologo-pelear-paciente-familia_0_1654634612.html
p11
aVhttps://www.clarin.com/sociedad/Condenan-psicologo-pelear-paciente-familia_0_1654634612.html
p12
a.