(lp0
Vhttps://www.clarin.com/sociedad/Denuncio-hijos-padrastro-violaba-anos_0_1529247250.html
p1
aVhttps://www.clarin.com/politica/Lagomarsino-entiendo-dice-Saenz-abogado_0_1529247248.html
p2
aVhttps://www.clarin.com/politica/Lagomarsino-entiendo-dice-Saenz-abogado_0_1529247248.html
p3
aVhttps://www.clarin.com/ieco/FMI-alerto-economia-mundial-descarrillar_0_1529247245.html
p4
aVhttps://www.clarin.com/ieco/FMI-alerto-economia-mundial-descarrillar_0_1529247245.html
p5
aVhttps://www.clarin.com/politica/Nisman-llegar-final-volver-principio_0_1529247236.html
p6
aVhttps://www.clarin.com/politica/visita-Hollande-Macri-Vaticano-Papa_0_1529247231.html
p7
aVhttps://www.clarin.com/politica/visita-Hollande-Macri-Vaticano-Papa_0_1529247231.html
p8
aVhttps://www.clarin.com/sociedad/poste-casa-demoraron-dias-retirarlo_0_1529247226.html
p9
aVhttps://www.clarin.com/sociedad/poste-casa-demoraron-dias-retirarlo_0_1529247226.html
p10
aVhttps://www.clarin.com/ieco/mayoria-nuevos-surgidos-provienen-China_0_1529247224.html
p11
a.