(lp0
Vhttps://www.clarin.com/politica/Supuestas-coimas-implica-concejal-PRO_0_1537046539.html
p1
aVhttps://www.clarin.com/politica/Supuestas-coimas-implica-concejal-PRO_0_1537046539.html
p2
aVhttps://www.clarin.com/ieco/economia/Vidal-paritaria-acordada-firmar-manana_0_1537046530.html
p3
aVhttps://www.clarin.com/ieco/economia/Vidal-paritaria-acordada-firmar-manana_0_1537046530.html
p4
aVhttps://www.clarin.com/sociedad/Reconocen-vacuna-llegar-demasiado-tarde_0_1537046526.html
p5
aVhttps://www.clarin.com/sociedad/Reconocen-vacuna-llegar-demasiado-tarde_0_1537046526.html
p6
aVhttps://www.clarin.com/politica/Nisman-juez-denuncia-Palmaghini-Fein_0_1537046523.html
p7
aVhttps://www.clarin.com/politica/Nisman-juez-denuncia-Palmaghini-Fein_0_1537046523.html
p8
aVhttps://www.clarin.com/politica/Ahora-Stiuso-declarando-fiscales-AMIA_0_1537046517.html
p9
aVhttps://www.clarin.com/politica/Ahora-Stiuso-declarando-fiscales-AMIA_0_1537046517.html
p10
aVhttps://www.clarin.com/sociedad/video-casamiento-recorrio-mundo_0_1537046513.html
p11
aVhttps://www.clarin.com/sociedad/video-casamiento-recorrio-mundo_0_1537046513.html
p12
a.