(lp0
S'https://www.clarin.com/ieco/Gobierno-adelanta-costo-fiscal-millones_0_1588041386.html'
p1
aS'https://www.clarin.com/sociedad/camiseta-oficial-Argentina-aumento-ultimo_0_1588041384.html'
p2
aS'https://www.clarin.com/sociedad/camiseta-oficial-Argentina-aumento-ultimo_0_1588041384.html'
p3
aS'https://www.clarin.com/sociedad/cordobeses-exterior-juntan-alentar-Seleccion_0_1588041375.html'
p4
aS'https://www.clarin.com/sociedad/cordobeses-exterior-juntan-alentar-Seleccion_0_1588041375.html'
p5
aS'https://www.clarin.com/politica/Paris-Prat-Gay-presencia-argentina-OCDE_0_1588041376.html'
p6
aS'https://www.clarin.com/politica/Paris-Prat-Gay-presencia-argentina-OCDE_0_1588041376.html'
p7
a.