(lp0
S'https://www.clarin.com/ieco/IPC-Congreso-inflacion-abril-anos_0_1583241687.html'
p1
aS'https://www.clarin.com/ieco/economia/empresas-EEUU-grandes-oportunidades-inversion_0_1583241689.html'
p2
aS'https://www.clarin.com/ieco/Estiman-crecimiento-menor-precios-octubre_0_1583241685.html'
p3
aS'https://www.clarin.com/sociedad/pozo-trago-veinte-autos-Italia_0_1583241686.html'
p4
aS'https://www.clarin.com/politica/Macri-Tedeum-Catedral-ofrecera-Olivos_0_1583241678.html'
p5
a.