(lp0
S'https://www.clarin.com/sociedad/Detectan-trastorno-grandes-deficit-atencion_0_1598240170.html'
p1
aS'https://www.clarin.com/politica/menores-costos-cuentas-Aerolineas-mejoran_0_1598240169.html'
p2
aS'https://www.clarin.com/opinion/Macri-aprovechar-oxigeno-regalo-Lopez_0_1598240168.html'
p3
aS'https://www.clarin.com/opinion/Paralelo-kirchnerismo-dictadura_0_1598240167.html'
p4
aS'https://www.clarin.com/opinion/problemas-resolver_0_1598240166.html'
p5
aS'https://www.clarin.com/opinion/Papa-Macri-intrigas-vaticanas_0_1598240165.html'
p6
aS'https://www.clarin.com/opinion/cree-Jose-Lopez-robaba-solo_0_1598240164.html'
p7
aS'https://www.clarin.com/opinion/Hector-Cavallero-hacedor-estrellas_0_1597640370.html'
p8
aS'https://www.clarin.com/opinion/Hector-Cavallero-hacedor-estrellas_0_1597640370.html'
p9
aS'https://www.clarin.com/opinion/economia-Brasil-empieza-recuperarse_0_1597640371.html'
p10
aS'https://www.clarin.com/opinion/Campeones-musica-vida-Cataratas-Iguazu_0_1597640366.html'
p11
aS'https://www.clarin.com/opinion/Campeones-musica-vida-Cataratas-Iguazu_0_1597640366.html'
p12
aS'https://www.clarin.com/opinion/llamado-atencion-uso-lexico-ingles_0_1597640375.html'
p13
aS'https://www.clarin.com/opinion/ciencias-cosmopolitas-internacionales_0_1597640378.html'
p14
aS'https://www.clarin.com/opinion/Cristina-Fernandez-Lopez_0_1598240163.html'
p15
a.