(lp0
S'https://www.clarin.com/sociedad/anos-gato-viejo-mundo_0_1574242698.html'
p1
aS'https://www.clarin.com/sociedad/policias-catamarquenas-salvaron-contaron-milagro_0_1574242685.html'
p2
aS'https://www.clarin.com/politica/Carrio-petrolera-Lazaro-Baez-millones_0_1574242692.html'
p3
aS'https://www.clarin.com/sociedad/Emotiva-madre-chicas-asesinada-Montanita_0_1574242695.html'
p4
a.