(lp0
S'https://www.clarin.com/sociedad/Profesionales-quieren-seguir-aprendiendo_0_1684631655.html'
p1
aS'https://www.clarin.com/sociedad/Profesionales-quieren-seguir-aprendiendo_0_1684631655.html'
p2
aS'https://www.clarin.com/politica/Oficial-Gobierno-pagara-bono-estatales_0_1688231264.html'
p3
aS'https://www.clarin.com/politica/Oficial-Gobierno-pagara-bono-estatales_0_1688231264.html'
p4
aS'https://www.clarin.com/sociedad/Incidentes-Congreso-defensores-detractores-carreras_0_1688231254.html'
p5
aS'https://www.clarin.com/sociedad/Incidentes-Congreso-defensores-detractores-carreras_0_1688231254.html'
p6
aS'https://www.clarin.com/ieco/economia/Intervienen-heladeria-Devoto-ponerse-acuerdo_0_1688231253.html'
p7
aS'https://www.clarin.com/ieco/economia/Intervienen-heladeria-Devoto-ponerse-acuerdo_0_1688231253.html'
p8
a.