(lp0
S'https://www.clarin.com/opinion/Argentina-perspectivas_economicas-modelo_de_desarrollo-PBI_0_1501050193.html'
p1
aS'https://www.clarin.com/politica/profugos-Martin_Lanatta-efedrina-triple_crimen_0_1501050171.html'
p2
aS'https://www.clarin.com/politica/profugos-Martin_Lanatta-efedrina-triple_crimen_0_1501050171.html'
p3
aS'https://www.clarin.com/politica/decian-matalo-Lanatta-perdono-rehen_0_1501050160.html'
p4
aS'https://www.clarin.com/politica/decian-matalo-Lanatta-perdono-rehen_0_1501050160.html'
p5
aS'https://www.clarin.com/sociedad/Republicano-Batalla_de_Obligado-San_Pedro-Hallazgo_0_1501050149.html'
p6
a.