(lp0
Vhttps://www.clarin.com/politica/Pichetto-Ratifico-Kicillof-ministro-Economia_0_1523847656.html
p1
aVhttps://www.clarin.com/politica/Pichetto-Ratifico-Kicillof-ministro-Economia_0_1523847656.html
p2
aVhttps://www.clarin.com/opinion/Obras-usuarios-politica_0_1523847638.html
p3
aVhttps://www.clarin.com/politica/Derechos_humanos-ESMA-Mauricio_Macri-dictadura_militar_0_1523847634.html
p4
aVhttps://www.clarin.com/politica/Derechos_humanos-ESMA-Mauricio_Macri-dictadura_militar_0_1523847634.html
p5
aVhttps://www.clarin.com/opinion/Ciclo_lectivo-educacion_primaria-ensenanza_media_0_1523847627.html
p6
aVhttps://www.clarin.com/opinion/Derechos_humanos-desaparecidos-CONADEP-kirchnerismo_0_1523847626.html
p7
aVhttps://www.clarin.com/opinion/Derechos_humanos-desaparecidos-CONADEP-kirchnerismo_0_1523847626.html
p8
aVhttps://www.clarin.com/politica/Jujuy-Milagro_Sala-papa_Francisco_0_1523847618.html
p9
aVhttps://www.clarin.com/sociedad/Violento-temporal-Cordoba-muertos-anegadas_0_1523847614.html
p10
aVhttps://www.clarin.com/sociedad/Violento-temporal-Cordoba-muertos-anegadas_0_1523847614.html
p11
aVhttps://www.clarin.com/sociedad/Celina-cumplio-festejo-regalo-extra_0_1523248106.html
p12
aVhttps://www.clarin.com/sociedad/Celina-cumplio-festejo-regalo-extra_0_1523248106.html
p13
aVhttps://www.clarin.com/sociedad/Revuelo-intimas-Juan-Pablo-II_0_1523248091.html
p14
aVhttps://www.clarin.com/sociedad/Revuelo-intimas-Juan-Pablo-II_0_1523248091.html
p15
aVhttps://www.clarin.com/politica/Corte-direccion-escuchas_0_1523847607.html
p16
a.