(lp0
Vhttps://www.clarin.com/politica/promesas-luchar-impunidad-Rosattti-Corte_0_1604239724.html
p1
aVhttps://www.clarin.com/politica/promesas-luchar-impunidad-Rosattti-Corte_0_1604239724.html
p2
aVhttps://www.clarin.com/opinion/Carlos-Gardel-victima-diatribas_0_1604239693.html
p3
aVhttps://www.clarin.com/opinion/corrupcion-ex-Presidente-Baez-Lopez_0_1604239689.html
p4
aVhttps://www.clarin.com/opinion/Alquiler-utero-comercio-cuerpos-hijos_0_1604239690.html
p5
aVhttps://www.clarin.com/opinion/Alquiler-utero-comercio-cuerpos-hijos_0_1604239690.html
p6
aVhttps://www.clarin.com/politica/academico-predica-valoracion-Corte_0_1604239723.html
p7
aVhttps://www.clarin.com/politica/academico-predica-valoracion-Corte_0_1604239723.html
p8
aVhttps://www.clarin.com/sociedad/graves-problemas-universidad_0_1604239761.html
p9
aVhttps://www.clarin.com/politica/recusacion-Juez-hostigar-hijos-Baez_0_1604239688.html
p10
aVhttps://www.clarin.com/politica/recusacion-Juez-hostigar-hijos-Baez_0_1604239688.html
p11
aVhttps://www.clarin.com/sociedad/escuela-Uriel-alumno-darle-colegio_0_1604239751.html
p12
aVhttps://www.clarin.com/sociedad/escuela-Uriel-alumno-darle-colegio_0_1604239751.html
p13
aVhttps://www.clarin.com/sociedad/retar-alumna-clase-pegaron-rayaron_0_1604239753.html
p14
aVhttps://www.clarin.com/ieco/economia/brotes-verdes-hacen-desear_0_1604839504.html
p15
aVhttps://www.clarin.com/sociedad/hora-yaguarete-billete-sale-calle_0_1604239755.html
p16
aVhttps://www.clarin.com/sociedad/hora-yaguarete-billete-sale-calle_0_1604239755.html
p17
aVhttps://www.clarin.com/ieco/economia/Cupon-PBI-incertidumbre_0_1604839503.html
p18
aVhttps://www.clarin.com/opinion/Carta-Abierta-cerrada_0_1604839502.html
p19
a.