(lp0
S'https://www.clarin.com/politica/Dolar-Marcos-Pena-acusaciones-presidenta_0_1561643868.html'
p1
aS'https://www.clarin.com/politica/Dolar-Marcos-Pena-acusaciones-presidenta_0_1561643868.html'
p2
aS'https://www.clarin.com/politica/testigo-salir-hombre-Lazaro-Baez_0_1561643867.html'
p3
aS'https://www.clarin.com/politica/testigo-salir-hombre-Lazaro-Baez_0_1561643867.html'
p4
aS'https://www.clarin.com/sociedad/Siguen-jovenes-internados-Hospital-Fernandez_0_1561643864.html'
p5
aS'https://www.clarin.com/sociedad/Siguen-jovenes-internados-Hospital-Fernandez_0_1561643864.html'
p6
aS'https://www.clarin.com/sociedad/Adrian-Conci-entregaria-hoy-Justicia_0_1561643858.html'
p7
aS'https://www.clarin.com/sociedad/Adrian-Conci-entregaria-hoy-Justicia_0_1561643858.html'
p8
aS'https://www.clarin.com/sociedad/Todas-fichas-Paz-puede-Mundial_0_1561643856.html'
p9
aS'https://www.clarin.com/sociedad/fiscal-droga-compraba-choripanes-cancha_0_1561643848.html'
p10
aS'https://www.clarin.com/sociedad/fiscal-droga-compraba-choripanes-cancha_0_1561643848.html'
p11
aS'https://www.clarin.com/politica/Facturas-encubrimiento-durisimas-acusaciones-Echegaray_0_1561643847.html'
p12
aS'https://www.clarin.com/politica/Facturas-encubrimiento-durisimas-acusaciones-Echegaray_0_1561643847.html'
p13
a.