(lp0
Vhttps://www.clarin.com/politica/Procesaron-Cristina-causa-dolar-futuro_0_1576042513.html
p1
aVhttps://www.clarin.com/politica/Procesaron-Cristina-causa-dolar-futuro_0_1576042513.html
p2
aVhttps://www.clarin.com/politica/Menem-volvio-apuntar-Hezbollah-muerte_0_1576042506.html
p3
aVhttps://www.clarin.com/politica/Menem-volvio-apuntar-Hezbollah-muerte_0_1576042506.html
p4
aVhttps://www.clarin.com/politica/Pereyra-postula-suceder-Moyano-CGT_0_1576042503.html
p5
aVhttps://www.clarin.com/politica/Pereyra-postula-suceder-Moyano-CGT_0_1576042503.html
p6
aVhttps://www.clarin.com/politica/Gobierno-Maximo-Celebramos-Justicia-actue_0_1576042504.html
p7
aVhttps://www.clarin.com/sociedad/montana-rusa-Sheikra_0_1576042502.html
p8
aVhttps://www.clarin.com/sociedad/montana-rusa-Sheikra_0_1576042502.html
p9
a.