(lp0
S'https://www.clarin.com/politica/Panama-investigar-Casa-Rosada-preocupacion_0_1552644883.html'
p1
aS'https://www.clarin.com/politica/Almodovar-despega-escandalo-cuentas-offshore_0_1552644873.html'
p2
aS'https://www.clarin.com/ieco/Sigue-funcionarios-AFIP-respondian-Echegaray_0_1552644867.html'
p3
aS'https://www.clarin.com/ieco/canasta-basica-aumento-Consumidores-Libres_0_1552644887.html'
p4
aS'https://www.clarin.com/politica/Memes-Laura-Alonso-Panama-Papers_0_1552644889.html'
p5
aS'https://www.clarin.com/politica/secretario-Nestor-intendente-PRO-vinculados_0_1552644881.html'
p6
a.