(lp0
Vhttps://www.clarin.com/politica/casa-embajador-EEUU-abandono_0_1658234392.html
p1
aVhttps://www.clarin.com/politica/casa-embajador-EEUU-abandono_0_1658234392.html
p2
aVhttps://www.clarin.com/sociedad/Brutal-ataque-alumno-Liceo-Militar_0_1658234387.html
p3
aVhttps://www.clarin.com/sociedad/Brutal-ataque-alumno-Liceo-Militar_0_1658234387.html
p4
aVhttps://www.clarin.com/ieco/economia/Argentina-sube-posiciones-ranking-competitividad_0_1658234384.html
p5
aVhttps://www.clarin.com/sociedad/Expectativa-ansiedad-llegada-Harry-Potter_0_1658234386.html
p6
aVhttps://www.clarin.com/sociedad/Expectativa-ansiedad-llegada-Harry-Potter_0_1658234386.html
p7
a.