(lp0
Vhttps://www.clarin.com/politica/Gobierno-justifico-uso-helicoptero-presidencial_0_1537046619.html
p1
aVhttps://www.clarin.com/sociedad/Buscan-adolescente-desaparecida_0_1537046605.html
p2
aVhttps://www.clarin.com/sociedad/Buscan-adolescente-desaparecida_0_1537046605.html
p3
aVhttps://www.clarin.com/ieco/economia/dolar-nueva-tasas-aplico-Central_0_1537046492.html
p4
aVhttps://www.clarin.com/ieco/economia/dolar-nueva-tasas-aplico-Central_0_1537046492.html
p5
aVhttps://www.clarin.com/sociedad/Italia-quieren-crear-ataudes-biodegradables_0_1537046600.html
p6
aVhttps://www.clarin.com/sociedad/Italia-quieren-crear-ataudes-biodegradables_0_1537046600.html
p7
a.