(lp0
S'https://www.clarin.com/politica/Detuvieron-abogado-Milagro-Sala_0_1566443481.html'
p1
aS'https://www.clarin.com/politica/entidades-empresarias-suman-embestida-antidespidos_0_1566443476.html'
p2
aS'https://www.clarin.com/sociedad/Detuvieron-activistas-Greenpeace-protesta-minera_0_1566443487.html'
p3
aS'https://www.clarin.com/politica/Pena-diputados-Debe-Lazaro-Baez_0_1566443483.html'
p4
a.