(lp0
Vhttps://www.clarin.com/politica/Gremios-unificador-CGT-reclaman-espacios_0_1618038331.html
p1
aVhttps://www.clarin.com/ieco/economia/contabilidad-creativa-deficit-subio-semestre_0_1618038330.html
p2
aVhttps://www.clarin.com/ieco/economia/contabilidad-creativa-deficit-subio-semestre_0_1618038330.html
p3
a.