(lp0
Vhttps://www.clarin.com/sociedad/Grupo-Clarin-presento-nuevo-institucional_0_1636636442.html
p1
aVhttps://www.clarin.com/sociedad/Grupo-Clarin-presento-nuevo-institucional_0_1636636442.html
p2
aVhttps://www.clarin.com/sociedad/Imputan-homicidio-futbolista-evadio-alcoholemia_0_1636636441.html
p3
aVhttps://www.clarin.com/sociedad/Imputan-homicidio-futbolista-evadio-alcoholemia_0_1636636441.html
p4
aVhttps://www.clarin.com/politica/Ruta-dinero-Casanello-exhorto-Suiza_0_1636636438.html
p5
aVhttps://www.clarin.com/politica/Ruta-dinero-Casanello-exhorto-Suiza_0_1636636438.html
p6
aVhttps://www.clarin.com/politica/CGT-conduccion-unificada-repartieron-cargos_0_1636636432.html
p7
aVhttps://www.clarin.com/politica/CGT-conduccion-unificada-repartieron-cargos_0_1636636432.html
p8
aVhttps://www.clarin.com/politica/fiscal-Marijuan-imputo-Gomez-Centurion_0_1636636427.html
p9
aVhttps://www.clarin.com/politica/fiscal-Marijuan-imputo-Gomez-Centurion_0_1636636427.html
p10
a.