(lp0
S'https://www.clarin.com/politica/Tarifazo-funcionaria-organizadoras-cacerolazo_0_1613238682.html'
p1
aS'https://www.clarin.com/politica/Tarifazo-funcionaria-organizadoras-cacerolazo_0_1613238682.html'
p2
aS'https://www.clarin.com/politica/confesion-Macri-desmentir-embarazo-Juliana_0_1613238683.html'
p3
aS'https://www.clarin.com/politica/confesion-Macri-desmentir-embarazo-Juliana_0_1613238683.html'
p4
aS'https://www.clarin.com/ieco/inflacion-portena-junio-acumula-anual_0_1613238680.html'
p5
aS'https://www.clarin.com/ieco/inflacion-portena-junio-acumula-anual_0_1613238680.html'
p6
aS'https://www.clarin.com/sociedad/Ab-peligrosa-difunde-redes-sociales_0_1613238678.html'
p7
aS'https://www.clarin.com/sociedad/Ab-peligrosa-difunde-redes-sociales_0_1613238678.html'
p8
aS'https://www.clarin.com/sociedad/primer-animal-llego-Rural_0_1613238679.html'
p9
aS'https://www.clarin.com/sociedad/primer-animal-llego-Rural_0_1613238679.html'
p10
a.