(lp0
S'https://www.clarin.com/sociedad/panico-escenico-explicaciones-cientificas_0_1512449097.html'
p1
aS'https://www.clarin.com/politica/nisman-palmaghini_0_1512449093.html'
p2
aS'https://www.clarin.com/politica/nisman-palmaghini_0_1512449093.html'
p3
aS'https://www.clarin.com/politica/gobierno-reformapolitica-consenso_0_1512449083.html'
p4
aS'https://www.clarin.com/politica/gobierno-reformapolitica-consenso_0_1512449083.html'
p5
aS'https://www.clarin.com/politica/derechos_humanos-Loperfido-desaparecidos_0_1512449078.html'
p6
aS'https://www.clarin.com/politica/derechos_humanos-Loperfido-desaparecidos_0_1512449078.html'
p7
aS'https://www.clarin.com/politica/Juan_Manuel_Urtubey-Miguel_Angel_Pichetto-Senado-FpV_0_1512449075.html'
p8
aS'https://www.clarin.com/politica/Juan_Manuel_Urtubey-Miguel_Angel_Pichetto-Senado-FpV_0_1512449075.html'
p9
aS'https://www.clarin.com/politica/Chaco-Sergio_Schneider-Jorge_Capitanich_0_1512449053.html'
p10
aS'https://www.clarin.com/politica/Chaco-Sergio_Schneider-Jorge_Capitanich_0_1512449053.html'
p11
a.