(lp0
Vhttps://www.clarin.com/sociedad/secundaria-verano-alumnos-arrancaran-febrero_0_1684031789.html
p1
aVhttps://www.clarin.com/sociedad/secundaria-verano-alumnos-arrancaran-febrero_0_1684031789.html
p2
aVhttps://www.clarin.com/sociedad/Vidal-docente-perjudica-muchas-familias_0_1684031788.html
p3
aVhttps://www.clarin.com/sociedad/primaria-evitar-chicos-repitan-grado_0_1684031786.html
p4
aVhttps://www.clarin.com/sociedad/transicion-decisiva_0_1684031747.html
p5
aVhttps://www.clarin.com/politica/Postergan-lunes-reunion-dialogo-social_0_1684031783.html
p6
aVhttps://www.clarin.com/politica/Postergan-lunes-reunion-dialogo-social_0_1684031783.html
p7
aVhttps://www.clarin.com/politica/llevaron-abuelo-llanto-ejecucion-sangre_0_1684031776.html
p8
aVhttps://www.clarin.com/politica/llevaron-abuelo-llanto-ejecucion-sangre_0_1684031776.html
p9
aVhttps://www.clarin.com/politica/Trump-incertidumbre-vinculo-Macri-apostado_0_1684031757.html
p10
a.