(lp0
Vhttps://www.clarin.com/opinion/sentencias_favorables-ANSES-me_too_0_1521447893.html
p1
aVhttps://www.clarin.com/ieco/economia/Preocupa-capear-tormenta-inflacion_0_1521447889.html
p2
aVhttps://www.clarin.com/politica/Desentranando-misterio-cosmos_0_1521447884.html
p3
aVhttps://www.clarin.com/ieco/Anses-Jubilados-Movilidad-Aumento-Macri_0_1521447878.html
p4
aVhttps://www.clarin.com/politica/Universidades-Contratos-Triangulacion-Ministerios_0_1521447877.html
p5
aVhttps://www.clarin.com/sociedad/Confirman-casos-autoctonos-dengue-Provincia_0_1520848332.html
p6
aVhttps://www.clarin.com/politica/Senado-sesiones_extraordinarias-Julio_Cobos-Juan_Manuel_Abal_Medina_0_1521447874.html
p7
aVhttps://www.clarin.com/politica/Corte_Suprema-Senado-Miguel_Pichetto-FpV-Mauricio_Macri_0_1521447873.html
p8
a.