(lp0
S'https://www.clarin.com/ieco/economia/BID-otorgara-US1500-millones-binacional_0_1559244505.html'
p1
aS'https://www.clarin.com/politica/Finalmente-Misiones-abogado-vinculado-Baez_0_1559244509.html'
p2
aS'https://www.clarin.com/politica/Cristina-convoco-intendentes-bonaerenses-reunion_0_1559244524.html'
p3
aS'https://www.clarin.com/politica/Boudou-juicio-oral-papeles-truchos_0_1559244495.html'
p4
a.