(lp0
Vhttps://www.clarin.com/ieco/economia/salarios-perdieron-poder-compra-ano_0_1680432112.html
p1
aVhttps://www.clarin.com/ieco/analistas-Banco-Central-preven-inflacion_0_1680432111.html
p2
aVhttps://www.clarin.com/ieco/analistas-Banco-Central-preven-inflacion_0_1680432111.html
p3
aVhttps://www.clarin.com/politica/grupo-estadounidense-Viacom-dueno-Telefe_0_1680432092.html
p4
aVhttps://www.clarin.com/politica/grupo-estadounidense-Viacom-dueno-Telefe_0_1680432092.html
p5
aVhttps://www.clarin.com/ieco/firmo-nuevoconvenio-laboral-petroleros_0_1680432141.html
p6
aVhttps://www.clarin.com/politica/encuentro-Movimientos-Sociales-Vaticano-Macri_0_1680432074.html
p7
aVhttps://www.clarin.com/politica/encuentro-Movimientos-Sociales-Vaticano-Macri_0_1680432074.html
p8
aVhttps://www.clarin.com/sociedad/Misterio-Chacarita-denuncian-desaparicion-menor_0_1681031882.html
p9
aVhttps://www.clarin.com/sociedad/Misterio-Chacarita-denuncian-desaparicion-menor_0_1681031882.html
p10
aVhttps://www.clarin.com/opinion/empresarios-dudas-apuestas-invertir_0_1680432076.html
p11
aVhttps://www.clarin.com/politica/Scioli-corrupcion-Astilleros-Rio-Santiago_0_1680432133.html
p12
aVhttps://www.clarin.com/politica/Scioli-corrupcion-Astilleros-Rio-Santiago_0_1680432133.html
p13
aVhttps://www.clarin.com/opinion/fin-limite-superpoderes_0_1681031883.html
p14
aVhttps://www.clarin.com/politica/Cristina-intento-frenar-tasacion-propiedades_0_1680432068.html
p15
aVhttps://www.clarin.com/politica/Cristina-intento-frenar-tasacion-propiedades_0_1680432068.html
p16
a.