(lp0
Vhttps://www.clarin.com/sociedad/Aparecio-delfin-Costa-vez-salvaron_0_1529847403.html
p1
aVhttps://www.clarin.com/sociedad/Aparecio-delfin-Costa-vez-salvaron_0_1529847403.html
p2
aVhttps://www.clarin.com/politica/Bonadio-Cristina-relacion-zigzagueante-picantes_0_1529847378.html
p3
a.