(lp0
Vhttps://www.clarin.com/sociedad/cocacolero-sobrevive-paso-tiempo_0_1582641756.html
p1
aVhttps://www.clarin.com/sociedad/cocacolero-sobrevive-paso-tiempo_0_1582641756.html
p2
aVhttps://www.clarin.com/sociedad/Docentes-universitarios-Conadu-Historica-acuerdo_0_1582641755.html
p3
aVhttps://www.clarin.com/sociedad/Docentes-universitarios-Conadu-Historica-acuerdo_0_1582641755.html
p4
aVhttps://www.clarin.com/politica/obispo-critico-Gobierno-aumentos-tarifas_0_1582641754.html
p5
aVhttps://www.clarin.com/politica/obispo-critico-Gobierno-aumentos-tarifas_0_1582641754.html
p6
aVhttps://www.clarin.com/ieco/economia/Paul-Polman-requiere-rediseno-economia_0_1582641751.html
p7
aVhttps://www.clarin.com/ieco/economia/Paul-Polman-requiere-rediseno-economia_0_1582641751.html
p8
aVhttps://www.clarin.com/ieco/IVA-anticipos-retenciones-impositivos-Pymes_0_1582641750.html
p9
aVhttps://www.clarin.com/sociedad/paro-maestros-Provincia-suma-medicos_0_1582641747.html
p10
aVhttps://www.clarin.com/sociedad/paro-maestros-Provincia-suma-medicos_0_1582641747.html
p11
aVhttps://www.clarin.com/ieco/Subas-gobernadores-parece-insuficiente-limite_0_1582641745.html
p12
aVhttps://www.clarin.com/ieco/Subas-gobernadores-parece-insuficiente-limite_0_1582641745.html
p13
a.