(lp0
Vhttps://www.clarin.com/ieco/septiembre-desacelero-caida-consumo_0_1656434430.html
p1
aVhttps://www.clarin.com/opinion/Domingos-guardias-medicas-pueblan-historias_0_1656434431.html
p2
aVhttps://www.clarin.com/opinion/Domingos-guardias-medicas-pueblan-historias_0_1656434431.html
p3
aVhttps://www.clarin.com/politica/Duhalde-Alguien-creer-Scioli-sabia_0_1656434428.html
p4
aVhttps://www.clarin.com/politica/Duhalde-Alguien-creer-Scioli-sabia_0_1656434428.html
p5
aVhttps://www.clarin.com/opinion/buitres-significo-derrota-total-Argentina_0_1656434427.html
p6
aVhttps://www.clarin.com/opinion/buitres-significo-derrota-total-Argentina_0_1656434427.html
p7
aVhttps://www.clarin.com/politica/Ritondo-denunciar-tiempo-comisaria-detenido_0_1656434422.html
p8
aVhttps://www.clarin.com/politica/Ritondo-denunciar-tiempo-comisaria-detenido_0_1656434422.html
p9
a.