(lp0
Vhttps://www.clarin.com/politica/calendario-desfile-Justicia_0_1555044803.html
p1
aVhttps://www.clarin.com/politica/calendario-desfile-Justicia_0_1555044803.html
p2
aVhttps://www.clarin.com/sociedad/pericias-psiquiatricas-determinaron-Farre-imputable_0_1555044797.html
p3
aVhttps://www.clarin.com/sociedad/pericias-psiquiatricas-determinaron-Farre-imputable_0_1555044797.html
p4
aVhttps://www.clarin.com/sociedad/NASA-difundio-millones-Tierra-espacio_0_1555044799.html
p5
aVhttps://www.clarin.com/sociedad/NASA-difundio-millones-Tierra-espacio_0_1555044799.html
p6
aVhttps://www.clarin.com/ieco/Petrobras-extiende-mes-negociaciones-Pampa_0_1555044796.html
p7
aVhttps://www.clarin.com/ieco/Petrobras-extiende-mes-negociaciones-Pampa_0_1555044796.html
p8
aVhttps://www.clarin.com/sociedad/dibujo-guitarra-suelo-usando-arboles_0_1555044793.html
p9
aVhttps://www.clarin.com/sociedad/dibujo-guitarra-suelo-usando-arboles_0_1555044793.html
p10
aVhttps://www.clarin.com/politica/Macri-reunira-Merkel-Berlin-julio_0_1555044783.html
p11
aVhttps://www.clarin.com/politica/insolita-defensa-ex-Iliana-Calabro_0_1555044756.html
p12
aVhttps://www.clarin.com/politica/insolita-defensa-ex-Iliana-Calabro_0_1555044756.html
p13
a.