(lp0
S'https://www.clarin.com/politica/Ojo-Michelle-Obama-San-Telmo_0_1545445749.html'
p1
aS'https://www.clarin.com/politica/Ojo-Michelle-Obama-San-Telmo_0_1545445749.html'
p2
aS'https://www.clarin.com/politica/Prorrogaron-meses-preventiva-Farina_0_1545445745.html'
p3
aS'https://www.clarin.com/politica/Prorrogaron-meses-preventiva-Farina_0_1545445745.html'
p4
aS'https://www.clarin.com/politica/Youtubers-estudiantes-protagonistas-Michelle-Obama_0_1545445730.html'
p5
aS'https://www.clarin.com/politica/Youtubers-estudiantes-protagonistas-Michelle-Obama_0_1545445730.html'
p6
aS'https://www.clarin.com/ieco/economia/gigante-BRF-compro-fiambres-Bocatti_0_1545445720.html'
p7
aS'https://www.clarin.com/ieco/economia/gigante-BRF-compro-fiambres-Bocatti_0_1545445720.html'
p8
a.