(lp0
S'https://www.clarin.com/politica/Vidal-apura-adhesion-blanqueo-capitales_0_1649835045.html'
p1
aS'https://www.clarin.com/ieco/economia/Mendoza-deflacion-agosto_0_1649835058.html'
p2
aS'https://www.clarin.com/sociedad/Inspeccion-Exactas-presunta-amenaza-terrorista_0_1649835051.html'
p3
aS'https://www.clarin.com/ieco/Paolo-Rocca-oportunidades-inigualables-inversion_0_1649835062.html'
p4
aS'https://www.clarin.com/sociedad/muerto-heridos-crucero-grande-mundo_0_1649835049.html'
p5
aS'https://www.clarin.com/politica/intimidad-Colon-Piazzolla-catering-prohibido_0_1649835050.html'
p6
a.