(lp0
S'https://www.clarin.com/politica/Fein-cometio-pecado-origen_0_1579642239.html'
p1
aS'https://www.clarin.com/sociedad/Donald-Trump-populismo-furia-medios_0_1579642237.html'
p2
aS'https://www.clarin.com/sociedad/Denuncian-abandono-emisoras-Radio-Nacional_0_1579642233.html'
p3
a.