(lp0
Vhttps://www.clarin.com/sociedad/Video-perros-hicieron-alcanzapelotas-partido_0_1533446791.html
p1
aVhttps://www.clarin.com/sociedad/Video-perros-hicieron-alcanzapelotas-partido_0_1533446791.html
p2
aVhttps://www.clarin.com/politica/Carrio-asesinato-Nisman-entrego-Stiuso_0_1533446780.html
p3
aVhttps://www.clarin.com/politica/Carrio-asesinato-Nisman-entrego-Stiuso_0_1533446780.html
p4
aVhttps://www.clarin.com/sociedad/Descubrio-esposo-violaba-hija-denuncio_0_1533446777.html
p5
a.