(lp0
S'https://www.clarin.com/politica/Malcorra-preocupada-Brasil-estornuda-Argentina_0_1534046916.html'
p1
aS'https://www.clarin.com/ieco/economia/allanamiento-Lula-fortalece-acciones-Brasil_0_1534046908.html'
p2
aS'https://www.clarin.com/sociedad/Espana-declaro-perros-vecinos-humanos_0_1534046904.html'
p3
aS'https://www.clarin.com/ieco/nombres-argentinos-Petrolao_0_1534046913.html'
p4
aS'https://www.clarin.com/sociedad/hepatitis_c-medicamentos-Adrian_Gadano_0_1534046902.html'
p5
aS'https://www.clarin.com/sociedad/Caso-mochileras-peritos-argentinos-identificaran_0_1534046905.html'
p6
a.