(lp0
S'https://www.clarin.com/politica/Juan-Jose-Gomez-Centurion-Mirtha_0_1640235994.html'
p1
aS'https://www.clarin.com/politica/Juan-Jose-Gomez-Centurion-Mirtha_0_1640235994.html'
p2
aS'https://www.clarin.com/sociedad/Denuncia-abusaron-jardin-infantes-Pilar_0_1640235982.html'
p3
aS'https://www.clarin.com/sociedad/Denuncia-abusaron-jardin-infantes-Pilar_0_1640235982.html'
p4
aS'https://www.clarin.com/sociedad/Dejo-carrera-ejecutiva-convento-clausura_0_1640235983.html'
p5
aS'https://www.clarin.com/sociedad/Dejo-carrera-ejecutiva-convento-clausura_0_1640235983.html'
p6
aS'https://www.clarin.com/politica/Jose-Luis-Gioja-Obviamente-Massa_0_1640235986.html'
p7
aS'https://www.clarin.com/politica/Jose-Luis-Gioja-Obviamente-Massa_0_1640235986.html'
p8
aS'https://www.clarin.com/sociedad/colegio-Bernal-pokemones-atrapan-santos_0_1640235984.html'
p9
aS'https://www.clarin.com/sociedad/colegio-Bernal-pokemones-atrapan-santos_0_1640235984.html'
p10
aS'https://www.clarin.com/politica/Stolbizer-Maximo-Kirchner-conoce-trabajo_0_1640235980.html'
p11
aS'https://www.clarin.com/politica/Stolbizer-Maximo-Kirchner-conoce-trabajo_0_1640235980.html'
p12
aS'https://www.clarin.com/politica/Nueva-amenaza-Maria-Eugenia-Vidal_0_1640235977.html'
p13
aS'https://www.clarin.com/politica/Nueva-amenaza-Maria-Eugenia-Vidal_0_1640235977.html'
p14
a.