(lp0
S'https://www.clarin.com/sociedad/Jupiter-nuevas-imagenes-gigante-gaseoso_0_1603639687.html'
p1
aS'https://www.clarin.com/sociedad/Aumentaron-femicidios-ano-mataron-mujeres_0_1603639681.html'
p2
aS'https://www.clarin.com/sociedad/carrito-montana-descarrilo-metros-altura_0_1603639664.html'
p3
a.