(lp0
Vhttps://www.clarin.com/sociedad/mision-aguas-profundas-verificar-oceanos_0_1620438054.html
p1
aVhttps://www.clarin.com/sociedad/mision-aguas-profundas-verificar-oceanos_0_1620438054.html
p2
aVhttps://www.clarin.com/sociedad/Puma-cerraron-Parque-Nacional-Iguazu_0_1620438053.html
p3
aVhttps://www.clarin.com/sociedad/Puma-cerraron-Parque-Nacional-Iguazu_0_1620438053.html
p4
a.