(lp0
S'https://www.clarin.com/opinion/Medios_publicos-nueva_gestion-pluralismo-nuevas_tecnologias_0_1515448469.html'
p1
aS'https://www.clarin.com/opinion/Gestion_economica-primeras_medidas-perspectivas_0_1515448467.html'
p2
aS'https://www.clarin.com/opinion/Gestion_economica-primeras_medidas-perspectivas_0_1515448467.html'
p3
aS'https://www.clarin.com/opinion/Jujuy-Milagro_Sala-Tupac_Amaru-Estado_social_0_1515448466.html'
p4
aS'https://www.clarin.com/ieco/Tarifas_electricas-Intendentes-Frigerio-Tarifa_Social_0_1515448460.html'
p5
aS'https://www.clarin.com/ieco/Tarifas_electricas-Aranguren-Subsidios-Aumentos-Segmentacion-Tarifa_Social_0_1515448459.html'
p6
aS'https://www.clarin.com/politica/Congreso-Corte_Suprema-Mauricio_Macri-Senado_0_1515448455.html'
p7
aS'https://www.clarin.com/politica/Chubut-petroleo-Casa_Rosada_0_1515448454.html'
p8
a.