(lp0
Vhttps://www.clarin.com/sociedad/Denuncian-constantes-amenazas-escuela-Barracas_0_1571842827.html
p1
aVhttps://www.clarin.com/sociedad/Denuncian-constantes-amenazas-escuela-Barracas_0_1571842827.html
p2
aVhttps://www.clarin.com/politica/centavos-escandalosas-declaraciones-funcionarios-Mendoza_0_1571842826.html
p3
aVhttps://www.clarin.com/politica/centavos-escandalosas-declaraciones-funcionarios-Mendoza_0_1571842826.html
p4
a.