(lp0
S'https://www.clarin.com/sociedad/perro-viajo-kilometros-volver-casa_0_1658834229.html'
p1
aS'https://www.clarin.com/politica/pobres-Alemania-frases-marcaron-tema_0_1658834248.html'
p2
aS'https://www.clarin.com/opinion/Malvinas-pide-politica-amigable_0_1658834242.html'
p3
aS'https://www.clarin.com/sociedad/femicidio-country-juicio-jurados-haria_0_1658834238.html'
p4
aS'https://www.clarin.com/sociedad/Sacudida-femicidios-Mendoza-NiUnaMenos_0_1658834225.html'
p5
aS'https://www.clarin.com/opinion/argentinos-cuidan-corazon_0_1658834243.html'
p6
aS'https://www.clarin.com/sociedad/Premian-millon-mejor-equipo-docente_0_1658834237.html'
p7
a.