(lp0
Vhttps://www.clarin.com/politica/Macri-telefono-Putin-Rusia-inversiones_0_1592240820.html
p1
aVhttps://www.clarin.com/politica/Macri-telefono-Putin-Rusia-inversiones_0_1592240820.html
p2
aVhttps://www.clarin.com/ieco/economia/Curutchet-sistema-bancario-dolares-prestar_0_1592240815.html
p3
aVhttps://www.clarin.com/ieco/economia/Curutchet-sistema-bancario-dolares-prestar_0_1592240815.html
p4
aVhttps://www.clarin.com/politica/angeles-Cristina-senadoras-cambios-Corte_0_1592240814.html
p5
aVhttps://www.clarin.com/politica/angeles-Cristina-senadoras-cambios-Corte_0_1592240814.html
p6
aVhttps://www.clarin.com/sociedad/Revelan-reales-cifras-oficiales-muertes_0_1592240813.html
p7
aVhttps://www.clarin.com/sociedad/Revelan-reales-cifras-oficiales-muertes_0_1592240813.html
p8
aVhttps://www.clarin.com/ieco/economia/Basavilbaso-Cristina-emociones-sentimientos-negativos_0_1592240808.html
p9
aVhttps://www.clarin.com/ieco/economia/Basavilbaso-Cristina-emociones-sentimientos-negativos_0_1592240808.html
p10
aVhttps://www.clarin.com/politica/Arroyo-Salgado-queja-Nisman-CIDH_0_1592240805.html
p11
aVhttps://www.clarin.com/politica/Arroyo-Salgado-queja-Nisman-CIDH_0_1592240805.html
p12
a.