(lp0
S'https://www.clarin.com/ieco/economia/Preven-invertir-US-millones-procesar_0_1571842885.html'
p1
aS'https://www.clarin.com/politica/denuncio-Maximo-Kirchner-internada-urgencia_0_1571842884.html'
p2
aS'https://www.clarin.com/politica/denuncio-Maximo-Kirchner-internada-urgencia_0_1571842884.html'
p3
aS'https://www.clarin.com/politica/Martin-Baez-presento-escrito-Casanello_0_1571842880.html'
p4
aS'https://www.clarin.com/politica/Martin-Baez-presento-escrito-Casanello_0_1571842880.html'
p5
aS'https://www.clarin.com/politica/Vido-fueros-diputado-evitar-allanen_0_1571842877.html'
p6
aS'https://www.clarin.com/politica/Vido-fueros-diputado-evitar-allanen_0_1571842877.html'
p7
aS'https://www.clarin.com/sociedad/Instagram-Florencia-Raggi-polemica-desnudos_0_1571842868.html'
p8
aS'https://www.clarin.com/sociedad/Instagram-Florencia-Raggi-polemica-desnudos_0_1571842868.html'
p9
aS'https://www.clarin.com/ieco/Argentina-comenzara-importar-natural-Chile_0_1571842876.html'
p10
aS'https://www.clarin.com/ieco/Argentina-comenzara-importar-natural-Chile_0_1571842876.html'
p11
aS'https://www.clarin.com/ieco/economia/Precios-Cuidados-suben-prorrogan-septiembre_0_1571842874.html'
p12
aS'https://www.clarin.com/ieco/economia/Precios-Cuidados-suben-prorrogan-septiembre_0_1571842874.html'
p13
a.