(lp0
S'https://www.clarin.com/politica/suspendio-juicio-quiebra-Banco-Patricios_0_1628237337.html'
p1
aS'https://www.clarin.com/politica/suspendio-juicio-quiebra-Banco-Patricios_0_1628237337.html'
p2
aS'https://www.clarin.com/ieco/Tarifas-Aranguren-fallo-Corte-grave_0_1628237239.html'
p3
aS'https://www.clarin.com/ieco/Tarifas-Aranguren-fallo-Corte-grave_0_1628237239.html'
p4
aS'https://www.clarin.com/ieco/Mindlin-captar-dolares-blanqueo-energia_0_1628237302.html'
p5
aS'https://www.clarin.com/ieco/Mindlin-captar-dolares-blanqueo-energia_0_1628237302.html'
p6
aS'https://www.clarin.com/ieco/justicia-licitacion-encontrarle-Cresta-Roja_0_1628237257.html'
p7
aS'https://www.clarin.com/ieco/justicia-licitacion-encontrarle-Cresta-Roja_0_1628237257.html'
p8
aS'https://www.clarin.com/ieco/economia/Blanqueo-semana-podra-devolucion-impuestos_0_1628237316.html'
p9
aS'https://www.clarin.com/ieco/economia/Blanqueo-semana-podra-devolucion-impuestos_0_1628237316.html'
p10
aS'https://www.clarin.com/sociedad/Elena-Roca-Miss-Mundo-Argentina_0_1628837107.html'
p11
aS'https://www.clarin.com/sociedad/Elena-Roca-Miss-Mundo-Argentina_0_1628837107.html'
p12
aS'https://www.clarin.com/politica/Suenos-Compartidos-Vido-Jose-Lopez_0_1628237303.html'
p13
aS'https://www.clarin.com/politica/Suenos-Compartidos-Vido-Jose-Lopez_0_1628237303.html'
p14
aS'https://www.clarin.com/politica/Suenos-Compartidos-indagatoria-Hebe-fecha_0_1628237325.html'
p15
aS'https://www.clarin.com/politica/Suenos-Compartidos-indagatoria-Hebe-fecha_0_1628237325.html'
p16
aS'https://www.clarin.com/politica/cheques-Sauces-quedaron-luja-judicial_0_1628237326.html'
p17
aS'https://www.clarin.com/politica/cheques-Sauces-quedaron-luja-judicial_0_1628237326.html'
p18
aS'https://www.clarin.com/politica/Cristina-volvera-enfrentar-tormenta-judicial_0_1628237306.html'
p19
aS'https://www.clarin.com/politica/Cristina-volvera-enfrentar-tormenta-judicial_0_1628237306.html'
p20
aS'https://www.clarin.com/opinion/bajan-precio-naftas_0_1628837106.html'
p21
aS'https://www.clarin.com/opinion/Herramientas-estimular-iniciativas-privadas_0_1628237294.html'
p22
aS'https://www.clarin.com/opinion/Argentina-frente-terrorismo_0_1628237293.html'
p23
aS'https://www.clarin.com/opinion/Argentina-frente-terrorismo_0_1628237293.html'
p24
a.