(lp0
Vhttps://www.clarin.com/politica/tension-tarifas-Macri-Lorenzetti-intercambiaron_0_1641435920.html
p1
aVhttps://www.clarin.com/politica/tension-tarifas-Macri-Lorenzetti-intercambiaron_0_1641435920.html
p2
aVhttps://www.clarin.com/politica/jefes-CGT-Prat-Gay-irresponsable_0_1641435918.html
p3
aVhttps://www.clarin.com/politica/jefes-CGT-Prat-Gay-irresponsable_0_1641435918.html
p4
aVhttps://www.clarin.com/sociedad/Queria-competir-concurso-belleza-gordita_0_1641435919.html
p5
aVhttps://www.clarin.com/sociedad/Queria-competir-concurso-belleza-gordita_0_1641435919.html
p6
aVhttps://www.clarin.com/ieco/Extienden-plazo-liquidar-divisas-campo_0_1641435916.html
p7
aVhttps://www.clarin.com/ieco/Extienden-plazo-liquidar-divisas-campo_0_1641435916.html
p8
aVhttps://www.clarin.com/politica/Ataque-Macri-Mar-Plata-escracharon_0_1641435914.html
p9
aVhttps://www.clarin.com/politica/Ataque-Macri-Mar-Plata-escracharon_0_1641435914.html
p10
aVhttps://www.clarin.com/ieco/provincias-impulsan-construccion-puente-Parana_0_1641435906.html
p11
aVhttps://www.clarin.com/ieco/provincias-impulsan-construccion-puente-Parana_0_1641435906.html
p12
a.