(lp0
S'https://www.clarin.com/ieco/economia/Vaca-Muerta-negocian-condiciones-laborales_0_1663033871.html'
p1
aS'https://www.clarin.com/sociedad/Crearon-maquinas-llevaron-Nobel-Quimica_0_1663033866.html'
p2
aS'https://www.clarin.com/sociedad/obstetricia-predominan-chicas-ingenieria-varones_0_1663033877.html'
p3
aS'https://www.clarin.com/politica/Vidal-esperanza-discurso_0_1663033867.html'
p4
aS'https://www.clarin.com/sociedad/Abrieron-vision-nanotecnologia_0_1663033872.html'
p5
a.