(lp0
S'https://www.clarin.com/ieco/economia/uberizacion-limites-desafios-nuevos-negocios_0_1687031429.html'
p1
aS'https://www.clarin.com/ieco/economia/uberizacion-limites-desafios-nuevos-negocios_0_1687031429.html'
p2
aS'https://www.clarin.com/sociedad/Matan-joven-hieren-hermano-boliche_0_1687031427.html'
p3
aS'https://www.clarin.com/ieco/economia/Hamburguesas-barrios_0_1687031425.html'
p4
aS'https://www.clarin.com/ieco/economia/Hamburguesas-barrios_0_1687031425.html'
p5
aS'https://www.clarin.com/ieco/economia/socios-argentinos-Marat-Safin_0_1687031423.html'
p6
aS'https://www.clarin.com/ieco/economia/socios-argentinos-Marat-Safin_0_1687031423.html'
p7
aS'https://www.clarin.com/ieco/economia/Seguridad-previsibilidad-riesgos-trabajo_0_1687031421.html'
p8
aS'https://www.clarin.com/ieco/economia/Trump-podria-traer-Rusia-frio_0_1687031419.html'
p9
aS'https://www.clarin.com/ieco/economia/Trump-podria-traer-Rusia-frio_0_1687031419.html'
p10
aS'https://www.clarin.com/politica/Obra-cooperativas-complican-Jose-Lopez_0_1687031412.html'
p11
aS'https://www.clarin.com/politica/Obra-cooperativas-complican-Jose-Lopez_0_1687031412.html'
p12
aS'https://www.clarin.com/ieco/economia/Trump-prioridad-China_0_1687031418.html'
p13
aS'https://www.clarin.com/ieco/economia/impacto-tasas-largo-plazo-cambia_0_1687031417.html'
p14
aS'https://www.clarin.com/ieco/economia/impacto-tasas-largo-plazo-cambia_0_1687031417.html'
p15
a.