(lp0
Vhttps://www.clarin.com/politica/PJ-buscan-alejarse-Cristina-criticarla_0_1642635724.html
p1
aVhttps://www.clarin.com/politica/PJ-buscan-alejarse-Cristina-criticarla_0_1642635724.html
p2
aVhttps://www.clarin.com/opinion/G-20-Presidencia-tripartita-compromisos-intensos_0_1642035904.html
p3
aVhttps://www.clarin.com/opinion/Consensos-garantia-clave_0_1642035917.html
p4
aVhttps://www.clarin.com/opinion/Consensos-garantia-clave_0_1642035917.html
p5
aVhttps://www.clarin.com/opinion/medallero-olimpico-geopolitica_0_1642035903.html
p6
aVhttps://www.clarin.com/opinion/tasa-ganara-dolar_0_1642635723.html
p7
aVhttps://www.clarin.com/opinion/peronismos-pugna_0_1642635722.html
p8
aVhttps://www.clarin.com/politica/boleta-electronica-solo-provincias_0_1642036001.html
p9
aVhttps://www.clarin.com/opinion/amores-olvidan_0_1642035929.html
p10
aVhttps://www.clarin.com/politica/Carrio-vincula-Aduana-Moyano-Angelici_0_1642035995.html
p11
aVhttps://www.clarin.com/politica/Carrio-vincula-Aduana-Moyano-Angelici_0_1642035995.html
p12
a.