(lp0
S'https://www.clarin.com/sociedad/UBA-investigan-administracion-fraudulenta-Odontologia_0_1676832463.html'
p1
aS'https://www.clarin.com/sociedad/UBA-investigan-administracion-fraudulenta-Odontologia_0_1676832463.html'
p2
aS'https://www.clarin.com/politica/Bono-Gobierno-define-provincias-complicadas_0_1676832462.html'
p3
aS'https://www.clarin.com/politica/Bono-Gobierno-define-provincias-complicadas_0_1676832462.html'
p4
aS'https://www.clarin.com/sociedad/Misiones-asesinaron-travesti-pareja-crimen_0_1676832461.html'
p5
aS'https://www.clarin.com/sociedad/Misiones-asesinaron-travesti-pareja-crimen_0_1676832461.html'
p6
aS'https://www.clarin.com/sociedad/bullying-chicos-pais-legisladores-dia_0_1676832378.html'
p7
aS'https://www.clarin.com/sociedad/bullying-chicos-pais-legisladores-dia_0_1676832378.html'
p8
aS'https://www.clarin.com/sociedad/estudiar-nadandoCada-cruzan-llegar-escuela_0_1676832452.html'
p9
aS'https://www.clarin.com/sociedad/estudiar-nadandoCada-cruzan-llegar-escuela_0_1676832452.html'
p10
a.