(lp0
S'https://www.clarin.com/sociedad/muertos-violento-frontal-Benito-Juarez_0_1618038243.html'
p1
aS'https://www.clarin.com/politica/Macri-Esconder-alfombra-genera-soluciones_0_1618038241.html'
p2
aS'https://www.clarin.com/sociedad/Tenes-segundos-ayudar_0_1618038251.html'
p3
aS'https://www.clarin.com/ieco/economia/Energias-renovables-US-beneficios-fiscales_0_1618038248.html'
p4
aS'https://www.clarin.com/politica/Reaparecio-Cristina-Milagro-Sala-Skype_0_1618038245.html'
p5
a.