(lp0
Vhttps://www.clarin.com/ieco/economia/inflacion-Indec-junio_0_1612638843.html
p1
aVhttps://www.clarin.com/sociedad/Sigue-arrojada-vacio-madre-declaro_0_1612638842.html
p2
aVhttps://www.clarin.com/sociedad/Sigue-arrojada-vacio-madre-declaro_0_1612638842.html
p3
aVhttps://www.clarin.com/sociedad/pena-determina-matar-intentar-hijo_0_1612638840.html
p4
aVhttps://www.clarin.com/politica/Senado-oposicion-aprobar-Gobierno-suspenda_0_1612638836.html
p5
aVhttps://www.clarin.com/politica/Senado-oposicion-aprobar-Gobierno-suspenda_0_1612638836.html
p6
aVhttps://www.clarin.com/politica/Cristina-Camara-Federal-Bonadio-Sauces_0_1612638837.html
p7
aVhttps://www.clarin.com/politica/Cristina-Camara-Federal-Bonadio-Sauces_0_1612638837.html
p8
aVhttps://www.clarin.com/sociedad/Rosario-chica-cayo-septimo-grave_0_1612638838.html
p9
aVhttps://www.clarin.com/sociedad/Rosario-chica-cayo-septimo-grave_0_1612638838.html
p10
a.