(lp0
Vhttps://www.clarin.com/politica/Triaca-quebro-Congreso-criticaran-padre_0_1574842667.html
p1
aVhttps://www.clarin.com/politica/Triaca-quebro-Congreso-criticaran-padre_0_1574842667.html
p2
aVhttps://www.clarin.com/politica/ordena-emitir-canal-TV-comunitario_0_1574842661.html
p3
aVhttps://www.clarin.com/politica/ordena-emitir-canal-TV-comunitario_0_1574842661.html
p4
aVhttps://www.clarin.com/politica/Marijuan-investiga-Vialidad-controlo-Baez_0_1574842653.html
p5
aVhttps://www.clarin.com/politica/Marijuan-investiga-Vialidad-controlo-Baez_0_1574842653.html
p6
a.