(lp0
Vhttps://www.clarin.com/sociedad/Gobierno-admite-situacion-violencia-mujeres_0_1682831718.html
p1
aVhttps://www.clarin.com/sociedad/Gobierno-admite-situacion-violencia-mujeres_0_1682831718.html
p2
aVhttps://www.clarin.com/sociedad/hacer-curso-ballet-EEUU-contrataron_0_1682831704.html
p3
aVhttps://www.clarin.com/sociedad/hacer-curso-ballet-EEUU-contrataron_0_1682831704.html
p4
aVhttps://www.clarin.com/sociedad/Misterio-Delta-hallan-pareja-muerta_0_1682831711.html
p5
aVhttps://www.clarin.com/sociedad/Misterio-Delta-hallan-pareja-muerta_0_1682831711.html
p6
a.