(lp0
S'https://www.clarin.com/politica/Stanley-levanta-perfil-candidata-Provincia_0_1562243945.html'
p1
aS'https://www.clarin.com/politica/Susana-Trimarco-corrupta_0_1562843701.html'
p2
aS'https://www.clarin.com/politica/Macri-criticas-Cristina-engancharnos-agresion_0_1562243947.html'
p3
aS'https://www.clarin.com/opinion/credo-pesimista_0_1562243884.html'
p4
aS'https://www.clarin.com/politica/Echegaray-pierde-apoyo-PJ-AGN_0_1562243954.html'
p5
aS'https://www.clarin.com/ieco/economia/lluvia-cayo-mitad-produccion-leche_0_1562243902.html'
p6
aS'https://www.clarin.com/politica/Baez-intenta-despegarse-Jorge-Chueco_0_1562243879.html'
p7
aS'https://www.clarin.com/ieco/economia/indice-riesgo-impulso-bonos-argentinos_0_1562243897.html'
p8
a.