(lp0
Vhttps://www.clarin.com/ieco/economia/guerra-limones-episodio_0_1546045734.html
p1
aVhttps://www.clarin.com/ieco/recursos-humanos/empresas-buscan-jovenes-profesionales-emprendedores_0_1544845917.html
p2
aVhttps://www.clarin.com/ieco/recursos-humanos/empresas-buscan-jovenes-profesionales-emprendedores_0_1544845917.html
p3
aVhttps://www.clarin.com/ieco/Macri-reactivar-publicas-creditos-importaciones_0_1547245679.html
p4
aVhttps://www.clarin.com/politica/Cristina-presenta-Bonadio-detendra-fuerza_0_1547845234.html
p5
aVhttps://www.clarin.com/politica/Cristina-presenta-Bonadio-detendra-fuerza_0_1547845234.html
p6
aVhttps://www.clarin.com/opinion/grieta-perdura-luego-Obama_0_1547845226.html
p7
aVhttps://www.clarin.com/sociedad/Llegan-espanoles-conviven-viejos-inmigrantes_0_1547245634.html
p8
aVhttps://www.clarin.com/sociedad/Llegan-espanoles-conviven-viejos-inmigrantes_0_1547245634.html
p9
aVhttps://www.clarin.com/opinion/Dia-Cero-misterio-Habana_0_1547845224.html
p10
a.