(lp0
S'https://www.clarin.com/sociedad/Tijeras-estudian-peluqueria-alcanzar-futuro_0_1679832002.html'
p1
aS'https://www.clarin.com/sociedad/Tijeras-estudian-peluqueria-alcanzar-futuro_0_1679832002.html'
p2
aS'https://www.clarin.com/sociedad/peluquerias-generadoras-empleo_0_1679832025.html'
p3
aS'https://www.clarin.com/sociedad/peluquerias-generadoras-empleo_0_1679832025.html'
p4
aS'https://www.clarin.com/politica/Pichetto-polemico-Cuanta-recibiendo-inmigrantes_0_1679832021.html'
p5
aS'https://www.clarin.com/politica/Pichetto-polemico-Cuanta-recibiendo-inmigrantes_0_1679832021.html'
p6
aS'https://www.clarin.com/sociedad/salto-paracaidas-celebrar-Dia-Muertos_0_1679832020.html'
p7
aS'https://www.clarin.com/sociedad/salto-paracaidas-celebrar-Dia-Muertos_0_1679832020.html'
p8
aS'https://www.clarin.com/politica/Hoy-Lazaro-Baez-declarar-corrupcion_0_1679832014.html'
p9
aS'https://www.clarin.com/politica/Hoy-Lazaro-Baez-declarar-corrupcion_0_1679832014.html'
p10
a.