(lp0
S'https://www.clarin.com/sociedad/Video-ping-pong-espacio_0_1510649171.html'
p1
aS'https://www.clarin.com/sociedad/Rosario-buscan-chico-arrojo-Parana_0_1510649167.html'
p2
aS'https://www.clarin.com/sociedad/Aterrizo-exito-primer-cohete-reciclado_0_1510649125.html'
p3
aS'https://www.clarin.com/sociedad/Aterrizo-exito-primer-cohete-reciclado_0_1510649125.html'
p4
aS'https://www.clarin.com/ieco/economia/Fuerte-freno-liquidacion-divisas-campo_0_1510649151.html'
p5
a.