(lp0
S'https://www.clarin.com/politica/Rio_Turbio-Yacimiento-interventor-Omar_Zeidan_0_1511849017.html'
p1
aS'https://www.clarin.com/politica/Rio_Turbio-Yacimiento-interventor-Omar_Zeidan_0_1511849017.html'
p2
aS'https://www.clarin.com/politica/Raul-Castells-Tupac-Amaru-narcotraficante_0_1511849015.html'
p3
aS'https://www.clarin.com/politica/Raul-Castells-Tupac-Amaru-narcotraficante_0_1511849015.html'
p4
aS'https://www.clarin.com/ieco/economia/nivel-global-Toyota-mantiene-ventas_0_1511849003.html'
p5
aS'https://www.clarin.com/sociedad/Brasil-frenar-dengue-mosquitos-transgenicos_0_1511848994.html'
p6
aS'https://www.clarin.com/sociedad/Brasil-frenar-dengue-mosquitos-transgenicos_0_1511848994.html'
p7
aS'https://www.clarin.com/sociedad/virus-zika-expande-Europa_0_1511849006.html'
p8
aS'https://www.clarin.com/sociedad/virus-zika-expande-Europa_0_1511849006.html'
p9
a.