(lp0
Vhttps://www.clarin.com/politica/chicos-GBA-presenta-deficit-nutricion_0_1585641533.html
p1
aVhttps://www.clarin.com/politica/chicos-GBA-presenta-deficit-nutricion_0_1585641533.html
p2
aVhttps://www.clarin.com/ieco/economia/Atucha-III-IV-hacer-chinos_0_1589841106.html
p3
aVhttps://www.clarin.com/ieco/economia/Atucha-III-IV-hacer-chinos_0_1589841106.html
p4
aVhttps://www.clarin.com/politica/aprueba-feriado-nacional-Macri-vetaria_0_1589841104.html
p5
aVhttps://www.clarin.com/politica/aprueba-feriado-nacional-Macri-vetaria_0_1589841104.html
p6
aVhttps://www.clarin.com/politica/Sospechosa-demora-ley-arrepentido-corrupcion_0_1589841100.html
p7
aVhttps://www.clarin.com/politica/Sospechosa-demora-ley-arrepentido-corrupcion_0_1589841100.html
p8
aVhttps://www.clarin.com/ieco/economia/CAME-ventas-minoristas-cayeron-mayo_0_1589841094.html
p9
aVhttps://www.clarin.com/politica/Encuesta-Macri-Vidal-Larreta-mejor_0_1589841095.html
p10
aVhttps://www.clarin.com/politica/Encuesta-Macri-Vidal-Larreta-mejor_0_1589841095.html
p11
a.