(lp0
Vhttps://www.clarin.com/ieco/coloquioidea/Hacer-Vaca-Muerta-cuesta-EEUU_0_1667833333.html
p1
aVhttps://www.clarin.com/sociedad/ballena-protegio-lancha-querian-copular_0_1667833330.html
p2
aVhttps://www.clarin.com/sociedad/ballena-protegio-lancha-querian-copular_0_1667833330.html
p3
aVhttps://www.clarin.com/ieco/coloquioidea/Bullrich-encantaria-Carrio-candidata-competiria_0_1667833328.html
p4
aVhttps://www.clarin.com/ieco/Inflacion-septiembre_0_1667833327.html
p5
aVhttps://www.clarin.com/ieco/coloquioidea/Federico-Trucco-Vine-provocar-distinto_0_1667833325.html
p6
aVhttps://www.clarin.com/ieco/coloquioidea/Federico-Trucco-Vine-provocar-distinto_0_1667833325.html
p7
aVhttps://www.clarin.com/politica/Citaron-Pedro-Casanello-Quinta-Olivos_0_1667833324.html
p8
aVhttps://www.clarin.com/politica/Citaron-Pedro-Casanello-Quinta-Olivos_0_1667833324.html
p9
aVhttps://www.clarin.com/ieco/coloquioidea/empresarios-esperan-mejora-economia_0_1667833322.html
p10
aVhttps://www.clarin.com/ieco/coloquioidea/empresarios-esperan-mejora-economia_0_1667833322.html
p11
a.