(lp0
S'https://www.clarin.com/politica/desfile-Tribunales-ironico-agrupacion-macrista_0_1608439206.html'
p1
aS'https://www.clarin.com/politica/desfile-Tribunales-ironico-agrupacion-macrista_0_1608439206.html'
p2
aS'https://www.clarin.com/ieco/economia/turron-duplico-ventas-hacer-publicidad_0_1608439203.html'
p3
aS'https://www.clarin.com/ieco/economia/turron-duplico-ventas-hacer-publicidad_0_1608439203.html'
p4
aS'https://www.clarin.com/sociedad/Confirmado-va-Dario-Loperfido_0_1608439200.html'
p5
aS'https://www.clarin.com/sociedad/Confirmado-va-Dario-Loperfido_0_1608439200.html'
p6
aS'https://www.clarin.com/politica/Ottavis-Gonzalez-Fraga-recorrer-Moreno_0_1608439198.html'
p7
aS'https://www.clarin.com/politica/Ottavis-Gonzalez-Fraga-recorrer-Moreno_0_1608439198.html'
p8
aS'https://www.clarin.com/politica/Lazaro-Baez-sospechas-Casanello-Cristina_0_1608439188.html'
p9
aS'https://www.clarin.com/politica/Lazaro-Baez-sospechas-Casanello-Cristina_0_1608439188.html'
p10
aS'https://www.clarin.com/sociedad/Conto-terror-liberen-vuelva-atacar_0_1608439194.html'
p11
aS'https://www.clarin.com/sociedad/Conto-terror-liberen-vuelva-atacar_0_1608439194.html'
p12
a.