(lp0
S'https://www.clarin.com/sociedad/impactante-ultimo-deseo-rey-cafetera_0_1524447810.html'
p1
aS'https://www.clarin.com/sociedad/impactante-ultimo-deseo-rey-cafetera_0_1524447810.html'
p2
aS'https://www.clarin.com/politica/Carrio-apunto-Papa-Francisco-Roma_0_1524447906.html'
p3
aS'https://www.clarin.com/politica/Carrio-apunto-Papa-Francisco-Roma_0_1524447906.html'
p4
aS'https://www.clarin.com/sociedad/Larreta-felicito-policia-impidio-violacion_0_1524447932.html'
p5
aS'https://www.clarin.com/sociedad/Larreta-felicito-policia-impidio-violacion_0_1524447932.html'
p6
aS'https://www.clarin.com/politica/secretario-Lijo-escuchas_judiciales_0_1524447935.html'
p7
aS'https://www.clarin.com/politica/Mauricio_Macri-Ganancias-paritarias_0_1524447933.html'
p8
aS'https://www.clarin.com/politica/Mauricio_Macri-Ganancias-paritarias_0_1524447933.html'
p9
a.