(lp0
S'https://www.clarin.com/sociedad/Despues-Obama-New-York-Times_0_1549645356.html'
p1
aS'https://www.clarin.com/politica/Malcorra-reunio-Kerry-Washington_0_1549645355.html'
p2
aS'https://www.clarin.com/politica/Causa-AMIA-declarar-Menem-matado_0_1549645349.html'
p3
aS'https://www.clarin.com/ieco/economia-crecio_0_1549645347.html'
p4
aS'https://www.clarin.com/politica/Empezo-reunion-diputados-sindicalistas-Ganancias_0_1549645361.html'
p5
aS'https://www.clarin.com/politica/Piden-indagatoria-Angelici-Carrio-Republica_0_1549645353.html'
p6
a.