(lp0
Vhttps://www.clarin.com/sociedad/Volvieron-trabajar-maestras-Agustin-asesinado_0_1524447846.html
p1
aVhttps://www.clarin.com/sociedad/Japon-satelite-observara-agujeros-negros_0_1524447770.html
p2
aVhttps://www.clarin.com/sociedad/Japon-satelite-observara-agujeros-negros_0_1524447770.html
p3
aVhttps://www.clarin.com/sociedad/China-desplazara-personas-construccion-supertelescopio_0_1524447851.html
p4
aVhttps://www.clarin.com/sociedad/China-desplazara-personas-construccion-supertelescopio_0_1524447851.html
p5
aVhttps://www.clarin.com/sociedad/Apple-niega-desbloquear-iPhone-tiroteo_0_1524447848.html
p6
aVhttps://www.clarin.com/sociedad/Apple-niega-desbloquear-iPhone-tiroteo_0_1524447848.html
p7
aVhttps://www.clarin.com/ieco/economia/espera-lanzan-inversion-renta-global_0_1524447841.html
p8
aVhttps://www.clarin.com/politica/asados-Campora-aguante-Milagro-Sala_0_1524447844.html
p9
aVhttps://www.clarin.com/politica/asados-Campora-aguante-Milagro-Sala_0_1524447844.html
p10
aVhttps://www.clarin.com/politica/Marcelo_Tinelli-Mauricio_Macri-AFA-Daniel_Scioli-Matias_Lammens-Daniel_Angelici_0_1524447781.html
p11
aVhttps://www.clarin.com/politica/Marcelo_Tinelli-Mauricio_Macri-AFA-Daniel_Scioli-Matias_Lammens-Daniel_Angelici_0_1524447781.html
p12
a.