(lp0
S'https://www.clarin.com/ieco/economia/Super-chinos-incluidos-Precios-Cuidados_0_1564643624.html'
p1
aS'https://www.clarin.com/ieco/economia/brecha-precio-productor-gondola-estable_0_1564643623.html'
p2
aS'https://www.clarin.com/politica/Balconte-transportaban-plata-llegaba-Maximo_0_1564643619.html'
p3
aS'https://www.clarin.com/politica/Balconte-transportaban-plata-llegaba-Maximo_0_1564643619.html'
p4
a.