(lp0
Vhttps://www.clarin.com/sociedad/Aplican-nueva-tecnica-eliminar-vaca_0_1628237340.html
p1
aVhttps://www.clarin.com/sociedad/polemica-proyecto-crear-parque-nacional_0_1628237338.html
p2
aVhttps://www.clarin.com/sociedad/polemica-proyecto-crear-parque-nacional_0_1628237338.html
p3
aVhttps://www.clarin.com/politica/Critica-candidatos-oficiales-AFI_0_1628237332.html
p4
a.