(lp0
S'https://www.clarin.com/politica/Imputaron-Lazaro-Baez-causa-penal_0_1579642197.html'
p1
aS'https://www.clarin.com/politica/Carrio-cruzar-Lorenzetti-adelanto-politico_0_1579642202.html'
p2
aS'https://www.clarin.com/politica/Cruce-Frigerio-Urtubey-INDEC-comunicacion_0_1579642194.html'
p3
aS'https://www.clarin.com/politica/Fuerte-respuesta-Lorenzetti-pedidos-Carrio_0_1579642176.html'
p4
aS'https://www.clarin.com/politica/aprobo-emergencia-administrativa-Provincia-disturbios_0_1579642200.html'
p5
aS'https://www.clarin.com/ieco/economia/Sigue-Letes-emitieron-US-millones_0_1579642199.html'
p6
a.