(lp0
Vhttps://www.clarin.com/politica/Adios-asombro_0_1504649550.html
p1
aVhttps://www.clarin.com/politica/triple_crimen-vidal_0_1504649578.html
p2
aVhttps://www.clarin.com/politica/perez_corradi-triple_fuga_0_1504649577.html
p3
aVhttps://www.clarin.com/politica/fuerzas_armadas-cambios_0_1504649576.html
p4
aVhttps://www.clarin.com/politica/macri-ff-aa-_fraga_0_1504649575.html
p5
aVhttps://www.clarin.com/politica/nisman-afi_0_1504649574.html
p6
aVhttps://www.clarin.com/opinion/Cristina_Kirchner-Amado_Boudou-Miguel_Galuccio-Fondos_buitre-Inflacion_0_1504649568.html
p7
aVhttps://www.clarin.com/opinion/Cristina_Kirchner-Amado_Boudou-Miguel_Galuccio-Fondos_buitre-Inflacion_0_1504649568.html
p8
aVhttps://www.clarin.com/opinion/Barack_Obama-Democracia-Medios_publicos_de_radio_y_TV_0_1504649567.html
p9
aVhttps://www.clarin.com/opinion/Kirchnerismo-Justicia_Legitima-Ministerio_Publico_Fiscal_0_1504649566.html
p10
aVhttps://www.clarin.com/politica/Presupuesto_2016-Provincia-Vidal-FPV-Intendentes_0_1504649558.html
p11
aVhttps://www.clarin.com/politica/Presupuesto_2016-Provincia-Vidal-FPV-Intendentes_0_1504649557.html
p12
a.