(lp0
Vhttps://www.clarin.com/sociedad/Extienden-plan-oficial-pagar-cuotas_0_1540646396.html
p1
aVhttps://www.clarin.com/sociedad/Extienden-plan-oficial-pagar-cuotas_0_1540646396.html
p2
aVhttps://www.clarin.com/sociedad/Semana-Santa-quedan-pasajes-tren_0_1540646398.html
p3
aVhttps://www.clarin.com/sociedad/Semana-Santa-quedan-pasajes-tren_0_1540646398.html
p4
aVhttps://www.clarin.com/politica/Campora-marcho-junto-izquierda-proyecto_0_1540646412.html
p5
aVhttps://www.clarin.com/politica/Campora-marcho-junto-izquierda-proyecto_0_1540646412.html
p6
aVhttps://www.clarin.com/opinion/obsesionespasado-futuro_0_1540646375.html
p7
aVhttps://www.clarin.com/sociedad/yerba-mate-argentina-sello-propio_0_1540646395.html
p8
aVhttps://www.clarin.com/sociedad/yerba-mate-argentina-sello-propio_0_1540646395.html
p9
aVhttps://www.clarin.com/sociedad/Embargan-Szpolski-Garfunkel-Radio-America_0_1540646438.html
p10
aVhttps://www.clarin.com/ieco/Griesa-dolares-pagar-podran-embargar_0_1540646429.html
p11
a.