(lp0
S'https://www.clarin.com/sociedad/controles-extremos-viernes-Time-Warp_0_1564043740.html'
p1
aS'https://www.clarin.com/sociedad/controles-extremos-viernes-Time-Warp_0_1564043740.html'
p2
aS'https://www.clarin.com/politica/Gobierno-sumo-apoyo-Massa-antidespidos_0_1564043757.html'
p3
aS'https://www.clarin.com/politica/Gobierno-sumo-apoyo-Massa-antidespidos_0_1564043757.html'
p4
aS'https://www.clarin.com/politica/Vidal-busca-intendentes-apuren-obras_0_1564043691.html'
p5
aS'https://www.clarin.com/politica/Vidal-busca-intendentes-apuren-obras_0_1564043691.html'
p6
aS'https://www.clarin.com/opinion/Kirchner-piden-permiso_0_1564643521.html'
p7
aS'https://www.clarin.com/politica/Lazaro-Baez-imperio-propiedades-sospecha_0_1564043745.html'
p8
aS'https://www.clarin.com/politica/Lazaro-Baez-imperio-propiedades-sospecha_0_1564043745.html'
p9
aS'https://www.clarin.com/politica/ruta-dinero-hallan-pruebas-bovedas_0_1564043751.html'
p10
aS'https://www.clarin.com/politica/ruta-dinero-hallan-pruebas-bovedas_0_1564043751.html'
p11
aS'https://www.clarin.com/opinion/Vi-ojos-circular-droga_0_1564043743.html'
p12
aS'https://www.clarin.com/opinion/Vi-ojos-circular-droga_0_1564043743.html'
p13
a.