(lp0
Vhttps://www.clarin.com/opinion/conexion-secreta-Cristina-Casanello_0_1589841004.html
p1
aVhttps://www.clarin.com/opinion/conexion-secreta-Cristina-Casanello_0_1589841004.html
p2
aVhttps://www.clarin.com/opinion/Idas-vueltas-Gobierno-costo-politico_0_1589841003.html
p3
aVhttps://www.clarin.com/opinion/eterno-juego-Malos_0_1589841002.html
p4
aVhttps://www.clarin.com/politica/Macri-publico-despide-privado_0_1589241190.html
p5
aVhttps://www.clarin.com/politica/Maximo-Kirchner-vendio-empresas-importantes_0_1589241185.html
p6
aVhttps://www.clarin.com/politica/sobrina-Cristina-compro-departamento-Florencia_0_1589241186.html
p7
aVhttps://www.clarin.com/politica/sobrina-Cristina-compro-departamento-Florencia_0_1589241186.html
p8
a.