(lp0
Vhttps://www.clarin.com/sociedad/ropa-cara_0_1576642423.html
p1
aVhttps://www.clarin.com/sociedad/ropa-cara_0_1576642423.html
p2
aVhttps://www.clarin.com/politica/Antidespidos-nudo-nadie-desata_0_1576642501.html
p3
aVhttps://www.clarin.com/politica/Antidespidos-nudo-nadie-desata_0_1576642501.html
p4
aVhttps://www.clarin.com/opinion/quiero-discursos_0_1576642477.html
p5
aVhttps://www.clarin.com/opinion/quiero-discursos_0_1576642477.html
p6
aVhttps://www.clarin.com/opinion/Amores-olvidan_0_1576642446.html
p7
aVhttps://www.clarin.com/politica/saliendo-sistema-populista-costos-altos_0_1576642458.html
p8
aVhttps://www.clarin.com/politica/saliendo-sistema-populista-costos-altos_0_1576642458.html
p9
aVhttps://www.clarin.com/sociedad/Primera-mujeres-ofrecen-pagar-cuenta_0_1576642470.html
p10
aVhttps://www.clarin.com/sociedad/Primera-mujeres-ofrecen-pagar-cuenta_0_1576642470.html
p11
aVhttps://www.clarin.com/politica/Bonadio-apuesta-confirmacion-procesamiento-Cristina_0_1576642455.html
p12
aVhttps://www.clarin.com/politica/Bonadio-apuesta-confirmacion-procesamiento-Cristina_0_1576642455.html
p13
aVhttps://www.clarin.com/politica/Farina-desmiente-Lazaro-Baez-Helvetic_0_1576642463.html
p14
aVhttps://www.clarin.com/politica/Farina-desmiente-Lazaro-Baez-Helvetic_0_1576642463.html
p15
a.