(lp0
S'https://www.clarin.com/sociedad/Diana-Quer-enigma-desvela-Espana_0_1643235711.html'
p1
aS'https://www.clarin.com/sociedad/alcaucil-estrella-impulsar-productos-estacion_0_1643235719.html'
p2
aS'https://www.clarin.com/sociedad/golpeo-patio-colegio-sigue-amenazando_0_1643235718.html'
p3
aS'https://www.clarin.com/politica/Procesan-embargan-Boudou-compra-ministro_0_1643235715.html'
p4
aS'https://www.clarin.com/politica/Gobierno-CGT-discutir-proyecto-Ganancias_0_1643235720.html'
p5
aS'https://www.clarin.com/ieco/venta-gaseosas-contrajo-primer-semestre_0_1643235722.html'
p6
aS'https://www.clarin.com/ieco/economia/Llega-laboratorio-Unidos_0_1643235724.html'
p7
a.