(lp0
S'https://www.clarin.com/politica/Congreso-argentino-cerrado-elecciones-EEUU_0_1681032020.html'
p1
aS'https://www.clarin.com/politica/Confirman-retrasan-cambios-escalas-Ganancias_0_1681032040.html'
p2
aS'https://www.clarin.com/politica/Mundial-politica-supermercado-campana-argentina_0_1681032067.html'
p3
aS'https://www.clarin.com/sociedad/tramite-migraciones-entrar-EEUU-Ezeiza_0_1681032077.html'
p4
aS'https://www.clarin.com/politica/peleas-Lifschitz-Macri-vinculo-distendido_0_1681032062.html'
p5
a.