(lp0
S'https://www.clarin.com/sociedad/general-denuncio-Cordera-investiga-sexuales_0_1630636958.html'
p1
aS'https://www.clarin.com/sociedad/insolita-defensa-hija-Cordera_0_1630636961.html'
p2
aS'https://www.clarin.com/ieco/Nuevas-normativas-BCRA-operatorias-bancarias_0_1630636957.html'
p3
aS'https://www.clarin.com/ieco/Gobierno-promete-triplicar-inversion-infraestructura_0_1630636959.html'
p4
aS'https://www.clarin.com/politica/Lopez-dolares-bolsos-pertenecian-politica_0_1630636954.html'
p5
aS'https://www.clarin.com/sociedad/Muere-bailar-creen-dieron-droga_0_1630636955.html'
p6
aS'https://www.clarin.com/ieco/Sigue-provincias-Tierra-Fuego-millones_0_1630636962.html'
p7
a.