(lp0
Vhttps://www.clarin.com/sociedad/Incendian-biblioteca-homenajea-murio-cancer_0_1611438904.html
p1
aVhttps://www.clarin.com/sociedad/Incendian-biblioteca-homenajea-murio-cancer_0_1611438904.html
p2
aVhttps://www.clarin.com/sociedad/alumnos-canto-himno-conocerse-caras_0_1611438891.html
p3
aVhttps://www.clarin.com/sociedad/alumnos-canto-himno-conocerse-caras_0_1611438891.html
p4
aVhttps://www.clarin.com/sociedad/Acosaba-hijastra-mato-escopetazo-nadie_0_1611438899.html
p5
aVhttps://www.clarin.com/sociedad/Acosaba-hijastra-mato-escopetazo-nadie_0_1611438899.html
p6
aVhttps://www.clarin.com/politica/hoy-imperio-Lazaro-Baez_0_1611438874.html
p7
aVhttps://www.clarin.com/politica/hoy-imperio-Lazaro-Baez_0_1611438874.html
p8
aVhttps://www.clarin.com/ieco/detalles-nuevo-plan-Procrear_0_1611438898.html
p9
aVhttps://www.clarin.com/ieco/detalles-nuevo-plan-Procrear_0_1611438898.html
p10
aVhttps://www.clarin.com/sociedad/famoso-compro-casa-cara-Vegas_0_1611438894.html
p11
aVhttps://www.clarin.com/sociedad/famoso-compro-casa-cara-Vegas_0_1611438894.html
p12
aVhttps://www.clarin.com/politica/Vido-Jaime-indagatoria-creacion-aerolinea_0_1611438888.html
p13
aVhttps://www.clarin.com/politica/Vido-Jaime-indagatoria-creacion-aerolinea_0_1611438888.html
p14
aVhttps://www.clarin.com/politica/Perez-corradi-declara-Servini-Cubria_0_1611438889.html
p15
aVhttps://www.clarin.com/politica/Perez-corradi-declara-Servini-Cubria_0_1611438889.html
p16
a.