(lp0
Vhttps://www.clarin.com/sociedad/argentino-pieza-clave-mision-ExoMars_0_1671432904.html
p1
aVhttps://www.clarin.com/sociedad/argentino-pieza-clave-mision-ExoMars_0_1671432904.html
p2
aVhttps://www.clarin.com/politica/Arrepentidos-corrupcion-claves-aprobara-hoy_0_1671432902.html
p3
aVhttps://www.clarin.com/politica/Arrepentidos-corrupcion-claves-aprobara-hoy_0_1671432902.html
p4
aVhttps://www.clarin.com/sociedad/Espero-ex-saliera-trabajo-mato_0_1671432900.html
p5
aVhttps://www.clarin.com/politica/negociacion-CGT-Gobierno-incorporara-empleados_0_1671432896.html
p6
aVhttps://www.clarin.com/politica/negociacion-CGT-Gobierno-incorporara-empleados_0_1671432896.html
p7
aVhttps://www.clarin.com/sociedad/Mision-ExoMars-juego-apenas-minutos_0_1671432895.html
p8
aVhttps://www.clarin.com/sociedad/Mision-ExoMars-juego-apenas-minutos_0_1671432895.html
p9
aVhttps://www.clarin.com/sociedad/asesinada-Mar-Plata-marcha-Lucias_0_1671432894.html
p10
aVhttps://www.clarin.com/sociedad/asesinada-Mar-Plata-marcha-Lucias_0_1671432894.html
p11
a.