(lp0
Vhttps://www.clarin.com/ieco/economia/Jefe-PRO-objetivo-cerrojo-soberano_0_1526847635.html
p1
aVhttps://www.clarin.com/politica/Apuntan-Julio-Vido-Milagro-Sala_0_1526847599.html
p2
aVhttps://www.clarin.com/politica/Apuntan-Julio-Vido-Milagro-Sala_0_1526847599.html
p3
aVhttps://www.clarin.com/politica/Macri-combatiendo-inflacion-bolsillo-trabajadores_0_1526847570.html
p4
aVhttps://www.clarin.com/politica/Macri-combatiendo-inflacion-bolsillo-trabajadores_0_1526847570.html
p5
aVhttps://www.clarin.com/sociedad/Delfines-turistas-pariticipan-impresionante-rescate_0_1526847562.html
p6
aVhttps://www.clarin.com/sociedad/Delfines-turistas-pariticipan-impresionante-rescate_0_1526847562.html
p7
a.