(lp0
S'https://www.clarin.com/ieco/economia/perfiles-managers-credulos-cinicos_0_1655834559.html'
p1
aS'https://www.clarin.com/ieco/economia/perfiles-managers-credulos-cinicos_0_1655834559.html'
p2
aS'https://www.clarin.com/ieco/economia/Aerolineas-sabe-hacer-ajuste_0_1655834576.html'
p3
aS'https://www.clarin.com/ieco/economia/Patagonia-saldra-vender-vinos-mundo_0_1657034295.html'
p4
aS'https://www.clarin.com/ieco/tecnologia/Wences-Casares-escalas-Silicon-Valley_0_1655834539.html'
p5
aS'https://www.clarin.com/ieco/tecnologia/Wences-Casares-escalas-Silicon-Valley_0_1655834539.html'
p6
aS'https://www.clarin.com/ieco/economia/Calcaterra-listo-vender-Iecsa_0_1655834570.html'
p7
aS'https://www.clarin.com/ieco/economia/Calcaterra-listo-vender-Iecsa_0_1655834570.html'
p8
aS'https://www.clarin.com/ieco/economia/Guillermo-Calvo-situacion-fragil_0_1655834535.html'
p9
aS'https://www.clarin.com/opinion/Respetar-desocupados_0_1657034289.html'
p10
aS'https://www.clarin.com/opinion/Respetar-desocupados_0_1657034289.html'
p11
aS'https://www.clarin.com/ieco/economia/claves-proyecto-Presupuesto_0_1657034288.html'
p12
aS'https://www.clarin.com/ieco/economia/claves-proyecto-Presupuesto_0_1657034288.html'
p13
a.