(lp0
Vhttps://www.clarin.com/politica/Denuncian-funcionarios-Autopista-Presidente-Peron_0_1646835304.html
p1
aVhttps://www.clarin.com/politica/Denuncian-funcionarios-Autopista-Presidente-Peron_0_1646835304.html
p2
aVhttps://www.clarin.com/politica/van-corriendo-arco-reactivacion_0_1646835302.html
p3
aVhttps://www.clarin.com/politica/Zannini-mediador-Alicia-Kirchner-Campora_0_1646235486.html
p4
aVhttps://www.clarin.com/politica/Zannini-mediador-Alicia-Kirchner-Campora_0_1646235486.html
p5
aVhttps://www.clarin.com/opinion/Curso-desorientacion-sexual-Pellegrini_0_1646835301.html
p6
aVhttps://www.clarin.com/opinion/amores-noches-vela_0_1646235498.html
p7
aVhttps://www.clarin.com/politica/Gobierno-implementara-plan-tarifas-electricas_0_1646235552.html
p8
aVhttps://www.clarin.com/politica/Gobierno-implementara-plan-tarifas-electricas_0_1646235552.html
p9
aVhttps://www.clarin.com/politica/Detuvieron-Ezeiza-ciudadano-libanes-terrorismo_0_1646235550.html
p10
aVhttps://www.clarin.com/ieco/economia/kirchnerismo-chicos-sufrio-problemas-nutricion_0_1646235549.html
p11
aVhttps://www.clarin.com/politica/Vuelve-Diputados-Acceso-Informacion-Publica_0_1646235548.html
p12
aVhttps://www.clarin.com/sociedad/muerte-santuario-Gilda-sigue-inundado_0_1646235547.html
p13
aVhttps://www.clarin.com/sociedad/muerte-santuario-Gilda-sigue-inundado_0_1646235547.html
p14
a.