(lp0
Vhttps://www.clarin.com/ieco/economia/Google-destrona-Apple-compania-valuada_0_1515448653.html
p1
aVhttps://www.clarin.com/ieco/economia/Google-destrona-Apple-compania-valuada_0_1515448653.html
p2
aVhttps://www.clarin.com/sociedad/humedales-delta-parana-ramsar-importancia-internacional_0_1515448642.html
p3
aVhttps://www.clarin.com/sociedad/humedales-delta-parana-ramsar-importancia-internacional_0_1515448642.html
p4
aVhttps://www.clarin.com/sociedad/mitos-dengue_0_1515448636.html
p5
aVhttps://www.clarin.com/sociedad/mitos-dengue_0_1515448636.html
p6
aVhttps://www.clarin.com/sociedad/Baradel-reitero-aumento-debe_0_1515448634.html
p7
aVhttps://www.clarin.com/sociedad/Baradel-reitero-aumento-debe_0_1515448634.html
p8
aVhttps://www.clarin.com/ieco/economia/mayoria-trabajadores-cumplir-Bienes-Personales_0_1515448641.html
p9
aVhttps://www.clarin.com/sociedad/paso-fronterizo-cristo-redentor_0_1515448619.html
p10
aVhttps://www.clarin.com/sociedad/paso-fronterizo-cristo-redentor_0_1515448619.html
p11
aVhttps://www.clarin.com/ieco/WhatsApp-supero-millones-usuarios_0_1515448635.html
p12
aVhttps://www.clarin.com/ieco/WhatsApp-supero-millones-usuarios_0_1515448635.html
p13
aVhttps://www.clarin.com/politica/Hugo-Yasky-Ponerle-paritarias-inaceptable_0_1515448631.html
p14
aVhttps://www.clarin.com/politica/Hugo-Yasky-Ponerle-paritarias-inaceptable_0_1515448631.html
p15
aVhttps://www.clarin.com/ieco/economia/elecciones-EEUU-juega-destino-planeta_0_1515448625.html
p16
aVhttps://www.clarin.com/ieco/economia/dolar-abre-estable_0_1515448623.html
p17
a.