(lp0
S'https://www.clarin.com/sociedad/Reino-Unido-modificacion-genetica-embriones_0_1514848653.html'
p1
aS'https://www.clarin.com/politica/protesta-conductores-frente-Radio-Nacional_0_1514848655.html'
p2
aS'https://www.clarin.com/sociedad/selfie-espectacular-Curiosity-Marte_0_1514848659.html'
p3
aS'https://www.clarin.com/sociedad/Demoras-cancelaciones-Aeroparque-controladores-aereos_0_1514848627.html'
p4
aS'https://www.clarin.com/politica/Oficializan-aumento-tarifas-consumos-incremento_0_1514848631.html'
p5
aS'https://www.clarin.com/politica/Termino-judicial-procesamiento-Boudou-dadivas_0_1514848623.html'
p6
aS'https://www.clarin.com/ieco/economia/tendencia-cesa-cierra-estacion-servicio_0_1514848648.html'
p7
a.