(lp0
Vhttps://www.clarin.com/sociedad/detenidos-producir-distribuir-pedofilia-Internet_0_1578442149.html
p1
aVhttps://www.clarin.com/politica/Baez-piden-libertad-Lazaro-embargo_0_1577842346.html
p2
aVhttps://www.clarin.com/politica/Baez-piden-libertad-Lazaro-embargo_0_1577842346.html
p3
a.