(lp0
S'https://www.clarin.com/sociedad/Crece-tendencia-asegurar-mascotas_0_1549045272.html'
p1
aS'https://www.clarin.com/sociedad/Crece-tendencia-asegurar-mascotas_0_1549045272.html'
p2
aS'https://www.clarin.com/ieco/economia/Kicillof-volvio-criticar-acuerdo-buitres_0_1549045280.html'
p3
aS'https://www.clarin.com/politica/Malvinas-plataforma-Cameron_0_1549045266.html'
p4
aS'https://www.clarin.com/politica/Malvinas-plataforma-Cameron_0_1549045266.html'
p5
aS'https://www.clarin.com/politica/protesta-amenaza-complicar-transito-porteno_0_1549045270.html'
p6
aS'https://www.clarin.com/politica/protesta-amenaza-complicar-transito-porteno_0_1549045270.html'
p7
a.