(lp0
Vhttps://www.clarin.com/sociedad/Touch-estadia-promedio-Mar-Plata_0_1496250683.html
p1
aVhttps://www.clarin.com/sociedad/Punta-fiestas-US100-musica-electronica_0_1496250687.html
p2
aVhttps://www.clarin.com/politica/triple_crimen-vidal-ritondo_0_1496850386.html
p3
aVhttps://www.clarin.com/politica/triple_crimen-vidal-ibar_0_1496850385.html
p4
aVhttps://www.clarin.com/politica/triple_crimen-vidal-ibar_0_1496850385.html
p5
aVhttps://www.clarin.com/politica/ciudadana-Cristina-Fernandez_0_1496850380.html
p6
aVhttps://www.clarin.com/opinion/Ministerio_de_Cultura-Directores_de_museos-Concursos-Controles_estatales_0_1496850375.html
p7
aVhttps://www.clarin.com/opinion/Deficit_fiscal-Inversion-Impuestos-Creditos_externos-Equilibrio_macroeconomico_0_1496850374.html
p8
aVhttps://www.clarin.com/politica/Triple_Crimen-efedrina-profugos-provincia_de_Buenos_Aires_0_1496850365.html
p9
a.