(lp0
S'https://www.clarin.com/politica/Camara-Federal-avanza-enriquecimiento-Stiuso_0_1612638905.html'
p1
aS'https://www.clarin.com/politica/documento-prueba-Lopez-construyo-convento_0_1612638915.html'
p2
aS'https://www.clarin.com/ieco/economia/anos-Argentina-cosecha-millones-toneladas_0_1612638913.html'
p3
aS'https://www.clarin.com/ieco/economia/Margarita-Rusia-manejo-Louis-Dreyfus_0_1612638914.html'
p4
aS'https://www.clarin.com/sociedad/guardianes-asesinos-rottweilers-mataron-duena_0_1612638906.html'
p5
aS'https://www.clarin.com/sociedad/Jardin-infantes-Unicef-tiempo-aprendizaje_0_1612638897.html'
p6
aS'https://www.clarin.com/politica/Revelan-secretas-Unidos-vinculadas-Baez_0_1612638920.html'
p7
aS'https://www.clarin.com/ieco/Macri-inversores-Bolsa-Entren-blanqueo_0_1612638900.html'
p8
a.