(lp0
S'https://www.clarin.com/politica/intervencion-Carrio-suspenden-relanzamiento-Cambiemos_0_1662433878.html'
p1
aS'https://www.clarin.com/politica/intervencion-Carrio-suspenden-relanzamiento-Cambiemos_0_1662433878.html'
p2
aS'https://www.clarin.com/sociedad/intendente-comisario-dueno-cabaret-juicio_0_1662433877.html'
p3
aS'https://www.clarin.com/sociedad/intendente-comisario-dueno-cabaret-juicio_0_1662433877.html'
p4
aS'https://www.clarin.com/politica/Lijo-aparto-beneficia-Gomez-Centurion_0_1662433875.html'
p5
aS'https://www.clarin.com/politica/Lijo-aparto-beneficia-Gomez-Centurion_0_1662433875.html'
p6
aS'https://www.clarin.com/sociedad/Polemica-primer-totalmente-vidrio-China_0_1662433870.html'
p7
aS'https://www.clarin.com/sociedad/Polemica-primer-totalmente-vidrio-China_0_1662433870.html'
p8
aS'https://www.clarin.com/sociedad/dias-temas-todas-voces-educacion_0_1662433869.html'
p9
aS'https://www.clarin.com/sociedad/ensenanza-cientifica-semillero-futuro_0_1662433868.html'
p10
a.