(lp0
Vhttps://www.clarin.com/politica/complico-centro-porteno-sintio-provincia_0_1658234365.html
p1
aVhttps://www.clarin.com/politica/complico-centro-porteno-sintio-provincia_0_1658234365.html
p2
aVhttps://www.clarin.com/politica/Casa-Rosada-terraza-paneles-solares_0_1658234360.html
p3
aVhttps://www.clarin.com/politica/Casa-Rosada-terraza-paneles-solares_0_1658234360.html
p4
aVhttps://www.clarin.com/politica/Suenos-Compartidos-Casacion-activa-evasion_0_1658234359.html
p5
aVhttps://www.clarin.com/politica/Suenos-Compartidos-Casacion-activa-evasion_0_1658234359.html
p6
aVhttps://www.clarin.com/opinion/Malvinas-modo-introducimos-sensatez_0_1658234351.html
p7
aVhttps://www.clarin.com/opinion/Malvinas-modo-introducimos-sensatez_0_1658234351.html
p8
aVhttps://www.clarin.com/opinion/Mala-praxis-administracion-medicacion-psiquiatrica_0_1658234350.html
p9
aVhttps://www.clarin.com/opinion/Reforma-politica-mejor-colectoras_0_1658234348.html
p10
a.