(lp0
Vhttps://www.clarin.com/sociedad/cine-llevaran-chicos-peliculas-nacionales_0_1631836920.html
p1
aVhttps://www.clarin.com/sociedad/sindicalista-detenido-abusar-nena-anos_0_1631836951.html
p2
aVhttps://www.clarin.com/politica/Malena-Massa-recorre-Provincia-candidaturas_0_1631836947.html
p3
aVhttps://www.clarin.com/politica/Malena-Massa-recorre-Provincia-candidaturas_0_1631836947.html
p4
aVhttps://www.clarin.com/politica/Eva-Peron-obra-Vido-cuestionada_0_1631836935.html
p5
aVhttps://www.clarin.com/politica/Eva-Peron-obra-Vido-cuestionada_0_1631836935.html
p6
aVhttps://www.clarin.com/politica/Bullrich-ligado-kirchnerismo-quiere-Macri_0_1631836960.html
p7
aVhttps://www.clarin.com/politica/Bullrich-ligado-kirchnerismo-quiere-Macri_0_1631836960.html
p8
aVhttps://www.clarin.com/sociedad/Afirman-Rio-resto-turistas-semana_0_1631836953.html
p9
aVhttps://www.clarin.com/sociedad/Afirman-Rio-resto-turistas-semana_0_1631836953.html
p10
aVhttps://www.clarin.com/politica/Palazzo-Cristina-Tinelli-invitado_0_1631836957.html
p11
aVhttps://www.clarin.com/politica/Palazzo-Cristina-Tinelli-invitado_0_1631836957.html
p12
aVhttps://www.clarin.com/politica/Stolbizer-denunciara-Cristina-ocultar-patrimonio_0_1631836933.html
p13
aVhttps://www.clarin.com/politica/Stolbizer-denunciara-Cristina-ocultar-patrimonio_0_1631836933.html
p14
a.