(lp0
Vhttps://www.clarin.com/politica/Fuertes-criticas-Corte-sindicatos-declarar_0_1591640892.html
p1
aVhttps://www.clarin.com/politica/Fuertes-criticas-Corte-sindicatos-declarar_0_1591640892.html
p2
aVhttps://www.clarin.com/ieco/economia/recaudacion-provincial-crecio-mayo_0_1591640895.html
p3
aVhttps://www.clarin.com/ieco/economia/recaudacion-provincial-crecio-mayo_0_1591640895.html
p4
aVhttps://www.clarin.com/politica/Efecto-Oyarbide-Carrio-denunciados-renunciar_0_1591640893.html
p5
aVhttps://www.clarin.com/politica/Efecto-Oyarbide-Carrio-denunciados-renunciar_0_1591640893.html
p6
aVhttps://www.clarin.com/sociedad/feriados-quedan-fin-ano_0_1591640891.html
p7
aVhttps://www.clarin.com/sociedad/feriados-quedan-fin-ano_0_1591640891.html
p8
aVhttps://www.clarin.com/sociedad/Investigan-docente-adolescentes-Facebook-abusarlos_0_1591640888.html
p9
a.