(lp0
Vhttps://www.clarin.com/politica/Jaime-Casanello_0_1522647769.html
p1
aVhttps://www.clarin.com/politica/Triple_Crimen-Causa_Efedrina-Ibar_Perez_Corradi_0_1522647768.html
p2
aVhttps://www.clarin.com/ieco/economia/Empresas-invertir-Energias-renovables_0_1522647767.html
p3
aVhttps://www.clarin.com/ieco/economia/Empresas-invertir-Energias-renovables_0_1522647767.html
p4
aVhttps://www.clarin.com/politica/Anses-Mauricio_Macri-juicios_previsionales-jubilados_0_1522647766.html
p5
aVhttps://www.clarin.com/politica/Lorenzetti-Corte-definicion-casos-corrupcion_0_1522647765.html
p6
aVhttps://www.clarin.com/politica/piquetes-protocolo_0_1522647763.html
p7
aVhttps://www.clarin.com/politica/piquetes-protocolo_0_1522647763.html
p8
aVhttps://www.clarin.com/politica/Mauricio_Macri-Macri-Casa_Militar-Casa_Rosada_0_1522647753.html
p9
aVhttps://www.clarin.com/politica/Mauricio_Macri-Macri-Gobierno-Florencio_Randazzo-Randazzo_0_1522647752.html
p10
aVhttps://www.clarin.com/politica/macri-tinelli-guerrafria_0_1522647751.html
p11
aVhttps://www.clarin.com/politica/macri-tinelli-guerrafria_0_1522647751.html
p12
aVhttps://www.clarin.com/opinion/Hipocresia_social-Osvaldo_Pepe-Una_fe_que_mueve_montanas_0_1522647749.html
p13
aVhttps://www.clarin.com/opinion/Hipocresia_social-Osvaldo_Pepe-Una_fe_que_mueve_montanas_0_1522647749.html
p14
aVhttps://www.clarin.com/opinion/Magda_Tagtachian-Pasiones_argentinas-San_Valentin-Besos_0_1522647748.html
p15
a.