(lp0
Vhttps://www.clarin.com/sociedad/Perdio-consiguio-donante-lucha-concientizar_0_1655834525.html
p1
aVhttps://www.clarin.com/sociedad/Perdio-consiguio-donante-lucha-concientizar_0_1655834525.html
p2
aVhttps://www.clarin.com/sociedad/mato-dice-chicas-bullying_0_1656434367.html
p3
aVhttps://www.clarin.com/sociedad/mato-dice-chicas-bullying_0_1656434367.html
p4
aVhttps://www.clarin.com/politica/Diego-Bossio-CFK-Cristina-superada_0_1656434366.html
p5
aVhttps://www.clarin.com/politica/Diego-Bossio-CFK-Cristina-superada_0_1656434366.html
p6
a.