(lp0
S'https://www.clarin.com/sociedad/Condimentos-gourmet-sorpresa-Caminos-Sabores_0_1609039318.html'
p1
aS'https://www.clarin.com/politica/Triple-clave-salud-dinero-sindicatos_0_1609639035.html'
p2
aS'https://www.clarin.com/politica/guino-Macri-estrategia_0_1609639037.html'
p3
aS'https://www.clarin.com/opinion/final-verdad_0_1609639034.html'
p4
aS'https://www.clarin.com/politica/Anibal-Morsa-sospechas-despejar_0_1609039300.html'
p5
aS'https://www.clarin.com/politica/Corte-analiza-acelera-tratamiento-tarifas_0_1609039317.html'
p6
aS'https://www.clarin.com/opinion/Bicentenario-completar-emancipacion_0_1609039221.html'
p7
aS'https://www.clarin.com/politica/Efedrina-enigma-Morsa-importante_0_1609639036.html'
p8
aS'https://www.clarin.com/opinion/Corrupcion-revelan-Cristina-amparo_0_1609039283.html'
p9
a.