(lp0
S'https://www.clarin.com/politica/Fin-reelecciones-indefinidas-record-concejal_0_1639036218.html'
p1
aS'https://www.clarin.com/politica/Fin-reelecciones-indefinidas-record-concejal_0_1639036218.html'
p2
aS'https://www.clarin.com/sociedad/Quiso-rescatar-mensaje-adentro-ahogado_0_1639636138.html'
p3
aS'https://www.clarin.com/sociedad/Quiso-rescatar-mensaje-adentro-ahogado_0_1639636138.html'
p4
aS'https://www.clarin.com/sociedad/Saca-biblioteca-vereda-vecinos-lean_0_1639636135.html'
p5
aS'https://www.clarin.com/sociedad/Saca-biblioteca-vereda-vecinos-lean_0_1639636135.html'
p6
aS'https://www.clarin.com/politica/Pichetto-concepto-resistencia-sistema-democratico_0_1639636132.html'
p7
aS'https://www.clarin.com/politica/Pichetto-concepto-resistencia-sistema-democratico_0_1639636132.html'
p8
aS'https://www.clarin.com/politica/tormenta-militancia-cierra-marcha-Macri_0_1639636130.html'
p9
aS'https://www.clarin.com/politica/tormenta-militancia-cierra-marcha-Macri_0_1639636130.html'
p10
a.