(lp0
S'https://www.clarin.com/sociedad/Oferta-demanda-noticias-desafio-renovado_0_1517248319.html'
p1
aS'https://www.clarin.com/opinion/Panorama_empresarial-Isela_Costantini-Paolo_Rocca-Alfonso_Prat_Gay-Jose_Zuccardi_0_1517248316.html'
p2
aS'https://www.clarin.com/opinion/ONU_Mujeres-CEPAL-Cultura_de_la_Paz_0_1517248315.html'
p3
aS'https://www.clarin.com/opinion/Estado_benefactor-justicia-cultura_republicana-Estado_de_Derecho_0_1517248314.html'
p4
aS'https://www.clarin.com/politica/peor-estafa_0_1517248311.html'
p5
aS'https://www.clarin.com/ieco/Fondos_buitre-Pollack-Caputo-Etchebarne_0_1517248306.html'
p6
aS'https://www.clarin.com/ieco/Corte_Suprema-Jubilados-AFJP-Renta_Vitalicia_0_1517248305.html'
p7
a.