(lp0
Vhttps://www.clarin.com/politica/Allanaron-Banco-Santa-Cruz-Kirchner_0_1609039278.html
p1
aVhttps://www.clarin.com/politica/Allanaron-Banco-Santa-Cruz-Kirchner_0_1609039278.html
p2
aVhttps://www.clarin.com/politica/Identificaron-restos-estudiante-asesinado-Bussi_0_1609039273.html
p3
aVhttps://www.clarin.com/politica/Polemica-Rio-Negro-Neuquen-suspension_0_1609039272.html
p4
aVhttps://www.clarin.com/politica/Polemica-Rio-Negro-Neuquen-suspension_0_1609039272.html
p5
aVhttps://www.clarin.com/politica/Suspenden-meses-Rio-Negro-Neuquen_0_1609039093.html
p6
aVhttps://www.clarin.com/sociedad/Marcha-teclado-fisico-seguira-Blackberry_0_1609039263.html
p7
aVhttps://www.clarin.com/sociedad/Marcha-teclado-fisico-seguira-Blackberry_0_1609039263.html
p8
aVhttps://www.clarin.com/politica/Advertencia-UCR-Gobierno-cuidado-oportunistas_0_1609039256.html
p9
aVhttps://www.clarin.com/politica/Advertencia-UCR-Gobierno-cuidado-oportunistas_0_1609039256.html
p10
a.