(lp0
Vhttps://www.clarin.com/sociedad/Barbarie-corazones-civilizados_0_1517848541.html
p1
aVhttps://www.clarin.com/sociedad/salvan-vidas-RCP-saben-hacerlo_0_1517848520.html
p2
aVhttps://www.clarin.com/sociedad/salvan-vidas-RCP-saben-hacerlo_0_1517848520.html
p3
aVhttps://www.clarin.com/politica/espejismo-puede-inducir-errores-Malvinas_0_1517848522.html
p4
aVhttps://www.clarin.com/sociedad/Murio-mujer-dengue-confirmaron-zika_0_1517848587.html
p5
aVhttps://www.clarin.com/politica/La_Campora-Registro_Automotor-Ministerio_de_Justicia-Julian_Alvarez_0_1518448188.html
p6
aVhttps://www.clarin.com/politica/Julian_Dominguez-Omar_Perotti-Frente_Para_la_Victoria_0_1518448187.html
p7
aVhttps://www.clarin.com/politica/Julian_Dominguez-Omar_Perotti-Frente_Para_la_Victoria_0_1518448187.html
p8
aVhttps://www.clarin.com/politica/Congreso-Frente_Para_la_Victoria-Cambiemos-Decretos_de_Necesidad_y_Urgencia_0_1518448186.html
p9
a.