(lp0
Vhttps://www.clarin.com/ieco/suba-tarifas-inflacion-portena-febrero_0_1537646425.html
p1
aVhttps://www.clarin.com/ieco/suba-tarifas-inflacion-portena-febrero_0_1537646425.html
p2
aVhttps://www.clarin.com/ieco/economia/Banco-Central-Europeo-baja-tasas_0_1537646420.html
p3
aVhttps://www.clarin.com/ieco/economia/Nuevas-denuncias-cumplan-contratos-futuro_0_1537646417.html
p4
aVhttps://www.clarin.com/sociedad/caidas-Glaciar-Perito-Moreno_0_1537646409.html
p5
aVhttps://www.clarin.com/sociedad/caidas-Glaciar-Perito-Moreno_0_1537646409.html
p6
aVhttps://www.clarin.com/sociedad/Dengue-Floresta-denuncian-mosquitos-propiedad_0_1537646400.html
p7
aVhttps://www.clarin.com/sociedad/Dengue-Floresta-denuncian-mosquitos-propiedad_0_1537646400.html
p8
a.