(lp0
Vhttps://www.clarin.com/politica/suegra-Christian-Lanatta-despego-triple_0_1502850025.html
p1
aVhttps://www.clarin.com/politica/suegra-Christian-Lanatta-despego-triple_0_1502850025.html
p2
aVhttps://www.clarin.com/ieco/economia/UE-Belgica-impuestos-impagados-multinacionales_0_1502850021.html
p3
aVhttps://www.clarin.com/sociedad/pizza-porciones-formula-matematica-cientificos-investigadores_0_1502850009.html
p4
aVhttps://www.clarin.com/sociedad/pizza-porciones-formula-matematica-cientificos-investigadores_0_1502850009.html
p5
aVhttps://www.clarin.com/politica/Victor-Hugo_0_1502850013.html
p6
aVhttps://www.clarin.com/politica/Victor-Hugo_0_1502850013.html
p7
a.