(lp0
S'https://www.clarin.com/ieco/economia/inversiones-vienen-energia-renovables-represas_0_1553244957.html'
p1
aS'https://www.clarin.com/sociedad/Absuelven-empleado-acusado-tocarle-companera_0_1553244968.html'
p2
aS'https://www.clarin.com/politica/juez-rechazo-excarcelacion-Jaime-Vazquez_0_1553244945.html'
p3
aS'https://www.clarin.com/politica/Allanan-estudio-Dromi-causa-Vido_0_1553244967.html'
p4
aS'https://www.clarin.com/politica/Fernando-Chino-Navarro-Jaime-FPV_0_1553244976.html'
p5
a.