(lp0
Vhttps://www.clarin.com/politica/Escandalo-diputada-hizo-fuck-tribuna_0_1535846614.html
p1
aVhttps://www.clarin.com/politica/Escandalo-diputada-hizo-fuck-tribuna_0_1535846614.html
p2
aVhttps://www.clarin.com/sociedad/dolares-actor-momento-clases-Internet_0_1535846606.html
p3
aVhttps://www.clarin.com/sociedad/dolares-actor-momento-clases-Internet_0_1535846606.html
p4
aVhttps://www.clarin.com/sociedad/ahora-hacen-manicura-perros-gatos_0_1535846600.html
p5
aVhttps://www.clarin.com/sociedad/ahora-hacen-manicura-perros-gatos_0_1535846600.html
p6
aVhttps://www.clarin.com/politica/Gobierno-descarta-reponer-indemnizacion-Moyano_0_1535846594.html
p7
aVhttps://www.clarin.com/politica/Gobierno-descarta-reponer-indemnizacion-Moyano_0_1535846594.html
p8
aVhttps://www.clarin.com/politica/Fondos-Massa-prometio-insiste-cambios_0_1535846592.html
p9
aVhttps://www.clarin.com/politica/Fondos-Massa-prometio-insiste-cambios_0_1535846592.html
p10
a.