(lp0
S'https://www.clarin.com/ieco/economia/Blanqueo-senalan-mejor-opcion-anos_0_1628237305.html'
p1
aS'https://www.clarin.com/politica/denuncias-lavado-Cristina-mostro-Scioli_0_1628237307.html'
p2
aS'https://www.clarin.com/politica/izquierda-moviliza-Plaza-Mayo-tarifazo_0_1628237318.html'
p3
aS'https://www.clarin.com/ieco/economia/Banco-Central-elimino-ultimos-vestigios_0_1628237300.html'
p4
aS'https://www.clarin.com/sociedad/Vivir-deporte-explican-espectadores-juegan_0_1628237329.html'
p5
a.