(lp0
S'https://www.clarin.com/sociedad/Minimalismo-Argentina_0_1690031084.html'
p1
aS'https://www.clarin.com/sociedad/Nutricosmeticos-boom-antienvejecimiento_0_1690031061.html'
p2
aS'https://www.clarin.com/politica/Video-desopilante-festejo-Carrio-CC-ARI_0_1690031078.html'
p3
aS'https://www.clarin.com/politica/Carrio-CC-ARI-Vidal-Larreta-PRO_0_1690031068.html'
p4
a.