(lp0
S'https://www.clarin.com/politica/Camara-Crimen-avalo-Nisman-mataron_0_1544845932.html'
p1
aS'https://www.clarin.com/politica/Camara-Crimen-avalo-Nisman-mataron_0_1544845932.html'
p2
aS'https://www.clarin.com/politica/Macri-busca-referente-region_0_1544845984.html'
p3
aS'https://www.clarin.com/politica/Macri-busca-referente-region_0_1544845984.html'
p4
aS'https://www.clarin.com/politica/Obama-anoche-Macri-abren-nueva_0_1544845918.html'
p5
aS'https://www.clarin.com/politica/Obama-anoche-Macri-abren-nueva_0_1544845918.html'
p6
aS'https://www.clarin.com/opinion/Rendido-WahtsApp_0_1544845905.html'
p7
aS'https://www.clarin.com/sociedad/alumnos-llevan-clase-reclamo-gremial_0_1544845969.html'
p8
aS'https://www.clarin.com/sociedad/Acoso-chico-Facebook-extorsiono-dieron_0_1544845967.html'
p9
aS'https://www.clarin.com/ieco/economia/Cabrales-capsulas-Italia-compatibles-Nespresso_0_1544845887.html'
p10
a.