(lp0
S'https://www.clarin.com/politica/Militantes-policias-Cristina-Comdoro-Py_0_1678632200.html'
p1
aS'https://www.clarin.com/politica/Militantes-policias-Cristina-Comdoro-Py_0_1678632200.html'
p2
aS'https://www.clarin.com/politica/Cristina-Kirchner-fiscales-Gobierno-asociacion_0_1678632197.html'
p3
aS'https://www.clarin.com/politica/Cristina-Kirchner-fiscales-Gobierno-asociacion_0_1678632197.html'
p4
aS'https://www.clarin.com/politica/Vidal-dias-bueno-contar-cena_0_1678632195.html'
p5
aS'https://www.clarin.com/politica/Vidal-dias-bueno-contar-cena_0_1678632195.html'
p6
aS'https://www.clarin.com/ieco/Suben-alquileres-oficinas-ano_0_1678632191.html'
p7
aS'https://www.clarin.com/ieco/Suben-alquileres-oficinas-ano_0_1678632191.html'
p8
aS'https://www.clarin.com/politica/acompanaron-Cristina-Kirchner-Comodoro-Py_0_1678632185.html'
p9
aS'https://www.clarin.com/politica/acompanaron-Cristina-Kirchner-Comodoro-Py_0_1678632185.html'
p10
aS'https://www.clarin.com/sociedad/Halloween-aterrorizado-payasos-ganaron-zombies_0_1678632182.html'
p11
aS'https://www.clarin.com/sociedad/Halloween-aterrorizado-payasos-ganaron-zombies_0_1678632182.html'
p12
aS'https://www.clarin.com/politica/Recalde-Cristina-quilombo-bastante-claro_0_1678632183.html'
p13
aS'https://www.clarin.com/politica/Recalde-Cristina-quilombo-bastante-claro_0_1678632183.html'
p14
a.