(lp0
Vhttps://www.clarin.com/politica/SOMU-dias-concluir-intervencion-gremio_0_1641435940.html
p1
aVhttps://www.clarin.com/politica/SOMU-dias-concluir-intervencion-gremio_0_1641435940.html
p2
aVhttps://www.clarin.com/sociedad/acuerdo-dijo-hombre-pareja-martillazos_0_1641435927.html
p3
aVhttps://www.clarin.com/sociedad/acuerdo-dijo-hombre-pareja-martillazos_0_1641435927.html
p4
aVhttps://www.clarin.com/sociedad/muestra-actividad-inmenso-volcan-dentro_0_1641435926.html
p5
aVhttps://www.clarin.com/sociedad/muestra-actividad-inmenso-volcan-dentro_0_1641435926.html
p6
a.