(lp0
S'https://www.clarin.com/sociedad/Denuncian-constantes-amenazas-escuela-Barracas_0_1571842827.html'
p1
aS'https://www.clarin.com/politica/centavos-escandalosas-declaraciones-funcionarios-Mendoza_0_1571842826.html'
p2
a.