(lp0
S'https://www.clarin.com/politica/operador-Lopez-Espana-suma-viajes_0_1606639422.html'
p1
aS'https://www.clarin.com/politica/Ernesto-Sanz-Lopez-kirchnerismo-gobierno_0_1606639406.html'
p2
aS'https://www.clarin.com/politica/Macri-Bruselas-negociar-Union-Europea_0_1606639407.html'
p3
aS'https://www.clarin.com/politica/Milani-miedo-Justicia-determinar-inocencia_0_1606639405.html'
p4
aS'https://www.clarin.com/opinion/cansado-historias-militantes-fraguadas-poder_0_1606639410.html'
p5
aS'https://www.clarin.com/politica/Macri-celebro-elogios-Papa-relacion_0_1606639420.html'
p6
a.