(lp0
Vhttps://www.clarin.com/politica/pobres-Alemania-frases-marcaron-tema_0_1658834248.html
p1
aVhttps://www.clarin.com/politica/pobres-Alemania-frases-marcaron-tema_0_1658834248.html
p2
aVhttps://www.clarin.com/opinion/argentinos-cuidan-corazon_0_1658834243.html
p3
aVhttps://www.clarin.com/opinion/Malvinas-pide-politica-amigable_0_1658834242.html
p4
aVhttps://www.clarin.com/sociedad/Premian-millon-mejor-equipo-docente_0_1658834237.html
p5
aVhttps://www.clarin.com/sociedad/Premian-millon-mejor-equipo-docente_0_1658834237.html
p6
aVhttps://www.clarin.com/sociedad/femicidio-country-juicio-jurados-haria_0_1658834238.html
p7
aVhttps://www.clarin.com/sociedad/femicidio-country-juicio-jurados-haria_0_1658834238.html
p8
aVhttps://www.clarin.com/sociedad/perro-viajo-kilometros-volver-casa_0_1658834229.html
p9
aVhttps://www.clarin.com/sociedad/perro-viajo-kilometros-volver-casa_0_1658834229.html
p10
aVhttps://www.clarin.com/sociedad/Sacudida-femicidios-Mendoza-NiUnaMenos_0_1658834225.html
p11
aVhttps://www.clarin.com/sociedad/Sacudida-femicidios-Mendoza-NiUnaMenos_0_1658834225.html
p12
a.