(lp0
Vhttps://www.clarin.com/politica/Llaman-octubre-dia-declare-Cristina_0_1554444678.html
p1
aVhttps://www.clarin.com/politica/Llaman-octubre-dia-declare-Cristina_0_1554444678.html
p2
aVhttps://www.clarin.com/ieco/economia/Fiat-anuncio-inversion-US-millones_0_1554444675.html
p3
aVhttps://www.clarin.com/politica/Justicia-reactiva-emblematica-corrupcion-Antonini_0_1554444673.html
p4
aVhttps://www.clarin.com/politica/Justicia-reactiva-emblematica-corrupcion-Antonini_0_1554444673.html
p5
aVhttps://www.clarin.com/sociedad/SuperVacios-convocan-boicot-supermercados-precios_0_1554444662.html
p6
aVhttps://www.clarin.com/sociedad/SuperVacios-convocan-boicot-supermercados-precios_0_1554444662.html
p7
aVhttps://www.clarin.com/politica/Baez-responder-preguntas-quedo-preso_0_1553845055.html
p8
aVhttps://www.clarin.com/politica/Baez-responder-preguntas-quedo-preso_0_1553845055.html
p9
aVhttps://www.clarin.com/politica/hijos-poder-involucrados-escandalos-corrupcion_0_1554444651.html
p10
aVhttps://www.clarin.com/politica/hijos-poder-involucrados-escandalos-corrupcion_0_1554444651.html
p11
aVhttps://www.clarin.com/politica/Macri-Misiones-esperan-rosario-reclamos_0_1554444652.html
p12
aVhttps://www.clarin.com/politica/Macri-Misiones-esperan-rosario-reclamos_0_1554444652.html
p13
a.