(lp0
Vhttps://www.clarin.com/politica/Mar-Plata-Bonafini-plazas-calles_0_1627037353.html
p1
aVhttps://www.clarin.com/politica/Mar-Plata-Bonafini-plazas-calles_0_1627037353.html
p2
aVhttps://www.clarin.com/politica/Haran-historicos-secuestrados-Lazaro-Baez_0_1627037350.html
p3
aVhttps://www.clarin.com/politica/Haran-historicos-secuestrados-Lazaro-Baez_0_1627037350.html
p4
aVhttps://www.clarin.com/politica/Bonadio-Rafecas-causa-denuncia-Nisman_0_1627037352.html
p5
aVhttps://www.clarin.com/politica/Bonadio-Rafecas-causa-denuncia-Nisman_0_1627037352.html
p6
aVhttps://www.clarin.com/politica/Fuerte-Papara-directivos-Scholas-Occurrentes_0_1627037344.html
p7
aVhttps://www.clarin.com/politica/Fuerte-Papara-directivos-Scholas-Occurrentes_0_1627037344.html
p8
aVhttps://www.clarin.com/sociedad/vivido-casas-pude-olvidar-padres_0_1627037342.html
p9
aVhttps://www.clarin.com/sociedad/vivido-casas-pude-olvidar-padres_0_1627037342.html
p10
aVhttps://www.clarin.com/sociedad/Mundos-intimos-vivido-olvidar-padres_0_1613238797.html
p11
aVhttps://www.clarin.com/sociedad/Mundos-intimos-vivido-olvidar-padres_0_1613238797.html
p12
aVhttps://www.clarin.com/politica/Jaime-Lopez-Sanfelice-Ulloa-Olivos_0_1626437554.html
p13
a.