(lp0
Vhttps://www.clarin.com/opinion/Excursion-colores-otonales_0_1543645969.html
p1
aVhttps://www.clarin.com/sociedad/Subastaron-US-Cadillac-Evita-Peron_0_1543646000.html
p2
aVhttps://www.clarin.com/sociedad/Subastaron-US-Cadillac-Evita-Peron_0_1543646000.html
p3
aVhttps://www.clarin.com/sociedad/celular-flexible-proyectara-hologramas-bateria_0_1543645997.html
p4
aVhttps://www.clarin.com/politica/Lost-version-piernas-bonitas_0_1543646008.html
p5
aVhttps://www.clarin.com/politica/Lost-version-piernas-bonitas_0_1543646008.html
p6
aVhttps://www.clarin.com/politica/Diputada-Carrizo-Congreso-representa-millones_0_1543646009.html
p7
aVhttps://www.clarin.com/politica/Diputada-Carrizo-Congreso-representa-millones_0_1543646009.html
p8
a.