(lp0
Vhttps://www.clarin.com/sociedad/Turbulencias-peligro-fenomeno-vez-frecuente_0_1590441107.html
p1
aVhttps://www.clarin.com/politica/Rechazaron-recurso-amigo-Farina-Corte_0_1590441105.html
p2
aVhttps://www.clarin.com/politica/Rechazaron-recurso-amigo-Farina-Corte_0_1590441105.html
p3
aVhttps://www.clarin.com/politica/reves-Echegaray-Justicia_0_1590441101.html
p4
aVhttps://www.clarin.com/politica/reves-Echegaray-Justicia_0_1590441101.html
p5
aVhttps://www.clarin.com/politica/Primer-examen-Malcorra-Naciones-Unidas_0_1590441100.html
p6
aVhttps://www.clarin.com/politica/Primer-examen-Malcorra-Naciones-Unidas_0_1590441100.html
p7
a.