(lp0
S'https://www.clarin.com/politica/socio-Lopez-aparece-campos-Uruguay_0_1594640701.html'
p1
aS'https://www.clarin.com/politica/socio-Lopez-aparece-campos-Uruguay_0_1594640701.html'
p2
aS'https://www.clarin.com/politica/Preocupa-Gobierno-Lopez-resista-vender_0_1594640695.html'
p3
aS'https://www.clarin.com/politica/Preocupa-Gobierno-Lopez-resista-vender_0_1594640695.html'
p4
aS'https://www.clarin.com/sociedad/negocio-ceros_0_1594640708.html'
p5
aS'https://www.clarin.com/opinion/Segregacion-positiva-viajar-subte_0_1594640642.html'
p6
aS'https://www.clarin.com/opinion/investigacion-muerte-Nisman-vez-peligro_0_1594640644.html'
p7
aS'https://www.clarin.com/opinion/Buen-momento-acordar-futuro-social_0_1594640643.html'
p8
aS'https://www.clarin.com/opinion/Buen-momento-acordar-futuro-social_0_1594640643.html'
p9
a.