(lp0
S'https://www.clarin.com/sociedad/avion-pasajeros-choco-drone_0_1561044040.html'
p1
aS'https://www.clarin.com/sociedad/avion-pasajeros-choco-drone_0_1561044040.html'
p2
aS'https://www.clarin.com/ieco/economia/Triaca-proximas-definido-proyecto-Ganancias_0_1561044048.html'
p3
aS'https://www.clarin.com/ieco/economia/Triaca-proximas-definido-proyecto-Ganancias_0_1561044048.html'
p4
aS'https://www.clarin.com/sociedad/inundaciones-Litoral-Buenos-Aires-Cordoba_0_1561044047.html'
p5
aS'https://www.clarin.com/sociedad/inundaciones-Litoral-Buenos-Aires-Cordoba_0_1561044047.html'
p6
aS'https://www.clarin.com/politica/ultima-foto-Jorge-Chueco-desaparecer_0_1561044044.html'
p7
aS'https://www.clarin.com/politica/ultima-foto-Jorge-Chueco-desaparecer_0_1561044044.html'
p8
aS'https://www.clarin.com/politica/puede-Chueco-muerto-admitio-fiscal_0_1561044042.html'
p9
aS'https://www.clarin.com/politica/puede-Chueco-muerto-admitio-fiscal_0_1561044042.html'
p10
aS'https://www.clarin.com/ieco/economia/bancarios-vuelven-parar-semana-horas_0_1561044038.html'
p11
aS'https://www.clarin.com/ieco/economia/bancarios-vuelven-parar-semana-horas_0_1561044038.html'
p12
a.