(lp0
Vhttps://www.clarin.com/sociedad/provocaciones-Martinez-Poch-lectura-veredicto_0_1642035866.html
p1
aVhttps://www.clarin.com/sociedad/provocaciones-Martinez-Poch-lectura-veredicto_0_1642035866.html
p2
a.