(lp0
Vhttps://www.clarin.com/opinion/Luchar-pobreza-implica-proteger-infancia_0_1624037705.html
p1
aVhttps://www.clarin.com/opinion/Luchar-pobreza-implica-proteger-infancia_0_1624037705.html
p2
aVhttps://www.clarin.com/politica/fiscal-sigue-acusando_0_1625237464.html
p3
aVhttps://www.clarin.com/sociedad/Cruces-tiempo-seguira-faltando-manteca_0_1624637693.html
p4
aVhttps://www.clarin.com/sociedad/Cruces-tiempo-seguira-faltando-manteca_0_1624637693.html
p5
aVhttps://www.clarin.com/politica/Libertad-expresion-Macri-declaracion-Chapultepec_0_1624637712.html
p6
aVhttps://www.clarin.com/politica/Retoques-Senado-proyectos-clave-corrupcion_0_1624637719.html
p7
a.