(lp0
Vhttps://www.clarin.com/politica/estrecha-relacion-kirchnerismo-cash-historias_0_1595240549.html
p1
aVhttps://www.clarin.com/politica/Hablo-monjas-Lopez-detencion-enloquecido_0_1595240548.html
p2
aVhttps://www.clarin.com/politica/Hablo-monjas-Lopez-detencion-enloquecido_0_1595240548.html
p3
aVhttps://www.clarin.com/politica/Vido-Lopez-arzobispo-Di-Monte_0_1595240544.html
p4
aVhttps://www.clarin.com/politica/Vido-Lopez-arzobispo-Di-Monte_0_1595240544.html
p5
aVhttps://www.clarin.com/politica/Fiscal-Delgado-detener-Lopez-ocultamiento_0_1595240546.html
p6
aVhttps://www.clarin.com/politica/Fiscal-Delgado-detener-Lopez-ocultamiento_0_1595240546.html
p7
aVhttps://www.clarin.com/ieco/economia/firma-argentina-vender-acciones-EEUU_0_1595240545.html
p8
aVhttps://www.clarin.com/ieco/economia/firma-argentina-vender-acciones-EEUU_0_1595240545.html
p9
aVhttps://www.clarin.com/politica/Parladiputado-preso-rechazo-judicial-fueros_0_1595240542.html
p10
aVhttps://www.clarin.com/politica/Parladiputado-preso-rechazo-judicial-fueros_0_1595240542.html
p11
aVhttps://www.clarin.com/ieco/macrismo-listos-propios-creditos-Bicentenario_0_1595240514.html
p12
aVhttps://www.clarin.com/ieco/macrismo-listos-propios-creditos-Bicentenario_0_1595240514.html
p13
aVhttps://www.clarin.com/sociedad/Mauro-Colagreco-argentino-mundial-Llegue_0_1595240532.html
p14
aVhttps://www.clarin.com/sociedad/Mauro-Colagreco-argentino-mundial-Llegue_0_1595240532.html
p15
a.