(lp0
S'https://www.clarin.com/sociedad/inspector-transito-detener-dieron-paliza_0_1620438047.html'
p1
aS'https://www.clarin.com/sociedad/restaurante-Messi-recien-abrio-quejas_0_1620438015.html'
p2
aS'https://www.clarin.com/politica/Macri-recibira-Tinelli-poner-polemica_0_1620438038.html'
p3
a.