(lp0
S'https://www.clarin.com/sociedad/banda-perros-callejeros-destrozaron-estacionado_0_1672032891.html'
p1
aS'https://www.clarin.com/sociedad/banda-perros-callejeros-destrozaron-estacionado_0_1672032891.html'
p2
aS'https://www.clarin.com/opinion/Pequenos-simples-gestos-vencer-maltrato_0_1672032890.html'
p3
aS'https://www.clarin.com/politica/Milani-borde-indagatoria-Tucuman-Ledo_0_1672032889.html'
p4
aS'https://www.clarin.com/politica/Milani-borde-indagatoria-Tucuman-Ledo_0_1672032889.html'
p5
aS'https://www.clarin.com/sociedad/cadena-restaurantes-podra-llamar-Mafia_0_1672032886.html'
p6
aS'https://www.clarin.com/sociedad/cadena-restaurantes-podra-llamar-Mafia_0_1672032886.html'
p7
a.