(lp0
S'https://www.clarin.com/politica/clima-postergo-veces-acto-Macri_0_1646235428.html'
p1
aS'https://www.clarin.com/politica/clima-postergo-veces-acto-Macri_0_1646235428.html'
p2
aS'https://www.clarin.com/politica/deuda-social-chicos-problemas-nutricion_0_1646235424.html'
p3
aS'https://www.clarin.com/politica/deuda-social-chicos-problemas-nutricion_0_1646235424.html'
p4
aS'https://www.clarin.com/politica/Pese-rechazo-oposicion-reflotar-proyecto_0_1646235426.html'
p5
aS'https://www.clarin.com/politica/Pese-rechazo-oposicion-reflotar-proyecto_0_1646235426.html'
p6
aS'https://www.clarin.com/sociedad/confeso-secuestro-violo-chico-once_0_1646235422.html'
p7
aS'https://www.clarin.com/sociedad/confeso-secuestro-violo-chico-once_0_1646235422.html'
p8
aS'https://www.clarin.com/politica/CGT-Macri-Tomo-posicion-empresarios_0_1646235421.html'
p9
aS'https://www.clarin.com/politica/CGT-Macri-Tomo-posicion-empresarios_0_1646235421.html'
p10
a.