(lp0
Vhttps://www.clarin.com/politica/Ritondo-profugos-ayudando-apunta-Anibal_0_1496850530.html
p1
aVhttps://www.clarin.com/politica/luis_tolosa-jefe_del_penal-liberado-triple_fuga_0_1496850528.html
p2
aVhttps://www.clarin.com/politica/policia_baleado-triple_fuga-Fernando_Pengsawath-Lucrecia_Yudati_0_1496850513.html
p3
aVhttps://www.clarin.com/politica/muestra-Faraon-junto-Anibal-Fernandez_0_1496850507.html
p4
aVhttps://www.clarin.com/politica/muestra-Faraon-junto-Anibal-Fernandez_0_1496850507.html
p5
aVhttps://www.clarin.com/sociedad/nenes-murieron-aplastados-arbol-camping_0_1496850502.html
p6
aVhttps://www.clarin.com/politica/policia_federal-investigacion-triple_fuga_0_1496850491.html
p7
aVhttps://www.clarin.com/politica/CN23-El_Argentino-Garfunkel-Grupo_23-Radio_America-Rock_-_Pop-Szpolski-Tiempo_Argentino_0_1496250658.html
p8
aVhttps://www.clarin.com/politica/CN23-El_Argentino-Garfunkel-Grupo_23-Radio_America-Rock_-_Pop-Szpolski-Tiempo_Argentino_0_1496250658.html
p9
a.