(lp0
S'https://www.clarin.com/ieco/economia/puede-pasar-empleo_0_1505849663.html'
p1
aS'https://www.clarin.com/politica/Cimadevilla-Nisman-AMIA-encubrimiento-Presidente-voluntad-sentencia_0_1505849643.html'
p2
aS'https://www.clarin.com/politica/Cimadevilla-Nisman-AMIA-encubrimiento-Presidente-voluntad-sentencia_0_1505849643.html'
p3
aS'https://www.clarin.com/politica/Morales-anticipo-denuncias-Milagro-Sala_0_1505849620.html'
p4
aS'https://www.clarin.com/politica/Milagro-Sala-hambre-medicos-revisan_0_1505849633.html'
p5
aS'https://www.clarin.com/politica/Milagro-Sala-hambre-medicos-revisan_0_1505849633.html'
p6
aS'https://www.clarin.com/politica/Macri-recibio-Nisman-deuda-pendiente_0_1505849609.html'
p7
aS'https://www.clarin.com/politica/Macri-recibio-Nisman-deuda-pendiente_0_1505849609.html'
p8
aS'https://www.clarin.com/politica/Massa-terminar-Argentina-rehenes-planes_0_1505849593.html'
p9
a.