(lp0
Vhttps://www.clarin.com/ieco/economia/Crece-lentamente-confianza-bancos_0_1676832394.html
p1
aVhttps://www.clarin.com/ieco/economia/Crece-lentamente-confianza-bancos_0_1676832394.html
p2
aVhttps://www.clarin.com/sociedad/carrera-drones-sorpresa-feria-Tecnopolis_0_1677432364.html
p3
aVhttps://www.clarin.com/politica/Corrupcion-Baezy-enfrentar-Cristina-Justicia_0_1677432361.html
p4
aVhttps://www.clarin.com/politica/Corrupcion-Baezy-enfrentar-Cristina-Justicia_0_1677432361.html
p5
a.