(lp0
Vhttps://www.clarin.com/sociedad/Rodriguez-Saa-aislado-gripe_0_1582041840.html
p1
aVhttps://www.clarin.com/sociedad/Rodriguez-Saa-aislado-gripe_0_1582041840.html
p2
aVhttps://www.clarin.com/ieco/paises-vias-desarrollo_0_1582041838.html
p3
aVhttps://www.clarin.com/ieco/paises-vias-desarrollo_0_1582041838.html
p4
aVhttps://www.clarin.com/sociedad/esposo-criticaba-estacionar-mal-vengo_0_1582041822.html
p5
aVhttps://www.clarin.com/sociedad/esposo-criticaba-estacionar-mal-vengo_0_1582041822.html
p6
aVhttps://www.clarin.com/politica/intendentes-FpV-limitar-reelecciones-indefinidas_0_1582041833.html
p7
aVhttps://www.clarin.com/politica/intendentes-FpV-limitar-reelecciones-indefinidas_0_1582041833.html
p8
aVhttps://www.clarin.com/politica/entero-respuesta-Paenza-presidente-Conicet_0_1582041832.html
p9
aVhttps://www.clarin.com/politica/entero-respuesta-Paenza-presidente-Conicet_0_1582041832.html
p10
a.