(lp0
S'https://www.clarin.com/politica/Gallego-Alvarez-ultimo-peronismo-Peron_0_1591040908.html'
p1
aS'https://www.clarin.com/politica/Gallego-Alvarez-ultimo-peronismo-Peron_0_1591040908.html'
p2
aS'https://www.clarin.com/ieco/economia/Dudas-alcances-emergencia-previsional_0_1591040907.html'
p3
aS'https://www.clarin.com/politica/abogado-Baez-Cristina-podria-involucrada_0_1591040900.html'
p4
aS'https://www.clarin.com/politica/abogado-Baez-Cristina-podria-involucrada_0_1591040900.html'
p5
aS'https://www.clarin.com/politica/Oficializan-tope-aumento-hogares-pymes_0_1591040899.html'
p6
aS'https://www.clarin.com/politica/Oficializan-tope-aumento-hogares-pymes_0_1591040899.html'
p7
a.