(lp0
Vhttps://www.clarin.com/sociedad/manejas-noche-maneja-vos_0_1512449117.html
p1
aVhttps://www.clarin.com/sociedad/manejas-noche-maneja-vos_0_1512449117.html
p2
aVhttps://www.clarin.com/politica/Papa_Francisco-Mauricio_Macri-Gobierno_nacional-Casa_Rosada-El_Vaticano_0_1513048709.html
p3
aVhttps://www.clarin.com/politica/Papa_Francisco-Mauricio_Macri-El_Vaticano-Gobierno_nacional-Casa_Rosada_0_1513048708.html
p4
aVhttps://www.clarin.com/politica/Desaparecidos-Derechos_Humanos-Estela_de_Carlotto-Dario_Loperfido_0_1513048707.html
p5
aVhttps://www.clarin.com/politica/Desaparecidos-Derechos_Humanos-Estela_de_Carlotto-Dario_Loperfido_0_1513048707.html
p6
aVhttps://www.clarin.com/sociedad/Jorge-Lemus-zika-preocupante-dengue_0_1512449168.html
p7
aVhttps://www.clarin.com/sociedad/Jorge-Lemus-zika-preocupante-dengue_0_1512449168.html
p8
aVhttps://www.clarin.com/sociedad/Buscan-reformar-ampliar-proteccion-usuario_0_1512449172.html
p9
aVhttps://www.clarin.com/sociedad/denuncias-mes-llamados-mensajes-molestos_0_1512449170.html
p10
aVhttps://www.clarin.com/sociedad/denuncias-mes-llamados-mensajes-molestos_0_1512449170.html
p11
aVhttps://www.clarin.com/sociedad/Murio-Saenz-Valiente-doctrina-Malvinas_0_1512449179.html
p12
a.