(lp0
S'https://www.clarin.com/politica/Mirtha-Pelloni-arrinconaron-Dietrich-transporte_0_1552045087.html'
p1
aS'https://www.clarin.com/politica/Arroyo-Salgado-Lagomarsino-mintiendo_0_1552045077.html'
p2
aS'https://www.clarin.com/politica/Lazaro-Baez-complicado-adelantaron-indagatoria_0_1552045066.html'
p3
aS'https://www.clarin.com/sociedad/Malvinas-devolvio-combatiente-guerra-Inglaterra_0_1552045075.html'
p4
a.