(lp0
Vhttps://www.clarin.com/ieco/economia/Tesoro-capto-US-millones-Letes_0_1588041325.html
p1
aVhttps://www.clarin.com/ieco/economia/Tesoro-capto-US-millones-Letes_0_1588041325.html
p2
aVhttps://www.clarin.com/politica/Michetti-confirmo-destitucion-Echegaray-AGN_0_1588041317.html
p3
aVhttps://www.clarin.com/politica/Michetti-confirmo-destitucion-Echegaray-AGN_0_1588041317.html
p4
aVhttps://www.clarin.com/politica/Lazaro-Baez-quedo-Canicoba-Corral_0_1588041308.html
p5
aVhttps://www.clarin.com/politica/Lazaro-Baez-quedo-Canicoba-Corral_0_1588041308.html
p6
aVhttps://www.clarin.com/politica/Termino-marcha-CTA-llamado-nacional_0_1588041310.html
p7
aVhttps://www.clarin.com/politica/Termino-marcha-CTA-llamado-nacional_0_1588041310.html
p8
aVhttps://www.clarin.com/politica/Carrio-denuncio-Scioli-fraude-bonaerense_0_1588041307.html
p9
aVhttps://www.clarin.com/politica/Carrio-denuncio-Scioli-fraude-bonaerense_0_1588041307.html
p10
aVhttps://www.clarin.com/sociedad/Habilitaran-vacunatorios-fin-semana-Ciudad_0_1588041288.html
p11
aVhttps://www.clarin.com/sociedad/Habilitaran-vacunatorios-fin-semana-Ciudad_0_1588041288.html
p12
a.