(lp0
S'https://www.clarin.com/sociedad/Femicidio-Castelar-acusado-amenazar-trabajo_0_1535846768.html'
p1
aS'https://www.clarin.com/sociedad/Femicidio-Castelar-acusado-amenazar-trabajo_0_1535846768.html'
p2
aS'https://www.clarin.com/sociedad/anunciaran-canonizacion-Madre-Teresa-Brochero_0_1535846755.html'
p3
aS'https://www.clarin.com/sociedad/anunciaran-canonizacion-Madre-Teresa-Brochero_0_1535846755.html'
p4
aS'https://www.clarin.com/ieco/economia/Ligera-caida-patentamiento-motos-febrero_0_1535846752.html'
p5
aS'https://www.clarin.com/ieco/economia/Ligera-caida-patentamiento-motos-febrero_0_1535846752.html'
p6
a.