(lp0
S'https://www.clarin.com/ieco/economia/compras-exterior-tarjetas-devolucion-AFIP_0_1508849531.html'
p1
aS'https://www.clarin.com/politica/Macri-podria-verse-Obama-marzo_0_1508849499.html'
p2
aS'https://www.clarin.com/politica/Macri-podria-verse-Obama-marzo_0_1508849499.html'
p3
aS'https://www.clarin.com/ieco/economia/Bolsa-repunta-dolar-sube-centavos_0_1508849347.html'
p4
aS'https://www.clarin.com/ieco/economia/Bolsa-repunta-dolar-sube-centavos_0_1508849347.html'
p5
aS'https://www.clarin.com/politica/Tiempo_Argentino-Szpolski-Garfunkel-Martinez-Radio_America-Grupo_23_0_1508849497.html'
p6
a.