(lp0
S'https://www.clarin.com/politica/Europa-Mercosur-encontrar-equilibrios-adecuados_0_1536446737.html'
p1
aS'https://www.clarin.com/ieco/dificil-Galuccio-recibe-aval-OA_0_1536446833.html'
p2
aS'https://www.clarin.com/ieco/Maestro-economistas-simbolo-desarrollismo_0_1536446835.html'
p3
aS'https://www.clarin.com/politica/Corrupcion-Stolbizer-modificar-Codigo-Penal_0_1536446755.html'
p4
aS'https://www.clarin.com/politica/gobernadores-aumentan-reclamos-dinero-Gobierno_0_1536446713.html'
p5
aS'https://www.clarin.com/opinion/pacientes-impacientes_0_1536446799.html'
p6
a.