(lp0
S'https://www.clarin.com/politica/mauricio_macri-discurso_en_villa_la_angostura_0_1496850580.html'
p1
aS'https://www.clarin.com/politica/mauricio_macri-discurso_en_villa_la_angostura_0_1496850580.html'
p2
aS'https://www.clarin.com/politica/guillermo_dietrich-surfeando_0_1496850564.html'
p3
aS'https://www.clarin.com/sociedad/ahogada-intentaban-resucitarla-seguian-bailando_0_1496850554.html'
p4
aS'https://www.clarin.com/sociedad/ahogada-intentaban-resucitarla-seguian-bailando_0_1496850554.html'
p5
a.