(lp0
S'https://www.clarin.com/politica/Piden-detencion-intendente-administracion-fraudulenta_0_1549045370.html'
p1
aS'https://www.clarin.com/sociedad/novela-busco-donante-esperma-hija_0_1549045318.html'
p2
aS'https://www.clarin.com/politica/Revelan-astronomico-Suiza-Lazaro-Baez_0_1549045357.html'
p3
aS'https://www.clarin.com/ieco/economia/Argentina-vuelve-mercado_0_1549045350.html'
p4
aS'https://www.clarin.com/sociedad/Habilitaron-primer-perchero-social_0_1549045375.html'
p5
a.