(lp0
S'https://www.clarin.com/politica/Bullrich-medico-mato-ladron-cuidar_0_1644435633.html'
p1
aS'https://www.clarin.com/politica/Bullrich-medico-mato-ladron-cuidar_0_1644435633.html'
p2
aS'https://www.clarin.com/politica/Vidal-Mirtha-Heidi-ahora-heroina_0_1644435631.html'
p3
aS'https://www.clarin.com/politica/Vidal-Mirtha-Heidi-ahora-heroina_0_1644435631.html'
p4
aS'https://www.clarin.com/sociedad/reencontro-duena-despues-guardia-hospital_0_1644435615.html'
p5
aS'https://www.clarin.com/sociedad/reencontro-duena-despues-guardia-hospital_0_1644435615.html'
p6
aS'https://www.clarin.com/sociedad/Escandalo-EEUU-sacrificio-beagles-universidad_0_1644435630.html'
p7
aS'https://www.clarin.com/sociedad/Escandalo-EEUU-sacrificio-beagles-universidad_0_1644435630.html'
p8
aS'https://www.clarin.com/politica/Scioli-goleador-confianza-renovacion-PJ_0_1644435628.html'
p9
aS'https://www.clarin.com/politica/Scioli-goleador-confianza-renovacion-PJ_0_1644435628.html'
p10
aS'https://www.clarin.com/politica/Juliana-Awada-visito-templo-budista_0_1644435626.html'
p11
aS'https://www.clarin.com/politica/Juliana-Awada-visito-templo-budista_0_1644435626.html'
p12
aS'https://www.clarin.com/politica/personalidades-despidieron-Carlos-Bulgheroni-diarios_0_1644435621.html'
p13
aS'https://www.clarin.com/politica/personalidades-despidieron-Carlos-Bulgheroni-diarios_0_1644435621.html'
p14
a.