(lp0
Vhttps://www.clarin.com/politica/fotografos-quedaron-poder-imagenes-Macri_0_1660034086.html
p1
aVhttps://www.clarin.com/politica/fotografos-quedaron-poder-imagenes-Macri_0_1660034086.html
p2
aVhttps://www.clarin.com/sociedad/controles-drogas-choferes-micros_0_1660034071.html
p3
aVhttps://www.clarin.com/sociedad/controles-drogas-choferes-micros_0_1660034071.html
p4
aVhttps://www.clarin.com/politica/Mega-frenadas-revision-presupuestos-sospechosos_0_1660034068.html
p5
aVhttps://www.clarin.com/politica/Mega-frenadas-revision-presupuestos-sospechosos_0_1660034068.html
p6
a.