(lp0
S'https://www.clarin.com/ieco/economia/Oficializan-compensaciones-cortes-febrero-montos_0_1548445307.html'
p1
aS'https://www.clarin.com/ieco/economia/Oficializan-compensaciones-cortes-febrero-montos_0_1548445307.html'
p2
aS'https://www.clarin.com/sociedad/Hoy-expedicion-bandera-Polo-Norte_0_1548445300.html'
p3
aS'https://www.clarin.com/sociedad/Hoy-expedicion-bandera-Polo-Norte_0_1548445300.html'
p4
aS'https://www.clarin.com/politica/Santa-Lazaro-Baez-Alicia-Kirchner_0_1548445284.html'
p5
aS'https://www.clarin.com/politica/Santa-Lazaro-Baez-Alicia-Kirchner_0_1548445284.html'
p6
aS'https://www.clarin.com/politica/Victor-Hugo-Morales-Cuentan-panaderia_0_1548445285.html'
p7
aS'https://www.clarin.com/ieco/economia/AFIP-formalizo-cronograma-factura-electronica_0_1548445290.html'
p8
aS'https://www.clarin.com/politica/indagatoria-Ricardo-Jaime-Belgrano-Cargas_0_1548445288.html'
p9
aS'https://www.clarin.com/politica/indagatoria-Ricardo-Jaime-Belgrano-Cargas_0_1548445288.html'
p10
a.