(lp0
Vhttps://www.clarin.com/ieco/Blanqueo-creen-declararan-US-millones_0_1595240697.html
p1
aVhttps://www.clarin.com/ieco/economia/Macri-busca-venderle-autos-Colombia_0_1595240637.html
p2
aVhttps://www.clarin.com/ieco/economia/Macri-busca-venderle-autos-Colombia_0_1595240637.html
p3
aVhttps://www.clarin.com/politica/Tratan-jubilados-buscan-sumar-kirchneristas_0_1595240703.html
p4
aVhttps://www.clarin.com/politica/Tratan-jubilados-buscan-sumar-kirchneristas_0_1595240703.html
p5
aVhttps://www.clarin.com/politica/convento-detuvieron-Vido-US-millones_0_1595240694.html
p6
aVhttps://www.clarin.com/politica/convento-detuvieron-Vido-US-millones_0_1595240694.html
p7
aVhttps://www.clarin.com/ieco/economia/Levantaran-usinas-electricas-US-millones_0_1595240635.html
p8
aVhttps://www.clarin.com/ieco/economia/Vidal-pidio-cooperacion-principales-empresarios_0_1595240684.html
p9
aVhttps://www.clarin.com/ieco/economia/Vidal-pidio-cooperacion-principales-empresarios_0_1595240684.html
p10
aVhttps://www.clarin.com/ieco/economia/Gobierno-Corte-Per-Saltum-tarifas_0_1595240683.html
p11
aVhttps://www.clarin.com/ieco/economia/Gobierno-Corte-Per-Saltum-tarifas_0_1595240683.html
p12
aVhttps://www.clarin.com/politica/pinguino-delegado-Nestor-obra-publica_0_1595240622.html
p13
aVhttps://www.clarin.com/politica/pinguino-delegado-Nestor-obra-publica_0_1595240622.html
p14
aVhttps://www.clarin.com/politica/Lopez-acusado-triangulo-corrupcion-Vialidad_0_1595240689.html
p15
aVhttps://www.clarin.com/politica/Lopez-acusado-triangulo-corrupcion-Vialidad_0_1595240689.html
p16
a.