(lp0
Vhttps://www.clarin.com/politica/Naciones-Unidas-liberen-Milagro-Sala_0_1676832390.html
p1
aVhttps://www.clarin.com/politica/Naciones-Unidas-liberen-Milagro-Sala_0_1676832390.html
p2
aVhttps://www.clarin.com/politica/Verna-gobernador-peronista-billetera-pesos_0_1676832387.html
p3
aVhttps://www.clarin.com/politica/Verna-gobernador-peronista-billetera-pesos_0_1676832387.html
p4
aVhttps://www.clarin.com/politica/Tarifa-electrica-asociaciones-consumidores-aumentos_0_1676832383.html
p5
aVhttps://www.clarin.com/politica/Tarifa-electrica-asociaciones-consumidores-aumentos_0_1676832383.html
p6
aVhttps://www.clarin.com/sociedad/trabajan-salvar-Jesus-domingo-Viva_0_1676832384.html
p7
aVhttps://www.clarin.com/sociedad/trabajan-salvar-Jesus-domingo-Viva_0_1676832384.html
p8
aVhttps://www.clarin.com/sociedad/amenazan-organizar-marcha-carreras-galgos_0_1676832381.html
p9
aVhttps://www.clarin.com/sociedad/amenazan-organizar-marcha-carreras-galgos_0_1676832381.html
p10
a.