(lp0
S'https://www.clarin.com/sociedad/Internet-bolsillo-primera-moviles-computadoras_0_1680432106.html'
p1
aS'https://www.clarin.com/politica/Oficial-Cristina-debera-devolver-pension_0_1680432107.html'
p2
aS'https://www.clarin.com/politica/Radio-Nacional-impulsan-realmente-federal_0_1680432113.html'
p3
aS'https://www.clarin.com/politica/dueno-mate-gigante-comparte-Congreso_0_1680432098.html'
p4
a.