(lp0
Vhttps://www.clarin.com/ieco/economia/Macri-CEO-promesas-inversion-claras_0_1508249500.html
p1
aVhttps://www.clarin.com/ieco/economia/Macri-CEO-promesas-inversion-claras_0_1508249500.html
p2
aVhttps://www.clarin.com/ieco/Departamento_del_Tesoro-EE-UU-_creditos-veto-Jack_Lew-Prat-Gay_0_1508249504.html
p3
aVhttps://www.clarin.com/ieco/Departamento_del_Tesoro-EE-UU-_creditos-veto-Jack_Lew-Prat-Gay_0_1508249504.html
p4
aVhttps://www.clarin.com/sociedad/incendia-zona-Parque-Nacional-Alerces_0_1508249498.html
p5
aVhttps://www.clarin.com/sociedad/incendia-zona-Parque-Nacional-Alerces_0_1508249498.html
p6
aVhttps://www.clarin.com/ieco/economia/dolar-sube-centavos_0_1508249433.html
p7
aVhttps://www.clarin.com/politica/Macri-Netanyahu-Davos-Foro_0_1508249488.html
p8
aVhttps://www.clarin.com/politica/Macri-Netanyahu-Davos-Foro_0_1508249488.html
p9
a.