(lp0
Vhttps://www.clarin.com/ieco/economia/ano-sumaron-empleos-sector-publico_0_1658234283.html
p1
aVhttps://www.clarin.com/ieco/economia/ano-sumaron-empleos-sector-publico_0_1658234283.html
p2
aVhttps://www.clarin.com/politica/Gobierno-piquetes-necesario-corte-calles_0_1658234282.html
p3
aVhttps://www.clarin.com/politica/Gobierno-piquetes-necesario-corte-calles_0_1658234282.html
p4
aVhttps://www.clarin.com/ieco/Preven-suba-personal-convenio_0_1658234281.html
p5
a.