(lp0
S'https://www.clarin.com/sociedad/cedula-escolar-registrara-historia-alumno_0_1541246331.html'
p1
aS'https://www.clarin.com/sociedad/Denuncian-hombre-murio-falta-gastroenterologos_0_1541845872.html'
p2
aS'https://www.clarin.com/politica/Gobernadores-PJ-factor-clave-Senado_0_1541246401.html'
p3
aS'https://www.clarin.com/opinion/polemica-trama-ecos-griegos_0_1541845840.html'
p4
aS'https://www.clarin.com/opinion/Acuerdo-Buitres-imprevisto_0_1541246286.html'
p5
aS'https://www.clarin.com/sociedad/conecta-chicos-maestros-apoyo-exito_0_1541246335.html'
p6
aS'https://www.clarin.com/sociedad/siglo-XXI-protegidos_0_1541246332.html'
p7
aS'https://www.clarin.com/opinion/Doble-kirchnerista-banderitas-llenos-dolares_0_1541845826.html'
p8
a.