(lp0
Vhttps://www.clarin.com/politica/Heller-saco-Intratables_0_1571242922.html
p1
aVhttps://www.clarin.com/politica/Heller-saco-Intratables_0_1571242922.html
p2
aVhttps://www.clarin.com/sociedad/Emotivo-mensaje-mama-siamesas-Luciana_0_1571242919.html
p3
aVhttps://www.clarin.com/sociedad/Emotivo-mensaje-mama-siamesas-Luciana_0_1571242919.html
p4
aVhttps://www.clarin.com/sociedad/AcercArte-cultura-recorre-municipios_0_1571242917.html
p5
aVhttps://www.clarin.com/sociedad/AcercArte-cultura-recorre-municipios_0_1571242917.html
p6
aVhttps://www.clarin.com/ieco/Angelo-Calcaterra-Macri-constructora-Iecsa_0_1571242916.html
p7
aVhttps://www.clarin.com/ieco/Angelo-Calcaterra-Macri-constructora-Iecsa_0_1571242916.html
p8
aVhttps://www.clarin.com/sociedad/Congreso-secreto-Youtubers-Rubius-PewDiePie_0_1571242914.html
p9
aVhttps://www.clarin.com/sociedad/Congreso-secreto-Youtubers-Rubius-PewDiePie_0_1571242914.html
p10
aVhttps://www.clarin.com/politica/Baez-rechazo-acusaciones-responder-presento_0_1571242910.html
p11
aVhttps://www.clarin.com/politica/Baez-rechazo-acusaciones-responder-presento_0_1571242910.html
p12
aVhttps://www.clarin.com/politica/massismo-insiste-cuidar-generan-trabajo_0_1571242902.html
p13
aVhttps://www.clarin.com/politica/massismo-insiste-cuidar-generan-trabajo_0_1571242902.html
p14
a.