(lp0
S'https://www.clarin.com/sociedad/joya-cara-mundo_0_1579642163.html'
p1
aS'https://www.clarin.com/sociedad/joya-cara-mundo_0_1579642163.html'
p2
aS'https://www.clarin.com/sociedad/Defendio-amiga-novio-golpeaba-mato_0_1579642138.html'
p3
aS'https://www.clarin.com/sociedad/Defendio-amiga-novio-golpeaba-mato_0_1579642138.html'
p4
aS'https://www.clarin.com/sociedad/Paritaria-universitaria-Gobierno-propuesta-acuerdo_0_1579642156.html'
p5
aS'https://www.clarin.com/sociedad/Paritaria-universitaria-Gobierno-propuesta-acuerdo_0_1579642156.html'
p6
aS'https://www.clarin.com/politica/ministro-lloro-recordar-amigos-ESMA_0_1579642147.html'
p7
aS'https://www.clarin.com/politica/ministro-lloro-recordar-amigos-ESMA_0_1579642147.html'
p8
aS'https://www.clarin.com/politica/votaron-diputados_0_1579642134.html'
p9
a.