(lp0
S'https://www.clarin.com/sociedad/Parcial-clases-Buenos-Aires-docente_0_1624037608.html'
p1
aS'https://www.clarin.com/sociedad/Parcial-clases-Buenos-Aires-docente_0_1624037608.html'
p2
aS'https://www.clarin.com/politica/funcionarios-Scioli-acusacion-millonarias-extracciones_0_1624037602.html'
p3
aS'https://www.clarin.com/politica/funcionarios-Scioli-acusacion-millonarias-extracciones_0_1624037602.html'
p4
aS'https://www.clarin.com/politica/Papa-advierte-desempleo-Argentina-significativamente_0_1624037601.html'
p5
aS'https://www.clarin.com/politica/Papa-advierte-desempleo-Argentina-significativamente_0_1624037601.html'
p6
a.