(lp0
S'https://www.clarin.com/ieco/Prometen-pagarles-US-millones-petroleras_0_1577842400.html'
p1
aS'https://www.clarin.com/politica/Ritondo-inseguridad-Provincia-sensacion-realidad_0_1577842405.html'
p2
aS'https://www.clarin.com/politica/Relanzan-relaciones-Pentagono_0_1577842398.html'
p3
aS'https://www.clarin.com/sociedad/conocia-triste-ahora-construir-digna_0_1577842363.html'
p4
aS'https://www.clarin.com/politica/Avanzan-acuerdos-provincias-presion-antidespidos_0_1577842396.html'
p5
aS'https://www.clarin.com/politica/Vidal-preventivo-atender-urgencias-sociales_0_1577842395.html'
p6
a.