(lp0
S'https://www.clarin.com/sociedad/Eligen-argentinos-cientificos-brillantes_0_1507649664.html'
p1
aS'https://www.clarin.com/sociedad/Eligen-argentinos-cientificos-brillantes_0_1507649664.html'
p2
aS'https://www.clarin.com/sociedad/Billete-ofrecen-expertos-corregirlo_0_1507649653.html'
p3
aS'https://www.clarin.com/sociedad/Billete-ofrecen-expertos-corregirlo_0_1507649653.html'
p4
aS'https://www.clarin.com/sociedad/Hallan-evidencia-planeta-Sistema-Solar_0_1507649651.html'
p5
aS'https://www.clarin.com/ieco/economia/Prat-Gay-Aceptaremos-auditorias-FMI_0_1507649632.html'
p6
aS'https://www.clarin.com/ieco/economia/Prat-Gay-Aceptaremos-auditorias-FMI_0_1507649632.html'
p7
aS'https://www.clarin.com/opinion/Adriana_Santagati_0_1507649635.html'
p8
aS'https://www.clarin.com/sociedad/Penthouse-desmintio-publicar-revista-papel_0_1507649629.html'
p9
aS'https://www.clarin.com/sociedad/Penthouse-desmintio-publicar-revista-papel_0_1507649629.html'
p10
a.