(lp0
S'https://www.clarin.com/politica/Procesaron-Echegaray-buscan-sacarlo-AGN_0_1588041374.html'
p1
aS'https://www.clarin.com/politica/arrepentido-audios-Baez-hablando-pagos_0_1588041377.html'
p2
aS'https://www.clarin.com/politica/Procesado-denuncia-volvio_0_1588641134.html'
p3
a.