(lp0
Vhttps://www.clarin.com/politica/canciller-Malcorra-Macri-Papa-reuniran_0_1506449588.html
p1
aVhttps://www.clarin.com/politica/canciller-Malcorra-Macri-Papa-reuniran_0_1506449588.html
p2
aVhttps://www.clarin.com/sociedad/Mar-Plata-fotos-revista-Life_0_1506449578.html
p3
aVhttps://www.clarin.com/sociedad/Mar-Plata-fotos-revista-Life_0_1506449578.html
p4
aVhttps://www.clarin.com/politica/arrepentido-brasileno-recibio-dolares-Vido_0_1506449570.html
p5
aVhttps://www.clarin.com/politica/arrepentido-brasileno-recibio-dolares-Vido_0_1506449570.html
p6
aVhttps://www.clarin.com/ieco/economia/ricos-resto-mundo-junto_0_1506449546.html
p7
aVhttps://www.clarin.com/ieco/economia/ricos-resto-mundo-junto_0_1506449546.html
p8
a.