(lp0
S'https://www.clarin.com/politica/Corte-exigio-Magistratura-vacantes-Justicia_0_1658234338.html'
p1
aS'https://www.clarin.com/politica/Corte-exigio-Magistratura-vacantes-Justicia_0_1658234338.html'
p2
aS'https://www.clarin.com/sociedad/adhesion-docentes-amenazan-nuevas-medidas_0_1658234339.html'
p3
aS'https://www.clarin.com/sociedad/adhesion-docentes-amenazan-nuevas-medidas_0_1658234339.html'
p4
aS'https://www.clarin.com/sociedad/Argentina-condiciones-laborales-formacion-directores_0_1658234332.html'
p5
aS'https://www.clarin.com/sociedad/Argentina-condiciones-laborales-formacion-directores_0_1658234332.html'
p6
aS'https://www.clarin.com/sociedad/Liderazgo-contextos-alta-vulnerabilidad_0_1658234330.html'
p7
aS'https://www.clarin.com/sociedad/Estimulan-potencian-redescubren-comunidad_0_1658234329.html'
p8
a.