(lp0
Vhttps://www.clarin.com/sociedad/Google-Facebook-WhatsApp-Apple-FBI_0_1525047753.html
p1
aVhttps://www.clarin.com/sociedad/Google-Facebook-WhatsApp-Apple-FBI_0_1525047753.html
p2
aVhttps://www.clarin.com/politica/internas-PJ-reaparecio-Duhalde-intervencion_0_1525047743.html
p3
aVhttps://www.clarin.com/politica/internas-PJ-reaparecio-Duhalde-intervencion_0_1525047743.html
p4
aVhttps://www.clarin.com/sociedad/enero-caluroso-registro_0_1525047738.html
p5
aVhttps://www.clarin.com/sociedad/enero-caluroso-registro_0_1525047738.html
p6
aVhttps://www.clarin.com/politica/Obama-viene-Argentina-marzo_0_1525047741.html
p7
aVhttps://www.clarin.com/politica/Obama-viene-Argentina-marzo_0_1525047741.html
p8
a.