(lp0
S'https://www.clarin.com/sociedad/Aumentan-tarifa-celulares_0_1590441104.html'
p1
aS'https://www.clarin.com/sociedad/Aumentan-tarifa-celulares_0_1590441104.html'
p2
aS'https://www.clarin.com/politica/Jubilados-negocian-restringir-acciones-ANSeS_0_1590441122.html'
p3
aS'https://www.clarin.com/politica/Jubilados-negocian-restringir-acciones-ANSeS_0_1590441122.html'
p4
aS'https://www.clarin.com/ieco/ex-Total-reemplaza-Galuccio-YPF_0_1590441055.html'
p5
aS'https://www.clarin.com/ieco/ex-Total-reemplaza-Galuccio-YPF_0_1590441055.html'
p6
aS'https://www.clarin.com/sociedad/madre-murieron-derrumbe-galpon-Mendoza_0_1591040890.html'
p7
aS'https://www.clarin.com/sociedad/madre-murieron-derrumbe-galpon-Mendoza_0_1591040890.html'
p8
aS'https://www.clarin.com/opinion/charla-paso-mejor-vida_0_1590441108.html'
p9
aS'https://www.clarin.com/politica/Ahora-Camara-Federal-apuntar-Baez_0_1590441124.html'
p10
aS'https://www.clarin.com/politica/Ahora-Camara-Federal-apuntar-Baez_0_1590441124.html'
p11
aS'https://www.clarin.com/opinion/derechos-humanos-cinismo_0_1590441072.html'
p12
aS'https://www.clarin.com/opinion/victimarios-Costa-Salguero_0_1590441089.html'
p13
aS'https://www.clarin.com/opinion/victimarios-Costa-Salguero_0_1590441089.html'
p14
aS'https://www.clarin.com/opinion/diplomacia-cauta-salvar-Venezuela_0_1590441083.html'
p15
a.