(lp0
Vhttps://www.clarin.com/ieco/economia/SanCor-vendio-linea-frescos-Vicentin_0_1592240953.html
p1
aVhttps://www.clarin.com/sociedad/paro-podria-afectar-manana-vuelos_0_1592240939.html
p2
aVhttps://www.clarin.com/opinion/libreros-honran-oficio_0_1592240893.html
p3
aVhttps://www.clarin.com/politica/escribania-toqueteo_0_1592840701.html
p4
aVhttps://www.clarin.com/politica/Sigue-Bienes-Personales-provincias-beneficios_0_1592240969.html
p5
a.