(lp0
Vhttps://www.clarin.com/politica/Massa-vuelve-coquetear-macrismo-negociara_0_1593440773.html
p1
aVhttps://www.clarin.com/politica/Ciudad-Provincia-juntas-protocolo-antipiquetes_0_1593440814.html
p2
aVhttps://www.clarin.com/politica/casa-vive-Cristina-maniobra-sospechosa_0_1594040581.html
p3
aVhttps://www.clarin.com/politica/casa-vive-Cristina-maniobra-sospechosa_0_1594040581.html
p4
aVhttps://www.clarin.com/politica/pedido-intendentes-volveran-gendarmes-Conurbano_0_1593440806.html
p5
aVhttps://www.clarin.com/opinion/Coimear-funeral_0_1593440762.html
p6
aVhttps://www.clarin.com/opinion/anos-Brisa-nieta_0_1593440780.html
p7
aVhttps://www.clarin.com/opinion/anos-Brisa-nieta_0_1593440780.html
p8
aVhttps://www.clarin.com/politica/Mensaje-Gobierno-PJ-ampliacion-Corte_0_1593440811.html
p9
aVhttps://www.clarin.com/politica/promesas-Gobierno-desalojara-protestas-calles_0_1593440810.html
p10
aVhttps://www.clarin.com/politica/promesas-Gobierno-desalojara-protestas-calles_0_1593440810.html
p11
aVhttps://www.clarin.com/ieco/economia/salto-mieles-exito-fondo-tambor_0_1594040660.html
p12
aVhttps://www.clarin.com/ieco/economia/salto-mieles-exito-fondo-tambor_0_1594040660.html
p13
aVhttps://www.clarin.com/ieco/economia/problemas-abundancia-dolares_0_1594040659.html
p14
aVhttps://www.clarin.com/ieco/economia/problemas-abundancia-dolares_0_1594040659.html
p15
aVhttps://www.clarin.com/ieco/economia/viene-repunte-leve-actividad-economica_0_1594040657.html
p16
aVhttps://www.clarin.com/ieco/economia/viene-repunte-leve-actividad-economica_0_1594040657.html
p17
aVhttps://www.clarin.com/ieco/economia/concepto-distinto-mujeres_0_1594040639.html
p18
aVhttps://www.clarin.com/ieco/economia/concepto-distinto-mujeres_0_1594040639.html
p19
a.