(lp0
S'https://www.clarin.com/opinion/gays-mayores-preparados-envejecer_0_1627037438.html'
p1
aS'https://www.clarin.com/opinion/Santo-Biasatti-verdadero-misterio-santo_0_1627037434.html'
p2
aS'https://www.clarin.com/opinion/Armenia-sovieticos-historica-identidad-cristiana_0_1627037432.html'
p3
aS'https://www.clarin.com/opinion/extranas-intimidaciones-poder_0_1627637227.html'
p4
aS'https://www.clarin.com/opinion/ingresos-carrera-dificil-inflacion_0_1627637226.html'
p5
aS'https://www.clarin.com/opinion/Palabras-frente-drama-global_0_1627037437.html'
p6
aS'https://www.clarin.com/sociedad/Boca-vecinos-denuncian-semana-luz_0_1627637228.html'
p7
a.