(lp0
S'https://www.clarin.com/ieco/economia/salida-capitales-llego-US8520-millones_0_1547845325.html'
p1
aS'https://www.clarin.com/ieco/economia/Tasas-dolar-quieto-vinieron-quedarse_0_1547845324.html'
p2
aS'https://www.clarin.com/ieco/economia/Tasas-dolar-quieto-vinieron-quedarse_0_1547845324.html'
p3
aS'https://www.clarin.com/politica/palabra-amante-companera-Nestor-Kirchner_0_1547245690.html'
p4
aS'https://www.clarin.com/politica/palabra-amante-companera-Nestor-Kirchner_0_1547245690.html'
p5
aS'https://www.clarin.com/ieco/Pago-buitres-Gobierno-ahora-modificaciones_0_1547245670.html'
p6
a.