(lp0
Vhttps://www.clarin.com/sociedad/Abuelas-gris-nueva-moda-jovenes_0_1650435030.html
p1
aVhttps://www.clarin.com/sociedad/Abuelas-gris-nueva-moda-jovenes_0_1650435030.html
p2
aVhttps://www.clarin.com/politica/Macri-punto-partida-acepto-evaluado_0_1658834222.html
p3
aVhttps://www.clarin.com/politica/Macri-punto-partida-acepto-evaluado_0_1658834222.html
p4
aVhttps://www.clarin.com/politica/Pena-asesores-anticipo-inflacion-debajo_0_1658834201.html
p5
aVhttps://www.clarin.com/politica/Pena-asesores-anticipo-inflacion-debajo_0_1658834201.html
p6
aVhttps://www.clarin.com/politica/Mineria-quorum-tratar-derrame-Veladero_0_1658834216.html
p7
aVhttps://www.clarin.com/politica/Mineria-quorum-tratar-derrame-Veladero_0_1658834216.html
p8
aVhttps://www.clarin.com/sociedad/Polemica-campana-Formosa-impuestos-Pombero_0_1658834212.html
p9
aVhttps://www.clarin.com/sociedad/Polemica-campana-Formosa-impuestos-Pombero_0_1658834212.html
p10
a.