(lp0
S'https://www.clarin.com/politica/Moyano-bono-pesos-insuficiente_0_1670233078.html'
p1
aS'https://www.clarin.com/politica/Moyano-bono-pesos-insuficiente_0_1670233078.html'
p2
aS'https://www.clarin.com/sociedad/dias-chicos-perdieron-mama-femicidio_0_1670233076.html'
p3
aS'https://www.clarin.com/sociedad/dias-chicos-perdieron-mama-femicidio_0_1670233076.html'
p4
aS'https://www.clarin.com/politica/Anticipo-pericia-medica-Lazaro-Baez_0_1670233061.html'
p5
aS'https://www.clarin.com/politica/Anticipo-pericia-medica-Lazaro-Baez_0_1670233061.html'
p6
aS'https://www.clarin.com/politica/Cruces-reduccion-presupuesto-Ministerio-Ciencia_0_1670233059.html'
p7
aS'https://www.clarin.com/politica/Cruces-reduccion-presupuesto-Ministerio-Ciencia_0_1670233059.html'
p8
aS'https://www.clarin.com/sociedad/adolescente-piercing-oreja-infecto-murio_0_1670233069.html'
p9
aS'https://www.clarin.com/ieco/China-creo-millonario-dias_0_1670233062.html'
p10
aS'https://www.clarin.com/ieco/China-creo-millonario-dias_0_1670233062.html'
p11
a.