(lp0
S'https://www.clarin.com/politica/Gollan-irregularidades-Bonadio-inoperante-mentiroso_0_1524447678.html'
p1
aS'https://www.clarin.com/ieco/economia/inflacion-indec-precios-ipc_0_1523848053.html'
p2
aS'https://www.clarin.com/sociedad/brasil-muerta-mujer_0_1524447685.html'
p3
aS'https://www.clarin.com/ieco/economia/febrero-inflacion_0_1523848084.html'
p4
aS'https://www.clarin.com/ieco/economia/Empresarios-alerta-tarifas-electricas-Brasil_0_1524447681.html'
p5
aS'https://www.clarin.com/ieco/economia/fondos_buitre-default-citibank-thomas_griesa_0_1523848010.html'
p6
aS'https://www.clarin.com/politica/Paso-paso-fraude-licitacion-Qunita_0_1524447653.html'
p7
aS'https://www.clarin.com/politica/Dejan-directa-helicoptero-ultimos-Cristina_0_1524447663.html'
p8
a.