(lp0
Vhttps://www.clarin.com/opinion/miedo-Pacifico_0_1606039435.html
p1
aVhttps://www.clarin.com/politica/Macri-llega-Paris-vera-Hollande_0_1605439624.html
p2
aVhttps://www.clarin.com/opinion/Zoo-va-vieja-infancia_0_1605439582.html
p3
aVhttps://www.clarin.com/politica/segundo-semestre-disparo-hinchadas-diputados_0_1605439645.html
p4
aVhttps://www.clarin.com/politica/Magistratura-kirchnerismo-consejero-PJ-dialoguista_0_1605439644.html
p5
aVhttps://www.clarin.com/sociedad/Aislada-Bicentenario_0_1605439642.html
p6
aVhttps://www.clarin.com/politica/Gustavo-Vera-Monte-Nestor-Kirchner_0_1605439643.html
p7
aVhttps://www.clarin.com/politica/Entraron-celular-Lopez-mensajes-videos_0_1605439608.html
p8
aVhttps://www.clarin.com/politica/Entraron-celular-Lopez-mensajes-videos_0_1605439608.html
p9
aVhttps://www.clarin.com/politica/Lazaro-Baez-anular-indagatorias-adelanto_0_1605439641.html
p10
aVhttps://www.clarin.com/politica/Auditoria-PJ-piensa-reemplazante-Echegaray_0_1605439640.html
p11
aVhttps://www.clarin.com/politica/Auditoria-PJ-piensa-reemplazante-Echegaray_0_1605439640.html
p12
a.