(lp0
Vhttps://www.clarin.com/politica/Hebe-encabezo-Plaza-critico-Macri_0_1630037193.html
p1
aVhttps://www.clarin.com/sociedad/Lanzan-homenaje-Jose-San-Martin_0_1630037169.html
p2
aVhttps://www.clarin.com/sociedad/Lanzan-homenaje-Jose-San-Martin_0_1630037169.html
p3
a.