(lp0
S'https://www.clarin.com/sociedad/Sorpresa-cosmica-universo-expande-rapido_0_1588641194.html'
p1
aS'https://www.clarin.com/sociedad/Sorpresa-cosmica-universo-expande-rapido_0_1588641194.html'
p2
aS'https://www.clarin.com/ieco/economia/Exxon-US-millones-Vaca-Muerta_0_1588641192.html'
p3
aS'https://www.clarin.com/ieco/economia/Exxon-US-millones-Vaca-Muerta_0_1588641192.html'
p4
aS'https://www.clarin.com/ieco/Moyano-conduccion-comienza-reunificacion-CGT_0_1588641187.html'
p5
aS'https://www.clarin.com/ieco/Moyano-conduccion-comienza-reunificacion-CGT_0_1588641187.html'
p6
aS'https://www.clarin.com/politica/Macri-Dios-Congreso-Ley-Reparacion_0_1588641185.html'
p7
aS'https://www.clarin.com/politica/Macri-Dios-Congreso-Ley-Reparacion_0_1588641185.html'
p8
aS'https://www.clarin.com/sociedad/Experiencia-Halcon-Guerra-Malvinas-complicaron_0_1587441353.html'
p9
aS'https://www.clarin.com/sociedad/Experiencia-Halcon-Guerra-Malvinas-complicaron_0_1587441353.html'
p10
a.