(lp0
S'https://www.clarin.com/politica/candidato-Corte-quiere-paguen-Ganancias_0_1533446976.html'
p1
aS'https://www.clarin.com/politica/candidato-Corte-quiere-paguen-Ganancias_0_1533446976.html'
p2
aS'https://www.clarin.com/sociedad/Marte-aspecto-infancia-gigantesco-volcan_0_1533446959.html'
p3
aS'https://www.clarin.com/sociedad/Marte-aspecto-infancia-gigantesco-volcan_0_1533446959.html'
p4
aS'https://www.clarin.com/politica/Echaron-Senado-Alex-Freyre-Boudou_0_1533446958.html'
p5
aS'https://www.clarin.com/politica/Echaron-Senado-Alex-Freyre-Boudou_0_1533446958.html'
p6
aS'https://www.clarin.com/sociedad/Crimen-San-Luis-reemplazo-intendente_0_1533446953.html'
p7
aS'https://www.clarin.com/sociedad/Crimen-San-Luis-reemplazo-intendente_0_1533446953.html'
p8
a.