(lp0
Vhttps://www.clarin.com/politica/Mira-entrevista-Pagni-Farina_0_1570043074.html
p1
aVhttps://www.clarin.com/politica/Mira-entrevista-Pagni-Farina_0_1570043074.html
p2
aVhttps://www.clarin.com/sociedad/Time-Warp-dieron-jovenes-internados_0_1570043072.html
p3
aVhttps://www.clarin.com/sociedad/Time-Warp-dieron-jovenes-internados_0_1570043072.html
p4
aVhttps://www.clarin.com/politica/Hablo-Farina-razones-confesion-historica_0_1570043070.html
p5
aVhttps://www.clarin.com/politica/Hablo-Farina-razones-confesion-historica_0_1570043070.html
p6
aVhttps://www.clarin.com/sociedad/Creen-legendario-capitan-James-Cook_0_1570043057.html
p7
aVhttps://www.clarin.com/sociedad/Creen-legendario-capitan-James-Cook_0_1570043057.html
p8
aVhttps://www.clarin.com/politica/massismo-contesto-Macri-decirnos-debemos_0_1570043063.html
p9
aVhttps://www.clarin.com/politica/massismo-contesto-Macri-decirnos-debemos_0_1570043063.html
p10
a.