(lp0
S'https://www.clarin.com/sociedad/Desfilo-NY-Fashion-Week-sobrevivio_0_1647435309.html'
p1
aS'https://www.clarin.com/politica/segundo-Bullrich-Gomez-Centurion-efedrina_0_1647435311.html'
p2
aS'https://www.clarin.com/politica/CTA-suman-CGT-impulsan-nacional_0_1647435306.html'
p3
a.