(lp0
S'https://www.clarin.com/politica/Enojo-quitaron-nombre-Kirchner-auditorio_0_1674432684.html'
p1
aS'https://www.clarin.com/sociedad/Alerta-global-record-efecto-invernadero_0_1674432693.html'
p2
aS'https://www.clarin.com/sociedad/Videos-tutores-claves-escuelas-mejoraron_0_1674432698.html'
p3
aS'https://www.clarin.com/politica/Idas-Mauricio-Macri-Nicolas-Maduro_0_1674432689.html'
p4
aS'https://www.clarin.com/politica/Marijuan-denuncio-intentan-apartarlo-dinero_0_1674432700.html'
p5
aS'https://www.clarin.com/sociedad/jornada-extendida-formacion-docente-prioridades_0_1674432696.html'
p6
a.