(lp0
S'https://www.clarin.com/sociedad/Impresionante-aterrizaje-forzoso-Praga-viento_0_1666033398.html'
p1
aS'https://www.clarin.com/sociedad/Impresionante-aterrizaje-forzoso-Praga-viento_0_1666033398.html'
p2
a.