(lp0
S'https://www.clarin.com/politica/Confirman-Obama-visitara-Bariloche-Argentina_0_1533446889.html'
p1
aS'https://www.clarin.com/politica/resistia-Schoklender-debe-pagar-justicia_0_1532847060.html'
p2
aS'https://www.clarin.com/sociedad/cumbia-buscan-frenar-mosquito-dengue_0_1533446887.html'
p3
aS'https://www.clarin.com/politica/fondos-Macri-apoyo-gobernador-opositor_0_1533446878.html'
p4
aS'https://www.clarin.com/sociedad/revision-Viagra-femenino-cuestiona-efectividad_0_1533446872.html'
p5
aS'https://www.clarin.com/politica/backstage-aparicion-Stiuso-Intratables_0_1533446880.html'
p6
aS'https://www.clarin.com/politica/Ahora-Stiuso-compite-Brancatelli-Twitter_0_1533446855.html'
p7
aS'https://www.clarin.com/ieco/economia/Bonistas-aceptan-apelaran-decision-Griesa_0_1533446883.html'
p8
aS'https://www.clarin.com/sociedad/Descubren-piso-original-Coliseo-romano_0_1533446870.html'
p9
aS'https://www.clarin.com/politica/Rosatti-defiende-nominacion-Corte-Senado_0_1533446890.html'
p10
a.