(lp0
Vhttps://www.clarin.com/politica/Abal-Medina-aconsejo-Recalde-propuesta_0_1535246661.html
p1
aVhttps://www.clarin.com/politica/Abal-Medina-aconsejo-Recalde-propuesta_0_1535246661.html
p2
aVhttps://www.clarin.com/politica/Milagro-Sala-carcel-cometi-delito_0_1535246648.html
p3
aVhttps://www.clarin.com/politica/Milagro-Sala-carcel-cometi-delito_0_1535246648.html
p4
aVhttps://www.clarin.com/politica/Echaron-Boudou-Golf-Club-Plata_0_1535246594.html
p5
aVhttps://www.clarin.com/politica/Echaron-Boudou-Golf-Club-Plata_0_1535246594.html
p6
aVhttps://www.clarin.com/sociedad/esclavitos-maquinas_0_1534646895.html
p7
aVhttps://www.clarin.com/sociedad/Boliches-violentos-muerto-herido-peleas_0_1534646940.html
p8
aVhttps://www.clarin.com/sociedad/Alcohol-volante-autos-infraccion-Costa_0_1534646923.html
p9
a.