(lp0
S'https://www.clarin.com/politica/AMIA-Kirchner-mismo-juzgado_0_1652234888.html'
p1
aS'https://www.clarin.com/politica/Documentos-muestran-Kirchner-Santa-Cruz_0_1652834705.html'
p2
aS'https://www.clarin.com/ieco/derrumbe-ventas-ceden-precios-usados_0_1651635002.html'
p3
aS'https://www.clarin.com/ieco/economia/dificil-busqueda-rendimientos_0_1652834753.html'
p4
aS'https://www.clarin.com/ieco/economia/septiembre-esperan-suba-precios-supere_0_1651635025.html'
p5
aS'https://www.clarin.com/politica/US-millones-quedaron-apenas_0_1652234878.html'
p6
aS'https://www.clarin.com/opinion/Perseverar-alud-claves_0_1652234903.html'
p7
aS'https://www.clarin.com/ieco/economia/YPF-quedo_0_1652234931.html'
p8
aS'https://www.clarin.com/politica/operacion-Baez-Austral-Abu-Dhabi_0_1651635021.html'
p9
aS'https://www.clarin.com/ieco/economia/bancos-modelo-Uber_0_1651035039.html'
p10
a.