(lp0
S'https://www.clarin.com/sociedad/Video-exploto-cigarrillo-electronico-bolsillo_0_1529847158.html'
p1
aS'https://www.clarin.com/politica/alquila-departamento-murio-Nisman_0_1529847159.html'
p2
aS'https://www.clarin.com/sociedad/Incendio-fabrica-textil-Benavidez_0_1529847143.html'
p3
aS'https://www.clarin.com/politica/patrimonio-millonario-investigados-Causa-Hotesur_0_1529847124.html'
p4
a.