(lp0
Vhttps://www.clarin.com/ieco/Argentina-consiguio-US-millones_0_1561643968.html
p1
aVhttps://www.clarin.com/ieco/credito-externo-empresas-Molinos-Canuelas_0_1561643833.html
p2
aVhttps://www.clarin.com/ieco/economia/Esperan-reservas-suban-US-millones_0_1562243786.html
p3
aVhttps://www.clarin.com/ieco/economia/economistas-test-colocacion-saco-aprobado_0_1561644028.html
p4
aVhttps://www.clarin.com/sociedad/Dio-luz-dias-muerte-cerebral_0_1562243770.html
p5
aVhttps://www.clarin.com/sociedad/Dio-luz-dias-muerte-cerebral_0_1562243770.html
p6
aVhttps://www.clarin.com/politica/dinero-apresaron-Chueco-abogado-Baez_0_1562243769.html
p7
aVhttps://www.clarin.com/politica/dinero-apresaron-Chueco-abogado-Baez_0_1562243769.html
p8
aVhttps://www.clarin.com/politica/Piden-indagatoria-Echegaray-Gobierno-AGN_0_1562243768.html
p9
aVhttps://www.clarin.com/politica/Piden-indagatoria-Echegaray-Gobierno-AGN_0_1562243768.html
p10
aVhttps://www.clarin.com/opinion/alcanza-pagarles-mejor-universidad_0_1562243766.html
p11
aVhttps://www.clarin.com/politica/testigo-identidad-reservada-Vido-Suris_0_1561644031.html
p12
aVhttps://www.clarin.com/politica/testigo-identidad-reservada-Vido-Suris_0_1561644031.html
p13
aVhttps://www.clarin.com/opinion/Cristina-ayuda-perjudica-Macri_0_1562243765.html
p14
aVhttps://www.clarin.com/opinion/Cristina-ayuda-perjudica-Macri_0_1562243765.html
p15
aVhttps://www.clarin.com/politica/Vanoli-futuro-generar-bomba-explotar_0_1562243764.html
p16
aVhttps://www.clarin.com/politica/Vanoli-futuro-generar-bomba-explotar_0_1562243764.html
p17
aVhttps://www.clarin.com/opinion/viene-luego-salir-default_0_1562243763.html
p18
a.