(lp0
S'https://www.clarin.com/ieco/historico-frigorifico-vendido-tomado-abrir_0_1556844481.html'
p1
aS'https://www.clarin.com/ieco/historico-frigorifico-vendido-tomado-abrir_0_1556844481.html'
p2
aS'https://www.clarin.com/ieco/Bariloche-espera-recuperarse-aluvion-brasileno_0_1556844479.html'
p3
aS'https://www.clarin.com/ieco/Bariloche-espera-recuperarse-aluvion-brasileno_0_1556844479.html'
p4
aS'https://www.clarin.com/politica/revelaciones-Farina-anotaciones-Cristina-Baez_0_1556844477.html'
p5
aS'https://www.clarin.com/politica/revelaciones-Farina-anotaciones-Cristina-Baez_0_1556844477.html'
p6
aS'https://www.clarin.com/ieco/economia/Debutan-nuevos-creditos-hipotecarios_0_1556844474.html'
p7
aS'https://www.clarin.com/ieco/economia/Debutan-nuevos-creditos-hipotecarios_0_1556844474.html'
p8
aS'https://www.clarin.com/sociedad/Farmacias-Buenos-Aires-Cordoba-PAMI_0_1556844472.html'
p9
aS'https://www.clarin.com/sociedad/Farmacias-Buenos-Aires-Cordoba-PAMI_0_1556844472.html'
p10
aS'https://www.clarin.com/sociedad/intendente-aseguro-Chascomus-paga-quiebra_0_1556844471.html'
p11
aS'https://www.clarin.com/sociedad/intendente-aseguro-Chascomus-paga-quiebra_0_1556844471.html'
p12
aS'https://www.clarin.com/sociedad/Esquiadora-filma-oso-persigue_0_1556844447.html'
p13
aS'https://www.clarin.com/politica/Capitanich-dio-millones-Baez_0_1556844462.html'
p14
aS'https://www.clarin.com/politica/Capitanich-dio-millones-Baez_0_1556844462.html'
p15
aS'https://www.clarin.com/politica/Macri-Quiero-Argentina-impunidad_0_1556844459.html'
p16
aS'https://www.clarin.com/politica/Macri-Quiero-Argentina-impunidad_0_1556844459.html'
p17
a.