(lp0
Vhttps://www.clarin.com/politica/Encuentran-US-seguridad-Florencia-Kirchner_0_1613838647.html
p1
aVhttps://www.clarin.com/politica/Encuentran-US-seguridad-Florencia-Kirchner_0_1613838647.html
p2
aVhttps://www.clarin.com/politica/polemica-Carrio-intendentes-Ritondo-Provincia_0_1613838637.html
p3
aVhttps://www.clarin.com/politica/polemica-Carrio-intendentes-Ritondo-Provincia_0_1613838637.html
p4
aVhttps://www.clarin.com/sociedad/semana-Tucuman-sigue-fiesta-Bicentenario_0_1613838644.html
p5
aVhttps://www.clarin.com/sociedad/semana-Tucuman-sigue-fiesta-Bicentenario_0_1613838644.html
p6
aVhttps://www.clarin.com/sociedad/viaje-despedida-perra-cancer_0_1613838633.html
p7
aVhttps://www.clarin.com/sociedad/viaje-despedida-perra-cancer_0_1613838633.html
p8
a.