(lp0
S'https://www.clarin.com/politica/impuestos-coparticipacion-rogelio_frigerio-provincias_0_1521447871.html'
p1
aS'https://www.clarin.com/politica/Frente_Para_la_Victoria-Senado-Miguel_Angel_Pichetto_0_1521447863.html'
p2
aS'https://www.clarin.com/sociedad/Confirman-prediccion-Einstein-inicia-astronomia_0_1520848339.html'
p3
aS'https://www.clarin.com/politica/macri-preocupacion-deseo-paritarias_0_1521447853.html'
p4
aS'https://www.clarin.com/politica/impuestos-coparticipacion-rogelio_frigerio-provincias_0_1521447872.html'
p5
aS'https://www.clarin.com/politica/paritarias-macri-gremios_0_1521447854.html'
p6
aS'https://www.clarin.com/politica/Magistratura-destrabar-disputa-Tonelli_0_1521447852.html'
p7
aS'https://www.clarin.com/politica/Gobierno-abre-debate-duro-coparticipacion_0_1520848274.html'
p8
a.