(lp0
Vhttps://www.clarin.com/politica/Europa-abren-investigaciones-gobierno-CIA_0_1552645178.html
p1
aVhttps://www.clarin.com/politica/Europa-abren-investigaciones-gobierno-CIA_0_1552645178.html
p2
aVhttps://www.clarin.com/ieco/economia/Compraventa-inmuebles-CABA-crecio-febrero_0_1552645181.html
p3
aVhttps://www.clarin.com/sociedad/Celulares-aumentan-precios-prepago-oficial_0_1552645164.html
p4
aVhttps://www.clarin.com/sociedad/Celulares-aumentan-precios-prepago-oficial_0_1552645164.html
p5
a.