(lp0
Vhttps://www.clarin.com/politica/Gobierno-admite-Corte-costara-millones_0_1639636188.html
p1
aVhttps://www.clarin.com/sociedad/bella-sociedad-nazi-sale-barato_0_1639636185.html
p2
aVhttps://www.clarin.com/politica/lluvia-Maximo-cerro-marcha-Macri_0_1639636182.html
p3
aVhttps://www.clarin.com/sociedad/puerta-hace-accesible-cambio-celulares_0_1639636183.html
p4
aVhttps://www.clarin.com/sociedad/puerta-hace-accesible-cambio-celulares_0_1639636183.html
p5
aVhttps://www.clarin.com/politica/Faltazo-CEOs-argentinos-presidencial-China_0_1639636180.html
p6
aVhttps://www.clarin.com/politica/Faltazo-CEOs-argentinos-presidencial-China_0_1639636180.html
p7
aVhttps://www.clarin.com/sociedad/Conseguir-remedios-lucha-pacientes-cancer_0_1639636178.html
p8
aVhttps://www.clarin.com/sociedad/Conseguir-remedios-lucha-pacientes-cancer_0_1639636178.html
p9
aVhttps://www.clarin.com/sociedad/Vacaciones-trenes-malos-destinos-turisticos_0_1639636179.html
p10
a.