(lp0
S'https://www.clarin.com/sociedad/Muertes-Ecuador-detenidos-confeso-crimenes_0_1531647023.html'
p1
aS'https://www.clarin.com/sociedad/Muertes-Ecuador-detenidos-confeso-crimenes_0_1531647023.html'
p2
aS'https://www.clarin.com/ieco/Kicillof-delito-ventas-dolar-futuro_0_1531647019.html'
p3
aS'https://www.clarin.com/ieco/Kicillof-delito-ventas-dolar-futuro_0_1531647019.html'
p4
aS'https://www.clarin.com/politica/Gustavo-Vera-Stiuso-director-AFI_0_1531647006.html'
p5
aS'https://www.clarin.com/politica/Gustavo-Vera-Stiuso-director-AFI_0_1531647006.html'
p6
aS'https://www.clarin.com/ieco/economia/Advierten-alimentos-Gran-Buenos-Aires_0_1531646996.html'
p7
aS'https://www.clarin.com/ieco/economia/Advierten-alimentos-Gran-Buenos-Aires_0_1531646996.html'
p8
aS'https://www.clarin.com/sociedad/Tinder-profesiones-enamoran_0_1531646994.html'
p9
aS'https://www.clarin.com/sociedad/Tinder-profesiones-enamoran_0_1531646994.html'
p10
a.