(lp0
S'https://www.clarin.com/politica/Moyano-tiempo-salir-pelear-lejano_0_1612038929.html'
p1
aS'https://www.clarin.com/politica/gobernador-pidio-Macri-mande-Aranguren_0_1612038925.html'
p2
aS'https://www.clarin.com/politica/gobernador-pidio-Macri-mande-Aranguren_0_1612038925.html'
p3
aS'https://www.clarin.com/sociedad/Partio-Tierra-Fuego-varadas-Ezeiza_0_1612038919.html'
p4
aS'https://www.clarin.com/sociedad/Partio-Tierra-Fuego-varadas-Ezeiza_0_1612038919.html'
p5
aS'https://www.clarin.com/ieco/economia/consultoras-inflacion-junio_0_1612038918.html'
p6
aS'https://www.clarin.com/ieco/economia/Congreso-inflacion-junio_0_1612038917.html'
p7
a.