(lp0
Vhttps://www.clarin.com/sociedad/resolucion-problemas-capacidad-transversal_0_1657634364.html
p1
aVhttps://www.clarin.com/politica/declaracion-Stiuso-ampliarian-causa-Cristina_0_1657634362.html
p2
aVhttps://www.clarin.com/politica/declaracion-Stiuso-ampliarian-causa-Cristina_0_1657634362.html
p3
aVhttps://www.clarin.com/ieco/economia/agosto-volvio-caer-empleo_0_1657634360.html
p4
aVhttps://www.clarin.com/ieco/economia/agosto-volvio-caer-empleo_0_1657634360.html
p5
aVhttps://www.clarin.com/politica/Ritondo-prevenciones-llegar-tranquilos-fiestas_0_1657634351.html
p6
aVhttps://www.clarin.com/politica/Ritondo-prevenciones-llegar-tranquilos-fiestas_0_1657634351.html
p7
aVhttps://www.clarin.com/sociedad/Alto-WhatsApp-autoincrimina-Proyecto-XXX_0_1657634348.html
p8
aVhttps://www.clarin.com/sociedad/Alto-WhatsApp-autoincrimina-Proyecto-XXX_0_1657634348.html
p9
aVhttps://www.clarin.com/ieco/economia/metas-inflacion-dejan-crecimiento-economico_0_1657634342.html
p10
a.