(lp0
S'https://www.clarin.com/ieco/agricultura-debate-amigable-medio-ambiente_0_1557444480.html'
p1
aS'https://www.clarin.com/sociedad/Tomaron-Pellegrini-protesta-ascenso-preceptor_0_1557444495.html'
p2
aS'https://www.clarin.com/sociedad/astrofisico-Stephen-Hawking-exploracion-espacial_0_1557444483.html'
p3
aS'https://www.clarin.com/sociedad/Acusan-funcionaria-quedarse-valiosa-anciana_0_1557444475.html'
p4
aS'https://www.clarin.com/politica/Macri-Cristina-ausente_0_1557444487.html'
p5
aS'https://www.clarin.com/sociedad/Hablo-esperaba-mellizos-dieron-Quiero_0_1557444486.html'
p6
aS'https://www.clarin.com/ieco/Kicillof-Panama-Animales-Sueltos-Clarin_0_1557444496.html'
p7
a.