(lp0
S'https://www.clarin.com/politica/Papa-ordeno-suspender-Partido-Paz_0_1601240064.html'
p1
aS'https://www.clarin.com/politica/Cristobal-Lopez-Echegaray-indagatoria-defraudacion_0_1601240053.html'
p2
a.