(lp0
S'https://www.clarin.com/politica/Nafta-Super-huracan-Lilita_0_1577242437.html'
p1
aS'https://www.clarin.com/politica/oficialismo-vuelve-carga-vacantes-Corte_0_1577242436.html'
p2
aS'https://www.clarin.com/sociedad/alla-anti-aging-envejecimiento-positivo_0_1577242417.html'
p3
a.