(lp0
S'https://www.clarin.com/politica/Reunion-CGT-PJ-Scioli-dejaron_0_1650434980.html'
p1
aS'https://www.clarin.com/politica/Reunion-CGT-PJ-Scioli-dejaron_0_1650434980.html'
p2
aS'https://www.clarin.com/sociedad/sequia-parque-sudafricano-sacrifica-animales_0_1650434979.html'
p3
aS'https://www.clarin.com/sociedad/sequia-parque-sudafricano-sacrifica-animales_0_1650434979.html'
p4
aS'https://www.clarin.com/sociedad/Difunden-grande-preciso-Via-Lactea_0_1650434973.html'
p5
aS'https://www.clarin.com/sociedad/Difunden-grande-preciso-Via-Lactea_0_1650434973.html'
p6
aS'https://www.clarin.com/ieco/Prat-Gay-paritarias-reabrirse-inflacion-supera_0_1650434971.html'
p7
aS'https://www.clarin.com/ieco/Prat-Gay-paritarias-reabrirse-inflacion-supera_0_1650434971.html'
p8
aS'https://www.clarin.com/ieco/economia/Bayer-compra-Monsanto-US-millones_0_1650434970.html'
p9
aS'https://www.clarin.com/ieco/economia/Bayer-compra-Monsanto-US-millones_0_1650434970.html'
p10
aS'https://www.clarin.com/sociedad/viento-techos-Nacional-Buenos-Aires_0_1650434965.html'
p11
aS'https://www.clarin.com/sociedad/viento-techos-Nacional-Buenos-Aires_0_1650434965.html'
p12
a.