(lp0
Vhttps://www.clarin.com/politica/Argentina-apoya-Brasil-eje-bolivariano_0_1544245966.html
p1
aVhttps://www.clarin.com/politica/AFIP-desistio-embargar-cuentas-Lopez_0_1544245969.html
p2
aVhttps://www.clarin.com/politica/AFIP-desistio-embargar-cuentas-Lopez_0_1544245969.html
p3
aVhttps://www.clarin.com/politica/kirchnerismo-ataca-Baez-salvar-Cristina_0_1544245961.html
p4
aVhttps://www.clarin.com/politica/kirchnerismo-ataca-Baez-salvar-Cristina_0_1544245961.html
p5
aVhttps://www.clarin.com/politica/Leo-Farina-libertad-temores-kirchneristas_0_1544245947.html
p6
aVhttps://www.clarin.com/politica/Leo-Farina-libertad-temores-kirchneristas_0_1544245947.html
p7
aVhttps://www.clarin.com/sociedad/Plata-sufren-invasion-mil-estorninos_0_1544246030.html
p8
aVhttps://www.clarin.com/sociedad/Plata-sufren-invasion-mil-estorninos_0_1544246030.html
p9
aVhttps://www.clarin.com/sociedad/Baja-derroche-gente-litros-agua_0_1544246035.html
p10
aVhttps://www.clarin.com/sociedad/Baja-derroche-gente-litros-agua_0_1544246035.html
p11
aVhttps://www.clarin.com/sociedad/tuit-madrugada-termino-teatro_0_1544246016.html
p12
aVhttps://www.clarin.com/sociedad/tuit-madrugada-termino-teatro_0_1544246016.html
p13
a.