(lp0
Vhttps://www.clarin.com/sociedad/juego-chicos-discapacidad-suenan-grande_0_1657034440.html
p1
aVhttps://www.clarin.com/sociedad/juego-chicos-discapacidad-suenan-grande_0_1657034440.html
p2
aVhttps://www.clarin.com/politica/Elecciones-Macri-quiere-ministros-candidatos_0_1657034436.html
p3
aVhttps://www.clarin.com/politica/Elecciones-Macri-quiere-ministros-candidatos_0_1657034436.html
p4
aVhttps://www.clarin.com/sociedad/Futbol-motorizado-sedes-apoyo-economico_0_1657034435.html
p5
aVhttps://www.clarin.com/sociedad/Futbol-motorizado-sedes-apoyo-economico_0_1657034435.html
p6
aVhttps://www.clarin.com/politica/Diputados-reforma-electoral-complica-Senado_0_1655834598.html
p7
aVhttps://www.clarin.com/politica/Diputados-reforma-electoral-complica-Senado_0_1655834598.html
p8
aVhttps://www.clarin.com/politica/Sergio-Massa-Colombia-acuerdo-FARC_0_1657034424.html
p9
aVhttps://www.clarin.com/politica/Sergio-Massa-Colombia-acuerdo-FARC_0_1657034424.html
p10
aVhttps://www.clarin.com/opinion/Shakespeare-arte-alla-prejuicios_0_1657034423.html
p11
a.