(lp0
Vhttps://www.clarin.com/politica/Vido-subsidios-Aerolineas-financiar-peliculas_0_1675632439.html
p1
aVhttps://www.clarin.com/politica/Vido-subsidios-Aerolineas-financiar-peliculas_0_1675632439.html
p2
aVhttps://www.clarin.com/sociedad/Femicidio-Mendoza-quiero-muerte-Claudia_0_1675632438.html
p3
aVhttps://www.clarin.com/sociedad/Femicidio-Mendoza-quiero-muerte-Claudia_0_1675632438.html
p4
aVhttps://www.clarin.com/sociedad/Verdaderos-poetas-tablon-canciones-cancha_0_1675632437.html
p5
aVhttps://www.clarin.com/sociedad/Verdaderos-poetas-tablon-canciones-cancha_0_1675632437.html
p6
aVhttps://www.clarin.com/politica/gas-Carrio-paralizo-macrismo_0_1675632429.html
p7
aVhttps://www.clarin.com/politica/gas-Carrio-paralizo-macrismo_0_1675632429.html
p8
aVhttps://www.clarin.com/politica/antiguo-navio-corrupcion_0_1675632428.html
p9
aVhttps://www.clarin.com/politica/antiguo-navio-corrupcion_0_1675632428.html
p10
aVhttps://www.clarin.com/ieco/mitad-ocupados-gana_0_1675032646.html
p11
aVhttps://www.clarin.com/politica/Presupuesto-presion-oposicion-millones-provincias_0_1675032635.html
p12
a.