(lp0
S'https://www.clarin.com/sociedad/Mundos-intimos-chica-dio-robar_0_1605439585.html'
p1
aS'https://www.clarin.com/sociedad/Martin-Garcia-habitantes-turistas-abandonaron_0_1605439621.html'
p2
aS'https://www.clarin.com/opinion/secta-acorralada_0_1606039437.html'
p3
aS'https://www.clarin.com/politica/Fuerte-Carrio-confesion-Perez-Corradi_0_1605439597.html'
p4
aS'https://www.clarin.com/opinion/Apuesta-Carrio-Perez-Corradi_0_1606039436.html'
p5
aS'https://www.clarin.com/sociedad/Diga-estetoscopio-medicos-pronostico-reservado_0_1605439629.html'
p6
aS'https://www.clarin.com/opinion/Internet-profunda-toda-precaucion-poca_0_1605439611.html'
p7
a.