(lp0
S'https://www.clarin.com/politica/abogado-Jose-Lopez-seguian-servicios_0_1617438257.html'
p1
aS'https://www.clarin.com/politica/Declara-Jose-Lopez-entrar-convento_0_1617438262.html'
p2
aS'https://www.clarin.com/sociedad/Apelan-pena-escandalosa-recibio-Pistorius_0_1617438255.html'
p3
aS'https://www.clarin.com/sociedad/rara-enfermedad-pide-Facebook-eutanasia_0_1617438265.html'
p4
aS'https://www.clarin.com/sociedad/Compras-online-sabe-pagar-impuesto_0_1617438261.html'
p5
a.