(lp0
Vhttps://www.clarin.com/politica/paraliza-negociacion-Aerolineas-pilotos_0_1675032609.html
p1
aVhttps://www.clarin.com/politica/paraliza-negociacion-Aerolineas-pilotos_0_1675032609.html
p2
aVhttps://www.clarin.com/politica/Contrabando-detienen-aduanero-captura-Vido_0_1675032604.html
p3
aVhttps://www.clarin.com/politica/Contrabando-detienen-aduanero-captura-Vido_0_1675032604.html
p4
aVhttps://www.clarin.com/politica/Carrio-Diputados-proyecto-Gils-Carbo_0_1675032600.html
p5
aVhttps://www.clarin.com/politica/Carrio-Diputados-proyecto-Gils-Carbo_0_1675032600.html
p6
a.