(lp0
Vhttps://www.clarin.com/politica/Cristina-pidio-Magistratura-destituyan-Bonadio_0_1558644411.html
p1
aVhttps://www.clarin.com/politica/Cristina-pidio-Magistratura-destituyan-Bonadio_0_1558644411.html
p2
aVhttps://www.clarin.com/politica/Gobierno-Gils-Carbo-ofrecer-renuncia_0_1558644406.html
p3
aVhttps://www.clarin.com/politica/posible-Farina-cambiar-identidad-DNI_0_1558644294.html
p4
aVhttps://www.clarin.com/politica/posible-Farina-cambiar-identidad-DNI_0_1558644294.html
p5
aVhttps://www.clarin.com/ieco/Prat-Gay-afirmo-demanda-argentinos_0_1558644387.html
p6
aVhttps://www.clarin.com/ieco/Prat-Gay-afirmo-demanda-argentinos_0_1558644387.html
p7
aVhttps://www.clarin.com/sociedad/Autorizan-Brasil-polemica-pildora-cancer_0_1558644386.html
p8
aVhttps://www.clarin.com/sociedad/Autorizan-Brasil-polemica-pildora-cancer_0_1558644386.html
p9
a.