(lp0
Vhttps://www.clarin.com/sociedad/Afirma-mujer-secuestrada-familia-desconfia_0_1678632231.html
p1
aVhttps://www.clarin.com/sociedad/Afirma-mujer-secuestrada-familia-desconfia_0_1678632231.html
p2
aVhttps://www.clarin.com/ieco/Cayeron-fuerte-septiembre-industria-construccion_0_1678632227.html
p3
aVhttps://www.clarin.com/ieco/Cayeron-fuerte-septiembre-industria-construccion_0_1678632227.html
p4
a.