(lp0
Vhttps://www.clarin.com/sociedad/Cordera-perdon-anuncio-suspendera-shows_0_1633636643.html
p1
aVhttps://www.clarin.com/sociedad/Cordera-perdon-anuncio-suspendera-shows_0_1633636643.html
p2
aVhttps://www.clarin.com/politica/radical-ruido-vinculo-Aranguren-Shell_0_1633636654.html
p3
aVhttps://www.clarin.com/politica/radical-ruido-vinculo-Aranguren-Shell_0_1633636654.html
p4
aVhttps://www.clarin.com/politica/Ahora-detuvieron-Mendoza-amenazar-Macri_0_1633636651.html
p5
aVhttps://www.clarin.com/politica/Ahora-detuvieron-Mendoza-amenazar-Macri_0_1633636651.html
p6
aVhttps://www.clarin.com/ieco/Grupo-Clarin-propone-estructura-societaria_0_1633636649.html
p7
aVhttps://www.clarin.com/ieco/Cablevision-invirtio-millones-semestre_0_1633636646.html
p8
a.