(lp0
S'https://www.clarin.com/politica/Confesion-helicoptero_0_1501650275.html'
p1
aS'https://www.clarin.com/politica/canton-corrupcion-impunidad_0_1501650282.html'
p2
aS'https://www.clarin.com/politica/profugos-analisis_0_1501650283.html'
p3
aS'https://www.clarin.com/opinion/Juan_Bedoian_0_1501650256.html'
p4
aS'https://www.clarin.com/opinion/Horacio_Pagani_0_1501650255.html'
p5
a.