(lp0
Vhttps://www.clarin.com/politica/Justicia-paro-aumentos-gas-pais_0_1609039224.html
p1
aVhttps://www.clarin.com/politica/Justicia-paro-aumentos-gas-pais_0_1609039224.html
p2
aVhttps://www.clarin.com/sociedad/Asesino-mujer-punaladas-suicido-delante_0_1609039252.html
p3
aVhttps://www.clarin.com/sociedad/Asesino-mujer-punaladas-suicido-delante_0_1609039252.html
p4
aVhttps://www.clarin.com/politica/Frente-Victoria-emigran-diputados-entrerrianos_0_1609039253.html
p5
aVhttps://www.clarin.com/politica/Frente-Victoria-emigran-diputados-entrerrianos_0_1609039253.html
p6
aVhttps://www.clarin.com/politica/Festejos-oficiales-Bicentenario-manana-actividades_0_1609039235.html
p7
aVhttps://www.clarin.com/politica/Festejos-oficiales-Bicentenario-manana-actividades_0_1609039235.html
p8
a.