(lp0
S'https://www.clarin.com/sociedad/entregaron-envios-conviene-ropa-tecnologia_0_1672032958.html'
p1
aS'https://www.clarin.com/sociedad/supervedettes-arrinconan-Justicia-cirujano-top_0_1672032959.html'
p2
aS'https://www.clarin.com/politica/Macri-relanza-Cambiemos-acto-aliados_0_1672032957.html'
p3
a.