(lp0
S'https://www.clarin.com/ieco/economia/cimbronazo-dejara-secuelas-aprendizajes_0_1589841047.html'
p1
aS'https://www.clarin.com/ieco/economia/cimbronazo-dejara-secuelas-aprendizajes_0_1589841047.html'
p2
aS'https://www.clarin.com/ieco/economia/argentinos-cambio-habitos-frente-gondolas_0_1589841046.html'
p3
aS'https://www.clarin.com/ieco/economia/Crisis-consumo-revancha-almacen_0_1589841045.html'
p4
aS'https://www.clarin.com/ieco/economia/Crisis-consumo-revancha-almacen_0_1589841045.html'
p5
aS'https://www.clarin.com/ieco/economia/reactiva-mercado-venta-alquileres-oficinas_0_1589841044.html'
p6
aS'https://www.clarin.com/ieco/economia/tendencia-sustentabilidad_0_1589841043.html'
p7
aS'https://www.clarin.com/ieco/economia/descartamos-CNV-cobre-mercado_0_1589841042.html'
p8
aS'https://www.clarin.com/ieco/economia/descartamos-CNV-cobre-mercado_0_1589841042.html'
p9
aS'https://www.clarin.com/ieco/economia/Crear-subsidio-antidespido_0_1589841040.html'
p10
aS'https://www.clarin.com/ieco/economia/Crear-subsidio-antidespido_0_1589841040.html'
p11
aS'https://www.clarin.com/ieco/economia/Blanqueo-moratoria-reforma_0_1589841039.html'
p12
aS'https://www.clarin.com/ieco/economia/Blanqueo-moratoria-reforma_0_1589841039.html'
p13
aS'https://www.clarin.com/ieco/economia/Nadie-bien-causa-grandes-recesiones_0_1589841038.html'
p14
aS'https://www.clarin.com/ieco/economia/Consejo-modelo-genero_0_1589841036.html'
p15
aS'https://www.clarin.com/ieco/economia/Consejo-modelo-genero_0_1589841036.html'
p16
aS'https://www.clarin.com/ieco/economia/empleo-privado-da-senales-recuperacion_0_1589841035.html'
p17
aS'https://www.clarin.com/ieco/economia/impacta-envejecimiento-europeos-lucha-recesion_0_1589841032.html'
p18
aS'https://www.clarin.com/ieco/economia/impacta-envejecimiento-europeos-lucha-recesion_0_1589841032.html'
p19
a.