(lp0
S'https://www.clarin.com/sociedad/Encuentran-Oman-navio-portugues-hundido_0_1540646253.html'
p1
aS'https://www.clarin.com/sociedad/Encuentran-Oman-navio-portugues-hundido_0_1540646253.html'
p2
aS'https://www.clarin.com/ieco/economia/dolar-piso-bancos-mercado-mayorista_0_1540646126.html'
p3
aS'https://www.clarin.com/ieco/economia/dolar-piso-bancos-mercado-mayorista_0_1540646126.html'
p4
aS'https://www.clarin.com/ieco/economia/consumo-canasta-basica-cayo-enero_0_1540646251.html'
p5
aS'https://www.clarin.com/ieco/economia/consumo-canasta-basica-cayo-enero_0_1540646251.html'
p6
aS'https://www.clarin.com/politica/Volvieron-negarle-excarcelacion-Milagro-Sala_0_1540646248.html'
p7
aS'https://www.clarin.com/politica/Volvieron-negarle-excarcelacion-Milagro-Sala_0_1540646248.html'
p8
aS'https://www.clarin.com/sociedad/Macri-destaco-Brochero-ejemplo-argentinos_0_1540646247.html'
p9
aS'https://www.clarin.com/sociedad/Macri-destaco-Brochero-ejemplo-argentinos_0_1540646247.html'
p10
aS'https://www.clarin.com/sociedad/Crimen-mochileras-Juez-estrategia-exculpatoria_0_1540646240.html'
p11
aS'https://www.clarin.com/sociedad/Crimen-mochileras-Juez-estrategia-exculpatoria_0_1540646240.html'
p12
aS'https://www.clarin.com/sociedad/politicos-seducidos-mujeres-espectaculo_0_1540646225.html'
p13
aS'https://www.clarin.com/sociedad/politicos-seducidos-mujeres-espectaculo_0_1540646225.html'
p14
aS'https://www.clarin.com/politica/vota-sesion-clave-fondos-buitre_0_1540646224.html'
p15
aS'https://www.clarin.com/politica/vota-sesion-clave-fondos-buitre_0_1540646224.html'
p16
a.