(lp0
S'https://www.clarin.com/ieco/economia/inflacion-San-Luis-Capital-sigue_0_1582641798.html'
p1
aS'https://www.clarin.com/ieco/economia/inflacion-San-Luis-Capital-sigue_0_1582641798.html'
p2
aS'https://www.clarin.com/politica/gobernadores-patagonicos-tope-suba-suficiente_0_1582641924.html'
p3
aS'https://www.clarin.com/politica/PJ-disidente-reclamo-Fondo-Conurbano_0_1582641900.html'
p4
aS'https://www.clarin.com/politica/PJ-disidente-reclamo-Fondo-Conurbano_0_1582641900.html'
p5
aS'https://www.clarin.com/politica/Lanzan-juicios-jubilados-blanqueo-capitales_0_1582641944.html'
p6
aS'https://www.clarin.com/politica/Lanzan-juicios-jubilados-blanqueo-capitales_0_1582641944.html'
p7
aS'https://www.clarin.com/ieco/economia/Central-acentuo-recorte-tasas-inflacion_0_1582641901.html'
p8
aS'https://www.clarin.com/ieco/economia/Central-acentuo-recorte-tasas-inflacion_0_1582641901.html'
p9
aS'https://www.clarin.com/ieco/economia/tecnologica-Globant-compro-compania-inglesa_0_1582641788.html'
p10
aS'https://www.clarin.com/ieco/economia/tecnologica-Globant-compro-compania-inglesa_0_1582641788.html'
p11
aS'https://www.clarin.com/ieco/economia/Crecio-fuerte-importacion-bienes-consumo_0_1582641895.html'
p12
aS'https://www.clarin.com/ieco/economia/Crecio-fuerte-importacion-bienes-consumo_0_1582641895.html'
p13
aS'https://www.clarin.com/politica/Gobierno-sale-mostrar-llegada-inversiones_0_1582641952.html'
p14
aS'https://www.clarin.com/politica/Gobierno-sale-mostrar-llegada-inversiones_0_1582641952.html'
p15
aS'https://www.clarin.com/sociedad/Erica-Carlos-claves-fallo-Casanello_0_1583241666.html'
p16
a.