(lp0
Vhttps://www.clarin.com/sociedad/Mato-pareja-concubino-quiso-suicidarse_0_1682831709.html
p1
aVhttps://www.clarin.com/sociedad/Mato-pareja-concubino-quiso-suicidarse_0_1682831709.html
p2
aVhttps://www.clarin.com/sociedad/semana-agobiante-temperatura-podria-llover_0_1682831706.html
p3
aVhttps://www.clarin.com/sociedad/semana-agobiante-temperatura-podria-llover_0_1682831706.html
p4
aVhttps://www.clarin.com/politica/Fotos-imagenes-degradacion_0_1682831702.html
p5
aVhttps://www.clarin.com/politica/Rogelio-Frigerio-Boudou-Plaza-Mayo_0_1682831701.html
p6
aVhttps://www.clarin.com/politica/Rogelio-Frigerio-Boudou-Plaza-Mayo_0_1682831701.html
p7
aVhttps://www.clarin.com/politica/titulo-universitario-Daniel-Scioli-sospecha_0_1682231852.html
p8
aVhttps://www.clarin.com/politica/titulo-universitario-Daniel-Scioli-sospecha_0_1682231852.html
p9
a.