(lp0
S'https://www.clarin.com/sociedad/Tragedia-bordo-mueren-madre-chicos_0_1513049083.html'
p1
aS'https://www.clarin.com/sociedad/Hallaron-cuerpo-investigan-turista-argentino_0_1513049121.html'
p2
a.