(lp0
Vhttps://www.clarin.com/politica/exportadores-argentinos-tensiones-comerciales-Trump_0_1684031774.html
p1
aVhttps://www.clarin.com/politica/exportadores-argentinos-tensiones-comerciales-Trump_0_1684031774.html
p2
aVhttps://www.clarin.com/politica/Ottavis-escondio-embotellamiento-Puerto-Madero_0_1684031770.html
p3
aVhttps://www.clarin.com/politica/Ottavis-escondio-embotellamiento-Puerto-Madero_0_1684031770.html
p4
a.