(lp0
S'https://www.clarin.com/sociedad/necesita-trasplante-movilizo-toda-ciudad_0_1654034654.html'
p1
aS'https://www.clarin.com/sociedad/necesita-trasplante-movilizo-toda-ciudad_0_1654034654.html'
p2
aS'https://www.clarin.com/politica/Lapidario-judicial-empresas-Cristobal-Lopez_0_1653434792.html'
p3
aS'https://www.clarin.com/politica/Lapidario-judicial-empresas-Cristobal-Lopez_0_1653434792.html'
p4
aS'https://www.clarin.com/ieco/Prat-Gay-buscara-financiamiento-US-millones_0_1654034650.html'
p5
aS'https://www.clarin.com/ieco/Prat-Gay-buscara-financiamiento-US-millones_0_1654034650.html'
p6
aS'https://www.clarin.com/politica/Plan-Canje-Santa-Alicia-Kirchner_0_1654034581.html'
p7
aS'https://www.clarin.com/politica/Plan-Canje-Santa-Alicia-Kirchner_0_1654034581.html'
p8
aS'https://www.clarin.com/sociedad/Hallaron-andinista-perdido-pueden-llegar_0_1654034649.html'
p9
aS'https://www.clarin.com/sociedad/Hallaron-andinista-perdido-pueden-llegar_0_1654034649.html'
p10
aS'https://www.clarin.com/sociedad/Encuentran-esqueleto-barco-hundido-anos_0_1654034645.html'
p11
aS'https://www.clarin.com/sociedad/Encuentran-esqueleto-barco-hundido-anos_0_1654034645.html'
p12
a.