(lp0
Vhttps://www.clarin.com/sociedad/Nueva-cobertura-derivara-prepagas-sociales_0_1625237513.html
p1
aVhttps://www.clarin.com/sociedad/Nueva-cobertura-derivara-prepagas-sociales_0_1625237513.html
p2
aVhttps://www.clarin.com/ieco/despues-intervencion-concurso-directorio-Enargas_0_1625237512.html
p3
aVhttps://www.clarin.com/ieco/despues-intervencion-concurso-directorio-Enargas_0_1625237512.html
p4
aVhttps://www.clarin.com/ieco/canasta-alimentaria-aumento-julio_0_1625237511.html
p5
aVhttps://www.clarin.com/ieco/canasta-alimentaria-aumento-julio_0_1625237511.html
p6
aVhttps://www.clarin.com/politica/Senado-tarifazo-calefaccion-sesiones-andamios_0_1624637734.html
p7
aVhttps://www.clarin.com/politica/Senado-tarifazo-calefaccion-sesiones-andamios_0_1624637734.html
p8
aVhttps://www.clarin.com/ieco/aduanero-sospechado-encontro-refugio-Congreso_0_1624637618.html
p9
aVhttps://www.clarin.com/ieco/aduanero-sospechado-encontro-refugio-Congreso_0_1624637618.html
p10
aVhttps://www.clarin.com/ieco/Gobierno-ampliacion-Letra-US-millones_0_1625237504.html
p11
aVhttps://www.clarin.com/ieco/Gobierno-ampliacion-Letra-US-millones_0_1625237504.html
p12
aVhttps://www.clarin.com/sociedad/China-prueban-colectivo-futuro-arriba_0_1625237501.html
p13
aVhttps://www.clarin.com/sociedad/China-prueban-colectivo-futuro-arriba_0_1625237501.html
p14
a.