(lp0
S'https://www.clarin.com/politica/Macri-presidente-popular-Facebook-mundo_0_1507049530.html'
p1
aS'https://www.clarin.com/sociedad/mendocina-vacaciones-Ecuador-accidento-grave_0_1507049529.html'
p2
aS'https://www.clarin.com/ieco/Banco_Provincia-directorio-massismo-frente_renovador_0_1507049514.html'
p3
aS'https://www.clarin.com/politica/Julio_de_Vido-Elisa_Carrio_0_1507049534.html'
p4
aS'https://www.clarin.com/sociedad/Video-tiro-amante-marido-rio_0_1507049512.html'
p5
aS'https://www.clarin.com/politica/Carlos_Verna-La_Pampa-coparticipacion-Mauricio_Macri-Casa_Rosada_0_1507049535.html'
p6
aS'https://www.clarin.com/sociedad/anos-buscar-pelota-techo-murio_0_1507049518.html'
p7
aS'https://www.clarin.com/politica/Macri-Davos-seguridad_0_1507049527.html'
p8
aS'https://www.clarin.com/sociedad/Polemica-billete-pusieron-ballena-reves_0_1507049506.html'
p9
a.