(lp0
S'https://www.clarin.com/ieco/economia/carne-_aumento_0_1506449807.html'
p1
aS'https://www.clarin.com/politica/Encuesta-imagen-Cristina_Kirchner-Maria_Eugenia_Vidal_0_1507049426.html'
p2
aS'https://www.clarin.com/politica/Arroyo-Salgado-insiste-Nisman-mataron_0_1507049419.html'
p3
aS'https://www.clarin.com/ieco/economia/video-Cristina-pidio-sindicalistas-pelea_0_1507049413.html'
p4
aS'https://www.clarin.com/sociedad/turista-argentino-murio-ahogado-Uruguay_0_1507049418.html'
p5
a.