(lp0
Vhttps://www.clarin.com/sociedad/canillita-dono-exito-rinon-hijo_0_1602439831.html
p1
aVhttps://www.clarin.com/sociedad/canillita-dono-exito-rinon-hijo_0_1602439831.html
p2
aVhttps://www.clarin.com/sociedad/barrio-despidio-viejo-almacen_0_1600640098.html
p3
aVhttps://www.clarin.com/sociedad/barrio-despidio-viejo-almacen_0_1600640098.html
p4
aVhttps://www.clarin.com/politica/supuesta-Lazaro-quebrar-familia-Baez_0_1602439832.html
p5
aVhttps://www.clarin.com/politica/supuesta-Lazaro-quebrar-familia-Baez_0_1602439832.html
p6
a.