(lp0
Vhttps://www.clarin.com/politica/Vargas-Llosa-populismo-enorme-Argentina_0_1571242861.html
p1
aVhttps://www.clarin.com/politica/Vargas-Llosa-populismo-enorme-Argentina_0_1571242861.html
p2
aVhttps://www.clarin.com/opinion/Angustias-trae-amor_0_1570643074.html
p3
aVhttps://www.clarin.com/politica/Macri-duda-negociacion-antidespidos-ratifica_0_1570643144.html
p4
aVhttps://www.clarin.com/sociedad/Stinfale-papel-victimas-continuara-detenido_0_1570643138.html
p5
aVhttps://www.clarin.com/sociedad/Provincia-aseguran-volveran-micros_0_1570643136.html
p6
aVhttps://www.clarin.com/sociedad/medicos-recetar-farmacos-atender-pacientes_0_1570643131.html
p7
aVhttps://www.clarin.com/sociedad/medicos-recetar-farmacos-atender-pacientes_0_1570643131.html
p8
a.