(lp0
S'https://www.clarin.com/sociedad/Recetas-hacer-tipo-hamburguesas-casa_0_1522048010.html'
p1
aS'https://www.clarin.com/ieco/director-INDEC-preocupacion-Gobierno-inflacion_0_1522048006.html'
p2
aS'https://www.clarin.com/politica/Investigan-Perez-Corradi-participo-Paraguay_0_1522048037.html'
p3
aS'https://www.clarin.com/politica/Macri-mostrara-Randazzo-acto-Quilmes_0_1522047997.html'
p4
aS'https://www.clarin.com/sociedad/Luego-calor-tormenta-usuarios-metropolitana_0_1522047987.html'
p5
aS'https://www.clarin.com/ieco/recursos-humanos/Recursos_Humanos-empleos-busquedas_laborales_0_1522048031.html'
p6
aS'https://www.clarin.com/sociedad/cuarteto-concientizar-dengue-furor-redes_0_1522048025.html'
p7
a.