(lp0
S'https://www.clarin.com/opinion/mano-Papa-ruta-dinero_0_1560443977.html'
p1
aS'https://www.clarin.com/opinion/Discuten-Gobierno-pacto-gobernabilidad_0_1560443973.html'
p2
aS'https://www.clarin.com/politica/puntos-clave-anuncios-Presidente_0_1560443982.html'
p3
aS'https://www.clarin.com/opinion/proteger-denuncia-ninos-viven-violento_0_1559844391.html'
p4
aS'https://www.clarin.com/opinion/agua-llegue-cuello_0_1560443975.html'
p5
aS'https://www.clarin.com/sociedad/Gobierno-organizacion-cumplio-requisitos_0_1559844440.html'
p6
aS'https://www.clarin.com/sociedad/Sociedad-discreta-batalladora-argentina-claro_0_1559844338.html'
p7
aS'https://www.clarin.com/sociedad/Noche-control-chicos-fiesta-electronica_0_1559844439.html'
p8
aS'https://www.clarin.com/politica/Elogios-Carrio-UCR-reparos-peronismo_0_1560443983.html'
p9
aS'https://www.clarin.com/politica/oficial-Chueco-quiso-tirar-Cataratas_0_1560443998.html'
p10
aS'https://www.clarin.com/politica/Casanello-procesaria-Baez-preventiva-Clarens_0_1559844264.html'
p11
a.