(lp0
S'https://www.clarin.com/politica/Macri-recargado-pedido-hinchada_0_1532247226.html'
p1
aS'https://www.clarin.com/opinion/Justicia-ejercicio-cotidiano-ciudadania_0_1532247163.html'
p2
aS'https://www.clarin.com/opinion/Cancilleria-siglo-XXI_0_1532247161.html'
p3
aS'https://www.clarin.com/sociedad/Argentina-peritos-doble-crimen-Ecuador_0_1532247182.html'
p4
aS'https://www.clarin.com/opinion/politica-vuelve-Congreso_0_1532846719.html'
p5
aS'https://www.clarin.com/politica/Santa-Cruz-Alicia-herencia-antecesor_0_1532247183.html'
p6
aS'https://www.clarin.com/politica/Vidal-llamo-unidad-hacerme-rica_0_1532247224.html'
p7
aS'https://www.clarin.com/opinion/disparo-corazon-relato_0_1532846721.html'
p8
aS'https://www.clarin.com/opinion/IVA-dolar-delicada-compensacion_0_1532846723.html'
p9
aS'https://www.clarin.com/opinion/Examen-candidatos-Corte_0_1532247156.html'
p10
a.