(lp0
Vhttps://www.clarin.com/sociedad/Horacio-Rodriguez-Larreta-lectivo-Ciudad_0_1531647148.html
p1
aVhttps://www.clarin.com/sociedad/Horacio-Rodriguez-Larreta-lectivo-Ciudad_0_1531647148.html
p2
aVhttps://www.clarin.com/politica/Citaron-representantes-Cambiemos-marcha-Congreso_0_1531647150.html
p3
aVhttps://www.clarin.com/politica/Citaron-representantes-Cambiemos-marcha-Congreso_0_1531647150.html
p4
aVhttps://www.clarin.com/ieco/dolar-sube-centavos_0_1531647088.html
p5
aVhttps://www.clarin.com/ieco/acuerdo-buitres-permitira-mercados-inmediatamente_0_1531647137.html
p6
aVhttps://www.clarin.com/ieco/acuerdo-buitres-permitira-mercados-inmediatamente_0_1531647137.html
p7
aVhttps://www.clarin.com/sociedad/Video-encontraron-turistas-mendocinas-asesinadas_0_1531647067.html
p8
aVhttps://www.clarin.com/sociedad/Video-encontraron-turistas-mendocinas-asesinadas_0_1531647067.html
p9
aVhttps://www.clarin.com/sociedad/Chaco-pediatra-dias-guardia-descanso_0_1531647124.html
p10
aVhttps://www.clarin.com/sociedad/Chaco-pediatra-dias-guardia-descanso_0_1531647124.html
p11
aVhttps://www.clarin.com/politica/Cristobal-Lopez-multimedio-inversiones-millonarias_0_1531647117.html
p12
a.