(lp0
S'https://www.clarin.com/sociedad/Callejeros-Ezeiza-Fontanet-traslado-Cordoba_0_1554444740.html'
p1
aS'https://www.clarin.com/politica/Vanoli-justifico-Bonadio-venta-futuro_0_1554444785.html'
p2
aS'https://www.clarin.com/sociedad/Rioja-desplazaron-funcionaria-declaraciones-femicidio_0_1554444784.html'
p3
aS'https://www.clarin.com/ieco/economia/Condenan-empresarios-retenciones-Ingresos-Brutos_0_1554444773.html'
p4
aS'https://www.clarin.com/sociedad/remedios-PAMI-saco-cobertura-gratuita_0_1554444778.html'
p5
aS'https://www.clarin.com/politica/Pinedo-desliga-Cristina-futuro-Vanoli_0_1554444776.html'
p6
a.