(lp0
Vhttps://www.clarin.com/opinion/mitos-juicio-jurados_0_1660034117.html
p1
aVhttps://www.clarin.com/sociedad/Paran-docentes-universitarios-proximo-martes_0_1660034102.html
p2
aVhttps://www.clarin.com/sociedad/Paran-docentes-universitarios-proximo-martes_0_1660034102.html
p3
a.