(lp0
Vhttps://www.clarin.com/opinion/victoria-Trump-globalizacion_0_1686431343.html
p1
aVhttps://www.clarin.com/opinion/teme-Donald-Trump_0_1686431342.html
p2
aVhttps://www.clarin.com/ieco/campus-ieco/incubadoras-empresas-expanden-provincias_0_1685231633.html
p3
aVhttps://www.clarin.com/ieco/campus-ieco/incubadoras-empresas-expanden-provincias_0_1685231633.html
p4
aVhttps://www.clarin.com/ieco/economia/Marcos-Brujis-veran-resultados-favorables_0_1685231616.html
p5
aVhttps://www.clarin.com/ieco/economia/Marcos-Brujis-veran-resultados-favorables_0_1685231616.html
p6
aVhttps://www.clarin.com/ieco/economia/claves-Argentina-post-Trump_0_1685231606.html
p7
aVhttps://www.clarin.com/ieco/economia/claves-Argentina-post-Trump_0_1685231606.html
p8
aVhttps://www.clarin.com/politica/supone-llegas-presidente-diste-dar_0_1685231571.html
p9
aVhttps://www.clarin.com/politica/supone-llegas-presidente-diste-dar_0_1685231571.html
p10
aVhttps://www.clarin.com/politica/Gobierno-decreto-endurecer-controles-migratorios_0_1685831570.html
p11
aVhttps://www.clarin.com/politica/Gobierno-decreto-endurecer-controles-migratorios_0_1685831570.html
p12
a.