(lp0
S'https://www.clarin.com/politica/Declara-Ines-sospechosa-Jose-Lopez_0_1624037648.html'
p1
aS'https://www.clarin.com/politica/Declara-Ines-sospechosa-Jose-Lopez_0_1624037648.html'
p2
aS'https://www.clarin.com/sociedad/Sorpresa-Bariloche-aparecio-patio-casa_0_1624037647.html'
p3
aS'https://www.clarin.com/sociedad/Sorpresa-Bariloche-aparecio-patio-casa_0_1624037647.html'
p4
aS'https://www.clarin.com/ieco/China-derrotaron-Uber-taxistas_0_1624037644.html'
p5
aS'https://www.clarin.com/ieco/China-derrotaron-Uber-taxistas_0_1624037644.html'
p6
a.