(lp0
S'https://www.clarin.com/politica/Ocana-Casanello-investigar-Cristina-Kirchner_0_1640236045.html'
p1
aS'https://www.clarin.com/ieco/tecnologia/Comienza-cine-renueva-records-taquilla_0_1639036250.html'
p2
aS'https://www.clarin.com/ieco/tecnologia/anos-Web-euforia-puntocom-tweets_0_1639036262.html'
p3
aS'https://www.clarin.com/ieco/Blanqueo-ROS-encienden-luces_0_1639036275.html'
p4
aS'https://www.clarin.com/sociedad/incendio-forestal-San-Luis-hectareas_0_1640235991.html'
p5
aS'https://www.clarin.com/sociedad/rugbier-pelea-lesion-volver-caminar_0_1640236042.html'
p6
aS'https://www.clarin.com/sociedad/tragedia-consiguio-levantar-ultimo-instante_0_1640235985.html'
p7
aS'https://www.clarin.com/sociedad/Cuerpo-humano-atletas-podrian-records_0_1639636171.html'
p8
a.