(lp0
Vhttps://www.clarin.com/politica/llegada-Carlos-Rosenkrantz-Corte-equilibrios_0_1636636453.html
p1
aVhttps://www.clarin.com/politica/llegada-Carlos-Rosenkrantz-Corte-equilibrios_0_1636636453.html
p2
aVhttps://www.clarin.com/politica/llamada-amenazas-gobernacion-bonaerense-carcel_0_1636636463.html
p3
aVhttps://www.clarin.com/ieco/economia/correccion-gas-inflacion-agosto-rondaria_0_1636636450.html
p4
aVhttps://www.clarin.com/ieco/economia/correccion-gas-inflacion-agosto-rondaria_0_1636636450.html
p5
aVhttps://www.clarin.com/ieco/economia/San-Luis-inflacion-julio_0_1636636454.html
p6
aVhttps://www.clarin.com/ieco/economia/San-Luis-inflacion-julio_0_1636636454.html
p7
aVhttps://www.clarin.com/politica/Denuncian-fiscales-investigacion-Mauricio-Macri_0_1636636451.html
p8
aVhttps://www.clarin.com/politica/Denuncian-fiscales-investigacion-Mauricio-Macri_0_1636636451.html
p9
a.