(lp0
S'https://www.clarin.com/opinion/Auschwitz-Dia_Internacional_de_Conmemoracion_del_Holocausto-memoria_historica_0_1511848827.html'
p1
aS'https://www.clarin.com/politica/Argentina-Cristina-quedo-paises-corruptos_0_1511848812.html'
p2
aS'https://www.clarin.com/politica/Argentina-Cristina-quedo-paises-corruptos_0_1511848812.html'
p3
aS'https://www.clarin.com/ieco/Canasta_basica-IVA-Buryaile_0_1511848820.html'
p4
aS'https://www.clarin.com/ieco/Coparticipacion-Decreto_15-Rogelio_Frigerio-gobernadores_0_1511848819.html'
p5
aS'https://www.clarin.com/sociedad/ocaso-Gigolo-noche-bizarra-Pinamar_0_1511249266.html'
p6
aS'https://www.clarin.com/sociedad/ocaso-Gigolo-noche-bizarra-Pinamar_0_1511249266.html'
p7
aS'https://www.clarin.com/politica/Mercau-Milagro-Sala-Morales_0_1511848815.html'
p8
aS'https://www.clarin.com/politica/Cordoba-Mauricio_Macri-Juan_Schiaretti_0_1511848814.html'
p9
a.