(lp0
Vhttps://www.clarin.com/politica/Gracias-honestidad-DElia-Boudou-cumpleanos_0_1690031049.html
p1
aVhttps://www.clarin.com/politica/Gracias-honestidad-DElia-Boudou-cumpleanos_0_1690031049.html
p2
aVhttps://www.clarin.com/sociedad/Pagaron-millones-plancha-original-Tintin_0_1690031046.html
p3
aVhttps://www.clarin.com/sociedad/Pagaron-millones-plancha-original-Tintin_0_1690031046.html
p4
a.