(lp0
Vhttps://www.clarin.com/politica/Sabbatella-volver-AFSCA-dejaron-entrar_0_1504649647.html
p1
aVhttps://www.clarin.com/politica/Sabbatella-volver-AFSCA-dejaron-entrar_0_1504649647.html
p2
aVhttps://www.clarin.com/politica/Lombardi-suma-cineasta-medios-publicos_0_1504649642.html
p3
aVhttps://www.clarin.com/politica/Lombardi-suma-cineasta-medios-publicos_0_1504649642.html
p4
aVhttps://www.clarin.com/ieco/economia/fondos_buitre-default-citibank-thomas_griesa_0_1504050062.html
p5
aVhttps://www.clarin.com/ieco/tecnologia/Patagon-PayPal-Wenceslao_Casares_0_1504049871.html
p6
aVhttps://www.clarin.com/ieco/tecnologia/Patagon-PayPal-Wenceslao_Casares_0_1504049871.html
p7
aVhttps://www.clarin.com/ieco/economia/INDEC-recomienda-Ciudad-San-Luis_0_1504049862.html
p8
aVhttps://www.clarin.com/ieco/economia/INDEC-recomienda-Ciudad-San-Luis_0_1504049862.html
p9
aVhttps://www.clarin.com/sociedad/Radio_y_Television_Argentina_-RTA-Radio_Nacional-TV_Publica-Telam-Lombardi-Sigal-Pereira_0_1504050085.html
p10
aVhttps://www.clarin.com/ieco/emprendedores/errores-muestran-camino-seguir_0_1504049903.html
p11
aVhttps://www.clarin.com/ieco/emprendedores/errores-muestran-camino-seguir_0_1504049903.html
p12
a.