(lp0
S'https://www.clarin.com/sociedad/Estudian-Ciudad-utilizacion-pulseras-violencia_0_1538846456.html'
p1
aS'https://www.clarin.com/sociedad/mensajes-texto-comprometen-intendente-Calera_0_1538846446.html'
p2
aS'https://www.clarin.com/opinion/ordena-joven-delgado-fibroso-pulcro_0_1538846474.html'
p3
a.