(lp0
Vhttps://www.clarin.com/politica/Triple_Crimen-Anibal_Fernandez-Elisa_Carrio-homicidio_0_1516048386.html
p1
aVhttps://www.clarin.com/opinion/Juan_Carlos_Diez-Pasiones_argentinas_0_1516048385.html
p2
aVhttps://www.clarin.com/politica/Escuchas_ilegales-excunado-Mauricio_Macri-juicio_0_1516048383.html
p3
aVhttps://www.clarin.com/sociedad/Miss-Argentina-atropello-agente-transito_0_1515448871.html
p4
aVhttps://www.clarin.com/sociedad/Miss-Argentina-atropello-agente-transito_0_1515448871.html
p5
a.