(lp0
S'https://www.clarin.com/sociedad/rascacielos-subterraneos-vida-dentro-anos_0_1523847857.html'
p1
aS'https://www.clarin.com/politica/Ricardo_Lorenzetti-Corte-jueces_federales_0_1523847875.html'
p2
aS'https://www.clarin.com/politica/catarata-tuits-Alfredo-Casero-kirchnerista_0_1523847861.html'
p3
aS'https://www.clarin.com/politica/Guillermo-Moreno-profesora-Bevacqua-caballeros_0_1523847820.html'
p4
aS'https://www.clarin.com/politica/Alejandra_Gils_Carbo-Roberto_Carles-candidato_K-Corte_0_1523847860.html'
p5
aS'https://www.clarin.com/sociedad/incendio-snack-Glaciar-Perito-Moreno_0_1523847865.html'
p6
aS'https://www.clarin.com/politica/Anibal-Fernandez-despegarse-Qunita-concursos_0_1523847851.html'
p7
a.