(lp0
S'https://www.clarin.com/sociedad/Roban-obras-Francis-Bacon-Madrid_0_1540046104.html'
p1
aS'https://www.clarin.com/sociedad/Roban-obras-Francis-Bacon-Madrid_0_1540046104.html'
p2
aS'https://www.clarin.com/politica/Mariotto-declarar-irregular-fondos-Futbol_0_1540046092.html'
p3
aS'https://www.clarin.com/politica/Mariotto-declarar-irregular-fondos-Futbol_0_1540046092.html'
p4
aS'https://www.clarin.com/ieco/economia/Cerveceria-Quilmes-empresa-financiar-emprendedores_0_1540046087.html'
p5
aS'https://www.clarin.com/politica/Grupo-Indalo-deuda-AFIP-ilegal_0_1539446292.html'
p6
a.