(lp0
S'https://www.clarin.com/sociedad/restaurante-hermanos-Messi_0_1541845947.html'
p1
aS'https://www.clarin.com/sociedad/restaurante-hermanos-Messi_0_1541845947.html'
p2
aS'https://www.clarin.com/sociedad/jovenes-admite-manejado-alcoholizado_0_1541845942.html'
p3
aS'https://www.clarin.com/sociedad/jovenes-admite-manejado-alcoholizado_0_1541845942.html'
p4
aS'https://www.clarin.com/politica/Ruta-dinero-complica-Iliana-Calabro_0_1541845938.html'
p5
aS'https://www.clarin.com/politica/Ruta-dinero-complica-Iliana-Calabro_0_1541845938.html'
p6
aS'https://www.clarin.com/ieco/economia/Corporacion-Financiera-Internacional-tecnologica-argentina_0_1541845933.html'
p7
aS'https://www.clarin.com/ieco/economia/Corporacion-Financiera-Internacional-tecnologica-argentina_0_1541845933.html'
p8
aS'https://www.clarin.com/politica/Elaskar-mande-solo-pelotudo_0_1541845921.html'
p9
aS'https://www.clarin.com/politica/Elaskar-mande-solo-pelotudo_0_1541845921.html'
p10
a.