(lp0
S'https://www.clarin.com/politica/Vidal-Carrio-Stolbizer-Cristina-bonaerense_0_1609639190.html'
p1
aS'https://www.clarin.com/politica/Vidal-Carrio-Stolbizer-Cristina-bonaerense_0_1609639190.html'
p2
aS'https://www.clarin.com/opinion/fanatismo-smartphones_0_1609639130.html'
p3
aS'https://www.clarin.com/sociedad/Quesos-clasicos-imbatibles-Caminos-Sabores_0_1609639187.html'
p4
aS'https://www.clarin.com/sociedad/Quesos-clasicos-imbatibles-Caminos-Sabores_0_1609639187.html'
p5
aS'https://www.clarin.com/politica/Pinedo-advierte-frenan-tarifa-inflacion_0_1609639149.html'
p6
aS'https://www.clarin.com/politica/Pinedo-advierte-frenan-tarifa-inflacion_0_1609639149.html'
p7
aS'https://www.clarin.com/sociedad/Frente-Teatro-Colon-popular-recibir_0_1609639200.html'
p8
aS'https://www.clarin.com/politica/Macri-hablo-saqueo-justifico-tarifazo_0_1609639197.html'
p9
aS'https://www.clarin.com/politica/Macri-hablo-saqueo-justifico-tarifazo_0_1609639197.html'
p10
aS'https://www.clarin.com/politica/distribuidoras-salieron-defender-aumento_0_1609639194.html'
p11
aS'https://www.clarin.com/politica/Juicios-Jubilados-prioridad-mayores-inscriban_0_1609639195.html'
p12
a.