(lp0
S'https://www.clarin.com/politica/Macri-encuentra-reunido-Hollande_0_1606039471.html'
p1
aS'https://www.clarin.com/politica/Massa-compromiso-FPV-Congreso-corrupcion_0_1606039465.html'
p2
aS'https://www.clarin.com/politica/confusion-fundacion-Papa-donacion-Gobierno_0_1606039468.html'
p3
aS'https://www.clarin.com/sociedad/maestra-escribio-Messi-compra-utiles_0_1606039460.html'
p4
aS'https://www.clarin.com/politica/mansion-Lopez-contratista-obra-publica_0_1606039467.html'
p5
a.