(lp0
Vhttps://www.clarin.com/sociedad/Tomaron-Pellegrini-protesta-ascenso-preceptor_0_1557444495.html
p1
aVhttps://www.clarin.com/sociedad/Tomaron-Pellegrini-protesta-ascenso-preceptor_0_1557444495.html
p2
aVhttps://www.clarin.com/ieco/Kicillof-Panama-Animales-Sueltos-Clarin_0_1557444496.html
p3
aVhttps://www.clarin.com/ieco/Kicillof-Panama-Animales-Sueltos-Clarin_0_1557444496.html
p4
aVhttps://www.clarin.com/politica/Macri-Cristina-ausente_0_1557444487.html
p5
aVhttps://www.clarin.com/politica/Macri-Cristina-ausente_0_1557444487.html
p6
aVhttps://www.clarin.com/ieco/agricultura-debate-amigable-medio-ambiente_0_1557444480.html
p7
aVhttps://www.clarin.com/ieco/agricultura-debate-amigable-medio-ambiente_0_1557444480.html
p8
aVhttps://www.clarin.com/sociedad/Hablo-esperaba-mellizos-dieron-Quiero_0_1557444486.html
p9
aVhttps://www.clarin.com/sociedad/astrofisico-Stephen-Hawking-exploracion-espacial_0_1557444483.html
p10
aVhttps://www.clarin.com/sociedad/astrofisico-Stephen-Hawking-exploracion-espacial_0_1557444483.html
p11
aVhttps://www.clarin.com/sociedad/Acusan-funcionaria-quedarse-valiosa-anciana_0_1557444475.html
p12
aVhttps://www.clarin.com/sociedad/Acusan-funcionaria-quedarse-valiosa-anciana_0_1557444475.html
p13
a.