(lp0
Vhttps://www.clarin.com/ieco/economia/Tentados-blanqueo-bancos-inversion-internacionales_0_1680432018.html
p1
aVhttps://www.clarin.com/ieco/economia/Tentados-blanqueo-bancos-inversion-internacionales_0_1680432018.html
p2
aVhttps://www.clarin.com/sociedad/sedante-elefantes-nueva-droga-EEUU_0_1680432015.html
p3
aVhttps://www.clarin.com/sociedad/sedante-elefantes-nueva-droga-EEUU_0_1680432015.html
p4
aVhttps://www.clarin.com/ieco/Samsung-desembarca-Habana_0_1680432010.html
p5
aVhttps://www.clarin.com/ieco/Samsung-desembarca-Habana_0_1680432010.html
p6
aVhttps://www.clarin.com/sociedad/oculto-testigo-asesinato-hermana-mama_0_1680432009.html
p7
aVhttps://www.clarin.com/sociedad/oculto-testigo-asesinato-hermana-mama_0_1680432009.html
p8
aVhttps://www.clarin.com/politica/Sauces-Cristina-nulidad-tasacion-propiedades_0_1680432006.html
p9
aVhttps://www.clarin.com/politica/Sauces-Cristina-nulidad-tasacion-propiedades_0_1680432006.html
p10
aVhttps://www.clarin.com/politica/Indagan-Luis-DElia-ingreso-Anses_0_1680431971.html
p11
aVhttps://www.clarin.com/politica/Indagan-Luis-DElia-ingreso-Anses_0_1680431971.html
p12
aVhttps://www.clarin.com/politica/Rio-Gallegos-millones-Lazaro-Baez_0_1680431977.html
p13
aVhttps://www.clarin.com/politica/Rio-Gallegos-millones-Lazaro-Baez_0_1680431977.html
p14
aVhttps://www.clarin.com/politica/diputado-advierte-Macri-pintados-Gobierno_0_1680432004.html
p15
aVhttps://www.clarin.com/politica/diputado-advierte-Macri-pintados-Gobierno_0_1680432004.html
p16
a.