(lp0
Vhttps://www.clarin.com/politica/Humo-prohibido-Guillote-casado_0_1564643662.html
p1
aVhttps://www.clarin.com/politica/Humo-prohibido-Guillote-casado_0_1564643662.html
p2
aVhttps://www.clarin.com/ieco/economia/Millonaria-Banco-Mundial-energias-renovables_0_1564643645.html
p3
aVhttps://www.clarin.com/ieco/economia/Millonaria-Banco-Mundial-energias-renovables_0_1564643645.html
p4
aVhttps://www.clarin.com/ieco/economia/Millonaria-Banco-Mundial-energias-renovables_0_1564643639.html
p5
aVhttps://www.clarin.com/ieco/economia/Millonaria-Banco-Mundial-energias-renovables_0_1564643639.html
p6
aVhttps://www.clarin.com/ieco/Negocian-comercio-Brasil-viaja-Cabrera_0_1564643641.html
p7
aVhttps://www.clarin.com/ieco/Negocian-comercio-Brasil-viaja-Cabrera_0_1564643641.html
p8
aVhttps://www.clarin.com/ieco/Inundaciones-perdidas-llegan-cosecha-soja_0_1564643640.html
p9
aVhttps://www.clarin.com/ieco/Inundaciones-perdidas-llegan-cosecha-soja_0_1564643640.html
p10
aVhttps://www.clarin.com/ieco/Eurnekian-Rusia-arranque-central-Chihuidos_0_1564643628.html
p11
aVhttps://www.clarin.com/ieco/Eurnekian-Rusia-arranque-central-Chihuidos_0_1564643628.html
p12
aVhttps://www.clarin.com/opinion/Secretos-eludir-rutina_0_1564643680.html
p13
aVhttps://www.clarin.com/politica/Nueva-complicacion-Grindetti-causa-Brasil_0_1564643694.html
p14
aVhttps://www.clarin.com/politica/Nueva-complicacion-Grindetti-causa-Brasil_0_1564643694.html
p15
a.