(lp0
Vhttps://www.clarin.com/politica/Echegaray-ahora-Baez-terminar-preso_0_1546645519.html
p1
aVhttps://www.clarin.com/politica/Echegaray-ahora-Baez-terminar-preso_0_1546645519.html
p2
aVhttps://www.clarin.com/politica/Macri-apabullado-asqueado-videos-Rosadita_0_1546645515.html
p3
aVhttps://www.clarin.com/politica/Macri-apabullado-asqueado-videos-Rosadita_0_1546645515.html
p4
aVhttps://www.clarin.com/politica/cebo-mate-Obama-Rosada_0_1546645513.html
p5
aVhttps://www.clarin.com/politica/cebo-mate-Obama-Rosada_0_1546645513.html
p6
aVhttps://www.clarin.com/ieco/economia/argentina-podria-entrar-EEUU-Buryaile_0_1546645506.html
p7
aVhttps://www.clarin.com/ieco/economia/AFIP-posterga-nuevamente-Factura-Electronica_0_1546645499.html
p8
aVhttps://www.clarin.com/sociedad/hallado-burundanga-cuerpos-muertas-Ecuador_0_1546645495.html
p9
aVhttps://www.clarin.com/sociedad/hallado-burundanga-cuerpos-muertas-Ecuador_0_1546645495.html
p10
a.