(lp0
S'https://www.clarin.com/opinion/Cristina-sigue-mismo-pais_0_1558644140.html'
p1
aS'https://www.clarin.com/opinion/ex-presidenta-volvio-ido_0_1558644142.html'
p2
aS'https://www.clarin.com/politica/Bonadio-molestan-cantitos-peronistas_0_1558044639.html'
p3
aS'https://www.clarin.com/sociedad/Aerolineas-Lan-sumaron-vuelos-semana_0_1558044656.html'
p4
aS'https://www.clarin.com/opinion/Luchar-corrupcion-jueces_0_1558044588.html'
p5
aS'https://www.clarin.com/opinion/regreso-Cristina-discurso-destituyente_0_1558044585.html'
p6
aS'https://www.clarin.com/politica/Dolar-Cristina-contesto-preguntas-politico_0_1558644146.html'
p7
aS'https://www.clarin.com/sociedad/Piden-cautela-cannabis-tratar-epilepsia_0_1558044622.html'
p8
aS'https://www.clarin.com/opinion/cambio-aire-vida-democratica_0_1558044562.html'
p9
aS'https://www.clarin.com/politica/Piden-reabrir-causa-Skanska_0_1558044643.html'
p10
aS'https://www.clarin.com/politica/argumentos-usaria-Bonadio-procesar-Cristina_0_1558044609.html'
p11
a.