(lp0
S'https://www.clarin.com/sociedad/Tragedia-Costa-Salguero-Casanello-indagatorias_0_1565843473.html'
p1
aS'https://www.clarin.com/sociedad/Tragedia-Costa-Salguero-Casanello-indagatorias_0_1565843473.html'
p2
aS'https://www.clarin.com/politica/Ley-antidespidos-presion-macrismo-gobernadores_0_1565843471.html'
p3
aS'https://www.clarin.com/politica/Ley-antidespidos-presion-macrismo-gobernadores_0_1565843471.html'
p4
aS'https://www.clarin.com/sociedad/mandamientos-pasta-mejor-chef-italiano_0_1565843466.html'
p5
aS'https://www.clarin.com/sociedad/mandamientos-pasta-mejor-chef-italiano_0_1565843466.html'
p6
aS'https://www.clarin.com/sociedad/columna-Pagni-blindaje-judicial-CFK_0_1565843467.html'
p7
aS'https://www.clarin.com/sociedad/columna-Pagni-blindaje-judicial-CFK_0_1565843467.html'
p8
a.