(lp0
Vhttps://www.clarin.com/politica/campana_antartica-Golovnin-buquepolar-Martinez-Defensa_0_1511249250.html
p1
aVhttps://www.clarin.com/politica/campana_antartica-Golovnin-buquepolar-Martinez-Defensa_0_1511249250.html
p2
aVhttps://www.clarin.com/politica/Hebe-Bonafini-Macri-gobierno-dictadura_0_1511249228.html
p3
aVhttps://www.clarin.com/politica/Hebe-Bonafini-Macri-gobierno-dictadura_0_1511249228.html
p4
aVhttps://www.clarin.com/sociedad/Video-aparecen-ballenas-muertas-Inglaterra_0_1511249226.html
p5
aVhttps://www.clarin.com/sociedad/Video-aparecen-ballenas-muertas-Inglaterra_0_1511249226.html
p6
aVhttps://www.clarin.com/sociedad/Encontraron-vida-hombre-anos-perdido_0_1511249224.html
p7
aVhttps://www.clarin.com/sociedad/Encontraron-vida-hombre-anos-perdido_0_1511249224.html
p8
aVhttps://www.clarin.com/ieco/economia/dolar-oficial-sigue-subiendo_0_1511249209.html
p9
a.