(lp0
Vhttps://www.clarin.com/sociedad/Ambientalistas-salvaron-langosta-terminar-restaurante_0_1617438328.html
p1
aVhttps://www.clarin.com/sociedad/Ambientalistas-salvaron-langosta-terminar-restaurante_0_1617438328.html
p2
aVhttps://www.clarin.com/sociedad/quiere-conto-periodista-pidio-eutanasia_0_1617438323.html
p3
aVhttps://www.clarin.com/sociedad/quiere-conto-periodista-pidio-eutanasia_0_1617438323.html
p4
aVhttps://www.clarin.com/ieco/economia/Cayeron-ventas-dia-amigo_0_1617438320.html
p5
aVhttps://www.clarin.com/ieco/economia/Cayeron-ventas-dia-amigo_0_1617438320.html
p6
aVhttps://www.clarin.com/politica/testigo-Jesus-domingos-gente-convento_0_1617438318.html
p7
aVhttps://www.clarin.com/politica/testigo-Jesus-domingos-gente-convento_0_1617438318.html
p8
aVhttps://www.clarin.com/sociedad/Liberaron-intendente-borracho-choco-hombre_0_1617438306.html
p9
aVhttps://www.clarin.com/sociedad/Liberaron-intendente-borracho-choco-hombre_0_1617438306.html
p10
a.