(lp0
S'https://www.clarin.com/ieco/economia/Preparan-licitacion-Bonar-semana-proxima_0_1538246360.html'
p1
aS'https://www.clarin.com/sociedad/Diagnosticaron-WhatsApp-salvaron-vida-beba_0_1538246340.html'
p2
aS'https://www.clarin.com/sociedad/empresarios-importantes-denuncia-abusado-hermano_0_1538246339.html'
p3
aS'https://www.clarin.com/sociedad/fotos-artista-argentina-engano-Instagram_0_1538246363.html'
p4
aS'https://www.clarin.com/ieco/economia/Lacunza-coincidio-Prat-Gay-inflacion-bajara_0_1538246344.html'
p5
a.