(lp0
Vhttps://www.clarin.com/politica/intendentes-recibio-gendarmes-alineados-Vidal_0_1670233063.html
p1
aVhttps://www.clarin.com/politica/intendentes-recibio-gendarmes-alineados-Vidal_0_1670233063.html
p2
aVhttps://www.clarin.com/ieco/Gobierno-empleo-dejo-caer_0_1670233056.html
p3
aVhttps://www.clarin.com/ieco/Gobierno-empleo-dejo-caer_0_1670233056.html
p4
aVhttps://www.clarin.com/sociedad/mision-ExoMars-avanza-problemas-Marte_0_1670233055.html
p5
aVhttps://www.clarin.com/sociedad/mision-ExoMars-avanza-problemas-Marte_0_1670233055.html
p6
aVhttps://www.clarin.com/sociedad/miedosos-podra-dormir-castillo-Dracula_0_1670233050.html
p7
aVhttps://www.clarin.com/sociedad/miedosos-podra-dormir-castillo-Dracula_0_1670233050.html
p8
a.