(lp0
Vhttps://www.clarin.com/politica/catarsis-Anibal-Fernandez-defenderse-efedrina_0_1644435610.html
p1
aVhttps://www.clarin.com/politica/catarsis-Anibal-Fernandez-defenderse-efedrina_0_1644435610.html
p2
aVhttps://www.clarin.com/sociedad/rugbiers-pusieron-musica-olimpicos-argentinos_0_1644435611.html
p3
aVhttps://www.clarin.com/sociedad/rugbiers-pusieron-musica-olimpicos-argentinos_0_1644435611.html
p4
aVhttps://www.clarin.com/ieco/economia/riesgo-importaciones-chinas_0_1644435561.html
p5
aVhttps://www.clarin.com/ieco/economia/riesgo-importaciones-chinas_0_1644435561.html
p6
aVhttps://www.clarin.com/ieco/economia/Mejorar-competitividad-canasta-exportadora_0_1644435562.html
p7
aVhttps://www.clarin.com/ieco/economia/deficit-alimenta-suba-precios_0_1644435555.html
p8
aVhttps://www.clarin.com/ieco/economia/deficit-alimenta-suba-precios_0_1644435555.html
p9
aVhttps://www.clarin.com/ieco/economia/Disputas-tasas-Citi_0_1644435552.html
p10
a.