(lp0
S'https://www.clarin.com/politica/camara-federal-sobreseimiento-Liuzzi-Zannini_0_1550245213.html'
p1
aS'https://www.clarin.com/politica/camara-federal-sobreseimiento-Liuzzi-Zannini_0_1550245213.html'
p2
aS'https://www.clarin.com/ieco/economia/caida-materias-primas-seguir-viento_0_1550245208.html'
p3
aS'https://www.clarin.com/ieco/economia/caida-materias-primas-seguir-viento_0_1550245208.html'
p4
aS'https://www.clarin.com/politica/Dolar-futuro-recusan-juez-Bonadio_0_1550245206.html'
p5
aS'https://www.clarin.com/politica/Dolar-futuro-recusan-juez-Bonadio_0_1550245206.html'
p6
aS'https://www.clarin.com/ieco/economia/Gobierno-creara-millones-energias-renovables_0_1550245202.html'
p7
aS'https://www.clarin.com/ieco/economia/Gobierno-creara-millones-energias-renovables_0_1550245202.html'
p8
aS'https://www.clarin.com/sociedad/Anuncian-botones-antipanico-policias-hospitales_0_1550245200.html'
p9
aS'https://www.clarin.com/sociedad/Anuncian-botones-antipanico-policias-hospitales_0_1550245200.html'
p10
aS'https://www.clarin.com/politica/Premian-empresa-argentina-Washington-Macri_0_1550245201.html'
p11
aS'https://www.clarin.com/politica/Premian-empresa-argentina-Washington-Macri_0_1550245201.html'
p12
aS'https://www.clarin.com/politica/Gobierno-pide-querellante-causa-Hotesur_0_1550245198.html'
p13
aS'https://www.clarin.com/politica/Gobierno-pide-querellante-causa-Hotesur_0_1550245198.html'
p14
aS'https://www.clarin.com/sociedad/Video-gran-tormenta-ciudad-Florida_0_1550245194.html'
p15
aS'https://www.clarin.com/sociedad/Video-gran-tormenta-ciudad-Florida_0_1550245194.html'
p16
a.