(lp0
S'https://www.clarin.com/sociedad/Turismo-partos-polemica-invitacion-Miami_0_1651635012.html'
p1
aS'https://www.clarin.com/ieco/economia/Comision-Europea-sentencia-favorable-argentino_0_1651635008.html'
p2
aS'https://www.clarin.com/politica/dudas-cedera-Macri-impactan-inversiones_0_1651635015.html'
p3
aS'https://www.clarin.com/politica/Malcorra-principio-Pareto-conflicto-Malvinas_0_1651635010.html'
p4
aS'https://www.clarin.com/sociedad/Usaba-jabon-entero-dia_0_1651634992.html'
p5
a.