(lp0
S'https://www.clarin.com/sociedad/acusado-asesinar-gemela-esposa-indemnizado_0_1601239909.html'
p1
aS'https://www.clarin.com/sociedad/acusado-asesinar-gemela-esposa-indemnizado_0_1601239909.html'
p2
aS'https://www.clarin.com/ieco/economia/Reino-Unido-termina-perder-inversion_0_1601239907.html'
p3
aS'https://www.clarin.com/ieco/economia/Reino-Unido-termina-perder-inversion_0_1601239907.html'
p4
aS'https://www.clarin.com/sociedad/dureza-favor-famosos-hablaron-Brexit_0_1601239906.html'
p5
aS'https://www.clarin.com/sociedad/dureza-favor-famosos-hablaron-Brexit_0_1601239906.html'
p6
aS'https://www.clarin.com/politica/Hablo-ayudante-Alicia-Kirchner-Alba_0_1601239902.html'
p7
aS'https://www.clarin.com/politica/Hablo-ayudante-Alicia-Kirchner-Alba_0_1601239902.html'
p8
aS'https://www.clarin.com/ieco/economia/dolar-salto-centavos-dias-aumento_0_1601239898.html'
p9
a.