(lp0
S'https://www.clarin.com/sociedad/delantera-argentina-impone-barba-cancha_0_1601839947.html'
p1
aS'https://www.clarin.com/sociedad/delantera-argentina-impone-barba-cancha_0_1601839947.html'
p2
a.