(lp0
S'https://www.clarin.com/politica/problemas-universidad-favorita-Vido_0_1667233302.html'
p1
aS'https://www.clarin.com/sociedad/famoso-youtuber-defiende_0_1670232994.html'
p2
aS'https://www.clarin.com/ieco/Basabilvaso-admitio-deberia-pagarse-jubilados_0_1670232996.html'
p3
aS'https://www.clarin.com/politica/Lanata-Gobierno-encanta-Cristina-libre_0_1670232989.html'
p4
aS'https://www.clarin.com/ieco/Barrionuevo-confia-bono-privados_0_1670232991.html'
p5
aS'https://www.clarin.com/politica/respuesta-Cristina-Kirchner-Lanata-Twitter_0_1670232995.html'
p6
aS'https://www.clarin.com/sociedad/Destrozos-corridas-pelea-adolescentes-Berisso_0_1670232997.html'
p7
a.