(lp0
Vhttps://www.clarin.com/ieco/Gobierno-cubrir-deficit-vencimientos-deuda_0_1650434954.html
p1
aVhttps://www.clarin.com/ieco/Gobierno-cubrir-deficit-vencimientos-deuda_0_1650434954.html
p2
aVhttps://www.clarin.com/sociedad/Avanza-proyecto-regular-escuelas-especiales_0_1650434951.html
p3
aVhttps://www.clarin.com/sociedad/Avanza-proyecto-regular-escuelas-especiales_0_1650434951.html
p4
aVhttps://www.clarin.com/politica/Cristina-Buenos-Aires-definir-defensa_0_1649835217.html
p5
aVhttps://www.clarin.com/politica/Cristina-Buenos-Aires-definir-defensa_0_1649835217.html
p6
aVhttps://www.clarin.com/sociedad/vientos-temporal-castigo-fuerte-Costa_0_1650434949.html
p7
aVhttps://www.clarin.com/sociedad/vientos-temporal-castigo-fuerte-Costa_0_1650434949.html
p8
aVhttps://www.clarin.com/ieco/Santander-paso-quedarse-Citi_0_1649835028.html
p9
aVhttps://www.clarin.com/ieco/Santander-paso-quedarse-Citi_0_1649835028.html
p10
aVhttps://www.clarin.com/ieco/economia/Central-baja-tasas-mantiene-cautela_0_1649835183.html
p11
aVhttps://www.clarin.com/ieco/economia/Central-baja-tasas-mantiene-cautela_0_1649835183.html
p12
aVhttps://www.clarin.com/politica/Optimismo-reclamos-empresarios-Foro-Inversiones_0_1649835223.html
p13
aVhttps://www.clarin.com/politica/Optimismo-reclamos-empresarios-Foro-Inversiones_0_1649835223.html
p14
aVhttps://www.clarin.com/politica/Massa-impuesto-finanzas-ajustes-jubilados_0_1649835225.html
p15
aVhttps://www.clarin.com/politica/Massa-impuesto-finanzas-ajustes-jubilados_0_1649835225.html
p16
aVhttps://www.clarin.com/politica/Acuerdo-Gobierno-oposicion-limitar-superpoderes_0_1649835142.html
p17
aVhttps://www.clarin.com/politica/Acuerdo-Gobierno-oposicion-limitar-superpoderes_0_1649835142.html
p18
aVhttps://www.clarin.com/ieco/Aranguren-oportunidades-inversion-US-millones_0_1649835204.html
p19
aVhttps://www.clarin.com/ieco/Aranguren-oportunidades-inversion-US-millones_0_1649835204.html
p20
aVhttps://www.clarin.com/ieco/economia/inflacion-agosto-baja-decada_0_1649835233.html
p21
aVhttps://www.clarin.com/ieco/economia/Golpeada-viento-internacional-Bolsa-cayo_0_1649835211.html
p22
aVhttps://www.clarin.com/ieco/economia/Golpeada-viento-internacional-Bolsa-cayo_0_1649835211.html
p23
a.