(lp0
Vhttps://www.clarin.com/politica/interna-Papa-Scholas-Macri-medio_0_1596440536.html
p1
aVhttps://www.clarin.com/politica/interna-Papa-Scholas-Macri-medio_0_1596440536.html
p2
aVhttps://www.clarin.com/politica/Vido-Twitter-acusaciones-defendio-Cristina_0_1596440528.html
p3
aVhttps://www.clarin.com/politica/Vido-Twitter-acusaciones-defendio-Cristina_0_1596440528.html
p4
aVhttps://www.clarin.com/politica/Gioja-Lopez-hacer-arbol-caido_0_1596440527.html
p5
aVhttps://www.clarin.com/politica/macrismo-avanza-ley-arrepentido-corrupcion_0_1596440504.html
p6
a.