(lp0
Vhttps://www.clarin.com/sociedad/Aparecio-estudiante-rosarina-buscada-Brasil_0_1640235973.html
p1
aVhttps://www.clarin.com/sociedad/Aparecio-estudiante-rosarina-buscada-Brasil_0_1640235973.html
p2
aVhttps://www.clarin.com/ieco/economia/escasez-profesionales-tecnicos-industria-vino_0_1639036231.html
p3
aVhttps://www.clarin.com/ieco/economia/escasez-profesionales-tecnicos-industria-vino_0_1639036231.html
p4
aVhttps://www.clarin.com/politica/Macri-Sanz-Morales-peronismo-Senado_0_1639036113.html
p5
aVhttps://www.clarin.com/opinion/sombra-Milani-persigue-Macri_0_1640235966.html
p6
aVhttps://www.clarin.com/opinion/sombra-Milani-persigue-Macri_0_1640235966.html
p7
aVhttps://www.clarin.com/opinion/capitalismo-china-crujiendo_0_1639636157.html
p8
aVhttps://www.clarin.com/opinion/sociales-afirman-ciudadano-politicos-invisibilizan_0_1639636154.html
p9
aVhttps://www.clarin.com/opinion/sociales-afirman-ciudadano-politicos-invisibilizan_0_1639636154.html
p10
aVhttps://www.clarin.com/opinion/Malvinas-tentacion-volver-politica-seduccion_0_1639636161.html
p11
a.