(lp0
S'https://www.clarin.com/sociedad/Trasladan-cuerpos-mendocinas-asesinadas-Ecuador_0_1549645329.html'
p1
aS'https://www.clarin.com/sociedad/Trasladan-cuerpos-mendocinas-asesinadas-Ecuador_0_1549645329.html'
p2
aS'https://www.clarin.com/ieco/economia/dolar-baja-centavos_0_1549645294.html'
p3
aS'https://www.clarin.com/sociedad/pidio-conocer-Papa-quedarse-ciega_0_1549645325.html'
p4
aS'https://www.clarin.com/sociedad/pidio-conocer-Papa-quedarse-ciega_0_1549645325.html'
p5
aS'https://www.clarin.com/ieco/economia/justicia-intervino-petrolera-Cristobal-Lopez_0_1549645318.html'
p6
aS'https://www.clarin.com/ieco/economia/justicia-intervino-petrolera-Cristobal-Lopez_0_1549645318.html'
p7
aS'https://www.clarin.com/politica/Malvinas-britanicos-advierten-recomendacion-ONU_0_1549645316.html'
p8
aS'https://www.clarin.com/politica/Malvinas-britanicos-advierten-recomendacion-ONU_0_1549645316.html'
p9
aS'https://www.clarin.com/ieco/economia/Sol-anuncio-operar-indemnizara-empleados_0_1549645315.html'
p10
a.