(lp0
S'https://www.clarin.com/ieco/economia/Anses-cambia-sistema-creditos-jubilados_0_1687031432.html'
p1
aS'https://www.clarin.com/ieco/economia/empresas-buscan-echar-gente-pagar_0_1687031466.html'
p2
aS'https://www.clarin.com/politica/Carrio-Macri-comida-salio-contenta_0_1687631238.html'
p3
aS'https://www.clarin.com/politica/Viacom-quedo-Telefe-producira-Argentina_0_1687031482.html'
p4
aS'https://www.clarin.com/politica/Macri-gobernadores-PJ-reforma-politica_0_1687631230.html'
p5
aS'https://www.clarin.com/ieco/Cambios-inesperados-frente-financiero_0_1687031450.html'
p6
aS'https://www.clarin.com/politica/Macri-Trump-prometio-relacion-cercana_0_1687031420.html'
p7
a.