(lp0
Vhttps://www.clarin.com/sociedad/Obama-fuerte-apoyo-autos-conductor_0_1654034626.html
p1
aVhttps://www.clarin.com/sociedad/Obama-fuerte-apoyo-autos-conductor_0_1654034626.html
p2
aVhttps://www.clarin.com/sociedad/Video-tiro-pileta-balcon-grabo_0_1654034624.html
p3
aVhttps://www.clarin.com/sociedad/Video-tiro-pileta-balcon-grabo_0_1654034624.html
p4
aVhttps://www.clarin.com/sociedad/Desalojan-lagartos-metros-parque_0_1654034620.html
p5
aVhttps://www.clarin.com/sociedad/Desalojan-lagartos-metros-parque_0_1654034620.html
p6
aVhttps://www.clarin.com/ieco/Crecio-liquidacion-divisas_0_1654034613.html
p7
aVhttps://www.clarin.com/ieco/Crecio-liquidacion-divisas_0_1654034613.html
p8
aVhttps://www.clarin.com/politica/impresionante-seguridad-Obama-Nueva-York_0_1654034612.html
p9
aVhttps://www.clarin.com/politica/impresionante-seguridad-Obama-Nueva-York_0_1654034612.html
p10
a.