(lp0
Vhttps://www.clarin.com/sociedad/Santa-Fe-Rios-evacuados-seguiran_0_1553244916.html
p1
aVhttps://www.clarin.com/sociedad/Santa-Fe-Rios-evacuados-seguiran_0_1553244916.html
p2
aVhttps://www.clarin.com/politica/Gioja-Scioli-PJ-armo-lista-unidad_0_1553244928.html
p3
aVhttps://www.clarin.com/politica/Gioja-Scioli-PJ-armo-lista-unidad_0_1553244928.html
p4
aVhttps://www.clarin.com/sociedad/Condenan-padre-abuso-sexual-calificado_0_1553244920.html
p5
aVhttps://www.clarin.com/ieco/economia/Buitres-Prat-Gay-Nueva-York_0_1553244919.html
p6
aVhttps://www.clarin.com/ieco/economia/Buitres-Prat-Gay-Nueva-York_0_1553244919.html
p7
aVhttps://www.clarin.com/politica/extrano-segunda-empresa-offshore-Macri_0_1553244917.html
p8
aVhttps://www.clarin.com/politica/extrano-segunda-empresa-offshore-Macri_0_1553244917.html
p9
a.