(lp0
Vhttps://www.clarin.com/ieco/Gobernadores-Norte-optimistas-clima-politico_0_1592840926.html
p1
aVhttps://www.clarin.com/sociedad/falto-nafta-colas-horas-cargar_0_1592840921.html
p2
aVhttps://www.clarin.com/sociedad/falto-nafta-colas-horas-cargar_0_1592840921.html
p3
aVhttps://www.clarin.com/sociedad/Caos-viajar-cancelan-vuelos-aeropuertos_0_1592840877.html
p4
aVhttps://www.clarin.com/sociedad/Caos-viajar-cancelan-vuelos-aeropuertos_0_1592840877.html
p5
a.