(lp0
Vhttps://www.clarin.com/politica/ONU-Macri-solucionar-amigablemente-Malvinas_0_1654034681.html
p1
aVhttps://www.clarin.com/politica/ONU-Macri-solucionar-amigablemente-Malvinas_0_1654034681.html
p2
aVhttps://www.clarin.com/sociedad/Detienen-concejal-acusado-abusar-nieta_0_1654034680.html
p3
aVhttps://www.clarin.com/politica/Destituyeron-Alvear-hermanos-Lanatta-Schillaci_0_1654034676.html
p4
aVhttps://www.clarin.com/politica/Destituyeron-Alvear-hermanos-Lanatta-Schillaci_0_1654034676.html
p5
aVhttps://www.clarin.com/ieco/Reves-Cristobal-Lopez-Corte-Capital_0_1654034674.html
p6
aVhttps://www.clarin.com/ieco/Reves-Cristobal-Lopez-Corte-Capital_0_1654034674.html
p7
a.