(lp0
Vhttps://www.clarin.com/sociedad/desconocido-decenas-perfiles-Internet-infierno_0_1597040374.html
p1
aVhttps://www.clarin.com/sociedad/desconocido-decenas-perfiles-Internet-infierno_0_1597040374.html
p2
aVhttps://www.clarin.com/opinion/Bomba-politica-beneficio-economico_0_1597640277.html
p3
aVhttps://www.clarin.com/opinion/Regla-excepcion_0_1597640276.html
p4
aVhttps://www.clarin.com/politica/Llega-segundo-semestre-Gobierno-economia_0_1597040442.html
p5
aVhttps://www.clarin.com/opinion/Adios-amigo-peor-ausencia_0_1597040415.html
p6
aVhttps://www.clarin.com/politica/Cristina-quiebre-primera-admite-corrupcion_0_1597040389.html
p7
aVhttps://www.clarin.com/politica/Cristina-quiebre-primera-admite-corrupcion_0_1597040389.html
p8
aVhttps://www.clarin.com/politica/gobernador-Santa-Fe-margen-kirchnerismo_0_1597040390.html
p9
aVhttps://www.clarin.com/politica/Bergoglio-Di-Monte-relacion-tirante_0_1597040398.html
p10
aVhttps://www.clarin.com/politica/Bergoglio-Di-Monte-relacion-tirante_0_1597040398.html
p11
a.