(lp0
Vhttps://www.clarin.com/ieco/Shell-recortara-empleos-caida-crudo_0_1517848428.html
p1
aVhttps://www.clarin.com/ieco/Shell-recortara-empleos-caida-crudo_0_1517848428.html
p2
aVhttps://www.clarin.com/politica/Prat-Gay-estrategia-CFK-quicio_0_1517848413.html
p3
aVhttps://www.clarin.com/politica/NOA-Macri-mostrarse-Massa-Urtubey_0_1517848409.html
p4
aVhttps://www.clarin.com/politica/Morales-Milagro-Sala-sentar-dialogar_0_1517848401.html
p5
aVhttps://www.clarin.com/politica/Bossio-aseguro-seguiran-opositores_0_1517848387.html
p6
a.