(lp0
S'https://www.clarin.com/ieco/economia/Central-inflacion-sigue-tema-preocupacion_0_1641435930.html'
p1
aS'https://www.clarin.com/ieco/economia/Central-inflacion-sigue-tema-preocupacion_0_1641435930.html'
p2
aS'https://www.clarin.com/ieco/economia/Jubilados-ANSeS-apela-fallo-recusa_0_1641436005.html'
p3
aS'https://www.clarin.com/politica/gremialistas-plantearan-reclamos-puntos_0_1641436008.html'
p4
aS'https://www.clarin.com/politica/gremialistas-plantearan-reclamos-puntos_0_1641436008.html'
p5
aS'https://www.clarin.com/ieco/economia/Microsoft-apunta-redefine-negocio-celulares_0_1641435973.html'
p6
aS'https://www.clarin.com/ieco/economia/Microsoft-apunta-redefine-negocio-celulares_0_1641435973.html'
p7
aS'https://www.clarin.com/politica/Vidal-amenazas-recibidas-sacamos-negocios_0_1642035789.html'
p8
aS'https://www.clarin.com/politica/Vidal-amenazas-recibidas-sacamos-negocios_0_1642035789.html'
p9
aS'https://www.clarin.com/politica/pacto-guerra-narcos_0_1642035785.html'
p10
aS'https://www.clarin.com/politica/Matar-morir-Loma-Hermosa_0_1642035784.html'
p11
aS'https://www.clarin.com/opinion/Internet-amenaza-mordaza_0_1641435988.html'
p12
aS'https://www.clarin.com/opinion/Gobierno-sale-ganando-juego-acuerdos_0_1641436007.html'
p13
aS'https://www.clarin.com/opinion/Gobierno-sale-ganando-juego-acuerdos_0_1641436007.html'
p14
aS'https://www.clarin.com/opinion/viene-final-dinero-fisico-Argentina_0_1641435991.html'
p15
a.