(lp0
S'https://www.clarin.com/sociedad/dron-metio-ojo-huracan-Matthew_0_1664833614.html'
p1
aS'https://www.clarin.com/sociedad/dron-metio-ojo-huracan-Matthew_0_1664833614.html'
p2
aS'https://www.clarin.com/sociedad/tradicional-carrera-autitos-piolin-records_0_1664833593.html'
p3
aS'https://www.clarin.com/sociedad/tradicional-carrera-autitos-piolin-records_0_1664833593.html'
p4
aS'https://www.clarin.com/sociedad/padres-perdieron-hijo-atropellado-vecino_0_1664833611.html'
p5
aS'https://www.clarin.com/sociedad/padres-perdieron-hijo-atropellado-vecino_0_1664833611.html'
p6
aS'https://www.clarin.com/sociedad/poemas-colectivo-hicieron-furor-Youtube_0_1664833606.html'
p7
aS'https://www.clarin.com/sociedad/poemas-colectivo-hicieron-furor-Youtube_0_1664833606.html'
p8
a.