(lp0
Vhttps://www.clarin.com/ieco/Quedan-bancos-carrera-Citibank_0_1624637543.html
p1
aVhttps://www.clarin.com/sociedad/Paso-aeropuerto-esperando-cita-llego_0_1624637541.html
p2
aVhttps://www.clarin.com/sociedad/Paso-aeropuerto-esperando-cita-llego_0_1624637541.html
p3
aVhttps://www.clarin.com/ieco/ministro-brasileno-mejorar-relacion-comercial_0_1624637540.html
p4
aVhttps://www.clarin.com/ieco/Billetera-electronica-Banco-Central-realicen_0_1624637536.html
p5
aVhttps://www.clarin.com/ieco/Billetera-electronica-Banco-Central-realicen_0_1624637536.html
p6
aVhttps://www.clarin.com/ieco/inflacion-julio-baja-meses_0_1624637537.html
p7
aVhttps://www.clarin.com/politica/gobernadores-pasaran-Rosada-firmar-convenios_0_1624037762.html
p8
aVhttps://www.clarin.com/politica/Corte-Provincia-reclamara-mil-millones_0_1624037755.html
p9
aVhttps://www.clarin.com/politica/Corte-Provincia-reclamara-mil-millones_0_1624037755.html
p10
a.