(lp0
Vhttps://www.clarin.com/politica/Zulemita-Menem-Cristina-hermano-atentado_0_1577242355.html
p1
aVhttps://www.clarin.com/politica/Zulemita-Menem-Cristina-hermano-atentado_0_1577242355.html
p2
aVhttps://www.clarin.com/politica/UIA-antidespidos-Va-demorar-inversiones_0_1577242353.html
p3
aVhttps://www.clarin.com/politica/UIA-antidespidos-Va-demorar-inversiones_0_1577242353.html
p4
aVhttps://www.clarin.com/sociedad/Murio-caer-balcon-piso-Barracas_0_1577242352.html
p5
aVhttps://www.clarin.com/sociedad/Murio-caer-balcon-piso-Barracas_0_1577242352.html
p6
aVhttps://www.clarin.com/sociedad/Violan-estrangulan-chica-volvia-bailar_0_1577242351.html
p7
aVhttps://www.clarin.com/sociedad/Violan-estrangulan-chica-volvia-bailar_0_1577242351.html
p8
aVhttps://www.clarin.com/politica/Larroque-procesamiento-Cristina-quedar-callada_0_1577242348.html
p9
aVhttps://www.clarin.com/politica/Larroque-procesamiento-Cristina-quedar-callada_0_1577242348.html
p10
a.