(lp0
S'https://www.clarin.com/opinion/Premios-victimas_0_1678032240.html'
p1
aS'https://www.clarin.com/politica/Dietrich-aumento-inevitable-reconocio-servicio_0_1678032226.html'
p2
aS'https://www.clarin.com/politica/Jorge-Casaretto-subsidios-necesarios_0_1678032225.html'
p3
aS'https://www.clarin.com/politica/Recalde-dietas-forma-financiar-politica_0_1678032234.html'
p4
aS'https://www.clarin.com/sociedad/laboratorio-empresa-propia-crearon-cientificos_0_1678032241.html'
p5
aS'https://www.clarin.com/opinion/llego-Trump_0_1678032238.html'
p6
aS'https://www.clarin.com/politica/Cristina-Kirchner-Buenos-Aires-corrupcion_0_1678032243.html'
p7
a.