(lp0
Vhttps://www.clarin.com/ieco/Jorge-Brito-cerca-quedarnos-Citi_0_1568843182.html
p1
aVhttps://www.clarin.com/ieco/Jorge-Brito-cerca-quedarnos-Citi_0_1568843182.html
p2
aVhttps://www.clarin.com/politica/fiscal-confirmo-hallo-senalo-Farina_0_1568843207.html
p3
aVhttps://www.clarin.com/politica/fiscal-confirmo-hallo-senalo-Farina_0_1568843207.html
p4
aVhttps://www.clarin.com/politica/Siguen-allanamientos-propiedades-Baez_0_1568843192.html
p5
aVhttps://www.clarin.com/politica/Baez-hijos-visiten-penal-Ezeiza_0_1568843198.html
p6
aVhttps://www.clarin.com/politica/Sota-Gobierno-mostrado-salir-inflacion_0_1568843111.html
p7
aVhttps://www.clarin.com/politica/Sota-Gobierno-mostrado-salir-inflacion_0_1568843111.html
p8
aVhttps://www.clarin.com/politica/Gobierno-apuesta-instalar-social-Diputados_0_1568843205.html
p9
aVhttps://www.clarin.com/politica/Gobierno-apuesta-instalar-social-Diputados_0_1568843205.html
p10
aVhttps://www.clarin.com/sociedad/hackers-argentinos-codiciados-mundo_0_1568843201.html
p11
aVhttps://www.clarin.com/sociedad/hackers-argentinos-codiciados-mundo_0_1568843201.html
p12
aVhttps://www.clarin.com/sociedad/Politica-urgente-falta-permanente_0_1569443044.html
p13
aVhttps://www.clarin.com/politica/poder-sindical-desafia-Macri-PJ_0_1569443043.html
p14
aVhttps://www.clarin.com/opinion/Rachid-piloto-diversidad_0_1568843159.html
p15
a.