(lp0
S'https://www.clarin.com/politica/Espana-Mariano-Rajoy-elegido-Presidente_0_1677432302.html'
p1
aS'https://www.clarin.com/politica/Espana-Mariano-Rajoy-elegido-Presidente_0_1677432302.html'
p2
aS'https://www.clarin.com/politica/Iberoamericana-Argentina-Malvinas-Cristina-Kirchner_0_1677432301.html'
p3
aS'https://www.clarin.com/politica/Iberoamericana-Argentina-Malvinas-Cristina-Kirchner_0_1677432301.html'
p4
aS'https://www.clarin.com/sociedad/Moda-alegria-brasilera_0_1677432269.html'
p5
aS'https://www.clarin.com/sociedad/Moda-alegria-brasilera_0_1677432269.html'
p6
aS'https://www.clarin.com/sociedad/Video-trucos-meter-cosas-valija_0_1677432295.html'
p7
aS'https://www.clarin.com/sociedad/Video-trucos-meter-cosas-valija_0_1677432295.html'
p8
a.