(lp0
S'https://www.clarin.com/ieco/economia/lideres-empresarios-mayor-prestigio_0_1672632872.html'
p1
aS'https://www.clarin.com/ieco/economia/lideres-empresarios-mayor-prestigio_0_1672632872.html'
p2
aS'https://www.clarin.com/politica/Cristina-Kirchner-debera-devolver-pensiones_0_1673232806.html'
p3
aS'https://www.clarin.com/politica/Cristina-Kirchner-debera-devolver-pensiones_0_1673232806.html'
p4
aS'https://www.clarin.com/politica/Massa-politico-cana-ademas-devolver_0_1673232827.html'
p5
aS'https://www.clarin.com/politica/Massa-politico-cana-ademas-devolver_0_1673232827.html'
p6
aS'https://www.clarin.com/politica/Sergio-Massa-toque_0_1673232826.html'
p7
aS'https://www.clarin.com/politica/Sergio-Massa-toque_0_1673232826.html'
p8
aS'https://www.clarin.com/politica/Sergio-Massa-muchacho-barrio-presidencial_0_1673232821.html'
p9
aS'https://www.clarin.com/politica/Sergio-Massa-muchacho-barrio-presidencial_0_1673232821.html'
p10
a.