(lp0
S'https://www.clarin.com/politica/Macri-Gobierno-anterior-llevado-exclusion_0_1532246946.html'
p1
aS'https://www.clarin.com/politica/Macri-herencia-comprometio-detallar-legado_0_1532246964.html'
p2
aS'https://www.clarin.com/politica/Macri-area-encontrado-despilfarro-corrupcion_0_1532246963.html'
p3
aS'https://www.clarin.com/sociedad/Confirman-puede-favorecer-trastorno-neurologico_0_1532246924.html'
p4
aS'https://www.clarin.com/sociedad/Consul-argentino-descarta-hipotesis-asesinadas_0_1532246957.html'
p5
aS'https://www.clarin.com/sociedad/NASA-desarrolla-pasajeros-supersonico-silencioso_0_1532246921.html'
p6
aS'https://www.clarin.com/politica/Maximo-ausente-aviso_0_1532246956.html'
p7
aS'https://www.clarin.com/politica/bloque-PRO-sento-medio-bancada_0_1532246960.html'
p8
aS'https://www.clarin.com/politica/alrededores-Congreso-seguridad-gente_0_1532246943.html'
p9
aS'https://www.clarin.com/ieco/economia/Fondos-buitre-Macri-responsabilidad-oposicion_0_1532246954.html'
p10
a.