(lp0
Vhttps://www.clarin.com/sociedad/saber-bueno-mejores-puntajes-medallas_0_1578442190.html
p1
aVhttps://www.clarin.com/sociedad/saber-bueno-mejores-puntajes-medallas_0_1578442190.html
p2
aVhttps://www.clarin.com/sociedad/Murio-nena-desnutricion-responsables_0_1579642244.html
p3
aVhttps://www.clarin.com/sociedad/Murio-nena-desnutricion-responsables_0_1579642244.html
p4
aVhttps://www.clarin.com/politica/presion-oficialismo-salio-hacer-politica_0_1579642254.html
p5
aVhttps://www.clarin.com/politica/presion-oficialismo-salio-hacer-politica_0_1579642254.html
p6
aVhttps://www.clarin.com/politica/salio-cambios-debieron-explicar-voto_0_1579642252.html
p7
aVhttps://www.clarin.com/politica/salio-cambios-debieron-explicar-voto_0_1579642252.html
p8
aVhttps://www.clarin.com/politica/Macri-antidespidos-logro-imponer-oposicion_0_1579642238.html
p9
aVhttps://www.clarin.com/politica/Macri-antidespidos-logro-imponer-oposicion_0_1579642238.html
p10
aVhttps://www.clarin.com/politica/Vidal-apoyo-opositor-reclamar-fondos_0_1579642242.html
p11
aVhttps://www.clarin.com/politica/Vidal-apoyo-opositor-reclamar-fondos_0_1579642242.html
p12
a.