(lp0
S'https://www.clarin.com/politica/amenaza-muerte-Vidal-traves-llamada_0_1636636481.html'
p1
aS'https://www.clarin.com/politica/amenaza-muerte-Vidal-traves-llamada_0_1636636481.html'
p2
aS'https://www.clarin.com/politica/peronista-Torre-ministro-Produccion-bonaerense_0_1636636479.html'
p3
aS'https://www.clarin.com/politica/peronista-Torre-ministro-Produccion-bonaerense_0_1636636479.html'
p4
aS'https://www.clarin.com/sociedad/custodia-destrozan-escuela-semana-Provincia_0_1636636478.html'
p5
aS'https://www.clarin.com/sociedad/custodia-destrozan-escuela-semana-Provincia_0_1636636478.html'
p6
aS'https://www.clarin.com/ieco/economia/caida-ventas-bajan-precios_0_1636636472.html'
p7
aS'https://www.clarin.com/ieco/economia/caida-ventas-bajan-precios_0_1636636472.html'
p8
aS'https://www.clarin.com/politica/Prision-preventiva-empresario-Tiempo-Argentino_0_1636636477.html'
p9
aS'https://www.clarin.com/sociedad/Investigan-polemico-cartel-escuelas-Salta_0_1636636475.html'
p10
aS'https://www.clarin.com/sociedad/Investigan-polemico-cartel-escuelas-Salta_0_1636636475.html'
p11
aS'https://www.clarin.com/politica/Podria-financiacion-extranjera-refugiados-sirios_0_1636636473.html'
p12
aS'https://www.clarin.com/politica/Podria-financiacion-extranjera-refugiados-sirios_0_1636636473.html'
p13
aS'https://www.clarin.com/politica/aumento-menor-suba-gas-llegaria_0_1636636461.html'
p14
aS'https://www.clarin.com/politica/aumento-menor-suba-gas-llegaria_0_1636636461.html'
p15
aS'https://www.clarin.com/ieco/economia/franquicias-cara-mujer_0_1635436603.html'
p16
a.