(lp0
S'https://www.clarin.com/politica/intendente-reconocio-irregular-fondos-Tupac_0_1666633340.html'
p1
aS'https://www.clarin.com/politica/intendente-reconocio-irregular-fondos-Tupac_0_1666633340.html'
p2
aS'https://www.clarin.com/ieco/economia/estadounidense-Duke-vende-electricas-pais_0_1666633330.html'
p3
aS'https://www.clarin.com/ieco/economia/estadounidense-Duke-vende-electricas-pais_0_1666633330.html'
p4
aS'https://www.clarin.com/ieco/automotrices-despiden-autos-chicos_0_1666033527.html'
p5
aS'https://www.clarin.com/ieco/automotrices-despiden-autos-chicos_0_1666033527.html'
p6
aS'https://www.clarin.com/ieco/economia/Subieron-acciones-argentinas-Nueva-York_0_1666033501.html'
p7
aS'https://www.clarin.com/ieco/economia/Subieron-acciones-argentinas-Nueva-York_0_1666033501.html'
p8
aS'https://www.clarin.com/ieco/economia/Vidal-subiria-Ingresos-Brutos-negocio_0_1666033534.html'
p9
aS'https://www.clarin.com/ieco/economia/Vidal-subiria-Ingresos-Brutos-negocio_0_1666033534.html'
p10
aS'https://www.clarin.com/ieco/blanqueo-fuerza-seabren-cuentas-bancos_0_1666033507.html'
p11
aS'https://www.clarin.com/ieco/blanqueo-fuerza-seabren-cuentas-bancos_0_1666033507.html'
p12
aS'https://www.clarin.com/ieco/Prat-Gay-prometio-deficit_0_1666633338.html'
p13
a.