(lp0
Vhttps://www.clarin.com/sociedad/Rinas-gallos-animales-preparados-pelear_0_1583841741.html
p1
aVhttps://www.clarin.com/sociedad/Rinas-gallos-animales-preparados-pelear_0_1583841741.html
p2
aVhttps://www.clarin.com/politica/Giro-Argentina-alianzas-internacionales-climatico_0_1583841739.html
p3
aVhttps://www.clarin.com/politica/Giro-Argentina-alianzas-internacionales-climatico_0_1583841739.html
p4
aVhttps://www.clarin.com/politica/Massa-Malena-Galmarini-Vicky-Donda_0_1583841734.html
p5
aVhttps://www.clarin.com/politica/Massa-Malena-Galmarini-Vicky-Donda_0_1583841734.html
p6
a.