(lp0
S'https://www.clarin.com/politica/efedrina-declaro-secreto-nombrara-politicos_0_1642635961.html'
p1
aS'https://www.clarin.com/opinion/Mirada-lejana-padre-joven_0_1642635887.html'
p2
aS'https://www.clarin.com/politica/fiscal-Marijuan-investigar-telefonos-Cristina_0_1642635923.html'
p3
aS'https://www.clarin.com/politica/Rafecas-proceso-esposa-Jose-Lopez_0_1642635956.html'
p4
aS'https://www.clarin.com/politica/Libertad-ADEPA-premio-Magnetto-Saguier_0_1642635958.html'
p5
aS'https://www.clarin.com/sociedad/esperanza-Valentin-fabricaron-protesis-caminar_0_1642635959.html'
p6
a.