(lp0
Vhttps://www.clarin.com/sociedad/ministra-Salud-bonaerense-atencion-hospitales_0_1620437998.html
p1
aVhttps://www.clarin.com/sociedad/ministra-Salud-bonaerense-atencion-hospitales_0_1620437998.html
p2
aVhttps://www.clarin.com/sociedad/aceite-principales-vendedores-aconseja-comprar_0_1620437994.html
p3
aVhttps://www.clarin.com/sociedad/aceite-principales-vendedores-aconseja-comprar_0_1620437994.html
p4
aVhttps://www.clarin.com/ieco/Oficializaron-pliegos-licitacion-energias-renovables_0_1620437991.html
p5
aVhttps://www.clarin.com/ieco/Oficializaron-pliegos-licitacion-energias-renovables_0_1620437991.html
p6
aVhttps://www.clarin.com/ieco/quejas-empresarias-regreso-compras-exterior_0_1620437988.html
p7
aVhttps://www.clarin.com/ieco/quejas-empresarias-regreso-compras-exterior_0_1620437988.html
p8
a.