(lp0
S'https://www.clarin.com/sociedad/Pagaron-millones-plancha-original-Tintin_0_1690031046.html'
p1
aS'https://www.clarin.com/politica/Gracias-honestidad-DElia-Boudou-cumpleanos_0_1690031049.html'
p2
a.