(lp0
S'https://www.clarin.com/politica/FpV-negociar-Massa-cambios-antidespidos_0_1576042558.html'
p1
aS'https://www.clarin.com/politica/FpV-negociar-Massa-cambios-antidespidos_0_1576042558.html'
p2
aS'https://www.clarin.com/politica/funcionarios-procesados-Bonadio_0_1576042557.html'
p3
aS'https://www.clarin.com/politica/funcionarios-procesados-Bonadio_0_1576042557.html'
p4
aS'https://www.clarin.com/ieco/economia/Economia-cerro-acuerdos-CIADI_0_1576042554.html'
p5
aS'https://www.clarin.com/ieco/economia/Economia-cerro-acuerdos-CIADI_0_1576042554.html'
p6
aS'https://www.clarin.com/politica/Farina-senalo-direccion-Perez-Gadin_0_1576042556.html'
p7
aS'https://www.clarin.com/politica/Farina-senalo-direccion-Perez-Gadin_0_1576042556.html'
p8
a.