(lp0
S'https://www.clarin.com/ieco/economia/deficit-fiscal-duplico-supero-millones_0_1637236311.html'
p1
aS'https://www.clarin.com/politica/Macri-pronostico-leve-repunte-empleo_0_1637236314.html'
p2
aS'https://www.clarin.com/politica/Lavado-dinero-Cristina-Kirchner-sospecha_0_1637236309.html'
p3
a.