(lp0
S'https://www.clarin.com/opinion/Macri-intenta-reponer-orden-perdido_0_1570642924.html'
p1
aS'https://www.clarin.com/sociedad/avance-Alzheimer-vida-desvanece_0_1570043137.html'
p2
aS'https://www.clarin.com/politica/Aparecen-departamentos-Baez-detecto-Justicia_0_1570043194.html'
p3
aS'https://www.clarin.com/opinion/corrupcion-lubricante_0_1570043148.html'
p4
aS'https://www.clarin.com/opinion/Locuacidad-silencios-dicen_0_1570642923.html'
p5
aS'https://www.clarin.com/sociedad/mejor-critico-restaurantes-ahora-cliente_0_1570043175.html'
p6
aS'https://www.clarin.com/politica/Sube-subte-Gobierno-niega-aumentos_0_1570642927.html'
p7
aS'https://www.clarin.com/opinion/Independizar-Justicia-politica_0_1570043152.html'
p8
aS'https://www.clarin.com/opinion/Derrida-Lacan-Dostoievski-cercar-Victor_0_1570642925.html'
p9
aS'https://www.clarin.com/opinion/estruendoso-silencio-ex-presidenta_0_1570642926.html'
p10
a.