(lp0
Vhttps://www.clarin.com/politica/Baez-transfirio-Kirchner-millones_0_1631236961.html
p1
aVhttps://www.clarin.com/politica/Baez-transfirio-Kirchner-millones_0_1631236961.html
p2
aVhttps://www.clarin.com/politica/Movimiento-Evita-gana-diaspora-kirchnerista_0_1631237019.html
p3
aVhttps://www.clarin.com/opinion/Malas-noticias-mercado-trabajo_0_1631236984.html
p4
aVhttps://www.clarin.com/opinion/matrimonio-Calidad-Inclusion_0_1631236989.html
p5
aVhttps://www.clarin.com/opinion/sordera-comunicacion-sabe-abrirse-camino_0_1631236991.html
p6
aVhttps://www.clarin.com/opinion/sordera-comunicacion-sabe-abrirse-camino_0_1631236991.html
p7
a.