(lp0
S'https://www.clarin.com/sociedad/Google-Facebook-WhatsApp-Apple-FBI_0_1525047753.html'
p1
aS'https://www.clarin.com/sociedad/Google-Facebook-WhatsApp-Apple-FBI_0_1525047753.html'
p2
aS'https://www.clarin.com/politica/internas-PJ-reaparecio-Duhalde-intervencion_0_1525047743.html'
p3
aS'https://www.clarin.com/politica/internas-PJ-reaparecio-Duhalde-intervencion_0_1525047743.html'
p4
aS'https://www.clarin.com/sociedad/enero-caluroso-registro_0_1525047738.html'
p5
aS'https://www.clarin.com/sociedad/enero-caluroso-registro_0_1525047738.html'
p6
aS'https://www.clarin.com/politica/Obama-viene-Argentina-marzo_0_1525047741.html'
p7
aS'https://www.clarin.com/politica/Obama-viene-Argentina-marzo_0_1525047741.html'
p8
a.