(lp0
S'https://www.clarin.com/politica/piensan-bueno-vaya-bien_0_1571243058.html'
p1
aS'https://www.clarin.com/sociedad/falta-equidad-inocultable_0_1571243057.html'
p2
aS'https://www.clarin.com/politica/Kicillof-comunicar-mejor_0_1571243059.html'
p3
aS'https://www.clarin.com/ieco/Neuquen-primera-provincia-colocar-exterior_0_1571243064.html'
p4
aS'https://www.clarin.com/sociedad/Denuncio-violencia-genero-aparecio-muerta_0_1571243065.html'
p5
aS'https://www.clarin.com/sociedad/Time-Warp-recuperar-archivo-destruido_0_1571243061.html'
p6
aS'https://www.clarin.com/sociedad/verduras-frutas-lideran-aumentos-supermercado_0_1571243032.html'
p7
aS'https://www.clarin.com/sociedad/Confirman-argentinas-asesinadas-Ecuador-drogadas_0_1571243053.html'
p8
aS'https://www.clarin.com/sociedad/menu-saludable-mes_0_1571243055.html'
p9
a.