(lp0
S'https://www.clarin.com/politica/informe-Congreso-aclarar-escandalo_0_1617438395.html'
p1
aS'https://www.clarin.com/sociedad/Fin-dejaran-fabricarse-videocaseteras_0_1618038197.html'
p2
aS'https://www.clarin.com/sociedad/Fin-dejaran-fabricarse-videocaseteras_0_1618038197.html'
p3
aS'https://www.clarin.com/politica/Macri-sostuvo-vez-Futbol-discontinuado_0_1618038194.html'
p4
aS'https://www.clarin.com/politica/Macri-sostuvo-vez-Futbol-discontinuado_0_1618038194.html'
p5
aS'https://www.clarin.com/ieco/economia/deficit_0_1617438433.html'
p6
a.