(lp0
Vhttps://www.clarin.com/opinion/Cazadores-atrapados-Formosa-agonia-wichis_0_1593440785.html
p1
aVhttps://www.clarin.com/opinion/Cazadores-atrapados-Formosa-agonia-wichis_0_1593440785.html
p2
aVhttps://www.clarin.com/opinion/sindrome-obsesivo-compulsivo-paraliza_0_1593440789.html
p3
aVhttps://www.clarin.com/opinion/Existen-cambios-reales-cerebral-persona_0_1593440783.html
p4
aVhttps://www.clarin.com/opinion/Existen-cambios-reales-cerebral-persona_0_1593440783.html
p5
aVhttps://www.clarin.com/opinion/Reforma-politica-incluir-federalismo-financiamiento_0_1593440797.html
p6
aVhttps://www.clarin.com/opinion/Alejandro-Corchs-Lerena-rencor-perdonarse_0_1593440786.html
p7
aVhttps://www.clarin.com/opinion/Alejandro-Corchs-Lerena-rencor-perdonarse_0_1593440786.html
p8
aVhttps://www.clarin.com/opinion/sombra-FBI-tribunales_0_1594040585.html
p9
aVhttps://www.clarin.com/opinion/Macri-Moyano-chocaron-planetas_0_1594040584.html
p10
aVhttps://www.clarin.com/opinion/Papa-extrana_0_1594040582.html
p11
a.