(lp0
S'https://www.clarin.com/sociedad/Productos-sueltos-ferias-rebusques-inflacion_0_1676232546.html'
p1
aS'https://www.clarin.com/sociedad/Cambio-habito-familias-comerciantes-mayoristas_0_1673832711.html'
p2
aS'https://www.clarin.com/sociedad/Cambio-habito-familias-comerciantes-mayoristas_0_1673832711.html'
p3
aS'https://www.clarin.com/politica/Gils-Carbo-PRO-juicio-politico_0_1676232544.html'
p4
aS'https://www.clarin.com/politica/Gils-Carbo-PRO-juicio-politico_0_1676232544.html'
p5
aS'https://www.clarin.com/ieco/economia/coleccion-filatelia-Correo_0_1676232531.html'
p6
aS'https://www.clarin.com/politica/Gobierno-distancia-embestida-Venezuela-OEA_0_1676232499.html'
p7
aS'https://www.clarin.com/opinion/sonrisa-nefasta_0_1676232528.html'
p8
aS'https://www.clarin.com/opinion/sonrisa-nefasta_0_1676232528.html'
p9
a.