(lp0
Vhttps://www.clarin.com/politica/Dolar-futuro-confirman-procesamiento-Cristina_0_1685231556.html
p1
aVhttps://www.clarin.com/politica/Dolar-futuro-confirman-procesamiento-Cristina_0_1685231556.html
p2
aVhttps://www.clarin.com/sociedad/Misiones-consumo-marihuana-igualando-tabaco_0_1685231554.html
p3
aVhttps://www.clarin.com/sociedad/Misiones-consumo-marihuana-igualando-tabaco_0_1685231554.html
p4
aVhttps://www.clarin.com/ieco/economia/Black-Friday-ventas-US-millones_0_1685231545.html
p5
aVhttps://www.clarin.com/ieco/economia/Black-Friday-ventas-US-millones_0_1685231545.html
p6
a.