(lp0
S'https://www.clarin.com/sociedad/Privadas-publicas-universidades-duplican-graduacion_0_1608439338.html'
p1
aS'https://www.clarin.com/sociedad/Privadas-publicas-universidades-duplican-graduacion_0_1608439338.html'
p2
aS'https://www.clarin.com/politica/Asustado-Perez-Corradi-apuesta-Morsa_0_1608439331.html'
p3
aS'https://www.clarin.com/politica/Asustado-Perez-Corradi-apuesta-Morsa_0_1608439331.html'
p4
aS'https://www.clarin.com/opinion/Renta-petrolera-vs-cuidado-ambiental_0_1608439296.html'
p5
aS'https://www.clarin.com/opinion/Renta-petrolera-vs-cuidado-ambiental_0_1608439296.html'
p6
aS'https://www.clarin.com/sociedad/Arranca-Caminos-Sabores-feria-alimentos_0_1608439325.html'
p7
aS'https://www.clarin.com/sociedad/Arranca-Caminos-Sabores-feria-alimentos_0_1608439325.html'
p8
aS'https://www.clarin.com/opinion/salud-publica-necesita-dialogo-consensos_0_1608439299.html'
p9
aS'https://www.clarin.com/opinion/Asustado-ex-financista-juega-Morsa_0_1609039085.html'
p10
aS'https://www.clarin.com/opinion/Cristina-dice-verdad-puso-plata_0_1609039084.html'
p11
aS'https://www.clarin.com/opinion/Nostalgias-tucumanas_0_1609039083.html'
p12
aS'https://www.clarin.com/politica/provincias-lograron-frenar-suba-gas_0_1608439292.html'
p13
a.