(lp0
Vhttps://www.clarin.com/politica/carta-Bonafini-juez-explica-declarar_0_1625837430.html
p1
aVhttps://www.clarin.com/politica/carta-Bonafini-juez-explica-declarar_0_1625837430.html
p2
aVhttps://www.clarin.com/ieco/jueza-servicio-puede-cortarse-falta_0_1625837428.html
p3
aVhttps://www.clarin.com/ieco/jueza-servicio-puede-cortarse-falta_0_1625837428.html
p4
aVhttps://www.clarin.com/politica/Aseguran-Hebe-Bonafini-declarar-publica_0_1625837423.html
p5
aVhttps://www.clarin.com/politica/Aseguran-Hebe-Bonafini-declarar-publica_0_1625837423.html
p6
aVhttps://www.clarin.com/politica/Investigan-propiedades-Lopez-obtenidas-ilicita_0_1625837419.html
p7
aVhttps://www.clarin.com/politica/Investigan-propiedades-Lopez-obtenidas-ilicita_0_1625837419.html
p8
a.