(lp0
Vhttps://www.clarin.com/sociedad/Dengue-Misiones-amesetamiento-siguen-diagnosticando_0_1516048608.html
p1
aVhttps://www.clarin.com/sociedad/Dengue-Misiones-amesetamiento-siguen-diagnosticando_0_1516048608.html
p2
aVhttps://www.clarin.com/sociedad/locutor-asesinado-suegro-queria-volver_0_1516048612.html
p3
aVhttps://www.clarin.com/sociedad/locutor-asesinado-suegro-queria-volver_0_1516048612.html
p4
aVhttps://www.clarin.com/sociedad/ministros-Mercosur-debaten-hacer-frente_0_1516048609.html
p5
aVhttps://www.clarin.com/sociedad/ministros-Mercosur-debaten-hacer-frente_0_1516048609.html
p6
aVhttps://www.clarin.com/ieco/economia/Aranguren-dijo-previsto-nuevo-aumento_0_1516048593.html
p7
aVhttps://www.clarin.com/ieco/economia/Aranguren-dijo-previsto-nuevo-aumento_0_1516048593.html
p8
aVhttps://www.clarin.com/sociedad/Encontraron-dentro-contenedor-Parque-Avellaneda_0_1516048590.html
p9
aVhttps://www.clarin.com/sociedad/Grabo-estrello-avioneta_0_1516048578.html
p10
aVhttps://www.clarin.com/sociedad/Grabo-estrello-avioneta_0_1516048578.html
p11
aVhttps://www.clarin.com/sociedad/Bill-Cosby-tribunales-anular-sexual_0_1516048588.html
p12
aVhttps://www.clarin.com/sociedad/Bill-Cosby-tribunales-anular-sexual_0_1516048588.html
p13
aVhttps://www.clarin.com/sociedad/pasajera-avion-sola_0_1516048585.html
p14
aVhttps://www.clarin.com/sociedad/pasajera-avion-sola_0_1516048585.html
p15
a.