(lp0
S'https://www.clarin.com/ieco/economia/YPF-acuerdo-empresa-noruega-explorar_0_1676832361.html'
p1
aS'https://www.clarin.com/ieco/economia/YPF-acuerdo-empresa-noruega-explorar_0_1676832361.html'
p2
aS'https://www.clarin.com/politica/Vidal-Lorenzetti-Massa-Macri-Carrio_0_1676832355.html'
p3
aS'https://www.clarin.com/politica/Vidal-Lorenzetti-Massa-Macri-Carrio_0_1676832355.html'
p4
aS'https://www.clarin.com/sociedad/Videos-fogonazos-turbina-conversacion-control_0_1676832351.html'
p5
aS'https://www.clarin.com/sociedad/Videos-fogonazos-turbina-conversacion-control_0_1676832351.html'
p6
aS'https://www.clarin.com/sociedad/video-Pen-Pineapple-Apple-Pen-entro-record-Guinness_0_1676832348.html'
p7
aS'https://www.clarin.com/sociedad/video-Pen-Pineapple-Apple-Pen-entro-record-Guinness_0_1676832348.html'
p8
aS'https://www.clarin.com/politica/Denunciaron-acceso-pagina-Poder-Judicial_0_1676232534.html'
p9
aS'https://www.clarin.com/politica/Denunciaron-acceso-pagina-Poder-Judicial_0_1676232534.html'
p10
aS'https://www.clarin.com/sociedad/Crean-Antartida-reserva-marina-mundo_0_1676832345.html'
p11
aS'https://www.clarin.com/sociedad/Crean-Antartida-reserva-marina-mundo_0_1676832345.html'
p12
a.