(lp0
S'https://www.clarin.com/sociedad/policia-sexy-mundo_0_1570643028.html'
p1
aS'https://www.clarin.com/ieco/economia/compra-Petrobras-saltan-acciones-Pampa_0_1570643021.html'
p2
aS'https://www.clarin.com/politica/Macri-almorzo-Olivos-Vargas-Llosa_0_1570643026.html'
p3
a.