(lp0
Vhttps://www.clarin.com/sociedad/Procelac-advirtio-engano-flor-abundancia_0_1668433175.html
p1
aVhttps://www.clarin.com/sociedad/Procelac-advirtio-engano-flor-abundancia_0_1668433175.html
p2
aVhttps://www.clarin.com/ieco/coloquioidea/Alejandro-Toscano-Whirlpool-horizonte-recuperacion_0_1668433174.html
p3
aVhttps://www.clarin.com/sociedad/Lanzan-manual-aprender-desperdiciar-comida_0_1668433169.html
p4
aVhttps://www.clarin.com/sociedad/Lanzan-manual-aprender-desperdiciar-comida_0_1668433169.html
p5
aVhttps://www.clarin.com/sociedad/Susto-tiburon-blanco-metio-jaula_0_1668433167.html
p6
aVhttps://www.clarin.com/sociedad/Susto-tiburon-blanco-metio-jaula_0_1668433167.html
p7
aVhttps://www.clarin.com/sociedad/Mendoza-andinista-murio-atrapado-alud_0_1668433163.html
p8
aVhttps://www.clarin.com/sociedad/Mendoza-andinista-murio-atrapado-alud_0_1668433163.html
p9
a.