(lp0
S'https://www.clarin.com/politica/Mariotto-responsabilidad-manejo-dinero-futbol_0_1557444576.html'
p1
aS'https://www.clarin.com/politica/Mariotto-responsabilidad-manejo-dinero-futbol_0_1557444576.html'
p2
aS'https://www.clarin.com/politica/amenazas-denuncio-Marijuan-Cerro-Dragon_0_1557444511.html'
p3
aS'https://www.clarin.com/politica/amenazas-denuncio-Marijuan-Cerro-Dragon_0_1557444511.html'
p4
aS'https://www.clarin.com/politica/fiscal-denuncio-Oyarbide-mentir-celulares_0_1557444541.html'
p5
aS'https://www.clarin.com/politica/fiscal-denuncio-Oyarbide-mentir-celulares_0_1557444541.html'
p6
aS'https://www.clarin.com/politica/Molestia-diplomaticos-Lousteau-nombro-primo_0_1557444547.html'
p7
aS'https://www.clarin.com/politica/Molestia-diplomaticos-Lousteau-nombro-primo_0_1557444547.html'
p8
a.