(lp0
Vhttps://www.clarin.com/ieco/economia/Elypsis-inflacion-mayo-acumula-interanual_0_1587441392.html
p1
aVhttps://www.clarin.com/politica/Carrio-criticaron-denuncias-Prefiero-carcel_0_1587441393.html
p2
aVhttps://www.clarin.com/politica/Carrio-criticaron-denuncias-Prefiero-carcel_0_1587441393.html
p3
aVhttps://www.clarin.com/sociedad/Capturan-gigante-arrancado-surfista-Australia_0_1587441345.html
p4
aVhttps://www.clarin.com/sociedad/Capturan-gigante-arrancado-surfista-Australia_0_1587441345.html
p5
aVhttps://www.clarin.com/politica/Malcorra-Venezuela-Solo-adentro-crisis_0_1587441387.html
p6
aVhttps://www.clarin.com/politica/Malcorra-Venezuela-Solo-adentro-crisis_0_1587441387.html
p7
aVhttps://www.clarin.com/politica/Avanzan-Diputados-proyectos-investigaciones-judiciales_0_1587441386.html
p8
aVhttps://www.clarin.com/politica/Avanzan-Diputados-proyectos-investigaciones-judiciales_0_1587441386.html
p9
aVhttps://www.clarin.com/politica/Principio-acuerdo-tarifas-patagonicas_0_1587441376.html
p10
a.