(lp0
Vhttps://www.clarin.com/sociedad/Acusan-profesor-padres-apedrea-escuela_0_1558644261.html
p1
aVhttps://www.clarin.com/sociedad/Acusan-profesor-padres-apedrea-escuela_0_1558644261.html
p2
aVhttps://www.clarin.com/politica/confesion-Farina-Uruguay-investigacion-Aduana_0_1558644243.html
p3
aVhttps://www.clarin.com/politica/confesion-Farina-Uruguay-investigacion-Aduana_0_1558644243.html
p4
aVhttps://www.clarin.com/politica/Macri-acto-Cristina-Tribunales-desafortunado_0_1558644240.html
p5
aVhttps://www.clarin.com/politica/Macri-acto-Cristina-Tribunales-desafortunado_0_1558644240.html
p6
aVhttps://www.clarin.com/politica/Massa-Scioli-Carrio-Randazzo-senador_0_1558644234.html
p7
aVhttps://www.clarin.com/politica/Massa-Scioli-Carrio-Randazzo-senador_0_1558644234.html
p8
a.