(lp0
S'https://www.clarin.com/politica/complicacion-judicial-Scioli-Macri-Olivos_0_1664233581.html'
p1
aS'https://www.clarin.com/politica/complicacion-judicial-Scioli-Macri-Olivos_0_1664233581.html'
p2
aS'https://www.clarin.com/opinion/reactivacion-demora-llegar-calienta-animos_0_1663633812.html'
p3
aS'https://www.clarin.com/politica/calentura-radical-inquieta-Gobierno_0_1664233579.html'
p4
aS'https://www.clarin.com/politica/Quitame-ahi-placas_0_1664233578.html'
p5
aS'https://www.clarin.com/politica/Barrionuevo-mostro-moderado-mantuvo-presion_0_1663633845.html'
p6
aS'https://www.clarin.com/politica/Barrionuevo-mostro-moderado-mantuvo-presion_0_1663633845.html'
p7
aS'https://www.clarin.com/politica/Cristina-trabajara-frente-opositor-Macri_0_1663633842.html'
p8
aS'https://www.clarin.com/politica/Cristina-trabajara-frente-opositor-Macri_0_1663633842.html'
p9
aS'https://www.clarin.com/politica/Ordenan-gobierno-dietas-diputados-Parlasur_0_1663633790.html'
p10
aS'https://www.clarin.com/politica/Teresa-Parodi-renuncia-via-Montevideo_0_1663633833.html'
p11
a.