(lp0
Vhttps://www.clarin.com/opinion/Gils-Carbo-empujada-puerta-salida_0_1636036384.html
p1
aVhttps://www.clarin.com/opinion/Avances-terminar-reeleccion-indefinida_0_1636036383.html
p2
aVhttps://www.clarin.com/politica/operacion-delictiva-mafiosa_0_1635436600.html
p3
aVhttps://www.clarin.com/politica/operacion-delictiva-mafiosa_0_1635436600.html
p4
aVhttps://www.clarin.com/opinion/vuelta-gas-mangos_0_1636036381.html
p5
aVhttps://www.clarin.com/politica/medida-Macri-cerro-grieta_0_1635436618.html
p6
aVhttps://www.clarin.com/politica/medida-Macri-cerro-grieta_0_1635436618.html
p7
aVhttps://www.clarin.com/sociedad/Superdotados-cerebros-brillantes-corazones-ninos_0_1634836672.html
p8
aVhttps://www.clarin.com/sociedad/Superdotados-cerebros-brillantes-corazones-ninos_0_1634836672.html
p9
aVhttps://www.clarin.com/opinion/merecen-tener-viaje_0_1635436574.html
p10
aVhttps://www.clarin.com/opinion/merecen-tener-viaje_0_1635436574.html
p11
aVhttps://www.clarin.com/opinion/olvidado-arte-conversacion_0_1635436550.html
p12
aVhttps://www.clarin.com/ieco/economia/Jubilados-mitad-consultaron-reajuste_0_1635436570.html
p13
aVhttps://www.clarin.com/ieco/economia/Jubilados-mitad-consultaron-reajuste_0_1635436570.html
p14
a.