(lp0
Vhttps://www.clarin.com/sociedad/CyberMonday-Argentina-megaofertas-pasajes-aereos_0_1678632178.html
p1
aVhttps://www.clarin.com/sociedad/CyberMonday-Argentina-megaofertas-pasajes-aereos_0_1678632178.html
p2
aVhttps://www.clarin.com/ieco/Mendiguren-buscara-limites-endeudamiento-superpoderes_0_1678632174.html
p3
aVhttps://www.clarin.com/ieco/Mendiguren-buscara-limites-endeudamiento-superpoderes_0_1678632174.html
p4
aVhttps://www.clarin.com/sociedad/veneno-serpiente-podria-aliviar-dolores_0_1678632171.html
p5
aVhttps://www.clarin.com/sociedad/veneno-serpiente-podria-aliviar-dolores_0_1678632171.html
p6
aVhttps://www.clarin.com/sociedad/CyberMonday-megaofertas-celulares_0_1678632172.html
p7
aVhttps://www.clarin.com/sociedad/CyberMonday-megaofertas-celulares_0_1678632172.html
p8
aVhttps://www.clarin.com/sociedad/despues-actriz-revelo-Hitchcock-sexualmente_0_1678632166.html
p9
aVhttps://www.clarin.com/sociedad/despues-actriz-revelo-Hitchcock-sexualmente_0_1678632166.html
p10
a.