(lp0
Vhttps://www.clarin.com/politica/Senal-corrupcion-Papa-jueces-Roma_0_1553845096.html
p1
aVhttps://www.clarin.com/politica/Senal-corrupcion-Papa-jueces-Roma_0_1553845096.html
p2
aVhttps://www.clarin.com/politica/PJ-kirchneristas-lista-unidad-Campora_0_1553845122.html
p3
aVhttps://www.clarin.com/politica/PJ-kirchneristas-lista-unidad-Campora_0_1553845122.html
p4
aVhttps://www.clarin.com/politica/kirchnerismo-busco-contraatacar-pegandole-Macri_0_1553845078.html
p5
aVhttps://www.clarin.com/opinion/Eterno-agua-aire_0_1553845008.html
p6
aVhttps://www.clarin.com/ieco/amigo-Macri-postula-vice-Merval_0_1553845119.html
p7
aVhttps://www.clarin.com/sociedad/Salio-carcel-mato-cunados-suicido_0_1553845093.html
p8
aVhttps://www.clarin.com/sociedad/Salio-carcel-mato-cunados-suicido_0_1553845093.html
p9
aVhttps://www.clarin.com/politica/Denuncia-penal-Szpolski-socios-ocultos_0_1553845091.html
p10
aVhttps://www.clarin.com/politica/Denuncia-penal-Szpolski-socios-ocultos_0_1553845091.html
p11
aVhttps://www.clarin.com/ieco/economia/empresa-compra-frigorificos-brasilena-Marfrig_0_1553844961.html
p12
aVhttps://www.clarin.com/politica/Carrio-Lazaro-habla-complicar-Cristina_0_1553845117.html
p13
aVhttps://www.clarin.com/politica/Carrio-Lazaro-habla-complicar-Cristina_0_1553845117.html
p14
a.