(lp0
Vhttps://www.clarin.com/sociedad/Arritmia-vaivenes-comunicacion_0_1592240964.html
p1
aVhttps://www.clarin.com/sociedad/fantasma-medios-ahora-circula-Chile_0_1592240963.html
p2
aVhttps://www.clarin.com/sociedad/sueldos-julio-vendran-billetes_0_1592240951.html
p3
aVhttps://www.clarin.com/sociedad/medio-kilo-monedas-persona-usan_0_1592240950.html
p4
a.