(lp0
S'https://www.clarin.com/politica/spot-campana-promesa-incumplida_0_1651634836.html'
p1
aS'https://www.clarin.com/opinion/Macri-tasas-deben-alentar-industria_0_1651035063.html'
p2
aS'https://www.clarin.com/ieco/economia/YPF-Pampa-inversiones-generacion-electrica_0_1651035021.html'
p3
aS'https://www.clarin.com/politica/teorema-Baglini-accion_0_1651634834.html'
p4
aS'https://www.clarin.com/ieco/economia/suba-minimo-imponible-insuficiente_0_1651035032.html'
p5
aS'https://www.clarin.com/ieco/Macri-clausuro-Foro-Inversiones-unicornios_0_1651035058.html'
p6
aS'https://www.clarin.com/ieco/economia/octubre-pagaran-reajustes-haberes-jubilados_0_1650435122.html'
p7
aS'https://www.clarin.com/politica/Macri-Massa-Cristina-Alfredo-Casero_0_1651035092.html'
p8
a.