(lp0
S'https://www.clarin.com/sociedad/Vacaciones-embajador-EEUU-vuelva-Obama_0_1510049159.html'
p1
aS'https://www.clarin.com/politica/Gobierno-paquete-medidas-paliar-inflacion_0_1510049061.html'
p2
aS'https://www.clarin.com/ieco/economia/Davos-regreso-Argentina-mundo_0_1510049164.html'
p3
aS'https://www.clarin.com/politica/Macri-usa-peso-caja_0_1510049045.html'
p4
aS'https://www.clarin.com/politica/Macri-empieza-correr-tiempo_0_1510049054.html'
p5
a.