(lp0
Vhttps://www.clarin.com/politica/calendario-desfile-Justicia_0_1555044827.html
p1
aVhttps://www.clarin.com/politica/Panama-Papers-Macri-Justicia-declaracion_0_1555044735.html
p2
aVhttps://www.clarin.com/politica/Panama-Papers-Macri-Justicia-declaracion_0_1555044735.html
p3
aVhttps://www.clarin.com/politica/denuncia-Jaime-ahora-apuntan-consuegros_0_1555044800.html
p4
aVhttps://www.clarin.com/politica/denuncia-Jaime-ahora-apuntan-consuegros_0_1555044800.html
p5
aVhttps://www.clarin.com/sociedad/amantes-imposibles-casar-hijo-adopcion_0_1555044788.html
p6
aVhttps://www.clarin.com/sociedad/amantes-imposibles-casar-hijo-adopcion_0_1555044788.html
p7
a.