(lp0
Vhttps://www.clarin.com/sociedad/suites-duermen-Rolling-Stones_0_1517248586.html
p1
aVhttps://www.clarin.com/sociedad/suites-duermen-Rolling-Stones_0_1517248586.html
p2
aVhttps://www.clarin.com/ieco/economia/Brasil-Argentina-acuerdo-autos_0_1517248577.html
p3
aVhttps://www.clarin.com/ieco/economia/Brasil-Argentina-acuerdo-autos_0_1517248577.html
p4
aVhttps://www.clarin.com/politica/Amado_Boudou-dadivas-procesado-Carlos_Rivolo-avion-helicoptero_0_1517248574.html
p5
aVhttps://www.clarin.com/politica/Amado_Boudou-dadivas-procesado-Carlos_Rivolo-avion-helicoptero_0_1517248574.html
p6
aVhttps://www.clarin.com/politica/Mauricio-Macri-sesiones-extraordinarias-Senado_0_1517248572.html
p7
aVhttps://www.clarin.com/politica/Mauricio-Macri-sesiones-extraordinarias-Senado_0_1517248572.html
p8
aVhttps://www.clarin.com/sociedad/NASA-permite-sobrevolar-planeta-Ceres_0_1517248532.html
p9
aVhttps://www.clarin.com/sociedad/NASA-permite-sobrevolar-planeta-Ceres_0_1517248532.html
p10
aVhttps://www.clarin.com/sociedad/Justicia-investiga-dinero-kirchnerismo-universidades_0_1517248561.html
p11
aVhttps://www.clarin.com/sociedad/Justicia-investiga-dinero-kirchnerismo-universidades_0_1517248561.html
p12
aVhttps://www.clarin.com/sociedad/estrategia-fans-tratar-cruzarse-Stone_0_1517248567.html
p13
aVhttps://www.clarin.com/sociedad/estrategia-fans-tratar-cruzarse-Stone_0_1517248567.html
p14
a.