(lp0
Vhttps://www.clarin.com/sociedad/Cristiano-Ronaldo-Alessandra-Ambrosio-pareja_0_1505849531.html
p1
aVhttps://www.clarin.com/sociedad/Cristiano-Ronaldo-Alessandra-Ambrosio-pareja_0_1505849531.html
p2
aVhttps://www.clarin.com/sociedad/revancha-enero-demoras-horas-Costa_0_1505849473.html
p3
aVhttps://www.clarin.com/sociedad/revancha-enero-demoras-horas-Costa_0_1505849473.html
p4
aVhttps://www.clarin.com/politica/Causa_Nisman-Pacto_con_Iran-Fiscal_Fein-Jueza_Palmaghini_0_1505849464.html
p5
aVhttps://www.clarin.com/politica/Causa_Nisman-Pacto_con_Iran-Fiscal_Fein-Alberto_Nisman-AMIA_0_1505849463.html
p6
aVhttps://www.clarin.com/politica/Causa_Nisman-Pacto_con_Iran-Fiscal_Fein-Alberto_Nisman-AMIA_0_1505849463.html
p7
aVhttps://www.clarin.com/politica/Causa_Nisman-Pacto_con_Iran-Fiscal_Fein_0_1505849462.html
p8
aVhttps://www.clarin.com/politica/Causa_Nisman-Pacto_con_Iran-Fiscal_Fein_0_1505849462.html
p9
aVhttps://www.clarin.com/politica/Iara_y_Kala_Nisman-Alberto_Nisman-muerte_de_Nisman-AMIA_0_1505849461.html
p10
aVhttps://www.clarin.com/opinion/Iara_Nisman-muerte_del_fiscal_Nisman_0_1505849460.html
p11
aVhttps://www.clarin.com/opinion/Iara_Nisman-muerte_del_fiscal_Nisman_0_1505849460.html
p12
a.