(lp0
S'https://www.clarin.com/politica/Pese-anuncio-Gobierno-Izquierda-tarifazo_0_1612038801.html'
p1
aS'https://www.clarin.com/politica/Pese-anuncio-Gobierno-Izquierda-tarifazo_0_1612038801.html'
p2
aS'https://www.clarin.com/sociedad/Dock-Sud-decirle-cirujano-disparado_0_1612038802.html'
p3
aS'https://www.clarin.com/sociedad/Dock-Sud-decirle-cirujano-disparado_0_1612038802.html'
p4
aS'https://www.clarin.com/sociedad/Hackers-lograron-automaticos-escupieran-millones_0_1612038798.html'
p5
aS'https://www.clarin.com/sociedad/Hackers-lograron-automaticos-escupieran-millones_0_1612038798.html'
p6
aS'https://www.clarin.com/politica/Encuesta-kirchnerista-imagen-Anibal-Fernandez_0_1612038796.html'
p7
aS'https://www.clarin.com/politica/Encuesta-kirchnerista-imagen-Anibal-Fernandez_0_1612038796.html'
p8
aS'https://www.clarin.com/ieco/Aranguren-renuncias-evaluan-producen_0_1612038797.html'
p9
aS'https://www.clarin.com/ieco/Aranguren-renuncias-evaluan-producen_0_1612038797.html'
p10
aS'https://www.clarin.com/politica/dirigente-Movimiento-Evita-estallido-recibida_0_1612038791.html'
p11
aS'https://www.clarin.com/politica/dirigente-Movimiento-Evita-estallido-recibida_0_1612038791.html'
p12
aS'https://www.clarin.com/politica/Pinedo-atinado-andar-patas-remera_0_1612038789.html'
p13
aS'https://www.clarin.com/politica/Pinedo-atinado-andar-patas-remera_0_1612038789.html'
p14
aS'https://www.clarin.com/politica/Peronismo-medio-crisis-unidos-macrismo_0_1612038787.html'
p15
aS'https://www.clarin.com/politica/Peronismo-medio-crisis-unidos-macrismo_0_1612038787.html'
p16
a.