(lp0
S'https://www.clarin.com/sociedad/chicos-quieren-argentino-sexualidad-bullying_0_1676232549.html'
p1
aS'https://www.clarin.com/sociedad/Bruce-Dickinson-lideres-innovacion-Tecnopolis_0_1676232550.html'
p2
a.