(lp0
S'https://www.clarin.com/opinion/Narcotrafico-Justicia-Iglesia-politica_0_1580241974.html'
p1
aS'https://www.clarin.com/opinion/Veto-politico-jugada-politica_0_1580241973.html'
p2
aS'https://www.clarin.com/opinion/jubilados-privados-justicia_0_1579642179.html'
p3
aS'https://www.clarin.com/opinion/AFIP-Echegaray-espio-Macri-entorno_0_1579642203.html'
p4
aS'https://www.clarin.com/opinion/AFIP-Echegaray-espio-Macri-entorno_0_1579642203.html'
p5
aS'https://www.clarin.com/politica/sindicalismo-voto-dividido-aumentos-Consejo_0_1579642246.html'
p6
aS'https://www.clarin.com/politica/sindicalismo-voto-dividido-aumentos-Consejo_0_1579642246.html'
p7
aS'https://www.clarin.com/politica/seguro-desempleo-solo-cobran-desocupados_0_1579642247.html'
p8
aS'https://www.clarin.com/sociedad/Amo-hijos-quiero-cuidar-puedo_0_1579642240.html'
p9
aS'https://www.clarin.com/sociedad/Amo-hijos-quiero-cuidar-puedo_0_1579642240.html'
p10
a.