(lp0
S'https://www.clarin.com/ieco/economia/dolar-avanza-centavos_0_1549045345.html'
p1
aS'https://www.clarin.com/ieco/economia/dolar-avanza-centavos_0_1549045345.html'
p2
aS'https://www.clarin.com/sociedad/Confirmaron-procesamiento-Vicky-Xipolitakis-escandalo_0_1549045421.html'
p3
aS'https://www.clarin.com/sociedad/Confirmaron-procesamiento-Vicky-Xipolitakis-escandalo_0_1549045421.html'
p4
aS'https://www.clarin.com/sociedad/leon-sudafrica-Sylvester-Spook-escapa-matar_0_1549045389.html'
p5
aS'https://www.clarin.com/sociedad/leon-sudafrica-Sylvester-Spook-escapa-matar_0_1549045389.html'
p6
a.