(lp0
S'https://www.clarin.com/politica/Queremos-comprometida-sociedad-Ritondo-Bonaerense_0_1502850179.html'
p1
aS'https://www.clarin.com/ieco/economia/Alto-Valle-productores-precio-minimo_0_1502850019.html'
p2
aS'https://www.clarin.com/ieco/fondos_buitre-default-citibank-thomas_griesa_0_1502850161.html'
p3
aS'https://www.clarin.com/ieco/fondos_buitre-default-citibank-thomas_griesa_0_1502850158.html'
p4
aS'https://www.clarin.com/ieco/fondos_buitre-default-citibank-thomas_griesa_0_1502850159.html'
p5
a.