(lp0
Vhttps://www.clarin.com/opinion/rebelion-victimas-cesa_0_1675032636.html
p1
aVhttps://www.clarin.com/politica/Anibal-Maximo-Kirchner-Sabbatella-formula_0_1675032631.html
p2
aVhttps://www.clarin.com/politica/Anibal-Maximo-Kirchner-Sabbatella-formula_0_1675032631.html
p3
aVhttps://www.clarin.com/ieco/AFIP-detras-argentinos-evasores-Brasil_0_1675032630.html
p4
aVhttps://www.clarin.com/ieco/AFIP-detras-argentinos-evasores-Brasil_0_1675032630.html
p5
aVhttps://www.clarin.com/politica/Chicana-vidalista-PJ-Maria-Eugenia_0_1675032623.html
p6
aVhttps://www.clarin.com/politica/Chicana-vidalista-PJ-Maria-Eugenia_0_1675032623.html
p7
a.