(lp0
S'https://www.clarin.com/ieco/economia/Provincia-distribuidoras-electricas-aplicar-tarifazos_0_1591640912.html'
p1
aS'https://www.clarin.com/politica/Macri-arritmia-agenda-Olivos_0_1591640901.html'
p2
aS'https://www.clarin.com/sociedad/Descubren-Malasia-arbol-metros-altura_0_1591640910.html'
p3
aS'https://www.clarin.com/sociedad/Abandonan-bebe-solo-dias-descampado_0_1591640907.html'
p4
a.