(lp0
S'https://www.clarin.com/politica/Hoy-autocritica-Cristina-Kirchner-oficialista_0_1634236655.html'
p1
aS'https://www.clarin.com/politica/Desconcierto-sorpresa-Gobierno-fallo_0_1634236652.html'
p2
aS'https://www.clarin.com/politica/Corte-reabre-discusion-Defensor-Pueblo_0_1634236641.html'
p3
aS'https://www.clarin.com/ieco/economia/Gas-parte-fallo-sorprendio-Gobierno_0_1634236643.html'
p4
aS'https://www.clarin.com/politica/Nuevo-pedido-municipio-maquinaria-Austral_0_1634236612.html'
p5
aS'https://www.clarin.com/sociedad/Encontraron-cocaina-cuerpo-Rocio-Artigas_0_1634236654.html'
p6
aS'https://www.clarin.com/sociedad/tradicion-japonesa-abierta-mundo_0_1634236649.html'
p7
aS'https://www.clarin.com/politica/Mandatos-eternos-intendentes-ganaron-reelecciones_0_1634236656.html'
p8
a.