(lp0
Vhttps://www.clarin.com/opinion/mentiras-fiscales-patas-cortas_0_1564043726.html
p1
aVhttps://www.clarin.com/opinion/Modernizacion-nueva-etiqueta-viejo-envase_0_1564043723.html
p2
aVhttps://www.clarin.com/opinion/Bernardo-Hirsch-sabiduria-sobreviviente_0_1564043731.html
p3
aVhttps://www.clarin.com/opinion/Bernardo-Hirsch-sabiduria-sobreviviente_0_1564043731.html
p4
aVhttps://www.clarin.com/opinion/hospital-mascotas-historias-animalitos_0_1564043730.html
p5
aVhttps://www.clarin.com/opinion/hospital-mascotas-historias-animalitos_0_1564043730.html
p6
aVhttps://www.clarin.com/opinion/Planeamiento-estrategico-participativo-clave_0_1564043717.html
p7
aVhttps://www.clarin.com/sociedad/consumidores-esporadicos-drogas-vulnerables_0_1564043733.html
p8
aVhttps://www.clarin.com/opinion/corrupcion-sistema-Kirchner_0_1564643525.html
p9
aVhttps://www.clarin.com/opinion/corrupcion-sistema-Kirchner_0_1564643525.html
p10
aVhttps://www.clarin.com/opinion/ajuste-urgencias-piden-pista_0_1564643524.html
p11
aVhttps://www.clarin.com/opinion/Cristina-obligada-escuchar-criticas_0_1564643523.html
p12
aVhttps://www.clarin.com/opinion/Macri-primer-gran-desafio-oposicion_0_1564643522.html
p13
aVhttps://www.clarin.com/sociedad/Urban-explorers-tientan-viralizan-Instagram_0_1564043708.html
p14
aVhttps://www.clarin.com/sociedad/Urban-explorers-tientan-viralizan-Instagram_0_1564043708.html
p15
a.