(lp0
Vhttps://www.clarin.com/sociedad/chicos-perfiles-Web-alertan-identidades_0_1589841007.html
p1
aVhttps://www.clarin.com/opinion/Brasil-criminalizada-perseguir-selectivamente-gobierno_0_1589241149.html
p2
aVhttps://www.clarin.com/opinion/Brasil-criminalizada-perseguir-selectivamente-gobierno_0_1589241149.html
p3
aVhttps://www.clarin.com/opinion/meses-Gobierno-acuerdo-pocos-antecedentes_0_1589241152.html
p4
aVhttps://www.clarin.com/opinion/Campanadas-alerta-suenan-Europa_0_1589241150.html
p5
aVhttps://www.clarin.com/opinion/Parapente-hombre-puede-volar_0_1589241147.html
p6
aVhttps://www.clarin.com/opinion/Parapente-hombre-puede-volar_0_1589241147.html
p7
aVhttps://www.clarin.com/opinion/Todavia-entienden-economia-complica_0_1589241153.html
p8
aVhttps://www.clarin.com/opinion/bibliotecaria-Bombonera_0_1588641305.html
p9
aVhttps://www.clarin.com/opinion/bibliotecaria-Bombonera_0_1588641305.html
p10
aVhttps://www.clarin.com/opinion/duelo-mafiosos-honestos_0_1589841006.html
p11
aVhttps://www.clarin.com/opinion/duelo-mafiosos-honestos_0_1589841006.html
p12
aVhttps://www.clarin.com/opinion/pinchandose-inflacion_0_1589841005.html
p13
a.