(lp0
Vhttps://www.clarin.com/politica/Milagro-Sala-millones-pesos-termino_0_1620438083.html
p1
aVhttps://www.clarin.com/politica/Milagro-Sala-millones-pesos-termino_0_1620438083.html
p2
aVhttps://www.clarin.com/politica/Macri-viaja-Peru-reune-Kucksynski_0_1620438076.html
p3
aVhttps://www.clarin.com/politica/Macri-viaja-Peru-reune-Kucksynski_0_1620438076.html
p4
aVhttps://www.clarin.com/politica/apuesta-macrista-EEUU-Hillary-Trump_0_1621037888.html
p5
aVhttps://www.clarin.com/politica/apuesta-macrista-EEUU-Hillary-Trump_0_1621037888.html
p6
aVhttps://www.clarin.com/sociedad/Cuenta-regresiva-actualizar-Windows_0_1620438130.html
p7
aVhttps://www.clarin.com/sociedad/Cuenta-regresiva-actualizar-Windows_0_1620438130.html
p8
aVhttps://www.clarin.com/politica/Gran-Hermano-gestacion_0_1621037886.html
p9
aVhttps://www.clarin.com/politica/panos-menores_0_1621037885.html
p10
aVhttps://www.clarin.com/opinion/Calumnias-injurias-paradojas-lecciones_0_1620438102.html
p11
aVhttps://www.clarin.com/opinion/Calumnias-injurias-paradojas-lecciones_0_1620438102.html
p12
aVhttps://www.clarin.com/opinion/genero-asimetria-Norte-Sur_0_1620438090.html
p13
aVhttps://www.clarin.com/opinion/Gobierno-explicar-decisiones-mejora-gestion_0_1620438100.html
p14
a.