(lp0
S'https://www.clarin.com/ieco/Preocupacion-industria-electronica-Tierra-Fuego_0_1559244276.html'
p1
aS'https://www.clarin.com/sociedad/Provincia-desmiente-segunda-bacteria-Berazategui_0_1559244279.html'
p2
aS'https://www.clarin.com/ieco/Prat-Gay-G-20-busca-emision-deuda_0_1559244262.html'
p3
aS'https://www.clarin.com/sociedad/Video-enorme-caiman-devora-cria_0_1559244296.html'
p4
aS'https://www.clarin.com/sociedad/Cordoba-cayo-parte-techo-hospital_0_1559244287.html'
p5
aS'https://www.clarin.com/politica/concejal-llama-derrocar-Macri_0_1559244257.html'
p6
aS'https://www.clarin.com/ieco/economia/Grobocopatel-lluvias-perderan-millones-toneladas_0_1559244283.html'
p7
a.