(lp0
Vhttps://www.clarin.com/politica/Casacion-financista-Greppi-proseguir-investigacion_0_1685231596.html
p1
aVhttps://www.clarin.com/politica/Casacion-financista-Greppi-proseguir-investigacion_0_1685231596.html
p2
aVhttps://www.clarin.com/sociedad/Consumio-pastillas-adelgazar-allanaron-consultorio_0_1685231595.html
p3
aVhttps://www.clarin.com/sociedad/Consumio-pastillas-adelgazar-allanaron-consultorio_0_1685231595.html
p4
aVhttps://www.clarin.com/sociedad/viene-nueva-moda-gastrosexuales_0_1685231591.html
p5
aVhttps://www.clarin.com/sociedad/viene-nueva-moda-gastrosexuales_0_1685231591.html
p6
aVhttps://www.clarin.com/ieco/economia/Gobierno-coloca-Banco-Nacion-millones_0_1685231588.html
p7
aVhttps://www.clarin.com/sociedad/gremio-Pinedo-puede-vivir-docente_0_1685231585.html
p8
aVhttps://www.clarin.com/sociedad/gremio-Pinedo-puede-vivir-docente_0_1685231585.html
p9
aVhttps://www.clarin.com/politica/Gobierno-intimo-medios-regularicen-deudas_0_1685231577.html
p10
aVhttps://www.clarin.com/politica/Duhalde-Macri-experiencia-momentos-dificiles_0_1685231575.html
p11
aVhttps://www.clarin.com/politica/Duhalde-Macri-experiencia-momentos-dificiles_0_1685231575.html
p12
a.