(lp0
S'https://www.clarin.com/opinion/devaluacion-empresario_0_1602439841.html'
p1
aS'https://www.clarin.com/opinion/devaluacion-empresario_0_1602439841.html'
p2
aS'https://www.clarin.com/opinion/celular-Lopez-verdad-alcance-mano_0_1602439840.html'
p3
aS'https://www.clarin.com/opinion/Repensar-transporte-urbano_0_1602439837.html'
p4
aS'https://www.clarin.com/sociedad/disfraz-intoxicaciones-monoxido-cronico-desconocido_0_1602439871.html'
p5
aS'https://www.clarin.com/sociedad/disyuntor-previene-reclaman-evitar-tragedias_0_1602439872.html'
p6
aS'https://www.clarin.com/sociedad/disyuntor-previene-reclaman-evitar-tragedias_0_1602439872.html'
p7
aS'https://www.clarin.com/sociedad/clases-semanas-seguidas-feriado_0_1602439875.html'
p8
aS'https://www.clarin.com/politica/Poskirchnerismo-nuevo-peronismo_0_1603039685.html'
p9
aS'https://www.clarin.com/opinion/Ladrones_0_1603039684.html'
p10
a.