(lp0
S'https://www.clarin.com/politica/Patricia-Bullrich-Anibal-Fernandez-preocupada_0_1598840114.html'
p1
aS'https://www.clarin.com/politica/Patricia-Bullrich-Anibal-Fernandez-preocupada_0_1598840114.html'
p2
aS'https://www.clarin.com/sociedad/ventas-Dia-Padre-cayeron_0_1598240290.html'
p3
aS'https://www.clarin.com/sociedad/ventas-Dia-Padre-cayeron_0_1598240290.html'
p4
aS'https://www.clarin.com/ieco/economia/Ryanair-pidiendo-aterrizar-negocio-cabotaje_0_1598240281.html'
p5
aS'https://www.clarin.com/ieco/Philips-televisores-vuelva-equipos-medicos_0_1598240280.html'
p6
aS'https://www.clarin.com/politica/Corrupcion-pobreza-Macri-Iglesia-Tucuman_0_1598840105.html'
p7
aS'https://www.clarin.com/politica/Corrupcion-pobreza-Macri-Iglesia-Tucuman_0_1598840105.html'
p8
aS'https://www.clarin.com/politica/Perez-Corradi-Paraguay-Gobierno-extradicion_0_1598240291.html'
p9
aS'https://www.clarin.com/politica/Perez-Corradi-Paraguay-Gobierno-extradicion_0_1598240291.html'
p10
aS'https://www.clarin.com/politica/Lopez-eslabon-negocios-millonarios-Baez_0_1598240302.html'
p11
aS'https://www.clarin.com/politica/Lopez-eslabon-negocios-millonarios-Baez_0_1598240302.html'
p12
a.