(lp0
S'https://www.clarin.com/politica/Stolbizer-abucheos-ridiculos-desastre-dejaron_0_1532247054.html'
p1
aS'https://www.clarin.com/politica/Stolbizer-abucheos-ridiculos-desastre-dejaron_0_1532247054.html'
p2
aS'https://www.clarin.com/politica/Escandalo-Nisman-denuncio-penalmente-Fein_0_1532247050.html'
p3
aS'https://www.clarin.com/politica/Escandalo-Nisman-denuncio-penalmente-Fein_0_1532247050.html'
p4
aS'https://www.clarin.com/sociedad/Irlanda-Norte-filmaron-aspirando-cocaina_0_1532247046.html'
p5
aS'https://www.clarin.com/sociedad/Irlanda-Norte-filmaron-aspirando-cocaina_0_1532247046.html'
p6
aS'https://www.clarin.com/politica/frases-fuertes-discurso_0_1532247044.html'
p7
aS'https://www.clarin.com/politica/frases-fuertes-discurso_0_1532247044.html'
p8
aS'https://www.clarin.com/ieco/economia/vicio-argentino-comen-kilos-galletitas_0_1532247043.html'
p9
aS'https://www.clarin.com/ieco/economia/vicio-argentino-comen-kilos-galletitas_0_1532247043.html'
p10
aS'https://www.clarin.com/ieco/economia/bonos-poder-Singer-rendimiento_0_1532247042.html'
p11
aS'https://www.clarin.com/ieco/economia/bonos-poder-Singer-rendimiento_0_1532247042.html'
p12
aS'https://www.clarin.com/politica/diputada-Campora-desaforada-Macri_0_1532247036.html'
p13
aS'https://www.clarin.com/politica/diputada-Campora-desaforada-Macri_0_1532247036.html'
p14
aS'https://www.clarin.com/sociedad/Homicidios-Montanita-argentinos-viajarian-Ecuador_0_1532247029.html'
p15
aS'https://www.clarin.com/sociedad/Homicidios-Montanita-argentinos-viajarian-Ecuador_0_1532247029.html'
p16
aS'https://www.clarin.com/politica/Macri-recargado-pedido-hinchada_0_1532247030.html'
p17
aS'https://www.clarin.com/politica/Macri-recargado-pedido-hinchada_0_1532247030.html'
p18
a.