(lp0
S'https://www.clarin.com/ieco/economia/Blanqueo-saber_0_1607839424.html'
p1
aS'https://www.clarin.com/politica/Juliana-Awada-milanesa-compras-Berlin_0_1607839427.html'
p2
aS'https://www.clarin.com/politica/Cristina-postergo-cita-Tribunales-Baez_0_1607839362.html'
p3
a.