(lp0
S'https://www.clarin.com/politica/Pichetto-intendentes-apoyo-aleja-peronismo_0_1592840833.html'
p1
aS'https://www.clarin.com/politica/Pichetto-intendentes-apoyo-aleja-peronismo_0_1592840833.html'
p2
aS'https://www.clarin.com/sociedad/estudio-descifran-funcionaba-computadora-historia_0_1592840832.html'
p3
aS'https://www.clarin.com/sociedad/estudio-descifran-funcionaba-computadora-historia_0_1592840832.html'
p4
aS'https://www.clarin.com/sociedad/contaminacion-principales-factores-riesgo-ACV_0_1592840829.html'
p5
aS'https://www.clarin.com/sociedad/contaminacion-principales-factores-riesgo-ACV_0_1592840829.html'
p6
aS'https://www.clarin.com/ieco/economia/Chaco-saldra-colocar-deuda-exterior_0_1592840822.html'
p7
aS'https://www.clarin.com/ieco/economia/Chaco-saldra-colocar-deuda-exterior_0_1592840822.html'
p8
aS'https://www.clarin.com/politica/Gracias-Acuerdo-Randazzo-Dominguez-BAPRO_0_1592840827.html'
p9
aS'https://www.clarin.com/ieco/economia/Ampliaron-excluidos-Gobernadores-legisladores-blanqueo_0_1592840821.html'
p10
a.