(lp0
S'https://www.clarin.com/politica/Detuvieron-dirigente-Milagro-Sala-allanaron_0_1505249719.html'
p1
aS'https://www.clarin.com/politica/Detuvieron-dirigente-Milagro-Sala-allanaron_0_1505249719.html'
p2
aS'https://www.clarin.com/sociedad/Pacho-ODonnell-quiere-animales-billetes_0_1505249716.html'
p3
aS'https://www.clarin.com/politica/abogado-Nisman-indiscutible-fiscal-asesinaron_0_1505249687.html'
p4
aS'https://www.clarin.com/sociedad/Alerta-amarilla-calor-Ciudad_0_1505249688.html'
p5
aS'https://www.clarin.com/sociedad/Alerta-amarilla-calor-Ciudad_0_1505249688.html'
p6
aS'https://www.clarin.com/politica/Sol-gremial-connivencia-empresarios-Recalde_0_1505249673.html'
p7
aS'https://www.clarin.com/politica/Victor-Hugo-Morales-Radio-Nacional_0_1505249661.html'
p8
aS'https://www.clarin.com/politica/Victor-Hugo-Morales-Radio-Nacional_0_1505249661.html'
p9
a.