(lp0
S'https://www.clarin.com/politica/Cristina-Kirchner-persecucion-Mauricio-Macri_0_1678032271.html'
p1
aS'https://www.clarin.com/politica/Investigaran-Cristina-Kirchner-Maximo-Florencia_0_1678032259.html'
p2
aS'https://www.clarin.com/sociedad/Besazo-masivo-Cordoba-protestar-discriminacion_0_1678032267.html'
p3
aS'https://www.clarin.com/sociedad/noviembre-viajar-exterior-DNI-libreta_0_1678032269.html'
p4
aS'https://www.clarin.com/sociedad/Consejos-comprar-CyberMonday_0_1678032268.html'
p5
a.