(lp0
Vhttps://www.clarin.com/politica/Papa-hablara-Casanello-Lorenzetti-jueces_0_1588041247.html
p1
aVhttps://www.clarin.com/politica/Papa-hablara-Casanello-Lorenzetti-jueces_0_1588041247.html
p2
aVhttps://www.clarin.com/politica/Despues-Mirtha-Macri-jubilados-Rosada_0_1588041246.html
p3
aVhttps://www.clarin.com/politica/Despues-Mirtha-Macri-jubilados-Rosada_0_1588041246.html
p4
aVhttps://www.clarin.com/politica/Piendo-mediador-Michetti-concepto-Carrio_0_1588041244.html
p5
aVhttps://www.clarin.com/politica/Piendo-mediador-Michetti-concepto-Carrio_0_1588041244.html
p6
aVhttps://www.clarin.com/ieco/economia/Gobierno-US-millones-BCRA-FMI_0_1588041243.html
p7
aVhttps://www.clarin.com/ieco/economia/Gobierno-US-millones-BCRA-FMI_0_1588041243.html
p8
aVhttps://www.clarin.com/politica/Allanan-compartido-Lazaro-Cristina-negocios_0_1588041240.html
p9
aVhttps://www.clarin.com/politica/Allanan-compartido-Lazaro-Cristina-negocios_0_1588041240.html
p10
aVhttps://www.clarin.com/sociedad/milagro-nacio-panda-gigante_0_1588041238.html
p11
aVhttps://www.clarin.com/sociedad/milagro-nacio-panda-gigante_0_1588041238.html
p12
aVhttps://www.clarin.com/politica/Bonadio-proceso-Echegaray-violacion-secreto_0_1588041236.html
p13
aVhttps://www.clarin.com/politica/Bonadio-proceso-Echegaray-violacion-secreto_0_1588041236.html
p14
aVhttps://www.clarin.com/ieco/Autos-tasa-subsidiada-marcas-sumaron_0_1588041235.html
p15
aVhttps://www.clarin.com/ieco/Autos-tasa-subsidiada-marcas-sumaron_0_1588041235.html
p16
aVhttps://www.clarin.com/politica/Papa-Macri-encuesta-gente-relacion_0_1588041234.html
p17
a.