(lp0
S'https://www.clarin.com/opinion/llevo-Barack-Obama-valija_0_1551445204.html'
p1
aS'https://www.clarin.com/opinion/Gira-Obama-visita-historica-paises_0_1551445202.html'
p2
aS'https://www.clarin.com/opinion/mapa-nuevos-limites-otorga-soberania_0_1551445196.html'
p3
aS'https://www.clarin.com/opinion/Semana-Santa-Sicilia-musculos-entrenados_0_1551445179.html'
p4
aS'https://www.clarin.com/opinion/Semana-Santa-Sicilia-musculos-entrenados_0_1551445179.html'
p5
aS'https://www.clarin.com/opinion/Andrea-Gamarnik-cientifica-calla_0_1551445175.html'
p6
aS'https://www.clarin.com/opinion/Andrea-Gamarnik-cientifica-calla_0_1551445175.html'
p7
aS'https://www.clarin.com/opinion/Consolidando-derechos-Atlantico-Sur_0_1551445194.html'
p8
aS'https://www.clarin.com/sociedad/emocion-soldado-recupero-casco-despues_0_1551445238.html'
p9
aS'https://www.clarin.com/sociedad/emocion-soldado-recupero-casco-despues_0_1551445238.html'
p10
aS'https://www.clarin.com/sociedad/Clarin-reafirma-liderazgo-mundo-movil_0_1551445166.html'
p11
a.