(lp0
S'https://www.clarin.com/ieco/economia/Canasta-Basica-Consumidores-aumento-acumulo_0_1570043124.html'
p1
aS'https://www.clarin.com/sociedad/Murio-siamesas-separadas-hospital-Posadas_0_1570043128.html'
p2
aS'https://www.clarin.com/sociedad/Murio-siamesas-separadas-hospital-Posadas_0_1570043128.html'
p3
aS'https://www.clarin.com/politica/nacional-intervenir-petrolera-Cristobal-Lopez_0_1570043121.html'
p4
aS'https://www.clarin.com/politica/nacional-intervenir-petrolera-Cristobal-Lopez_0_1570043121.html'
p5
aS'https://www.clarin.com/ieco/economia/dolar-centavos-Bolsa-caia_0_1570043113.html'
p6
aS'https://www.clarin.com/sociedad/Dia-Milanesa-receta-abuela_0_1570043122.html'
p7
aS'https://www.clarin.com/sociedad/Dia-Milanesa-receta-abuela_0_1570043122.html'
p8
a.