(lp0
S'https://www.clarin.com/politica/Lanata-Cristina-libre-proximas-elecciones_0_1637236408.html'
p1
aS'https://www.clarin.com/politica/Lanata-Cristina-libre-proximas-elecciones_0_1637236408.html'
p2
aS'https://www.clarin.com/opinion/Reconstruir-capacidad-defensa-nacional_0_1637236402.html'
p3
aS'https://www.clarin.com/politica/Facultad-Filosofia-Cordoba-Milagro-Sala_0_1637236401.html'
p4
aS'https://www.clarin.com/politica/Facultad-Filosofia-Cordoba-Milagro-Sala_0_1637236401.html'
p5
aS'https://www.clarin.com/politica/Macri-encabeza-reunion-clave-tarifas_0_1637236399.html'
p6
aS'https://www.clarin.com/politica/Macri-encabeza-reunion-clave-tarifas_0_1637236399.html'
p7
aS'https://www.clarin.com/ieco/desocupacion-Indec_0_1637236397.html'
p8
aS'https://www.clarin.com/ieco/desocupacion-Indec_0_1637236397.html'
p9
aS'https://www.clarin.com/sociedad/Condenan-supermercado-indemnizar-llamarla-grandes_0_1637236395.html'
p10
aS'https://www.clarin.com/sociedad/Condenan-supermercado-indemnizar-llamarla-grandes_0_1637236395.html'
p11
a.