(lp0
S'https://www.clarin.com/sociedad/MDQ-aventura-solidaria-Sol-Chicos_0_1619838061.html'
p1
aS'https://www.clarin.com/politica/Justicia-Legitima-Macri-politicas-Ejecutivo_0_1619838064.html'
p2
aS'https://www.clarin.com/sociedad/Conmovedora-medica-recibir-muerto-domiciliario_0_1619838060.html'
p3
aS'https://www.clarin.com/sociedad/seguro-parto-domiciliario_0_1619838059.html'
p4
aS'https://www.clarin.com/politica/ATE-anuncian-Vamos-nacional-estatales_0_1619838055.html'
p5
a.