(lp0
S'https://www.clarin.com/politica/Renuncio-ACUMAR-encarga-limpieza-Riachuelo_0_1527447634.html'
p1
aS'https://www.clarin.com/politica/Renuncio-ACUMAR-encarga-limpieza-Riachuelo_0_1527447634.html'
p2
aS'https://www.clarin.com/politica/protocolo-debut_0_1527447629.html'
p3
aS'https://www.clarin.com/politica/protocolo-debut_0_1527447629.html'
p4
a.