(lp0
S'https://www.clarin.com/sociedad/cruzo-vias-distraido-mato-tren_0_1628237248.html'
p1
aS'https://www.clarin.com/sociedad/Sol-Chicos-maternales-garantizar-educacion_0_1628237260.html'
p2
aS'https://www.clarin.com/politica/psicologo-atiene-Macri-hace-anos_0_1628237254.html'
p3
aS'https://www.clarin.com/politica/gremialista-historico-resiste-dejar-reeleccion_0_1628237259.html'
p4
a.