(lp0
Vhttps://www.clarin.com/politica/misterioso-militante-PJ-empujo-silla_0_1584441754.html
p1
aVhttps://www.clarin.com/politica/misterioso-militante-PJ-empujo-silla_0_1584441754.html
p2
aVhttps://www.clarin.com/politica/mejoras-promedio-haberes-jubilados_0_1584441777.html
p3
aVhttps://www.clarin.com/politica/mejoras-promedio-haberes-jubilados_0_1584441777.html
p4
a.