(lp0
S'https://www.clarin.com/sociedad/Murio-mujer-inspiro-Peperina_0_1653434658.html'
p1
aS'https://www.clarin.com/politica/aliado-Nestor-Kirchner-voracidad-enfermiza_0_1653434673.html'
p2
aS'https://www.clarin.com/sociedad/Cansado-demoras-ingeniero-opero-mismo_0_1653434672.html'
p3
aS'https://www.clarin.com/sociedad/choco-regulador-descubierto-Tolosa-muerto_0_1653434660.html'
p4
aS'https://www.clarin.com/sociedad/Horror-Espana-descuartizan-toda-familia_0_1653434659.html'
p5
a.