(lp0
Vhttps://www.clarin.com/ieco/economia/Autorizan-nuevo-aumento-prepagas_0_1574842514.html
p1
aVhttps://www.clarin.com/sociedad/Vuelven-aumentar-prepagas-subiran-julio_0_1574842512.html
p2
aVhttps://www.clarin.com/sociedad/Vuelven-aumentar-prepagas-subiran-julio_0_1574842512.html
p3
aVhttps://www.clarin.com/politica/fiscal-Quiroga-murio-pulmonar-agudo_0_1574842511.html
p4
aVhttps://www.clarin.com/politica/fiscal-Quiroga-murio-pulmonar-agudo_0_1574842511.html
p5
aVhttps://www.clarin.com/politica/Michetti-Asia-Argentina-oportunidad-gigantesca_0_1574842510.html
p6
aVhttps://www.clarin.com/politica/Michetti-Asia-Argentina-oportunidad-gigantesca_0_1574842510.html
p7
aVhttps://www.clarin.com/ieco/economia/Grupo-Supervielle-Bolsa-US-millones_0_1574242648.html
p8
aVhttps://www.clarin.com/ieco/economia/Grupo-Supervielle-Bolsa-US-millones_0_1574242648.html
p9
aVhttps://www.clarin.com/ieco/Cabrera-Abad-UIA-elogios-reclamos_0_1574242769.html
p10
aVhttps://www.clarin.com/ieco/Cabrera-Abad-UIA-elogios-reclamos_0_1574242769.html
p11
aVhttps://www.clarin.com/ieco/Inflacion-Banco-Central-cautela-mantiene_0_1574242772.html
p12
aVhttps://www.clarin.com/ieco/soja-toco-dolares-Chicago_0_1574242668.html
p13
aVhttps://www.clarin.com/ieco/soja-toco-dolares-Chicago_0_1574242668.html
p14
a.