(lp0
S'https://www.clarin.com/sociedad/Video-filmo-paseador-maltrataba-perros_0_1630636946.html'
p1
aS'https://www.clarin.com/politica/represion-ilegal-alguna-represor-Menendez_0_1630037202.html'
p2
aS'https://www.clarin.com/sociedad/Revelan-chico-tobogan-alto-mundo_0_1630636944.html'
p3
aS'https://www.clarin.com/sociedad/Montanita-nuevos-detalles-violenta-mendocinas_0_1630636945.html'
p4
a.