(lp0
Vhttps://www.clarin.com/politica/intendente-quizo-evitar-pagar-Ganancias_0_1548445552.html
p1
aVhttps://www.clarin.com/politica/acuerdo-PRO-Schiavoni-sigue-partidario_0_1548445546.html
p2
aVhttps://www.clarin.com/politica/acuerdo-PRO-Schiavoni-sigue-partidario_0_1548445546.html
p3
aVhttps://www.clarin.com/sociedad/Impactante-video-atropello-conductor-alcoholizado_0_1548445547.html
p4
aVhttps://www.clarin.com/sociedad/Impactante-video-atropello-conductor-alcoholizado_0_1548445547.html
p5
aVhttps://www.clarin.com/politica/AFIP-inspecciono-flotante-Cristobal-Lopez_0_1548445530.html
p6
aVhttps://www.clarin.com/politica/Moyano-ahora-dice-movilizacion-polemica_0_1548445527.html
p7
aVhttps://www.clarin.com/politica/Moyano-ahora-dice-movilizacion-polemica_0_1548445527.html
p8
aVhttps://www.clarin.com/politica/Marijuan-denuncio-Sbatella-Tupac-Amaru_0_1548445485.html
p9
aVhttps://www.clarin.com/politica/Marijuan-denuncio-Sbatella-Tupac-Amaru_0_1548445485.html
p10
aVhttps://www.clarin.com/politica/natatorio-inauguro-Cristina-Kirchner-funciono_0_1548445522.html
p11
aVhttps://www.clarin.com/politica/natatorio-inauguro-Cristina-Kirchner-funciono_0_1548445522.html
p12
a.