(lp0
Vhttps://www.clarin.com/politica/Arranca-devolucion-IVA-jubilados-pensionados_0_1615638440.html
p1
aVhttps://www.clarin.com/politica/Arranca-devolucion-IVA-jubilados-pensionados_0_1615638440.html
p2
aVhttps://www.clarin.com/sociedad/NASA-transbordador-Dragon-espacio-extraterrestre_0_1615638439.html
p3
aVhttps://www.clarin.com/sociedad/NASA-transbordador-Dragon-espacio-extraterrestre_0_1615638439.html
p4
a.