(lp0
Vhttps://www.clarin.com/politica/Oficina-Anticorrupcion-actuacion-sociedades-Macri_0_1553244833.html
p1
aVhttps://www.clarin.com/politica/Oficina-Anticorrupcion-actuacion-sociedades-Macri_0_1553244833.html
p2
aVhttps://www.clarin.com/ieco/Podrian-presentar-proyecto-devolucion-IVA_0_1553244829.html
p3
aVhttps://www.clarin.com/ieco/Podrian-presentar-proyecto-devolucion-IVA_0_1553244829.html
p4
aVhttps://www.clarin.com/politica/Marcos-Pena-offshore-Macri-ocultar_0_1553244825.html
p5
aVhttps://www.clarin.com/politica/Marcos-Pena-offshore-Macri-ocultar_0_1553244825.html
p6
aVhttps://www.clarin.com/politica/PanamaPapers-llego-tener-menciones-minuto_0_1553244817.html
p7
aVhttps://www.clarin.com/politica/PanamaPapers-llego-tener-menciones-minuto_0_1553244817.html
p8
aVhttps://www.clarin.com/sociedad/condenaron-vender-virginidad-hija-anos_0_1553244814.html
p9
aVhttps://www.clarin.com/politica/Panama-Papers-Macri-Cordoba-Pena_0_1553244802.html
p10
aVhttps://www.clarin.com/politica/Panama-Papers-Macri-Cordoba-Pena_0_1553244802.html
p11
a.