(lp0
S'https://www.clarin.com/politica/Cumbre_del_PJ_en_San_Juan_0_1509449490.html'
p1
aS'https://www.clarin.com/opinion/represas_Santa_Cruz_inversion_china_Alicia_Kirchner_Mauricio_Macri_desempleo_0_1509449489.html'
p2
aS'https://www.clarin.com/ieco/economia/Contaminacion-cero-Paris_0_1510049207.html'
p3
aS'https://www.clarin.com/ieco/economia/Inversion-prueba-caidas-precios_0_1510049201.html'
p4
aS'https://www.clarin.com/ieco/economia/Industria-naval-crecimiento_0_1510049206.html'
p5
aS'https://www.clarin.com/ieco/economia/Barack-Obama-nueva-geoeconomia_0_1510049203.html'
p6
aS'https://www.clarin.com/ieco/economia/enfoque-neoclasico-ve-relaciones-poder_0_1510049205.html'
p7
a.