(lp0
Vhttps://www.clarin.com/politica/Camara-Federal-Plata-Corte-Suprema_0_1625837417.html
p1
aVhttps://www.clarin.com/politica/Camara-Federal-Plata-Corte-Suprema_0_1625837417.html
p2
aVhttps://www.clarin.com/sociedad/aumento-manteca-docena-medialunas-pesos_0_1625837413.html
p3
aVhttps://www.clarin.com/sociedad/aumento-manteca-docena-medialunas-pesos_0_1625837413.html
p4
aVhttps://www.clarin.com/politica/apretando-calle-hablando-Baez-carcel_0_1625837412.html
p5
aVhttps://www.clarin.com/politica/apretando-calle-hablando-Baez-carcel_0_1625837412.html
p6
aVhttps://www.clarin.com/ieco/Virgin-Mobile-Gobierno-servicios-telefonia_0_1625237497.html
p7
aVhttps://www.clarin.com/ieco/Virgin-Mobile-Gobierno-servicios-telefonia_0_1625237497.html
p8
aVhttps://www.clarin.com/ieco/economia/Citi-anuncio-credito-US-millones_0_1625237667.html
p9
aVhttps://www.clarin.com/ieco/economia/Citi-anuncio-credito-US-millones_0_1625237667.html
p10
a.