(lp0
Vhttps://www.clarin.com/opinion/Cristina-bicicleta-dolar-juez_0_1558644508.html
p1
aVhttps://www.clarin.com/opinion/Cristina-bicicleta-dolar-juez_0_1558644508.html
p2
aVhttps://www.clarin.com/sociedad/duplico-precio-GNC-negocio-convertir_0_1558644601.html
p3
aVhttps://www.clarin.com/sociedad/duplico-precio-GNC-negocio-convertir_0_1558644601.html
p4
aVhttps://www.clarin.com/politica/emporio-estancias-Baez-podria-esconder_0_1558644486.html
p5
aVhttps://www.clarin.com/politica/emporio-estancias-Baez-podria-esconder_0_1558644486.html
p6
aVhttps://www.clarin.com/politica/Macri-acepto-renuncia-Oyarbide_0_1558644609.html
p7
aVhttps://www.clarin.com/politica/Macri-acepto-renuncia-Oyarbide_0_1558644609.html
p8
aVhttps://www.clarin.com/politica/Baez-seguira-Camara-Federal-recuperar_0_1558644543.html
p9
aVhttps://www.clarin.com/politica/Baez-seguira-Camara-Federal-recuperar_0_1558644543.html
p10
aVhttps://www.clarin.com/politica/meses-perdieron-empleos-privados_0_1558644548.html
p11
aVhttps://www.clarin.com/politica/construccion-acordo-aumento-salarios_0_1558644605.html
p12
aVhttps://www.clarin.com/politica/construccion-acordo-aumento-salarios_0_1558644605.html
p13
aVhttps://www.clarin.com/sociedad/Apoyo-docente-tomo-examen-polemico_0_1558644596.html
p14
aVhttps://www.clarin.com/sociedad/Enamorada-Marte-vivir-dias-NASA_0_1558644591.html
p15
aVhttps://www.clarin.com/politica/apoyo-PJ-Cristina-reunio-diputados_0_1558644640.html
p16
aVhttps://www.clarin.com/politica/apoyo-PJ-Cristina-reunio-diputados_0_1558644640.html
p17
aVhttps://www.clarin.com/politica/Campora-vez-controlo-seguridad-acto_0_1558644618.html
p18
a.