(lp0
S'https://www.clarin.com/politica/Rechazan-cautelar-audiencia-publica-Provincia_0_1621037916.html'
p1
aS'https://www.clarin.com/sociedad/Salven-Marina-Joyce-youtuber-insolita_0_1621037921.html'
p2
aS'https://www.clarin.com/sociedad/sacaban-vacas-camion-despues-faenarlas_0_1621037925.html'
p3
aS'https://www.clarin.com/politica/Jose-Lopez-revela-vinculos-Iglesia_0_1621037924.html'
p4
aS'https://www.clarin.com/politica/intendente-conto-Twitter-abrieron-sospechas_0_1621037920.html'
p5
aS'https://www.clarin.com/politica/Barrios-Pie-Buenos-Aires-Plata_0_1621037917.html'
p6
aS'https://www.clarin.com/politica/reabrir-denuncia-diputado-Rafecas-amenazas_0_1621037927.html'
p7
a.