(lp0
Vhttps://www.clarin.com/ieco/economia/Baja-Gobierno-indice-satisfaccion-institucional_0_1593440782.html
p1
aVhttps://www.clarin.com/ieco/economia/Baja-Gobierno-indice-satisfaccion-institucional_0_1593440782.html
p2
aVhttps://www.clarin.com/sociedad/Macri-Francisco-relacion-marcada-desencuentros_0_1593440774.html
p3
aVhttps://www.clarin.com/sociedad/Macri-Francisco-relacion-marcada-desencuentros_0_1593440774.html
p4
aVhttps://www.clarin.com/politica/Jaime-primer-kirchnerista-preso-corrupcion_0_1593440767.html
p5
aVhttps://www.clarin.com/politica/Jaime-primer-kirchnerista-preso-corrupcion_0_1593440767.html
p6
aVhttps://www.clarin.com/sociedad/oso-Arturo-pronostico-reservado-grave_0_1593440766.html
p7
aVhttps://www.clarin.com/sociedad/oso-Arturo-pronostico-reservado-grave_0_1593440766.html
p8
aVhttps://www.clarin.com/sociedad/Trabajo-infantil-anos-denuncias-condena_0_1593440760.html
p9
aVhttps://www.clarin.com/sociedad/Trabajo-infantil-anos-denuncias-condena_0_1593440760.html
p10
a.