(lp0
Vhttps://www.clarin.com/ieco/economia/Frenan-tarifazo-gas-Chubut_0_1582041856.html
p1
aVhttps://www.clarin.com/ieco/economia/Frenan-tarifazo-gas-Chubut_0_1582041856.html
p2
aVhttps://www.clarin.com/politica/Gobierno-denuncio-Anibal-Fernandez-subsidio_0_1582041853.html
p3
aVhttps://www.clarin.com/politica/Gobierno-denuncio-Anibal-Fernandez-subsidio_0_1582041853.html
p4
aVhttps://www.clarin.com/politica/Mayo-Papa-Macri-reconciliacion-fraternidad_0_1582041851.html
p5
aVhttps://www.clarin.com/politica/Mayo-Papa-Macri-reconciliacion-fraternidad_0_1582041851.html
p6
aVhttps://www.clarin.com/sociedad/Cirque-du-Soleil-informo-acrobata_0_1582041852.html
p7
aVhttps://www.clarin.com/sociedad/Cirque-du-Soleil-informo-acrobata_0_1582041852.html
p8
aVhttps://www.clarin.com/politica/Vidal-asignaciones-familiares-trabajadores-bonaerenses_0_1582041843.html
p9
aVhttps://www.clarin.com/politica/Vidal-asignaciones-familiares-trabajadores-bonaerenses_0_1582041843.html
p10
a.