(lp0
S'https://www.clarin.com/ieco/economia/Yahoo-negocio-remates-energia-Japon_0_1516048669.html'
p1
aS'https://www.clarin.com/sociedad/Colas-horas-cruzar-Stones-Chile_0_1516048674.html'
p2
aS'https://www.clarin.com/sociedad/Colas-horas-cruzar-Stones-Chile_0_1516048674.html'
p3
aS'https://www.clarin.com/politica/bloque-diputados-nacionales-PJ-romperse_0_1516048598.html'
p4
aS'https://www.clarin.com/politica/bloque-diputados-nacionales-PJ-romperse_0_1516048598.html'
p5
aS'https://www.clarin.com/ieco/economia/Caputo-negociaciones-buitre-espera-oferta_0_1516048655.html'
p6
aS'https://www.clarin.com/ieco/economia/Caputo-negociaciones-buitre-espera-oferta_0_1516048655.html'
p7
aS'https://www.clarin.com/sociedad/suicidio-actor-italiano-ahorcamiento_0_1516048646.html'
p8
aS'https://www.clarin.com/sociedad/suicidio-actor-italiano-ahorcamiento_0_1516048646.html'
p9
a.