(lp0
S'https://www.clarin.com/sociedad/seguridad-privada-responsabiliza-Prefectura-cacheos_0_1564043673.html'
p1
aS'https://www.clarin.com/politica/Macri-quiere-acelerar-prevenir-inundaciones_0_1564043665.html'
p2
aS'https://www.clarin.com/politica/Macri-quiere-acelerar-prevenir-inundaciones_0_1564043665.html'
p3
aS'https://www.clarin.com/sociedad/Costa-Salguero-relevan-custodia-fiesta_0_1564043663.html'
p4
aS'https://www.clarin.com/politica/Garavano-exigio-retiro-jueces-fiscales_0_1564043661.html'
p5
aS'https://www.clarin.com/politica/Gobierno-niega-despidos-masivos_0_1564043660.html'
p6
aS'https://www.clarin.com/politica/Moyano-pidio-ley-antidespidos-aumentos_0_1564043659.html'
p7
a.