(lp0
Vhttps://www.clarin.com/politica/Triple-abogada-Schillaci-fugaron-colaboracion_0_1498050318.html
p1
aVhttps://www.clarin.com/politica/Triple-abogada-Schillaci-fugaron-colaboracion_0_1498050318.html
p2
aVhttps://www.clarin.com/sociedad/joven-murio-chocar-ahorco-enterarse_0_1498050312.html
p3
aVhttps://www.clarin.com/ieco/Polemica-Uruguay-rescate-petrolera-ANCAP_0_1498050310.html
p4
aVhttps://www.clarin.com/ieco/economia/situacion-campo-cambio-medidas_0_1498050306.html
p5
aVhttps://www.clarin.com/politica/Frase-Cristina-gato-Ottavis_0_1498050296.html
p6
aVhttps://www.clarin.com/politica/Frase-Cristina-gato-Ottavis_0_1498050296.html
p7
aVhttps://www.clarin.com/sociedad/provincias-alerta-meteorologico_0_1498050294.html
p8
aVhttps://www.clarin.com/opinion/Eduardo_Castiglione_0_1498050234.html
p9
aVhttps://www.clarin.com/ieco/retenciones-mejora-no-llega-productor_0_1498050219.html
p10
a.