(lp0
Vhttps://www.clarin.com/politica/Justicia-allana-gobernacion-Santa-Cruz_0_1559244327.html
p1
aVhttps://www.clarin.com/politica/Justicia-allana-gobernacion-Santa-Cruz_0_1559244327.html
p2
aVhttps://www.clarin.com/ieco/economia/Adidas-vendera-hecha-residuos-plasticos_0_1559244320.html
p3
aVhttps://www.clarin.com/ieco/economia/Adidas-vendera-hecha-residuos-plasticos_0_1559244320.html
p4
aVhttps://www.clarin.com/sociedad/juega-Mundial-sommeliers_0_1559244307.html
p5
aVhttps://www.clarin.com/sociedad/juega-Mundial-sommeliers_0_1559244307.html
p6
aVhttps://www.clarin.com/sociedad/Bodegas-hoteles-sedes-Mundial-Sommeliers_0_1559244300.html
p7
aVhttps://www.clarin.com/sociedad/Bodegas-hoteles-sedes-Mundial-Sommeliers_0_1559244300.html
p8
aVhttps://www.clarin.com/ieco/economia/default-cobraran-comision-US-millones_0_1559244294.html
p9
aVhttps://www.clarin.com/ieco/economia/default-cobraran-comision-US-millones_0_1559244294.html
p10
a.