(lp0
S'https://www.clarin.com/politica/Termino-sindical-documento-politica-economica_0_1617438362.html'
p1
aS'https://www.clarin.com/politica/Denuncian-Vido-cocinera-lavado_0_1617438353.html'
p2
aS'https://www.clarin.com/ieco/Justicia-anule-amparos-concentren-Plata_0_1617438356.html'
p3
aS'https://www.clarin.com/ieco/economia/dolar-subio-centavos_0_1617438361.html'
p4
aS'https://www.clarin.com/politica/Florencia-Kirchner-embargo-cuentas-seguridad_0_1617438357.html'
p5
aS'https://www.clarin.com/sociedad/Insolito-hacian-tuneles-soterrar-Sarmiento_0_1617438355.html'
p6
aS'https://www.clarin.com/sociedad/Susto-Rio-Negro-caida-meteorito_0_1617438354.html'
p7
a.