(lp0
S'https://www.clarin.com/sociedad/turron-golosina-tradicional-explosion-ventas_0_1629437138.html'
p1
aS'https://www.clarin.com/sociedad/polo-final-abierto-tortugas-dolfina-ellerstina_0_1672632919.html'
p2
aS'https://www.clarin.com/sociedad/Haters-redes-denuncias-odio-digital_0_1666033485.html'
p3
aS'https://www.clarin.com/opinion/libro-blanco-Argentina_0_1673232711.html'
p4
aS'https://www.clarin.com/ieco/deficit-ayudas-Central-ANSeS-subio_0_1673232713.html'
p5
aS'https://www.clarin.com/politica/Aportan-Criminal-Cristina-favorecer-Baez_0_1672632875.html'
p6
a.