(lp0
Vhttps://www.clarin.com/sociedad/Zika-sospechan-familia-contagio-Brasil_0_1516648685.html
p1
aVhttps://www.clarin.com/politica/Marcos-Pena-Tupac-Milagro-Sala_0_1516648679.html
p2
aVhttps://www.clarin.com/politica/Consejo_de_la_Magistratura-subrogantes-reemplazos_0_1516648667.html
p3
aVhttps://www.clarin.com/sociedad/historia-pastel-exigieron-Rolling-Argentina_0_1516648658.html
p4
aVhttps://www.clarin.com/sociedad/historia-pastel-exigieron-Rolling-Argentina_0_1516648658.html
p5
a.