(lp0
S'https://www.clarin.com/sociedad/fotos-pueblos-olvidados-seguidores-Web_0_1648035260.html'
p1
aS'https://www.clarin.com/sociedad/fotos-pueblos-olvidados-seguidores-Web_0_1648035260.html'
p2
aS'https://www.clarin.com/sociedad/Bahia-Blanca-espectacular-incendio-pesquero_0_1648035250.html'
p3
aS'https://www.clarin.com/sociedad/Bahia-Blanca-espectacular-incendio-pesquero_0_1648035250.html'
p4
aS'https://www.clarin.com/sociedad/Murio-Greta-Friedman-Times-Square_0_1648035248.html'
p5
aS'https://www.clarin.com/sociedad/Murio-Greta-Friedman-Times-Square_0_1648035248.html'
p6
aS'https://www.clarin.com/sociedad/Encontraron-pesquero-hundido-buscaran-tripulantes_0_1648035245.html'
p7
aS'https://www.clarin.com/sociedad/Encontraron-pesquero-hundido-buscaran-tripulantes_0_1648035245.html'
p8
a.