(lp0
Vhttps://www.clarin.com/politica/millonaria-Szpolsk-trabajadores-hacen-popular_0_1508249317.html
p1
aVhttps://www.clarin.com/politica/millonaria-Szpolsk-trabajadores-hacen-popular_0_1508249317.html
p2
aVhttps://www.clarin.com/ieco/economia/Petrobras-admite-negocia-activos-argentinos_0_1508249319.html
p3
aVhttps://www.clarin.com/politica/Foro_de_Davos-Mauricio_Macri-David_Cameron_0_1508249313.html
p4
aVhttps://www.clarin.com/politica/Foro_de_Davos-Mauricio_Macri-David_Cameron_0_1508249313.html
p5
a.