(lp0
S'https://www.clarin.com/politica/Gildo-Insfran-Guillermo-Moreno-PJ_0_1550845272.html'
p1
aS'https://www.clarin.com/politica/Gildo-Insfran-Guillermo-Moreno-PJ_0_1550845272.html'
p2
aS'https://www.clarin.com/politica/Investigan-cantidad-plazos-Cristina-Kirchner_0_1550845239.html'
p3
aS'https://www.clarin.com/politica/Investigan-cantidad-plazos-Cristina-Kirchner_0_1550845239.html'
p4
aS'https://www.clarin.com/ieco/finanzas/primera-rueda-abril-repunto-centavos_0_1550845255.html'
p5
aS'https://www.clarin.com/ieco/finanzas/primera-rueda-abril-repunto-centavos_0_1550845255.html'
p6
a.