(lp0
S'https://www.clarin.com/politica/procesamientos-Consejo_de_la_Magistratura-ano_judicial_0_1520247963.html'
p1
aS'https://www.clarin.com/opinion/Eva_Marabotto-Pasiones_argentinas_0_1520247962.html'
p2
aS'https://www.clarin.com/ieco/empresas-y-negocios/Elsztain-expanden-negocio-minero_0_1519648407.html'
p3
aS'https://www.clarin.com/sociedad/Gourmet-TACC-aumenta-calidad-celiacos_0_1519648392.html'
p4
aS'https://www.clarin.com/sociedad/Gourmet-TACC-aumenta-calidad-celiacos_0_1519648392.html'
p5
aS'https://www.clarin.com/sociedad/Despues-playa-perfecto-vuelta-pesada_0_1519648449.html'
p6
aS'https://www.clarin.com/sociedad/Despues-playa-perfecto-vuelta-pesada_0_1519648449.html'
p7
aS'https://www.clarin.com/sociedad/mejor-semana-puede-salvar-temporada_0_1519648453.html'
p8
aS'https://www.clarin.com/sociedad/mejor-semana-puede-salvar-temporada_0_1519648453.html'
p9
a.