(lp0
S'https://www.clarin.com/politica/Dirigentes-DDHH-destacaron-desclasificacion-dictadura_0_1675032521.html'
p1
aS'https://www.clarin.com/politica/Dirigentes-DDHH-destacaron-desclasificacion-dictadura_0_1675032521.html'
p2
aS'https://www.clarin.com/ieco/Analizan-restablecer-reintegros-exportaciones-carne_0_1675032520.html'
p3
aS'https://www.clarin.com/ieco/Analizan-restablecer-reintegros-exportaciones-carne_0_1675032520.html'
p4
aS'https://www.clarin.com/politica/Duelo-PJ-despues-Vidal-Anibal_0_1675032513.html'
p5
aS'https://www.clarin.com/politica/Duelo-PJ-despues-Vidal-Anibal_0_1675032513.html'
p6
a.