(lp0
Vhttps://www.clarin.com/politica/Macri-Xi-Jimping-reunion-inversiones_0_1640236094.html
p1
aVhttps://www.clarin.com/politica/Macri-Xi-Jimping-reunion-inversiones_0_1640236094.html
p2
aVhttps://www.clarin.com/politica/CGT-preocupada-viaje-Macri-China_0_1640236069.html
p3
aVhttps://www.clarin.com/politica/CGT-preocupada-viaje-Macri-China_0_1640236069.html
p4
aVhttps://www.clarin.com/politica/pelea-Senado-BCRA-pagos-tarjeta_0_1638436181.html
p5
aVhttps://www.clarin.com/politica/pelea-Senado-BCRA-pagos-tarjeta_0_1638436181.html
p6
aVhttps://www.clarin.com/ieco/Ropa-zapatos-lideran-avalancha-importaciones_0_1640236128.html
p7
aVhttps://www.clarin.com/ieco/economia/dolar-cerro-valor-alto-julio_0_1640836053.html
p8
aVhttps://www.clarin.com/ieco/economia/Came-produccion-julio-mayor-caida_0_1640236067.html
p9
aVhttps://www.clarin.com/ieco/economia/Came-produccion-julio-mayor-caida_0_1640236067.html
p10
aVhttps://www.clarin.com/opinion/dignidad-parejas-mismo-sexo_0_1640236066.html
p11
aVhttps://www.clarin.com/opinion/Grieta-Retro-populistas-vs-retro-republicanos_0_1640236070.html
p12
aVhttps://www.clarin.com/politica/intento-ocupacion-policias-heridos-Moreno_0_1640835903.html
p13
aVhttps://www.clarin.com/opinion/Rosario-espera_0_1640835902.html
p14
a.