(lp0
S'https://www.clarin.com/sociedad/Solo-alumnos-aprobaron-Medicina-Corrientes_0_1600040088.html'
p1
aS'https://www.clarin.com/sociedad/Solo-alumnos-aprobaron-Medicina-Corrientes_0_1600040088.html'
p2
aS'https://www.clarin.com/politica/Perez-Corradi-negociando-extradicion-Argentina_0_1600040084.html'
p3
aS'https://www.clarin.com/politica/Perez-Corradi-negociando-extradicion-Argentina_0_1600040084.html'
p4
aS'https://www.clarin.com/politica/Ahora-militante-descolgo-cuadro-Kirchner_0_1600040082.html'
p5
aS'https://www.clarin.com/politica/Ahora-militante-descolgo-cuadro-Kirchner_0_1600040082.html'
p6
aS'https://www.clarin.com/sociedad/mujer-policia-grave-discusion-pareja_0_1600040078.html'
p7
aS'https://www.clarin.com/sociedad/mujer-policia-grave-discusion-pareja_0_1600040078.html'
p8
a.