(lp0
Vhttps://www.clarin.com/politica/discusion-paritaria-camioneros-generaron-centro_0_1595840537.html
p1
aVhttps://www.clarin.com/politica/discusion-paritaria-camioneros-generaron-centro_0_1595840537.html
p2
aVhttps://www.clarin.com/sociedad/Horror-Disney-encontraron-capturado-cocodrilo_0_1595840536.html
p3
aVhttps://www.clarin.com/sociedad/Horror-Disney-encontraron-capturado-cocodrilo_0_1595840536.html
p4
aVhttps://www.clarin.com/politica/pagan-retiro-voluntario-empleados-productora_0_1595840535.html
p5
aVhttps://www.clarin.com/politica/pagan-retiro-voluntario-empleados-productora_0_1595840535.html
p6
aVhttps://www.clarin.com/politica/video-muestra-salida-Lopez-Tigre_0_1595840532.html
p7
aVhttps://www.clarin.com/politica/video-muestra-salida-Lopez-Tigre_0_1595840532.html
p8
aVhttps://www.clarin.com/politica/Durisima-panelista-Jose-Lopez-Sos_0_1595840531.html
p9
aVhttps://www.clarin.com/politica/Durisima-panelista-Jose-Lopez-Sos_0_1595840531.html
p10
aVhttps://www.clarin.com/politica/Macri-Lopez-lamentable_0_1595840529.html
p11
aVhttps://www.clarin.com/politica/Macri-Lopez-lamentable_0_1595840529.html
p12
aVhttps://www.clarin.com/ieco/economia/Pese-compras-oficiales-dolar-sigue_0_1595840528.html
p13
aVhttps://www.clarin.com/ieco/economia/Pese-compras-oficiales-dolar-sigue_0_1595840528.html
p14
aVhttps://www.clarin.com/politica/Investigaran-Lopez-enriquecimiento-ilicito_0_1595840522.html
p15
aVhttps://www.clarin.com/politica/Investigaran-Lopez-enriquecimiento-ilicito_0_1595840522.html
p16
a.