(lp0
S'https://www.clarin.com/politica/Ruta-Kicillof-cuentas-Lazaro-EEUU_0_1606039550.html'
p1
aS'https://www.clarin.com/sociedad/precios-come-cerdo-carne_0_1606039545.html'
p2
aS'https://www.clarin.com/politica/Macri-dije-problemas-resueltos_0_1606039514.html'
p3
aS'https://www.clarin.com/politica/Detienen-represores-actuaron-dictadura_0_1606039518.html'
p4
aS'https://www.clarin.com/sociedad/casamientos-suspende-ultimo-momento_0_1606039539.html'
p5
aS'https://www.clarin.com/sociedad/Google-blanquea-sabe-usuarios_0_1606039529.html'
p6
aS'https://www.clarin.com/sociedad/ballena-sorprendio-deportistas-acompano-actividad_0_1606039515.html'
p7
a.