(lp0
S'https://www.clarin.com/politica/Sindicatos-anunciaron-movilizacion-Plaza-Mayo_0_1624037734.html'
p1
aS'https://www.clarin.com/sociedad/Video-sonriente-volcan-sorprende-Hawai_0_1624037718.html'
p2
aS'https://www.clarin.com/politica/hermana-Ines-saber-dedicaba-Lopez_0_1624037713.html'
p3
a.