(lp0
S'https://www.clarin.com/ieco/economia/Lebac-reduce-credito-acentua-enfriamiento_0_1552044783.html'
p1
aS'https://www.clarin.com/opinion/acuso-Dreyfus-Nisman_0_1551445209.html'
p2
aS'https://www.clarin.com/opinion/Hola-Lilita_0_1552044793.html'
p3
aS'https://www.clarin.com/politica/Tucuman-muestra-junto-Cano-Manzur_0_1551445177.html'
p4
aS'https://www.clarin.com/sociedad/Llega-Clarin-VR-realidad-espanol_0_1550845179.html'
p5
aS'https://www.clarin.com/politica/juez-Chubut-pedido-concurso-Oil_0_1551445230.html'
p6
aS'https://www.clarin.com/politica/Jaime-simbolo-pionero-cualidades-kirchnerismo_0_1551445234.html'
p7
aS'https://www.clarin.com/sociedad/Periodismo-importar-plataforma_0_1550845186.html'
p8
aS'https://www.clarin.com/politica/Frigerio-oficial-gobierno-Tierra-Fuego_0_1551445169.html'
p9
aS'https://www.clarin.com/politica/vinculan-Maximo-Kirchner-Lazaro-Baez_0_1551445245.html'
p10
a.