(lp0
Vhttps://www.clarin.com/ieco/Prat-Gay-creimos-ibamos-mejor-altura_0_1559844294.html
p1
aVhttps://www.clarin.com/ieco/Prat-Gay-creimos-ibamos-mejor-altura_0_1559844294.html
p2
aVhttps://www.clarin.com/ieco/FMI-Argentina-Alguna-dificil-digerir_0_1559844290.html
p3
aVhttps://www.clarin.com/ieco/FMI-Argentina-Alguna-dificil-digerir_0_1559844290.html
p4
aVhttps://www.clarin.com/sociedad/Jugado-tuit-mujer-Lanata_0_1559844287.html
p5
aVhttps://www.clarin.com/sociedad/Superman-droga-moda-altamente-toxica_0_1559844284.html
p6
aVhttps://www.clarin.com/sociedad/Superman-droga-moda-altamente-toxica_0_1559844284.html
p7
a.