(lp0
S'https://www.clarin.com/sociedad/parecemos-amamos_0_1543645885.html'
p1
aS'https://www.clarin.com/politica/Ejecutan-bienes-Intendente-devolver-millones_0_1543645884.html'
p2
aS'https://www.clarin.com/politica/Ejecutan-bienes-Intendente-devolver-millones_0_1543645884.html'
p3
aS'https://www.clarin.com/politica/Hadad-Kirchner-molestaba-Marcelo-Longobardi_0_1543645853.html'
p4
aS'https://www.clarin.com/politica/Hadad-Kirchner-molestaba-Marcelo-Longobardi_0_1543645853.html'
p5
a.