(lp0
Vhttps://www.clarin.com/sociedad/Cordoba-encuentran-muerta-sospechan-suicida_0_1506449497.html
p1
aVhttps://www.clarin.com/ieco/economia/Igual-Movistar-Personal-posterga-tarifas_0_1506449499.html
p2
aVhttps://www.clarin.com/ieco/economia/Igual-Movistar-Personal-posterga-tarifas_0_1506449499.html
p3
aVhttps://www.clarin.com/sociedad/Podes-descubrir-esconde-imagen_0_1506449491.html
p4
aVhttps://www.clarin.com/sociedad/Podes-descubrir-esconde-imagen_0_1506449491.html
p5
aVhttps://www.clarin.com/ieco/economia/crecida-piden-ayuda-recuperar-economia_0_1506449487.html
p6
aVhttps://www.clarin.com/ieco/economia/BCRA-agenda-cargada-Davos_0_1506449486.html
p7
aVhttps://www.clarin.com/sociedad/Nuevo-alerta-amarillo-Ciudad-alrededores_0_1506449474.html
p8
aVhttps://www.clarin.com/sociedad/Nuevo-alerta-amarillo-Ciudad-alrededores_0_1506449474.html
p9
a.