(lp0
S'https://www.clarin.com/sociedad/Colmo-cirujano-Carnicero-pacientes-asustan_0_1646235535.html'
p1
aS'https://www.clarin.com/sociedad/Nuevo-encuentro-extrana-militancia-orientacion_0_1646235534.html'
p2
aS'https://www.clarin.com/politica/Senado-aprobo-arrepentido-apoyo-ultra_0_1646235532.html'
p3
aS'https://www.clarin.com/politica/Pignanelli-Cabrera-Juanita-Viale-Pymes_0_1646235530.html'
p4
aS'https://www.clarin.com/sociedad/chicos-va-secundaria-parajes-rurales_0_1646235524.html'
p5
aS'https://www.clarin.com/sociedad/Precios-Cuidados-lineas-light-comunes_0_1646235533.html'
p6
a.