(lp0
S'https://www.clarin.com/ieco/economia/Todesca-inflacion-mes-caera-mitad_0_1596440378.html'
p1
aS'https://www.clarin.com/ieco/economia/Todesca-inflacion-mes-caera-mitad_0_1596440378.html'
p2
aS'https://www.clarin.com/politica/Garavano-Gobierno-impulsar-ampliacion-Corte_0_1596440377.html'
p3
aS'https://www.clarin.com/politica/Garavano-Gobierno-impulsar-ampliacion-Corte_0_1596440377.html'
p4
aS'https://www.clarin.com/sociedad/Regazzoni-farmaceuticos-poner-hombro_0_1596440376.html'
p5
aS'https://www.clarin.com/sociedad/Regazzoni-farmaceuticos-poner-hombro_0_1596440376.html'
p6
aS'https://www.clarin.com/politica/nuevo-abordaje-genocidios-siglo-XX_0_1596440374.html'
p7
aS'https://www.clarin.com/politica/nuevo-abordaje-genocidios-siglo-XX_0_1596440374.html'
p8
aS'https://www.clarin.com/politica/Papa-Scholas-Temo-puedan-corrupcion_0_1596440371.html'
p9
aS'https://www.clarin.com/politica/Papa-Scholas-Temo-puedan-corrupcion_0_1596440371.html'
p10
aS'https://www.clarin.com/sociedad/Demoras-Aeroparque-agresion-empleado-Aerolineas_0_1596440370.html'
p11
aS'https://www.clarin.com/sociedad/Demoras-Aeroparque-agresion-empleado-Aerolineas_0_1596440370.html'
p12
a.