(lp0
S'https://www.clarin.com/politica/gobernador-Verna-prohibio-saladitas_0_1671432999.html'
p1
aS'https://www.clarin.com/opinion/Bonos-impuso-consumo-trampa-dolar_0_1671432989.html'
p2
aS'https://www.clarin.com/politica/Senado-anticipo-aprobo-cupo-mujeres_0_1671432993.html'
p3
aS'https://www.clarin.com/politica/Senado-anticipo-aprobo-cupo-mujeres_0_1671432993.html'
p4
aS'https://www.clarin.com/politica/Iglesia-saludo-apertura-dialogo-reclamo_0_1671432988.html'
p5
aS'https://www.clarin.com/politica/Iglesia-saludo-apertura-dialogo-reclamo_0_1671432988.html'
p6
aS'https://www.clarin.com/politica/Cristobal-Lopez-holandesa-Trafigura-Oil_0_1671432975.html'
p7
aS'https://www.clarin.com/politica/Cristobal-Lopez-holandesa-Trafigura-Oil_0_1671432975.html'
p8
aS'https://www.clarin.com/sociedad/MiercolesNegro-Mar-Plata-Lucia-Perez_0_1671432980.html'
p9
aS'https://www.clarin.com/sociedad/MiercolesNegro-Mar-Plata-Lucia-Perez_0_1671432980.html'
p10
aS'https://www.clarin.com/sociedad/Abuela-voladora-festeja-tirandose-parapente_0_1671432978.html'
p11
aS'https://www.clarin.com/sociedad/Abuela-voladora-festeja-tirandose-parapente_0_1671432978.html'
p12
aS'https://www.clarin.com/politica/Cautela-Gobierno-comercio-China-Uruguay_0_1671432960.html'
p13
a.