(lp0
S'https://www.clarin.com/politica/funcionarios_K-procesados-nuevo_Gobierno_0_1523847839.html'
p1
aS'https://www.clarin.com/politica/estatales-anunciaron-paro-nacional-miercoles_0_1523847833.html'
p2
aS'https://www.clarin.com/sociedad/Implantaron-exito-animales-tejidos-impresos_0_1523847844.html'
p3
aS'https://www.clarin.com/sociedad/suelo-Pluton-secretos-detallado-NASA_0_1523847834.html'
p4
aS'https://www.clarin.com/politica/Perez_Corradi-poder-administrar-bienes_0_1523847846.html'
p5
a.