(lp0
S'https://www.clarin.com/sociedad/bulldog-frances-pitbull-preferidos-argentinos_0_1580842072.html'
p1
aS'https://www.clarin.com/sociedad/bulldog-frances-pitbull-preferidos-argentinos_0_1580842072.html'
p2
aS'https://www.clarin.com/sociedad/Descubren-Antartida-fosiles-ave-prehistorica_0_1580842068.html'
p3
aS'https://www.clarin.com/sociedad/Descubren-Antartida-fosiles-ave-prehistorica_0_1580842068.html'
p4
aS'https://www.clarin.com/politica/Gobierno-debuto-spots-empanada-juntos_0_1580842056.html'
p5
aS'https://www.clarin.com/sociedad/Pico-crecen-visitas-medicas-domicilio_0_1580842048.html'
p6
aS'https://www.clarin.com/sociedad/Pico-crecen-visitas-medicas-domicilio_0_1580842048.html'
p7
a.