(lp0
Vhttps://www.clarin.com/sociedad/Condenan-titular-Inadi-Rioja-quemar_0_1609039227.html
p1
aVhttps://www.clarin.com/sociedad/Condenan-titular-Inadi-Rioja-quemar_0_1609039227.html
p2
aVhttps://www.clarin.com/sociedad/personas-parecen-jovenes_0_1609039210.html
p3
aVhttps://www.clarin.com/sociedad/personas-parecen-jovenes_0_1609039210.html
p4
aVhttps://www.clarin.com/ieco/dolar-sube-centavos_0_1609039120.html
p5
aVhttps://www.clarin.com/ieco/dolar-sube-centavos_0_1609039120.html
p6
aVhttps://www.clarin.com/sociedad/restaurante-frances-comida-recuperada-basura_0_1609039222.html
p7
aVhttps://www.clarin.com/sociedad/restaurante-frances-comida-recuperada-basura_0_1609039222.html
p8
a.