(lp0
Vhttps://www.clarin.com/sociedad/acuerdo-docentes-comienzan-clases-Provincia_0_1530447191.html
p1
aVhttps://www.clarin.com/sociedad/acuerdo-docentes-comienzan-clases-Provincia_0_1530447191.html
p2
aVhttps://www.clarin.com/sociedad/robaron-Renault-encadeno-policia-busque_0_1530447170.html
p3
aVhttps://www.clarin.com/sociedad/robaron-Renault-encadeno-policia-busque_0_1530447170.html
p4
a.