(lp0
Vhttps://www.clarin.com/sociedad/Blanco-Muino-precios-excesivas-boicot_0_1539446326.html
p1
aVhttps://www.clarin.com/sociedad/Blanco-Muino-precios-excesivas-boicot_0_1539446326.html
p2
aVhttps://www.clarin.com/politica/Camara-alerta-cambios-Ley-Electoral_0_1539446379.html
p3
aVhttps://www.clarin.com/ieco/Lanzaran-app-vigilar-precios-celulares_0_1539446403.html
p4
aVhttps://www.clarin.com/ieco/Lanzaran-app-vigilar-precios-celulares_0_1539446403.html
p5
aVhttps://www.clarin.com/sociedad/argentino-ilusion-Marte-Vamos-hallar_0_1539446324.html
p6
aVhttps://www.clarin.com/politica/limpiar-Lopez-analiza-vender-casinos_0_1539446373.html
p7
aVhttps://www.clarin.com/politica/limpiar-Lopez-analiza-vender-casinos_0_1539446373.html
p8
aVhttps://www.clarin.com/sociedad/nuevas-mediaciones-arreglan-conflictos_0_1539446325.html
p9
aVhttps://www.clarin.com/sociedad/crecida-rios-dejo-zona-taponada_0_1539446401.html
p10
aVhttps://www.clarin.com/sociedad/crecida-rios-dejo-zona-taponada_0_1539446401.html
p11
aVhttps://www.clarin.com/sociedad/Vivir-inundado-pueblo-pasara-agua_0_1539446396.html
p12
aVhttps://www.clarin.com/sociedad/Vivir-inundado-pueblo-pasara-agua_0_1539446396.html
p13
a.