(lp0
Vhttps://www.clarin.com/politica/Barrios-Pie-protesta-populares-Ciudad_0_1616238387.html
p1
aVhttps://www.clarin.com/politica/Barrios-Pie-protesta-populares-Ciudad_0_1616238387.html
p2
aVhttps://www.clarin.com/politica/desopilante-cruce-Cristina-Mauricio-Showmatch_0_1616238384.html
p3
aVhttps://www.clarin.com/politica/desopilante-cruce-Cristina-Mauricio-Showmatch_0_1616238384.html
p4
aVhttps://www.clarin.com/sociedad/Video-miraba-indebido-Periscope-estallo_0_1616238383.html
p5
aVhttps://www.clarin.com/sociedad/Video-miraba-indebido-Periscope-estallo_0_1616238383.html
p6
aVhttps://www.clarin.com/sociedad/Video-sufrimiento-polar-exhibido-shopping_0_1616238377.html
p7
aVhttps://www.clarin.com/sociedad/Video-sufrimiento-polar-exhibido-shopping_0_1616238377.html
p8
a.