(lp0
Vhttps://www.clarin.com/politica/Cansado-productor-fotocopio-escrachar-funcionario_0_1645035509.html
p1
aVhttps://www.clarin.com/politica/Cansado-productor-fotocopio-escrachar-funcionario_0_1645035509.html
p2
aVhttps://www.clarin.com/politica/Marcha-Federal-Micheli-vaticina-CGT_0_1645035514.html
p3
aVhttps://www.clarin.com/politica/Marcha-Federal-Micheli-vaticina-CGT_0_1645035514.html
p4
aVhttps://www.clarin.com/politica/Putin-Macri-acuerdos-YPF-Gazprom_0_1645035519.html
p5
aVhttps://www.clarin.com/politica/Putin-Macri-acuerdos-YPF-Gazprom_0_1645035519.html
p6
aVhttps://www.clarin.com/sociedad/Choclos-naranjas-solidaria-raciones-comida_0_1645035518.html
p7
aVhttps://www.clarin.com/sociedad/Choclos-naranjas-solidaria-raciones-comida_0_1645035518.html
p8
aVhttps://www.clarin.com/politica/obras-escandalosas-cito-fiscal-Cristina_0_1645035513.html
p9
aVhttps://www.clarin.com/politica/obras-escandalosas-cito-fiscal-Cristina_0_1645035513.html
p10
aVhttps://www.clarin.com/politica/decadencia-imperio-estancias-Lazaro-Baez_0_1644435687.html
p11
aVhttps://www.clarin.com/politica/decadencia-imperio-estancias-Lazaro-Baez_0_1644435687.html
p12
aVhttps://www.clarin.com/politica/Juliana-Awada-China-agenda-actividades_0_1645035512.html
p13
aVhttps://www.clarin.com/politica/Juliana-Awada-China-agenda-actividades_0_1645035512.html
p14
aVhttps://www.clarin.com/ieco/Macri-Massa-proyecto-restringir-importaciones_0_1645035511.html
p15
aVhttps://www.clarin.com/ieco/Macri-Massa-proyecto-restringir-importaciones_0_1645035511.html
p16
aVhttps://www.clarin.com/sociedad/Queen-banda-rock-adictiva_0_1645035510.html
p17
aVhttps://www.clarin.com/sociedad/Queen-banda-rock-adictiva_0_1645035510.html
p18
a.