(lp0
Vhttps://www.clarin.com/sociedad/priorizar-inversion-contextos_0_1646235523.html
p1
aVhttps://www.clarin.com/sociedad/Formatos-diversos-garantizar-acceso_0_1646235522.html
p2
aVhttps://www.clarin.com/politica/rey-efedrina-involucro-Zacarias_0_1646235518.html
p3
aVhttps://www.clarin.com/politica/rey-efedrina-involucro-Zacarias_0_1646235518.html
p4
aVhttps://www.clarin.com/politica/Denuncian-Plan-Progresar-Malvinas-Argentinas_0_1646235515.html
p5
aVhttps://www.clarin.com/politica/Denuncian-Plan-Progresar-Malvinas-Argentinas_0_1646235515.html
p6
aVhttps://www.clarin.com/politica/Manana-populares-distintos-puntos-Ciudad_0_1646235509.html
p7
aVhttps://www.clarin.com/politica/Manana-populares-distintos-puntos-Ciudad_0_1646235509.html
p8
aVhttps://www.clarin.com/politica/Senado-aprobo-cambios-ley-arrepentido_0_1646235507.html
p9
aVhttps://www.clarin.com/politica/Senado-aprobo-cambios-ley-arrepentido_0_1646235507.html
p10
aVhttps://www.clarin.com/politica/Frigerio-Malcorra-Gabinete-Marcos-Pena_0_1646235505.html
p11
aVhttps://www.clarin.com/politica/Frigerio-Malcorra-Gabinete-Marcos-Pena_0_1646235505.html
p12
a.