(lp0
Vhttps://www.clarin.com/politica/abogado-Arroyo-noticia-dictamen-Saenz_0_1529247215.html
p1
aVhttps://www.clarin.com/politica/abogado-Arroyo-noticia-dictamen-Saenz_0_1529247215.html
p2
aVhttps://www.clarin.com/politica/Toda-Hollande-Juanita-Moyano-Awada_0_1529247209.html
p3
aVhttps://www.clarin.com/politica/Toda-Hollande-Juanita-Moyano-Awada_0_1529247209.html
p4
aVhttps://www.clarin.com/ieco/economia/petroleo-Techint-Tenaris-US-millones_0_1529247207.html
p5
aVhttps://www.clarin.com/ieco/economia/petroleo-Techint-Tenaris-US-millones_0_1529247207.html
p6
aVhttps://www.clarin.com/politica/Alberto-Nisman-asesinado-dictamino-Saenz_0_1529247194.html
p7
aVhttps://www.clarin.com/politica/Alberto-Nisman-asesinado-dictamino-Saenz_0_1529247194.html
p8
aVhttps://www.clarin.com/politica/premier-italiano-Macri-Hollande-Bombonera_0_1529247188.html
p9
aVhttps://www.clarin.com/politica/premier-italiano-Macri-Hollande-Bombonera_0_1529247188.html
p10
aVhttps://www.clarin.com/politica/Carlotto-Obama-cita-vamos-pedirle_0_1529247186.html
p11
aVhttps://www.clarin.com/politica/Carlotto-Obama-cita-vamos-pedirle_0_1529247186.html
p12
a.