(lp0
S'https://www.clarin.com/politica/investigan-AMIA-declaracion-Menem-Senado_0_1584441625.html'
p1
aS'https://www.clarin.com/ieco/economia/Gobierno-lanzo-pension-universal-mayores_0_1584441613.html'
p2
aS'https://www.clarin.com/sociedad/Tucuman-aporta-logos-Bicentenario_0_1584441606.html'
p3
aS'https://www.clarin.com/sociedad/despues-juzgan-director-INADI-prendio_0_1584441623.html'
p4
aS'https://www.clarin.com/politica/Anuncios-mezclan-buenas-malas-noticias_0_1584441617.html'
p5
aS'https://www.clarin.com/sociedad/mision-Luna-traera-muestras-Tierra_0_1584441614.html'
p6
a.