(lp0
S'https://www.clarin.com/sociedad/submarino-encuentra-monstruo-Ness-equivocado_0_1558644417.html'
p1
aS'https://www.clarin.com/sociedad/submarino-encuentra-monstruo-Ness-equivocado_0_1558644417.html'
p2
aS'https://www.clarin.com/sociedad/lideres-piden-cambios-politicas-drogas_0_1558644401.html'
p3
aS'https://www.clarin.com/sociedad/lideres-piden-cambios-politicas-drogas_0_1558644401.html'
p4
aS'https://www.clarin.com/sociedad/Iba-vacaciones-descompuso-internada-Qatar_0_1558644414.html'
p5
aS'https://www.clarin.com/sociedad/Iba-vacaciones-descompuso-internada-Qatar_0_1558644414.html'
p6
a.