(lp0
Vhttps://www.clarin.com/sociedad/medicamentos-aumentaron-diciembre_0_1582641792.html
p1
aVhttps://www.clarin.com/sociedad/medicamentos-aumentaron-diciembre_0_1582641792.html
p2
aVhttps://www.clarin.com/sociedad/Logro-argentino-malbec-puntaje-perfecto_0_1582641791.html
p3
aVhttps://www.clarin.com/sociedad/Logro-argentino-malbec-puntaje-perfecto_0_1582641791.html
p4
aVhttps://www.clarin.com/politica/Milagro-Sala-Buenos-Aires-armaban_0_1582641790.html
p5
aVhttps://www.clarin.com/politica/Milagro-Sala-Buenos-Aires-armaban_0_1582641790.html
p6
aVhttps://www.clarin.com/politica/Maximo-Kirchner-particular-Lazaro-Baez_0_1582641787.html
p7
aVhttps://www.clarin.com/politica/Maximo-Kirchner-particular-Lazaro-Baez_0_1582641787.html
p8
aVhttps://www.clarin.com/politica/Piden-Quinta-Olivos-Milagro-Sala_0_1582641779.html
p9
aVhttps://www.clarin.com/politica/Piden-Quinta-Olivos-Milagro-Sala_0_1582641779.html
p10
aVhttps://www.clarin.com/sociedad/Paro-Vidal-maestros-dirigentes-gremiales_0_1582641778.html
p11
aVhttps://www.clarin.com/sociedad/Paro-Vidal-maestros-dirigentes-gremiales_0_1582641778.html
p12
aVhttps://www.clarin.com/ieco/economia/Frigerio-ratifico-inflacion-drasticamente-semestre_0_1582641777.html
p13
aVhttps://www.clarin.com/ieco/economia/Frigerio-ratifico-inflacion-drasticamente-semestre_0_1582641777.html
p14
aVhttps://www.clarin.com/politica/Investigacion-Clarin-clausuran-preferido-contrabandistas_0_1579642157.html
p15
aVhttps://www.clarin.com/politica/Investigacion-Clarin-clausuran-preferido-contrabandistas_0_1579642157.html
p16
a.