(lp0
S'https://www.clarin.com/sociedad/fiestas-electronicas-experiencia-religiosa_0_1559844411.html'
p1
aS'https://www.clarin.com/opinion/cambio-climatico-economia-carbono_0_1559844368.html'
p2
aS'https://www.clarin.com/sociedad/consumidores-drogas-debaten-Web_0_1559844406.html'
p3
a.