(lp0
S'https://www.clarin.com/politica/Denuncian-Cristobal-Lopez-millones-AFIP_0_1539446160.html'
p1
aS'https://www.clarin.com/politica/Denuncian-Cristobal-Lopez-millones-AFIP_0_1539446160.html'
p2
aS'https://www.clarin.com/politica/Prat-Gay-acordamos-holdouts-forzados-tremendo_0_1539446146.html'
p3
aS'https://www.clarin.com/politica/Prat-Gay-acordamos-holdouts-forzados-tremendo_0_1539446146.html'
p4
a.