(lp0
S'https://www.clarin.com/sociedad/Sonaba-futbolista-difunde-cocina-argentina_0_1664233624.html'
p1
aS'https://www.clarin.com/sociedad/Marcelo-Alvear-radical-historia-argentina_0_1663033790.html'
p2
aS'https://www.clarin.com/politica/Malcorra-Macri-Raul-Castro-Cartagena_0_1664233613.html'
p3
a.