(lp0
Vhttps://www.clarin.com/ieco/Fuerte-caida-consumo-agosto_0_1658834205.html
p1
aVhttps://www.clarin.com/ieco/Fuerte-caida-consumo-agosto_0_1658834205.html
p2
aVhttps://www.clarin.com/politica/Nacer-morir-pobre-Argentina_0_1658834204.html
p3
aVhttps://www.clarin.com/politica/Nacer-morir-pobre-Argentina_0_1658834204.html
p4
aVhttps://www.clarin.com/politica/Vidal-presidencia-PRO-bonaerense-legislativas_0_1658834199.html
p5
aVhttps://www.clarin.com/politica/Vidal-presidencia-PRO-bonaerense-legislativas_0_1658834199.html
p6
aVhttps://www.clarin.com/politica/impacto-cambio-regimen_0_1658834193.html
p7
aVhttps://www.clarin.com/politica/impacto-cambio-regimen_0_1658834193.html
p8
aVhttps://www.clarin.com/politica/Anticipo-dato-oficial-pobreza-rondara_0_1658834189.html
p9
aVhttps://www.clarin.com/politica/Anticipo-dato-oficial-pobreza-rondara_0_1658834189.html
p10
a.