(lp0
Vhttps://www.clarin.com/politica/Confirman-intervencion-SOMU_0_1613838610.html
p1
aVhttps://www.clarin.com/politica/Confirman-intervencion-SOMU_0_1613838610.html
p2
aVhttps://www.clarin.com/opinion/Suenos-frustran_0_1613238827.html
p3
aVhttps://www.clarin.com/politica/PJ-piensa-reemplazar-Echegaray-Auditoria_0_1613238878.html
p4
aVhttps://www.clarin.com/politica/PJ-piensa-reemplazar-Echegaray-Auditoria_0_1613238878.html
p5
aVhttps://www.clarin.com/sociedad/Creo-tecnica-ajustar-pronosticos-premian_0_1613238855.html
p6
aVhttps://www.clarin.com/sociedad/Creo-tecnica-ajustar-pronosticos-premian_0_1613238855.html
p7
aVhttps://www.clarin.com/sociedad/Alertan-obesidad-moderada-quita-vida_0_1613238860.html
p8
aVhttps://www.clarin.com/sociedad/ironia-humillacion-debate-limites-tuit_0_1613238889.html
p9
aVhttps://www.clarin.com/politica/camara-federal-advirtio-sigue-parada_0_1613238887.html
p10
aVhttps://www.clarin.com/politica/nota-gobernabilidad_0_1613238882.html
p11
aVhttps://www.clarin.com/politica/Protestas-distintos-puntos-pais-tarifazos_0_1613238881.html
p12
aVhttps://www.clarin.com/politica/Protestas-distintos-puntos-pais-tarifazos_0_1613238881.html
p13
a.