(lp0
Vhttps://www.clarin.com/politica/escandalo-Lazaro-Baez_0_1541846254.html
p1
aVhttps://www.clarin.com/politica/escandalo-Lazaro-Baez_0_1541846254.html
p2
aVhttps://www.clarin.com/politica/Bahia-Blanca-facturas-truchas-juicio_0_1541846256.html
p3
aVhttps://www.clarin.com/politica/Bahia-Blanca-facturas-truchas-juicio_0_1541846256.html
p4
aVhttps://www.clarin.com/politica/personaje-clave-explicaria-transportaba-Rosadita_0_1541846272.html
p5
aVhttps://www.clarin.com/politica/personaje-clave-explicaria-transportaba-Rosadita_0_1541846272.html
p6
aVhttps://www.clarin.com/politica/Prohibieron-Lazaro-Baez-dolares-Rosadita_0_1541846251.html
p7
aVhttps://www.clarin.com/politica/Prohibieron-Lazaro-Baez-dolares-Rosadita_0_1541846251.html
p8
aVhttps://www.clarin.com/sociedad/semanas-van-salir-patente-nueva_0_1541846224.html
p9
aVhttps://www.clarin.com/sociedad/semanas-van-salir-patente-nueva_0_1541846224.html
p10
aVhttps://www.clarin.com/opinion/Dilma-gobierno-Lula-queda-poder_0_1542445778.html
p11
aVhttps://www.clarin.com/sociedad/mundo-color-rosa_0_1541846242.html
p12
aVhttps://www.clarin.com/politica/Michetti-kirchnerismo-ultimos-ingreso-personas_0_1542445772.html
p13
aVhttps://www.clarin.com/politica/Michetti-kirchnerismo-ultimos-ingreso-personas_0_1542445772.html
p14
aVhttps://www.clarin.com/opinion/Echegaray-Lazaro-Baez-Cristobal-Lopez_0_1541846222.html
p15
aVhttps://www.clarin.com/opinion/Echegaray-Lazaro-Baez-Cristobal-Lopez_0_1541846222.html
p16
aVhttps://www.clarin.com/opinion/hacer-defensa-nacional_0_1541846158.html
p17
aVhttps://www.clarin.com/sociedad/Impuesto-rosa-comprar-pagan_0_1541846246.html
p18
aVhttps://www.clarin.com/politica/Justicia-investigar-denuncia-Cristobal-Lopez_0_1541846231.html
p19
aVhttps://www.clarin.com/politica/Justicia-investigar-denuncia-Cristobal-Lopez_0_1541846231.html
p20
a.