(lp0
S'https://www.clarin.com/sociedad/Viajo-estafando-Aerolineas-sacaran-millas_0_1672632752.html'
p1
aS'https://www.clarin.com/ieco/Aranguren-espera-verano-menor-cortes_0_1672632759.html'
p2
aS'https://www.clarin.com/politica/Gobierno-derogo-programa-dirigio-Maximo_0_1672632741.html'
p3
aS'https://www.clarin.com/politica/Ordenan-pagar-millones-imprenta-Ciccone_0_1672632743.html'
p4
aS'https://www.clarin.com/ieco/estacioneros-advierten-viene-naftas-noviembre_0_1672632749.html'
p5
a.