(lp0
Vhttps://www.clarin.com/sociedad/estudio-cientifico-descubrio-penales-convertir_0_1592240846.html
p1
aVhttps://www.clarin.com/sociedad/estudio-cientifico-descubrio-penales-convertir_0_1592240846.html
p2
aVhttps://www.clarin.com/politica/Cristobal-dice-alquilaba-Cristina-barato_0_1592240844.html
p3
aVhttps://www.clarin.com/politica/Cristobal-dice-alquilaba-Cristina-barato_0_1592240844.html
p4
aVhttps://www.clarin.com/politica/Video-titular-ATE-Walmart-Mendoza_0_1592240843.html
p5
aVhttps://www.clarin.com/politica/Video-titular-ATE-Walmart-Mendoza_0_1592240843.html
p6
aVhttps://www.clarin.com/politica/Alianza-Pacifico-acepto-Argentina-observador_0_1592240837.html
p7
aVhttps://www.clarin.com/politica/Alianza-Pacifico-acepto-Argentina-observador_0_1592240837.html
p8
aVhttps://www.clarin.com/sociedad/emotiva-despedida-piloto-motos-Cataluna_0_1592240832.html
p9
aVhttps://www.clarin.com/sociedad/emotiva-despedida-piloto-motos-Cataluna_0_1592240832.html
p10
a.