(lp0
Vhttps://www.clarin.com/politica/Dirigentes-DDHH-destacaron-desclasificacion-dictadura_0_1675032521.html
p1
aVhttps://www.clarin.com/politica/Dirigentes-DDHH-destacaron-desclasificacion-dictadura_0_1675032521.html
p2
aVhttps://www.clarin.com/ieco/Analizan-restablecer-reintegros-exportaciones-carne_0_1675032520.html
p3
aVhttps://www.clarin.com/ieco/Analizan-restablecer-reintegros-exportaciones-carne_0_1675032520.html
p4
aVhttps://www.clarin.com/politica/Duelo-PJ-despues-Vidal-Anibal_0_1675032513.html
p5
aVhttps://www.clarin.com/politica/Duelo-PJ-despues-Vidal-Anibal_0_1675032513.html
p6
a.