(lp0
S'https://www.clarin.com/politica/jueza-freno-furiosa-Corte-Gobierno_0_1646235381.html'
p1
aS'https://www.clarin.com/ieco/entusiasma-Gobierno-repunte-maquinaria-agricola_0_1646235382.html'
p2
aS'https://www.clarin.com/sociedad/mama-argentina-chica-desaparecida-Espana_0_1646235390.html'
p3
aS'https://www.clarin.com/ieco/Corte-Gobierno-ahorrara-US-millones_0_1646235385.html'
p4
aS'https://www.clarin.com/sociedad/Establecen-normas-controlar-viajes-menores_0_1646235392.html'
p5
aS'https://www.clarin.com/politica/Delgado-Angelici-voluntad-nombre-Gobierno_0_1646235379.html'
p6
aS'https://www.clarin.com/ieco/productos-incluidos-Precios-Cuidados_0_1646235394.html'
p7
a.