(lp0
S'https://www.clarin.com/ieco/provincia-Buenos-Aires-adhirio-blanqueo_0_1667833257.html'
p1
aS'https://www.clarin.com/ieco/provincia-Buenos-Aires-adhirio-blanqueo_0_1667833257.html'
p2
aS'https://www.clarin.com/ieco/economia/Paritaria-Comercio-meses-bono_0_1667833255.html'
p3
aS'https://www.clarin.com/ieco/economia/Paritaria-Comercio-meses-bono_0_1667833255.html'
p4
aS'https://www.clarin.com/politica/Gomez-Centurion-Aduana-operacion-separarme_0_1667833254.html'
p5
aS'https://www.clarin.com/politica/Gomez-Centurion-Aduana-operacion-separarme_0_1667833254.html'
p6
aS'https://www.clarin.com/politica/bajaron-Baez-Santa-Cruz-Gobierno_0_1667833250.html'
p7
aS'https://www.clarin.com/politica/bajaron-Baez-Santa-Cruz-Gobierno_0_1667833250.html'
p8
aS'https://www.clarin.com/ieco/Triaca-aclaro-exencion-Ganancias-aguinaldo_0_1667833246.html'
p9
aS'https://www.clarin.com/ieco/Triaca-aclaro-exencion-Ganancias-aguinaldo_0_1667833246.html'
p10
a.