(lp0
S'https://www.clarin.com/politica/Macri-debuto-Washington-reuniones-bilaterales_0_1550245441.html'
p1
aS'https://www.clarin.com/politica/Arrepentido-Gobierno-excluye-jefes-criminales_0_1550245433.html'
p2
aS'https://www.clarin.com/politica/sociedad-exige-corruptos-presos-ahora_0_1550245431.html'
p3
a.