(lp0
Vhttps://www.clarin.com/politica/Intento-desesperado-Lazaro-Baez-indagatoria_0_1679232185.html
p1
aVhttps://www.clarin.com/politica/Intento-desesperado-Lazaro-Baez-indagatoria_0_1679232185.html
p2
aVhttps://www.clarin.com/politica/Justicia-rechazo-Cristina-frenar-futuro_0_1679232178.html
p3
aVhttps://www.clarin.com/politica/Justicia-rechazo-Cristina-frenar-futuro_0_1679232178.html
p4
aVhttps://www.clarin.com/sociedad/Aeroparque-pocas-sorpresas-nuevo-DNI_0_1679232180.html
p5
aVhttps://www.clarin.com/sociedad/Aeroparque-pocas-sorpresas-nuevo-DNI_0_1679232180.html
p6
aVhttps://www.clarin.com/politica/Reflotan-inversiones-frenaron-Massa-FpV_0_1679232179.html
p7
aVhttps://www.clarin.com/politica/Reflotan-inversiones-frenaron-Massa-FpV_0_1679232179.html
p8
a.