(lp0
S'https://www.clarin.com/ieco/disparan-ganancias-Ternium_0_1680432003.html'
p1
aS'https://www.clarin.com/ieco/disparan-ganancias-Ternium_0_1680432003.html'
p2
aS'https://www.clarin.com/ieco/economia/tarifas-Edesur-duplico-ventas-perdiendo_0_1680432000.html'
p3
aS'https://www.clarin.com/ieco/economia/tarifas-Edesur-duplico-ventas-perdiendo_0_1680432000.html'
p4
aS'https://www.clarin.com/sociedad/misterioso-video-profesora-sexy-viralizo_0_1680431993.html'
p5
aS'https://www.clarin.com/sociedad/misterioso-video-profesora-sexy-viralizo_0_1680431993.html'
p6
aS'https://www.clarin.com/ieco/Estiman-inflacion_0_1680431996.html'
p7
aS'https://www.clarin.com/ieco/Estiman-inflacion_0_1680431996.html'
p8
a.