(lp0
S'https://www.clarin.com/politica/Senado-proyecto-reintegro-IVA-jubilados_0_1591041065.html'
p1
aS'https://www.clarin.com/politica/Tarifazo-Aranguren-unificar-amparos-subas_0_1591041035.html'
p2
aS'https://www.clarin.com/opinion/mejor-momento-peor_0_1591640828.html'
p3
aS'https://www.clarin.com/politica/Retocan-ley-jubilados-asegurar-votacion_0_1591041076.html'
p4
aS'https://www.clarin.com/politica/Corte-dictamino-sindicatos-declarar-huelgas_0_1591041046.html'
p5
aS'https://www.clarin.com/ieco/economia/Banco-Central-volvio-bajar-tasas_0_1591041039.html'
p6
aS'https://www.clarin.com/ieco/economia/laboratorio-GSK-invertira-millones-investigacion_0_1591041005.html'
p7
aS'https://www.clarin.com/politica/herencia-Transporte-aseguran-Cristina-paradas_0_1591041017.html'
p8
aS'https://www.clarin.com/ieco/Banco-Mundial-Argentina-fuerte-recuperacion_0_1591041003.html'
p9
a.