(lp0
S'https://www.clarin.com/sociedad/frio-duplicaron-ventas-calefactores-pais_0_1616238490.html'
p1
aS'https://www.clarin.com/sociedad/docente-transexual-obtuvo-adopcion-anos_0_1616238488.html'
p2
aS'https://www.clarin.com/ieco/transportistas-granos-amenazan-frenar-alimentos_0_1616238489.html'
p3
aS'https://www.clarin.com/politica/Stolbizer-adelantar-mediacion-Cristina-CFK_0_1616238476.html'
p4
aS'https://www.clarin.com/ieco/economia/dolar-mayorista-cayo-venta-exportadores_0_1616238478.html'
p5
a.