(lp0
S'https://www.clarin.com/sociedad/registraron-Plata-casos-dengue-autoctono_0_1520848050.html'
p1
aS'https://www.clarin.com/politica/Espero-beneficiar-trabajadores-Pablo-Moyano_0_1520848035.html'
p2
aS'https://www.clarin.com/politica/espera-regreso-Cristina-Bonafini-Macri_0_1520848023.html'
p3
a.