(lp0
Vhttps://www.clarin.com/politica/Otorgan-plus-Prefectura-Gendarmeria_0_1586241563.html
p1
aVhttps://www.clarin.com/politica/Otorgan-plus-Prefectura-Gendarmeria_0_1586241563.html
p2
aVhttps://www.clarin.com/politica/Gesto-Macri-FFAA-abandono_0_1586241561.html
p3
aVhttps://www.clarin.com/politica/Gesto-Macri-FFAA-abandono_0_1586241561.html
p4
aVhttps://www.clarin.com/sociedad/temporal-provoco-grandes-Mar-Plata_0_1586241557.html
p5
aVhttps://www.clarin.com/sociedad/temporal-provoco-grandes-Mar-Plata_0_1586241557.html
p6
aVhttps://www.clarin.com/politica/Trabajadores-bancos-haran-actividades-jueves_0_1586241553.html
p7
aVhttps://www.clarin.com/politica/Boudou-gastos-Senado-sueldos-millones_0_1586241550.html
p8
a.