(lp0
S'https://www.clarin.com/politica/Vuelve-Diputados-Acceso-Informacion-Publica_0_1646235548.html'
p1
aS'https://www.clarin.com/opinion/amores-noches-vela_0_1646235498.html'
p2
aS'https://www.clarin.com/opinion/Curso-desorientacion-sexual-Pellegrini_0_1646835301.html'
p3
aS'https://www.clarin.com/politica/van-corriendo-arco-reactivacion_0_1646835302.html'
p4
aS'https://www.clarin.com/politica/Zannini-mediador-Alicia-Kirchner-Campora_0_1646235486.html'
p5
aS'https://www.clarin.com/ieco/economia/kirchnerismo-chicos-sufrio-problemas-nutricion_0_1646235549.html'
p6
aS'https://www.clarin.com/politica/Detuvieron-Ezeiza-ciudadano-libanes-terrorismo_0_1646235550.html'
p7
aS'https://www.clarin.com/politica/Gobierno-implementara-plan-tarifas-electricas_0_1646235552.html'
p8
aS'https://www.clarin.com/sociedad/muerte-santuario-Gilda-sigue-inundado_0_1646235547.html'
p9
aS'https://www.clarin.com/politica/Denuncian-funcionarios-Autopista-Presidente-Peron_0_1646835304.html'
p10
a.