(lp0
Vhttps://www.clarin.com/opinion/Sobrepeso-endemico-apagon-estadistico_0_1656434442.html
p1
aVhttps://www.clarin.com/sociedad/Pagani-Boca-Caminito-realidad-virtual_0_1656434439.html
p2
aVhttps://www.clarin.com/sociedad/Pagani-Boca-Caminito-realidad-virtual_0_1656434439.html
p3
aVhttps://www.clarin.com/opinion/Malnutricion-infantil-problemas-cantidad-calidad_0_1656434441.html
p4
aVhttps://www.clarin.com/politica/Cambiemos-tocar-timbres-escuchar-reclamos_0_1656434432.html
p5
aVhttps://www.clarin.com/opinion/Venezuela-Urge-activar-Carta-Democratica_0_1650435094.html
p6
aVhttps://www.clarin.com/opinion/Venezuela-Urge-activar-Carta-Democratica_0_1650435094.html
p7
aVhttps://www.clarin.com/opinion/Colombia-conciliacion-inconciliable_0_1656434436.html
p8
aVhttps://www.clarin.com/opinion/Jorge-Casaretto-obispo-deja-cancha_0_1656434435.html
p9
aVhttps://www.clarin.com/opinion/Jorge-Casaretto-obispo-deja-cancha_0_1656434435.html
p10
a.