(lp0
Vhttps://www.clarin.com/sociedad/Hot-Sale-registra-millon-visitas_0_1577842300.html
p1
aVhttps://www.clarin.com/sociedad/Hot-Sale-registra-millon-visitas_0_1577842300.html
p2
aVhttps://www.clarin.com/sociedad/Video-discusion-transito-termino-viral_0_1577842299.html
p3
aVhttps://www.clarin.com/sociedad/Video-discusion-transito-termino-viral_0_1577842299.html
p4
aVhttps://www.clarin.com/sociedad/Detectan-primera-molecula-vida_0_1577842297.html
p5
aVhttps://www.clarin.com/sociedad/Detectan-primera-molecula-vida_0_1577842297.html
p6
a.