(lp0
Vhttps://www.clarin.com/sociedad/Rescataron-naufragos-escribieron-playa-desierta_0_1556244511.html
p1
aVhttps://www.clarin.com/sociedad/Rescataron-naufragos-escribieron-playa-desierta_0_1556244511.html
p2
aVhttps://www.clarin.com/politica/Allanaron-oficinas-escribano-Cristina-Baez_0_1556244495.html
p3
a.