(lp0
S'https://www.clarin.com/politica/vecino-asegura-Moreno-frecuentaba-convento_0_1612638754.html'
p1
aS'https://www.clarin.com/politica/vecino-asegura-Moreno-frecuentaba-convento_0_1612638754.html'
p2
aS'https://www.clarin.com/sociedad/luna-miel-insolita-marido_0_1612638747.html'
p3
aS'https://www.clarin.com/sociedad/luna-miel-insolita-marido_0_1612638747.html'
p4
aS'https://www.clarin.com/politica/Gas-resolucion-Gobierno-reconoce-equivoco_0_1612638745.html'
p5
aS'https://www.clarin.com/politica/Gas-resolucion-Gobierno-reconoce-equivoco_0_1612638745.html'
p6
aS'https://www.clarin.com/politica/supuestos-testaferros-Lopez_0_1612638744.html'
p7
aS'https://www.clarin.com/politica/supuestos-testaferros-Lopez_0_1612638744.html'
p8
aS'https://www.clarin.com/politica/Ines-hermana-vocera-envuelta-polemica_0_1612638740.html'
p9
aS'https://www.clarin.com/politica/Ines-hermana-vocera-envuelta-polemica_0_1612638740.html'
p10
aS'https://www.clarin.com/sociedad/Cerro-puertas-ventanas-incendio-pareja_0_1612638741.html'
p11
aS'https://www.clarin.com/sociedad/Cerro-puertas-ventanas-incendio-pareja_0_1612638741.html'
p12
a.