(lp0
S'https://www.clarin.com/politica/Sabbatella-insolito-Lopez-corrupto-corrompio_0_1608439181.html'
p1
aS'https://www.clarin.com/sociedad/Cocodrilos-peligro-operativo-Paraguay-salvarlos_0_1608439180.html'
p2
aS'https://www.clarin.com/sociedad/Cocodrilos-peligro-operativo-Paraguay-salvarlos_0_1608439180.html'
p3
aS'https://www.clarin.com/politica/morsa-dijo-abogado-Perez-Corradi_0_1608439178.html'
p4
aS'https://www.clarin.com/politica/morsa-dijo-abogado-Perez-Corradi_0_1608439178.html'
p5
aS'https://www.clarin.com/politica/Macri-Alemania-reunion-empresarios-turistas_0_1608439176.html'
p6
aS'https://www.clarin.com/politica/Macri-Alemania-reunion-empresarios-turistas_0_1608439176.html'
p7
aS'https://www.clarin.com/ieco/emisiones-deuda-provincias-Chaco-Chubut_0_1608439174.html'
p8
aS'https://www.clarin.com/ieco/Presupuesto-proyectan-creacion-empleos_0_1608439173.html'
p9
aS'https://www.clarin.com/ieco/Gobierno-aumento-millones-gastos-Presupuesto_0_1608439170.html'
p10
aS'https://www.clarin.com/ieco/Gobierno-aumento-millones-gastos-Presupuesto_0_1608439170.html'
p11
aS'https://www.clarin.com/politica/Mandaron-Perez-Corradi-evitar-atentado_0_1608439165.html'
p12
aS'https://www.clarin.com/politica/Mandaron-Perez-Corradi-evitar-atentado_0_1608439165.html'
p13
a.