(lp0
Vhttps://www.clarin.com/politica/helicoptero-viajaba-Macri-cerca-incidente_0_1538246597.html
p1
aVhttps://www.clarin.com/politica/helicoptero-viajaba-Macri-cerca-incidente_0_1538246597.html
p2
aVhttps://www.clarin.com/politica/Escandalo-Auditoria-Echegaray-investigar-gestion_0_1538246596.html
p3
aVhttps://www.clarin.com/politica/Escandalo-Auditoria-Echegaray-investigar-gestion_0_1538246596.html
p4
aVhttps://www.clarin.com/sociedad/Luis-Perez-Companc-toxicologica-Pablo_0_1538246556.html
p5
aVhttps://www.clarin.com/sociedad/Luis-Perez-Companc-toxicologica-Pablo_0_1538246556.html
p6
a.