(lp0
S'https://www.clarin.com/sociedad/Calor-transito-aumenta-posibilidad-accidentes_0_1529247327.html'
p1
aS'https://www.clarin.com/sociedad/encuentro-Borges-Bergoglio-incluyo-afeitada_0_1529247312.html'
p2
aS'https://www.clarin.com/sociedad/Video-jugaban-basquet-estrella-NBA_0_1529247293.html'
p3
aS'https://www.clarin.com/politica/Mariano-Ferreyra-prision-domiciliaria-Pedraza_0_1529247314.html'
p4
aS'https://www.clarin.com/politica/Macri-garantiza-provincias-polemico-DNU_0_1529247332.html'
p5
aS'https://www.clarin.com/ieco/economia/empresas-esperan-rentabilidad-contrataran-gente_0_1529247322.html'
p6
aS'https://www.clarin.com/sociedad/Notebooks-tabletas-podran-bodegas-aviones_0_1529247323.html'
p7
a.