(lp0
S'https://www.clarin.com/politica/Citan-procuradora-Cristina-Nisman-encubrimiento_0_1685231503.html'
p1
aS'https://www.clarin.com/ieco/economia/Todesca-admite-escenario-inflacion-alto_0_1685231495.html'
p2
aS'https://www.clarin.com/politica/Convocan-Grupo-Halcon-Guns-Roses_0_1685231496.html'
p3
aS'https://www.clarin.com/ieco/Aprueban-primer-fondo-inmobiliario-blanqueo_0_1685231500.html'
p4
aS'https://www.clarin.com/politica/Gobierno-ministra-menemista-Defensoria-Pueblo_0_1685231499.html'
p5
aS'https://www.clarin.com/politica/Skanska-Vido-presento-respondio-preguntas_0_1685231498.html'
p6
a.