(lp0
S'https://www.clarin.com/opinion/contrato-YPF-Chevron-secreto_0_1574842604.html'
p1
aS'https://www.clarin.com/sociedad/Justicia-bloqueo-ingreso-irrestricto-universidad_0_1574842707.html'
p2
aS'https://www.clarin.com/opinion/inmunidad-significa-impunidad_0_1574842607.html'
p3
aS'https://www.clarin.com/sociedad/ley-olor-campana_0_1574842710.html'
p4
aS'https://www.clarin.com/politica/Argentina-publicara-contratos-laboratorios-prepagas_0_1574842696.html'
p5
aS'https://www.clarin.com/opinion/Aguante-Di-Zeo_0_1575442441.html'
p6
aS'https://www.clarin.com/politica/Iglesia-Macri-pobreza-necesidad-nivel_0_1574842711.html'
p7
aS'https://www.clarin.com/sociedad/medicos-favor-teoria-negocio-agua_0_1574842690.html'
p8
aS'https://www.clarin.com/sociedad/segundo-factor-riesgo-muerte-adolescente_0_1574842701.html'
p9
aS'https://www.clarin.com/opinion/Cambiemos-aprender-construir-juntos_0_1574842637.html'
p10
a.