(lp0
S'https://www.clarin.com/ieco/argentino-ofrecio-quedarse-filial-PDVSA_0_1582041806.html'
p1
aS'https://www.clarin.com/ieco/argentino-ofrecio-quedarse-filial-PDVSA_0_1582041806.html'
p2
aS'https://www.clarin.com/politica/Baranao-dolido-criticas-duele-Paenza_0_1582041805.html'
p3
aS'https://www.clarin.com/politica/Baranao-dolido-criticas-duele-Paenza_0_1582041805.html'
p4
aS'https://www.clarin.com/sociedad/muertos-choque-frontal-Ruta_0_1582041803.html'
p5
aS'https://www.clarin.com/sociedad/muertos-choque-frontal-Ruta_0_1582041803.html'
p6
aS'https://www.clarin.com/ieco/Aranguren-versiones-estancamiento-Vaca-Muerta_0_1582041800.html'
p7
aS'https://www.clarin.com/politica/Marcos-Pena-interes-Cristina-preso_0_1582041799.html'
p8
aS'https://www.clarin.com/politica/Marcos-Pena-interes-Cristina-preso_0_1582041799.html'
p9
a.