(lp0
S'https://www.clarin.com/ieco/economia/generacion-aleja-marcas_0_1681032075.html'
p1
aS'https://www.clarin.com/ieco/economia/Google-pretende-juez-periodistas_0_1681032028.html'
p2
aS'https://www.clarin.com/politica/gremios-divididos-reclamo-bono-paritarias_0_1682231765.html'
p3
aS'https://www.clarin.com/ieco/economia/Desafio-Banco-Central-atajar-avalancha_0_1681032073.html'
p4
aS'https://www.clarin.com/opinion/Gana-juego-financiero-pierde-economia_0_1682231766.html'
p5
aS'https://www.clarin.com/ieco/finanzas/Frente-incertidumbre-mirar-esperar_0_1681032076.html'
p6
aS'https://www.clarin.com/sociedad/Sommeliers-nuevos-creadores-vino_0_1681032021.html'
p7
aS'https://www.clarin.com/ieco/economia/Macri-pretoriano-prepara-lapicera_0_1681032080.html'
p8
aS'https://www.clarin.com/ieco/economia/pelea-valor-premios_0_1681032041.html'
p9
aS'https://www.clarin.com/ieco/economia/Chief-Marketing-Officer-ejecutivo-Fox_0_1681032012.html'
p10
aS'https://www.clarin.com/ieco/economia/triste-Carnegie-Deli-pastrami-famoso_0_1681032055.html'
p11
aS'https://www.clarin.com/ieco/economia/Macri-confidencial-Pepin-pastel-papas_0_1681032010.html'
p12
aS'https://www.clarin.com/ieco/economia/triangulo-Bermudas-playas-serenas_0_1681032007.html'
p13
a.