(lp0
Vhttps://www.clarin.com/sociedad/dormida-provoca-tragedia-Callao-Corrientes_0_1690031041.html
p1
aVhttps://www.clarin.com/sociedad/dormida-provoca-tragedia-Callao-Corrientes_0_1690031041.html
p2
aVhttps://www.clarin.com/sociedad/Lograron-condena-escuela-negado-matricula_0_1690031034.html
p3
aVhttps://www.clarin.com/sociedad/Lograron-condena-escuela-negado-matricula_0_1690031034.html
p4
aVhttps://www.clarin.com/sociedad/Furor-EEUU-Argentina-tramitan-visas_0_1689431245.html
p5
aVhttps://www.clarin.com/sociedad/Furor-EEUU-Argentina-tramitan-visas_0_1689431245.html
p6
aVhttps://www.clarin.com/opinion/final-negrear-fugar_0_1690031030.html
p7
a.