(lp0
Vhttps://www.clarin.com/sociedad/Debuto-puerta-subieron-consultas_0_1639036265.html
p1
aVhttps://www.clarin.com/sociedad/Debuto-puerta-subieron-consultas_0_1639036265.html
p2
aVhttps://www.clarin.com/ieco/economia/Llach-amplian-pagos-moviles_0_1639036260.html
p3
aVhttps://www.clarin.com/ieco/economia/Llach-amplian-pagos-moviles_0_1639036260.html
p4
aVhttps://www.clarin.com/sociedad/alumno-directora-podria-quedar-libre_0_1639036258.html
p5
aVhttps://www.clarin.com/sociedad/alumno-directora-podria-quedar-libre_0_1639036258.html
p6
aVhttps://www.clarin.com/politica/Advierten-Whatsapp-Marijuan-podria-hackeado_0_1639036257.html
p7
aVhttps://www.clarin.com/politica/Advierten-Whatsapp-Marijuan-podria-hackeado_0_1639036257.html
p8
aVhttps://www.clarin.com/politica/China-Macri-escala-politica-Qatar_0_1639036245.html
p9
aVhttps://www.clarin.com/politica/China-Macri-escala-politica-Qatar_0_1639036245.html
p10
aVhttps://www.clarin.com/sociedad/Mato-pidio-perdon-hijos-dijo_0_1639036242.html
p11
aVhttps://www.clarin.com/sociedad/Mato-pidio-perdon-hijos-dijo_0_1639036242.html
p12
aVhttps://www.clarin.com/politica/PRO-dirigentes-redoblar-contacto-gente_0_1639036248.html
p13
aVhttps://www.clarin.com/politica/PRO-dirigentes-redoblar-contacto-gente_0_1639036248.html
p14
aVhttps://www.clarin.com/politica/hotel-boutique-Cristina-cerrado-administre_0_1639036241.html
p15
aVhttps://www.clarin.com/politica/hotel-boutique-Cristina-cerrado-administre_0_1639036241.html
p16
a.