(lp0
Vhttps://www.clarin.com/ieco/economia/Ganancias-queda-sentencias-jubilados_0_1548445583.html
p1
aVhttps://www.clarin.com/politica/CGT-Congreso-pedidos-Ganancias-movilizacion_0_1548445658.html
p2
aVhttps://www.clarin.com/politica/Exigen-Gobierno-detalle-frenar-inflacion_0_1548445656.html
p3
aVhttps://www.clarin.com/politica/Operaciones-financieras-huellas-financistas-allegados_0_1548445612.html
p4
aVhttps://www.clarin.com/sociedad/aceptacion-criticas-resarcimientos-cortes-luz_0_1548445620.html
p5
aVhttps://www.clarin.com/opinion/chino-parece_0_1548445648.html
p6
aVhttps://www.clarin.com/politica/abril-subirian-colectivo-trenes-nafta_0_1548445634.html
p7
aVhttps://www.clarin.com/politica/Intrigas-internas-operaciones-inconfesables_0_1548445603.html
p8
a.