(lp0
S'https://www.clarin.com/politica/Massa-anuncio-Ganancias-sabor_0_1525647657.html'
p1
aS'https://www.clarin.com/sociedad/Atropello-personas-enterro-fondo-casa_0_1525647659.html'
p2
aS'https://www.clarin.com/sociedad/muerte-delfin-Santa-Teresita-medios_0_1525647649.html'
p3
aS'https://www.clarin.com/ieco/economia/Citi-confirmo-vendera-minorista-Argentina_0_1525647629.html'
p4
aS'https://www.clarin.com/ieco/economia/Citi-retira-minorista-Argentina-Brasil_0_1525047864.html'
p5
aS'https://www.clarin.com/politica/Macri-admitio-cambiaran-escalas-Ganancias_0_1525647632.html'
p6
aS'https://www.clarin.com/sociedad/guardafauna-Parque-Nacional-Nahuel-Huapi_0_1525647650.html'
p7
aS'https://www.clarin.com/politica/UCA-justifico-Papa-Milagro-Sala_0_1525647651.html'
p8
a.