(lp0
Vhttps://www.clarin.com/politica/Fuerte-PJ-auditores-Echegaray-AGN_0_1587441292.html
p1
aVhttps://www.clarin.com/politica/Fuerte-PJ-auditores-Echegaray-AGN_0_1587441292.html
p2
aVhttps://www.clarin.com/politica/Baez-allanado-jacuzzi-gimnasio-escosesa_0_1587441297.html
p3
aVhttps://www.clarin.com/politica/Baez-allanado-jacuzzi-gimnasio-escosesa_0_1587441297.html
p4
aVhttps://www.clarin.com/politica/Ahora-allanan-mayor-Lazaro-Baez_0_1587441293.html
p5
aVhttps://www.clarin.com/politica/Ahora-allanan-mayor-Lazaro-Baez_0_1587441293.html
p6
aVhttps://www.clarin.com/ieco/recesion-agravo-Brasil-primer-trimestre_0_1587441286.html
p7
aVhttps://www.clarin.com/ieco/recesion-agravo-Brasil-primer-trimestre_0_1587441286.html
p8
aVhttps://www.clarin.com/ieco/denuncia-AFIP-Samid-ahora-funcionario_0_1587441277.html
p9
aVhttps://www.clarin.com/ieco/denuncia-AFIP-Samid-ahora-funcionario_0_1587441277.html
p10
aVhttps://www.clarin.com/sociedad/Muerte-gorila-ahora-investigar-padres_0_1587441284.html
p11
aVhttps://www.clarin.com/sociedad/Muerte-gorila-ahora-investigar-padres_0_1587441284.html
p12
a.