(lp0
Vhttps://www.clarin.com/politica/reemplazo-Lousteau-Diputados-suma-massismo_0_1560444335.html
p1
aVhttps://www.clarin.com/politica/reemplazo-Lousteau-Diputados-suma-massismo_0_1560444335.html
p2
aVhttps://www.clarin.com/sociedad/transito-primera-causa-muerte-chicos_0_1560444326.html
p3
aVhttps://www.clarin.com/sociedad/denuncias-micros-escolares-manejo-imprudente_0_1560444322.html
p4
aVhttps://www.clarin.com/sociedad/perro-salchicha-obeso-recupero-ideal_0_1560444254.html
p5
aVhttps://www.clarin.com/politica/Barrionuevo-convencido-Cristina-terminara-carcel_0_1560444305.html
p6
aVhttps://www.clarin.com/politica/Barrionuevo-convencido-Cristina-terminara-carcel_0_1560444305.html
p7
aVhttps://www.clarin.com/sociedad/Crescenti-sustancia-tomaron-destruye-aparato_0_1560444306.html
p8
aVhttps://www.clarin.com/sociedad/Crescenti-sustancia-tomaron-destruye-aparato_0_1560444306.html
p9
aVhttps://www.clarin.com/sociedad/Perfil-jovenes-murieron-fiesta-electronica_0_1560444276.html
p10
aVhttps://www.clarin.com/sociedad/Perfil-jovenes-murieron-fiesta-electronica_0_1560444276.html
p11
a.