(lp0
Vhttps://www.clarin.com/politica/Marchan-frazadas-protestar-tarifas_0_1587441357.html
p1
aVhttps://www.clarin.com/politica/Marchan-frazadas-protestar-tarifas_0_1587441357.html
p2
aVhttps://www.clarin.com/sociedad/embarazar-chica-FacebooK-juicio-grooming_0_1587441356.html
p3
aVhttps://www.clarin.com/sociedad/embarazar-chica-FacebooK-juicio-grooming_0_1587441356.html
p4
aVhttps://www.clarin.com/sociedad/argentino-responsable-construccion-tunel-record_0_1587441354.html
p5
aVhttps://www.clarin.com/sociedad/argentino-responsable-construccion-tunel-record_0_1587441354.html
p6
aVhttps://www.clarin.com/politica/Contragolpe-DGI-kirchnerista-proteccion-Baez_0_1587441338.html
p7
aVhttps://www.clarin.com/politica/Malcorra-Diputados-posicion-Brasil-Venezuela_0_1587441347.html
p8
aVhttps://www.clarin.com/politica/Malcorra-Diputados-posicion-Brasil-Venezuela_0_1587441347.html
p9
a.