(lp0
S'https://www.clarin.com/politica/Triple_Fuga-Servicio_Penitenciario-carcel_0_1501050114.html'
p1
aS'https://www.clarin.com/politica/Bullrich-Vidal-Santa-Fe-conferencia_0_1501050109.html'
p2
aS'https://www.clarin.com/politica/agarro-Anibal-captura-Martin-Lanatta_0_1501050096.html'
p3
aS'https://www.clarin.com/politica/martin_lanatta-triple_fuga_0_1501050093.html'
p4
aS'https://www.clarin.com/politica/Triple_Fuga-Patricia_Bullrich-Cristian_Ritondo-Maria_Eugenia_Vidal_0_1501050117.html'
p5
aS'https://www.clarin.com/politica/vecino-caballos_0_1501050107.html'
p6
aS'https://www.clarin.com/sociedad/Republicano-Batalla_de_Obligado-San_Pedro-Hallazgo_0_1501050147.html'
p7
aS'https://www.clarin.com/politica/Macri-trabajo-conjunto-fundamental_0_1501050137.html'
p8
aS'https://www.clarin.com/politica/ultimas-profugos-mordidos-perros-lastimados_0_1501050127.html'
p9
aS'https://www.clarin.com/politica/importante-comience-trabajar-combatir-narcotrafico_0_1501050105.html'
p10
aS'https://www.clarin.com/sociedad/precios_cuidados-lista-carne-verduras-vino-fernet_0_1501050145.html'
p11
a.