(lp0
S'https://www.clarin.com/sociedad/Hallan-muerto-hijo-Rico_0_1543045878.html'
p1
aS'https://www.clarin.com/sociedad/Hallan-muerto-hijo-Rico_0_1543045878.html'
p2
aS'https://www.clarin.com/sociedad/Francisco-estreno-cuenta-Instagram-primera_0_1543045867.html'
p3
aS'https://www.clarin.com/sociedad/Mundos-intimos-saber-magia-existe_0_1542446160.html'
p4
aS'https://www.clarin.com/sociedad/Mundos-intimos-saber-magia-existe_0_1542446160.html'
p5
a.