(lp0
Vhttps://www.clarin.com/ieco/empresas-y-negocios/Coto-inflacion-puede-seguir-anos_0_1520248175.html
p1
aVhttps://www.clarin.com/ieco/empresas-y-negocios/Coto-inflacion-puede-seguir-anos_0_1520248175.html
p2
aVhttps://www.clarin.com/politica/Bahia-Blanca-investigan-defraudacion-transporte_0_1520248184.html
p3
aVhttps://www.clarin.com/politica/sergio_galvino_apablaza-relaciones_exteriores-chile_0_1520248180.html
p4
aVhttps://www.clarin.com/politica/sergio_galvino_apablaza-relaciones_exteriores-chile_0_1520248180.html
p5
aVhttps://www.clarin.com/sociedad/preservativos-futuro-finos-pelo-resistentes_0_1520248177.html
p6
aVhttps://www.clarin.com/sociedad/preservativos-futuro-finos-pelo-resistentes_0_1520248177.html
p7
aVhttps://www.clarin.com/sociedad/avion-aborta-aterrizaje-tocar-tierra_0_1520248176.html
p8
aVhttps://www.clarin.com/sociedad/avion-aborta-aterrizaje-tocar-tierra_0_1520248176.html
p9
aVhttps://www.clarin.com/politica/Hugo-Moyano-Macri-conflicto-Camioneros_0_1520248174.html
p10
aVhttps://www.clarin.com/politica/Hugo-Moyano-Macri-conflicto-Camioneros_0_1520248174.html
p11
aVhttps://www.clarin.com/ieco/economia/Yellen-hablo-condiciones-favorecedoras-crecimiento_0_1520248166.html
p12
a.