(lp0
Vhttps://www.clarin.com/sociedad/Exhiben-insignia-ingles-Enrique-VIII_0_1616238457.html
p1
aVhttps://www.clarin.com/sociedad/Exhiben-insignia-ingles-Enrique-VIII_0_1616238457.html
p2
aVhttps://www.clarin.com/ieco/economia/Aprueban-creditos-US-millones-Argentina_0_1616238453.html
p3
aVhttps://www.clarin.com/ieco/economia/Aprueban-creditos-US-millones-Argentina_0_1616238453.html
p4
aVhttps://www.clarin.com/sociedad/subte-tuitea_0_1616238363.html
p5
aVhttps://www.clarin.com/sociedad/subte-tuitea_0_1616238363.html
p6
a.