(lp0
Vhttps://www.clarin.com/politica/viernes-declaran-hermanas-confirmo-Rafecas_0_1616838378.html
p1
aVhttps://www.clarin.com/politica/viernes-declaran-hermanas-confirmo-Rafecas_0_1616838378.html
p2
aVhttps://www.clarin.com/ieco/economia/Transportistas-dicen-seguira-llamen-dialogar_0_1616838372.html
p3
aVhttps://www.clarin.com/ieco/economia/Transportistas-dicen-seguira-llamen-dialogar_0_1616838372.html
p4
aVhttps://www.clarin.com/politica/Piensa-reeleccion-filosofo-Macri-gobierno_0_1616838357.html
p5
aVhttps://www.clarin.com/politica/Piensa-reeleccion-filosofo-Macri-gobierno_0_1616838357.html
p6
a.