(lp0
S'https://www.clarin.com/sociedad/primeras-pericias-lancha-choco-Storani_0_1552644865.html'
p1
aS'https://www.clarin.com/sociedad/primeras-pericias-lancha-choco-Storani_0_1552644865.html'
p2
aS'https://www.clarin.com/politica/Frente-Renovador-Massa-Presidente-situacion_0_1552644862.html'
p3
aS'https://www.clarin.com/politica/Frente-Renovador-Massa-Presidente-situacion_0_1552644862.html'
p4
aS'https://www.clarin.com/sociedad/Murio-baleada-pareja-Mar-Plata_0_1552644853.html'
p5
aS'https://www.clarin.com/ieco/economia/Definen-concurso-Oil-Combustibles_0_1552644855.html'
p6
aS'https://www.clarin.com/ieco/Prometen-burocracia-credito-pymes_0_1552644852.html'
p7
aS'https://www.clarin.com/ieco/economia/ventas-comercios-cayeron-marzo_0_1552644850.html'
p8
aS'https://www.clarin.com/politica/especialista-lavado-investigar-Macri-sociedad_0_1552644844.html'
p9
aS'https://www.clarin.com/politica/especialista-lavado-investigar-Macri-sociedad_0_1552644844.html'
p10
aS'https://www.clarin.com/politica/Ricardo-Jaime-Tribunales-declarar-Ercolini_0_1552644837.html'
p11
aS'https://www.clarin.com/politica/Ricardo-Jaime-Tribunales-declarar-Ercolini_0_1552644837.html'
p12
a.