(lp0
S'https://www.clarin.com/politica/Eskrache-ironico-video-agrupacion-macrista_0_1566443381.html'
p1
aS'https://www.clarin.com/sociedad/Tragedia-Costa-Salguero-Adrian-Conci_0_1566443380.html'
p2
aS'https://www.clarin.com/sociedad/protestas-estudiantes-UBA-presupuesto-provisorio_0_1566443384.html'
p3
aS'https://www.clarin.com/sociedad/femicidio-country-dormia-actual-pareja_0_1566443387.html'
p4
aS'https://www.clarin.com/politica/Allanan-ahora-casa-Lazaro-Baez_0_1566443397.html'
p5
aS'https://www.clarin.com/ieco/BCE-analiza-eliminar-billete-euros_0_1566443390.html'
p6
aS'https://www.clarin.com/ieco/Vidal-anuncia-plan-inundaciones_0_1566443382.html'
p7
a.