(lp0
Vhttps://www.clarin.com/sociedad/Hackean-Twitter-NASA-planetas-desnudas_0_1608439306.html
p1
aVhttps://www.clarin.com/sociedad/Hackean-Twitter-NASA-planetas-desnudas_0_1608439306.html
p2
aVhttps://www.clarin.com/politica/Cristina-Tiempo-Argentino-recibieron-reproches_0_1608439309.html
p3
aVhttps://www.clarin.com/politica/Cristina-Tiempo-Argentino-recibieron-reproches_0_1608439309.html
p4
a.