(lp0
S'https://www.clarin.com/sociedad/Prorrogaron-marzo-plazo-nuevo-DNI_0_1620438036.html'
p1
aS'https://www.clarin.com/ieco/kirchnerismo-presentara-amparo-datos-ANSES_0_1620438031.html'
p2
aS'https://www.clarin.com/sociedad/Presentaron-plan-nacional-violencia-genero_0_1620438035.html'
p3
aS'https://www.clarin.com/politica/Pena-defendio-datos-ANSeS-electoral_0_1620438032.html'
p4
aS'https://www.clarin.com/politica/reapertura-denuncia-Nisman-preocupacion-Cristina_0_1620438030.html'
p5
aS'https://www.clarin.com/sociedad/Falta-manteca-clima-incentivo-produccion_0_1620438034.html'
p6
aS'https://www.clarin.com/politica/PRO-encantado-pares-PC-chino_0_1620437972.html'
p7
a.