(lp0
Vhttps://www.clarin.com/sociedad/tiernas-imagenes-cuidando-recien-nacido_0_1636636385.html
p1
aVhttps://www.clarin.com/sociedad/tiernas-imagenes-cuidando-recien-nacido_0_1636636385.html
p2
aVhttps://www.clarin.com/ieco/ART-gremio-porteros-operar-liquidada_0_1636636384.html
p3
aVhttps://www.clarin.com/ieco/ART-gremio-porteros-operar-liquidada_0_1636636384.html
p4
aVhttps://www.clarin.com/politica/Cristina-Kirchner-furiosa-tapa-Clarin_0_1636636382.html
p5
aVhttps://www.clarin.com/politica/Cristina-Kirchner-furiosa-tapa-Clarin_0_1636636382.html
p6
aVhttps://www.clarin.com/politica/Cristina-denunciara-Lanata-periodista-desafio_0_1636636380.html
p7
aVhttps://www.clarin.com/politica/Cristina-denunciara-Lanata-periodista-desafio_0_1636636380.html
p8
aVhttps://www.clarin.com/politica/Carrio-enojos-quedar-afuera-timbreo_0_1636636376.html
p9
aVhttps://www.clarin.com/politica/Carrio-enojos-quedar-afuera-timbreo_0_1636636376.html
p10
aVhttps://www.clarin.com/politica/Cristobal-Lopez-avanza-negocios-inhibido_0_1636636356.html
p11
aVhttps://www.clarin.com/politica/empresa-Macri-ausentismo-juicios-laborales_0_1636636371.html
p12
aVhttps://www.clarin.com/politica/empresa-Macri-ausentismo-juicios-laborales_0_1636636371.html
p13
a.