(lp0
Vhttps://www.clarin.com/sociedad/partido-futbol-docentes-cortan-Obelisco_0_1565843407.html
p1
aVhttps://www.clarin.com/sociedad/partido-futbol-docentes-cortan-Obelisco_0_1565843407.html
p2
aVhttps://www.clarin.com/politica/Casanello-confirma-allanamientos-propiedades-Baez_0_1565843406.html
p3
aVhttps://www.clarin.com/politica/Casanello-confirma-allanamientos-propiedades-Baez_0_1565843406.html
p4
aVhttps://www.clarin.com/politica/Cambiemos-PJ-trenzan-ahora-intendentes_0_1565843405.html
p5
aVhttps://www.clarin.com/politica/Cambiemos-PJ-trenzan-ahora-intendentes_0_1565843405.html
p6
aVhttps://www.clarin.com/politica/Casanello-allanamientos-propiedades-Lazaro-Baez_0_1565843404.html
p7
aVhttps://www.clarin.com/politica/Casanello-allanamientos-propiedades-Lazaro-Baez_0_1565843404.html
p8
aVhttps://www.clarin.com/politica/Complican-Chueco-documentos-secuestrados-financieras_0_1565243612.html
p9
aVhttps://www.clarin.com/politica/Complican-Chueco-documentos-secuestrados-financieras_0_1565243612.html
p10
aVhttps://www.clarin.com/politica/EEUU-vuelve-importar-limones-Argentina_0_1565243636.html
p11
aVhttps://www.clarin.com/politica/EEUU-vuelve-importar-limones-Argentina_0_1565243636.html
p12
aVhttps://www.clarin.com/politica/Amplian-denuncia-supuesta-entrega-Maximo_0_1565243625.html
p13
aVhttps://www.clarin.com/politica/Anticipos-blanqueo-viene_0_1565843403.html
p14
aVhttps://www.clarin.com/opinion/escracho-escrachas_0_1565843402.html
p15
a.