(lp0
S'https://www.clarin.com/politica/Carrio-Procuradora-Alejandra-Gils-Carbo_0_1603639719.html'
p1
aS'https://www.clarin.com/sociedad/Prueban-medidor-felicidad-inteligencia-artificial_0_1603639715.html'
p2
aS'https://www.clarin.com/politica/sindicalista-Caballo-Suarez-declarar-SOMU_0_1603639704.html'
p3
aS'https://www.clarin.com/sociedad/Nacen-pandas-gemelos-China_0_1603639716.html'
p4
aS'https://www.clarin.com/politica/Panama-Papers-Nestor-Grindetti-enriquecimiento_0_1603639721.html'
p5
a.