(lp0
S'https://www.clarin.com/ieco/economia/manda-corto-plazo_0_1594040630.html'
p1
aS'https://www.clarin.com/ieco/economia/gobierno-todavia-puede-achicar-deficit_0_1594040622.html'
p2
aS'https://www.clarin.com/ieco/economia/Beneficios-flexibles-compensacion-total_0_1594040629.html'
p3
aS'https://www.clarin.com/ieco/economia/sueldos-ejecutivos-subirian-promedio_0_1594040628.html'
p4
aS'https://www.clarin.com/ieco/economia/discusion-Uber-espacio-foro_0_1594040624.html'
p5
aS'https://www.clarin.com/ieco/economia/casas-estudio-publicas-registraron-calificadoras_0_1594040633.html'
p6
aS'https://www.clarin.com/ieco/economia/solucion-movilidad-gente-transporte-publico_0_1594040626.html'
p7
aS'https://www.clarin.com/ieco/economia/evento-emprendedores-mentores-fondos-inversion_0_1594040632.html'
p8
aS'https://www.clarin.com/ieco/economia/tecnologia-frena-productividad_0_1594040621.html'
p9
aS'https://www.clarin.com/ieco/economia/Pese-negativos-economia-inversores-euforicos_0_1594040620.html'
p10
aS'https://www.clarin.com/ieco/economia/anticipo-futuras-tormentas_0_1594040623.html'
p11
aS'https://www.clarin.com/ieco/economia/Italia-quiere-tener-banco-pais_0_1594040636.html'
p12
aS'https://www.clarin.com/ieco/economia/electricos-preparan-copar-mercado-mundial_0_1594040625.html'
p13
a.