(lp0
Vhttps://www.clarin.com/politica/Facundo-Moyano-critico-Axel-Kicillof_0_1576642409.html
p1
aVhttps://www.clarin.com/politica/Facundo-Moyano-critico-Axel-Kicillof_0_1576642409.html
p2
aVhttps://www.clarin.com/politica/Bonafini-turistica-Papa-esposa-Moreno_0_1576642407.html
p3
aVhttps://www.clarin.com/politica/Bonafini-turistica-Papa-esposa-Moreno_0_1576642407.html
p4
aVhttps://www.clarin.com/sociedad/Mira-cara-ploteo-Lamborghini-US_0_1576642398.html
p5
aVhttps://www.clarin.com/sociedad/Mira-cara-ploteo-Lamborghini-US_0_1576642398.html
p6
aVhttps://www.clarin.com/politica/procesamiento-Cristina-Pinedo-califico-locura_0_1576642402.html
p7
aVhttps://www.clarin.com/politica/Duhalde-escribio-Macri-formula-precios_0_1576642403.html
p8
aVhttps://www.clarin.com/politica/Duhalde-escribio-Macri-formula-precios_0_1576642403.html
p9
aVhttps://www.clarin.com/sociedad/Murio-Scooter-gato-longevo-mundo_0_1576642393.html
p10
aVhttps://www.clarin.com/sociedad/Murio-Scooter-gato-longevo-mundo_0_1576642393.html
p11
aVhttps://www.clarin.com/politica/Cristina-procesada-Macri-corrupcion-kirchnerista_0_1576642396.html
p12
aVhttps://www.clarin.com/politica/Cristina-procesada-Macri-corrupcion-kirchnerista_0_1576642396.html
p13
a.