(lp0
S'https://www.clarin.com/sociedad/Quasimodo-perro-busca-oportunidad_0_1513048957.html'
p1
aS'https://www.clarin.com/sociedad/Quasimodo-perro-busca-oportunidad_0_1513048957.html'
p2
aS'https://www.clarin.com/sociedad/arboleda-Game-Thrones-destrozada-temporal_0_1513048954.html'
p3
aS'https://www.clarin.com/sociedad/arboleda-Game-Thrones-destrozada-temporal_0_1513048954.html'
p4
aS'https://www.clarin.com/politica/Milagro_Sala-defraudacion-carcel-Jujuy-asociacion_ilicita_0_1513048951.html'
p5
aS'https://www.clarin.com/politica/Milagro_Sala-defraudacion-carcel-Jujuy-asociacion_ilicita_0_1513048951.html'
p6
aS'https://www.clarin.com/sociedad/desnudo-boliche-ganar-cerveza_0_1513048947.html'
p7
aS'https://www.clarin.com/sociedad/desnudo-boliche-ganar-cerveza_0_1513048947.html'
p8
aS'https://www.clarin.com/sociedad/Venezuela-detecta-casos-enfermedad-vinculada_0_1513048942.html'
p9
aS'https://www.clarin.com/sociedad/Venezuela-detecta-casos-enfermedad-vinculada_0_1513048942.html'
p10
aS'https://www.clarin.com/ieco/prestamo-puente-banco_central-5-000_millones-reservas_0_1513048944.html'
p11
aS'https://www.clarin.com/ieco/prestamo-puente-banco_central-5-000_millones-reservas_0_1513048944.html'
p12
aS'https://www.clarin.com/ieco/empresas-y-negocios/Google-Italia-impuestos-UE-Londres_0_1513048939.html'
p13
aS'https://www.clarin.com/ieco/empresas-y-negocios/Google-Italia-impuestos-UE-Londres_0_1513048939.html'
p14
aS'https://www.clarin.com/ieco/economia/frena-economia-Unidos-crecio-solo_0_1513048930.html'
p15
a.