(lp0
S'https://www.clarin.com/politica/Oficializan-designacion-Rodolfo-Terragno-Unesco_0_1516648447.html'
p1
aS'https://www.clarin.com/politica/Oficializan-designacion-Rodolfo-Terragno-Unesco_0_1516648447.html'
p2
aS'https://www.clarin.com/ieco/economia/compraventa-propiedades-Capital-sigue-recuperandose_0_1516048600.html'
p3
aS'https://www.clarin.com/politica/sergio_massa-elisa_carrio-mauricio_macri-paritarias-impuesto_a_las_ganancias_0_1516048620.html'
p4
aS'https://www.clarin.com/politica/sergio_massa-elisa_carrio-mauricio_macri-paritarias-impuesto_a_las_ganancias_0_1516048620.html'
p5
aS'https://www.clarin.com/politica/ATE-paro-medida-fuerza-Estado_0_1516048706.html'
p6
aS'https://www.clarin.com/ieco/economia/Cayo-enero-produccion-autos-exportaciones_0_1516048750.html'
p7
aS'https://www.clarin.com/politica/Congreso-Frente_para_la_Victoria-Gobierno-macrismo-PRO-Camara_de_Diputados_0_1516648402.html'
p8
aS'https://www.clarin.com/politica/PRO-jugo-fichas-aislo-duros_0_1516648379.html'
p9
aS'https://www.clarin.com/politica/Comenzo-realineamiento-PJ_0_1516648376.html'
p10
aS'https://www.clarin.com/politica/Assange-anticipa-ONU-piensa-entregarse_0_1516648367.html'
p11
aS'https://www.clarin.com/politica/Assange-anticipa-ONU-piensa-entregarse_0_1516648367.html'
p12
aS'https://www.clarin.com/politica/Diputados-fracturo-FpV-primera-minoria_0_1516648369.html'
p13
aS'https://www.clarin.com/politica/Diputados-fracturo-FpV-primera-minoria_0_1516648369.html'
p14
aS'https://www.clarin.com/sociedad/precio-vuelos-cabotaje-aumentar-limite_0_1516048830.html'
p15
aS'https://www.clarin.com/sociedad/precio-vuelos-cabotaje-aumentar-limite_0_1516048830.html'
p16
a.