(lp0
S'https://www.clarin.com/ieco/finanzas/Sturzenegger-intervenciones-Central-sostener-determinado_0_1529847210.html'
p1
aS'https://www.clarin.com/sociedad/Video-varios-kilometros-contramano-autopista_0_1529847211.html'
p2
aS'https://www.clarin.com/politica/Horas-definicion-provincia-Buenos-Aires_0_1529847228.html'
p3
aS'https://www.clarin.com/ieco/Calo-advirtio-podria-despidos-metalurgico_0_1529847224.html'
p4
aS'https://www.clarin.com/politica/financio-hospital-Posadas-acto_0_1529847226.html'
p5
aS'https://www.clarin.com/politica/politica-mete-cola-discusion-suba_0_1529847231.html'
p6
aS'https://www.clarin.com/ieco/economia/Tarifas-primeras-facturas-aparecio-tarifa_0_1529847229.html'
p7
a.