(lp0
S'https://www.clarin.com/sociedad/Termino-mision-espacial-viajar-planetas_0_1532846937.html'
p1
aS'https://www.clarin.com/politica/kirchnerismo-acusa-Stiuso-psicopata-mentiroso_0_1532846938.html'
p2
aS'https://www.clarin.com/sociedad/relato-intendente-acusado-matar-esposa_0_1532846910.html'
p3
aS'https://www.clarin.com/politica/desconfia-custodios-funcionarios-fiscal-Fein_0_1532846921.html'
p4
aS'https://www.clarin.com/politica/Stiuso-Nisman-Cristina-Anibal-Zannini_0_1532846912.html'
p5
aS'https://www.clarin.com/sociedad/Correa-insiste-oficial-jovenes-mendocinas_0_1532846918.html'
p6
a.