(lp0
Vhttps://www.clarin.com/sociedad/primer-semestre-calido-historia-mundial_0_1618038239.html
p1
aVhttps://www.clarin.com/sociedad/primer-semestre-calido-historia-mundial_0_1618038239.html
p2
aVhttps://www.clarin.com/sociedad/encantador-gallinas-atraccion-Rural_0_1618038238.html
p3
aVhttps://www.clarin.com/sociedad/encantador-gallinas-atraccion-Rural_0_1618038238.html
p4
aVhttps://www.clarin.com/sociedad/Futbol-publicidad-medios-disputa-global_0_1618038237.html
p5
aVhttps://www.clarin.com/sociedad/Futbol-publicidad-medios-disputa-global_0_1618038237.html
p6
aVhttps://www.clarin.com/politica/Nicolas-Fernandez-imputado-lavado-contrabando_0_1618038229.html
p7
aVhttps://www.clarin.com/politica/Nicolas-Fernandez-imputado-lavado-contrabando_0_1618038229.html
p8
aVhttps://www.clarin.com/sociedad/Fin-fabricante-videocaseteras-anuncio-hacerlas_0_1618038233.html
p9
aVhttps://www.clarin.com/sociedad/Fin-fabricante-videocaseteras-anuncio-hacerlas_0_1618038233.html
p10
aVhttps://www.clarin.com/ieco/economia/Sube-importacion-productos-alimenticios_0_1618038234.html
p11
aVhttps://www.clarin.com/ieco/economia/Sube-importacion-productos-alimenticios_0_1618038234.html
p12
aVhttps://www.clarin.com/sociedad/Tercer-dia-corte-Julio_0_1618038232.html
p13
aVhttps://www.clarin.com/sociedad/Tercer-dia-corte-Julio_0_1618038232.html
p14
aVhttps://www.clarin.com/ieco/transportistas-comenzaron-ingresar-camiones-puertos_0_1618038227.html
p15
aVhttps://www.clarin.com/ieco/transportistas-comenzaron-ingresar-camiones-puertos_0_1618038227.html
p16
a.