(lp0
S'https://www.clarin.com/sociedad/Video-campeones-mundiales-canica_0_1548445371.html'
p1
aS'https://www.clarin.com/sociedad/Video-campeones-mundiales-canica_0_1548445371.html'
p2
aS'https://www.clarin.com/ieco/economia/Luego-feriado-largo-dolar-centavos_0_1548445364.html'
p3
aS'https://www.clarin.com/politica/Lombardi-Navarro-enojado-aparecido-C5N_0_1548445358.html'
p4
aS'https://www.clarin.com/politica/Lombardi-Navarro-enojado-aparecido-C5N_0_1548445358.html'
p5
aS'https://www.clarin.com/sociedad/fotos-modelos-alturas-cortan-aliento_0_1548445355.html'
p6
aS'https://www.clarin.com/sociedad/fotos-modelos-alturas-cortan-aliento_0_1548445355.html'
p7
aS'https://www.clarin.com/sociedad/Luna-Saturno-Marte-formaran-flecha_0_1548445344.html'
p8
aS'https://www.clarin.com/sociedad/Luna-Saturno-Marte-formaran-flecha_0_1548445344.html'
p9
a.