(lp0
Vhttps://www.clarin.com/ieco/Provincia-pago-tasa-US-millones_0_1537046769.html
p1
aVhttps://www.clarin.com/ieco/economia/falta-fondos-AFIP-descarta-blanqueo_0_1537046645.html
p2
aVhttps://www.clarin.com/ieco/economia/falta-fondos-AFIP-descarta-blanqueo_0_1537046645.html
p3
aVhttps://www.clarin.com/politica/Macri-viajara-ano-Union-Europea_0_1537046683.html
p4
aVhttps://www.clarin.com/politica/Tasa-llegan-deseados-fondos-afuera_0_1537046692.html
p5
aVhttps://www.clarin.com/sociedad/Identificaron-cuerpo-argentinas-asesinadas-Montanita_0_1537646289.html
p6
aVhttps://www.clarin.com/sociedad/Identificaron-cuerpo-argentinas-asesinadas-Montanita_0_1537646289.html
p7
aVhttps://www.clarin.com/sociedad/Prueban-aprende-idioma-actuando-palabras_0_1537046731.html
p8
aVhttps://www.clarin.com/sociedad/Prueban-aprende-idioma-actuando-palabras_0_1537046731.html
p9
aVhttps://www.clarin.com/opinion/normas-Vaticano-caso-abuso_0_1537646247.html
p10
aVhttps://www.clarin.com/sociedad/detenidos-crimen-Ecuador-ahora-inocente_0_1537646246.html
p11
aVhttps://www.clarin.com/sociedad/detenidos-crimen-Ecuador-ahora-inocente_0_1537646246.html
p12
aVhttps://www.clarin.com/opinion/Obama-derecho-visitar-ex-ESMA_0_1537046630.html
p13
aVhttps://www.clarin.com/opinion/Eco-ecos-comunicacion_0_1537046627.html
p14
a.