(lp0
Vhttps://www.clarin.com/politica/Massa-contactos-EEUU-guino-Lousteau_0_1620438127.html
p1
aVhttps://www.clarin.com/politica/Massa-contactos-EEUU-guino-Lousteau_0_1620438127.html
p2
aVhttps://www.clarin.com/sociedad/Volco-camion-vecinos-faenaron-cuchillo_0_1620438122.html
p3
aVhttps://www.clarin.com/sociedad/Volco-camion-vecinos-faenaron-cuchillo_0_1620438122.html
p4
aVhttps://www.clarin.com/politica/Defensor-Pueblo-Gobierno-suspenda-personales_0_1620438118.html
p5
aVhttps://www.clarin.com/politica/Defensor-Pueblo-Gobierno-suspenda-personales_0_1620438118.html
p6
aVhttps://www.clarin.com/ieco/Tradicion-restaurante-Central-Sociedad-Rural_0_1620438025.html
p7
aVhttps://www.clarin.com/ieco/Tradicion-restaurante-Central-Sociedad-Rural_0_1620438025.html
p8
aVhttps://www.clarin.com/politica/PJ-disimular-homenaje-Eva-Peron_0_1620438108.html
p9
aVhttps://www.clarin.com/politica/PJ-disimular-homenaje-Eva-Peron_0_1620438108.html
p10
aVhttps://www.clarin.com/sociedad/Definieron-pasos-seguir-compras-puerta_0_1620438097.html
p11
aVhttps://www.clarin.com/sociedad/Definieron-pasos-seguir-compras-puerta_0_1620438097.html
p12
a.