(lp0
Vhttps://www.clarin.com/ieco/economia/anos-gasto-publico-aumento_0_1510649068.html
p1
aVhttps://www.clarin.com/ieco/economia/Ingresos-Brutos-ARBA-agentes-retencion_0_1510649066.html
p2
aVhttps://www.clarin.com/ieco/economia/Pampa-da-pelea-quedarse-Petrobras_0_1510649062.html
p3
aVhttps://www.clarin.com/ieco/economia/Pampa-da-pelea-quedarse-Petrobras_0_1510649062.html
p4
aVhttps://www.clarin.com/sociedad/inundacion-mil-personas-agua-Concordia_0_1510649044.html
p5
aVhttps://www.clarin.com/sociedad/inundacion-mil-personas-agua-Concordia_0_1510649044.html
p6
aVhttps://www.clarin.com/sociedad/cayo-rayo-playa-heridos-susto_0_1510649040.html
p7
aVhttps://www.clarin.com/sociedad/cayo-rayo-playa-heridos-susto_0_1510649040.html
p8
aVhttps://www.clarin.com/ieco/economia/carne-evasion_0_1510049437.html
p9
aVhttps://www.clarin.com/ieco/economia/carne-evasion_0_1510049437.html
p10
a.