(lp0
S'https://www.clarin.com/politica/Manifestantes-protestaron-Macri-Plaza-Mayo_0_1554445098.html'
p1
aS'https://www.clarin.com/politica/Manifestantes-protestaron-Macri-Plaza-Mayo_0_1554445098.html'
p2
aS'https://www.clarin.com/ieco/finanzas/Bolsa-desplomo-constructora-Caputo-subio_0_1554445079.html'
p3
aS'https://www.clarin.com/ieco/finanzas/Bolsa-desplomo-constructora-Caputo-subio_0_1554445079.html'
p4
aS'https://www.clarin.com/ieco/YPF-sacan-direccion-nombrados-Galuccio_0_1554445080.html'
p5
aS'https://www.clarin.com/sociedad/canal-entro-crisis-emite-programas_0_1554445068.html'
p6
a.