(lp0
S'https://www.clarin.com/politica/Macri-investigan-corrupcion-Voy-politicen_0_1676832379.html'
p1
aS'https://www.clarin.com/politica/Macri-investigan-corrupcion-Voy-politicen_0_1676832379.html'
p2
aS'https://www.clarin.com/politica/Argentina-Bolivia-control-ilegales-frontera_0_1676832371.html'
p3
aS'https://www.clarin.com/politica/Argentina-Bolivia-control-ilegales-frontera_0_1676832371.html'
p4
aS'https://www.clarin.com/sociedad/Stephen-Hawking-inteligencia-artificial-humanidad_0_1676832372.html'
p5
aS'https://www.clarin.com/sociedad/Stephen-Hawking-inteligencia-artificial-humanidad_0_1676832372.html'
p6
aS'https://www.clarin.com/sociedad/Confirman-inicio-clases-marzo_0_1676832369.html'
p7
aS'https://www.clarin.com/sociedad/Confirman-inicio-clases-marzo_0_1676832369.html'
p8
a.