(lp0
S'https://www.clarin.com/politica/Oficios-ejecuciones-documentacion-Lazaro-Baez_0_1592840745.html'
p1
aS'https://www.clarin.com/politica/Oficios-ejecuciones-documentacion-Lazaro-Baez_0_1592840745.html'
p2
aS'https://www.clarin.com/ieco/economia/actividad-industrial-cayo-abril_0_1592840755.html'
p3
aS'https://www.clarin.com/ieco/economia/actividad-industrial-cayo-abril_0_1592840755.html'
p4
aS'https://www.clarin.com/ieco/economia/Prat-Gay-devolucion-IVA-noviembre_0_1592840751.html'
p5
aS'https://www.clarin.com/ieco/economia/Prat-Gay-devolucion-IVA-noviembre_0_1592840751.html'
p6
aS'https://www.clarin.com/sociedad/oficial-viernes-feriado-ano_0_1592840743.html'
p7
aS'https://www.clarin.com/sociedad/oficial-viernes-feriado-ano_0_1592840743.html'
p8
aS'https://www.clarin.com/sociedad/largas-cargar-podria-faltar-semana_0_1592840741.html'
p9
aS'https://www.clarin.com/ieco/economia/Prat-Gay-confirmo-actualizaran-monotributo_0_1592840740.html'
p10
aS'https://www.clarin.com/politica/Macri-Yapeyu-festejos-Bicentenario-independencia_0_1592840739.html'
p11
aS'https://www.clarin.com/politica/Macri-Yapeyu-festejos-Bicentenario-independencia_0_1592840739.html'
p12
a.