(lp0
Vhttps://www.clarin.com/ieco/campus-ieco/carreras-salen-busca-secundarios_0_1655834538.html
p1
aVhttps://www.clarin.com/ieco/campus-ieco/carreras-salen-busca-secundarios_0_1655834538.html
p2
aVhttps://www.clarin.com/politica/empresario-Tomeo-desafio-Anibal-Fernandez_0_1655834537.html
p3
aVhttps://www.clarin.com/politica/empresario-Tomeo-desafio-Anibal-Fernandez_0_1655834537.html
p4
aVhttps://www.clarin.com/sociedad/Rosetta-acerca-historica-mision-cometa_0_1655834498.html
p5
aVhttps://www.clarin.com/sociedad/Rosetta-acerca-historica-mision-cometa_0_1655834498.html
p6
a.