(lp0
S'https://www.clarin.com/politica/Piden-investigar-Omar-Caballo-Suarez_0_1645635555.html'
p1
aS'https://www.clarin.com/politica/jueza-Servini-pronuncio-favor-eletronico_0_1645635552.html'
p2
aS'https://www.clarin.com/politica/Michetti-dice-boleta-promedio-gas_0_1645635494.html'
p3
aS'https://www.clarin.com/ieco/economia/Central-volvio-bajar-tasas-dejo_0_1645635551.html'
p4
aS'https://www.clarin.com/ieco/economia/Tecnologia-Pymes-recurren-encontrar-pareja_0_1645635553.html'
p5
aS'https://www.clarin.com/sociedad/temporal-suspendieron-clases-parte-Costa_0_1645635549.html'
p6
aS'https://www.clarin.com/politica/Michetti-firmo-decretos-presidenta_0_1645635558.html'
p7
aS'https://www.clarin.com/politica/Servini-detecto-irregularidades-sistema-sorteos_0_1645635550.html'
p8
aS'https://www.clarin.com/sociedad/Murio-kitesurfer-atacado-tiburon_0_1645635535.html'
p9
a.