(lp0
Vhttps://www.clarin.com/politica/bancarios-paran-horas-miercoles-jueves_0_1662433934.html
p1
aVhttps://www.clarin.com/politica/bancarios-paran-horas-miercoles-jueves_0_1662433934.html
p2
aVhttps://www.clarin.com/politica/Macri-bajar-tension-Vidal-Bullrich_0_1662433931.html
p3
aVhttps://www.clarin.com/politica/Macri-bajar-tension-Vidal-Bullrich_0_1662433931.html
p4
aVhttps://www.clarin.com/sociedad/Ley-Dislexia-nuevo-paso-Congreso_0_1662433929.html
p5
aVhttps://www.clarin.com/sociedad/quejas-Barrick-volvio-operar-Veladero_0_1662433928.html
p6
aVhttps://www.clarin.com/politica/Rogelio-Frigerio-Plan-Belgrano-Diputados_0_1662433927.html
p7
aVhttps://www.clarin.com/politica/Rogelio-Frigerio-Plan-Belgrano-Diputados_0_1662433927.html
p8
aVhttps://www.clarin.com/sociedad/Queria-youtuber-acumulo-deuda-Google_0_1662433903.html
p9
aVhttps://www.clarin.com/sociedad/Queria-youtuber-acumulo-deuda-Google_0_1662433903.html
p10
a.