(lp0
S'https://www.clarin.com/politica/Horacio-Verbitsky-desaparecidos-numero-instalado_0_1541246209.html'
p1
aS'https://www.clarin.com/ieco/senal-Washington-favor-negociacion-deuda_0_1541246221.html'
p2
aS'https://www.clarin.com/sociedad/Zentangle-crece-Argentina_0_1541246216.html'
p3
aS'https://www.clarin.com/sociedad/declaro-culpable-intimas-famosas-Hollywood_0_1541246203.html'
p4
aS'https://www.clarin.com/politica/Martin-Baez-incremento-patrimonial-Cristina_0_1541245981.html'
p5
a.