(lp0
S'https://www.clarin.com/opinion/Proteger-infancia-toda-violencia_0_1675032638.html'
p1
aS'https://www.clarin.com/politica/Iglesia-Bonamin-Wernick-Tortolo-Plaza_0_1675032648.html'
p2
aS'https://www.clarin.com/opinion/Demagogos-fogueando-ignorancia_0_1675032643.html'
p3
a.