(lp0
S'https://www.clarin.com/sociedad/alumno-auto-directora-escuela-choco_0_1638436338.html'
p1
aS'https://www.clarin.com/politica/capital-horror-interior-pais-victimas_0_1638436340.html'
p2
aS'https://www.clarin.com/politica/Sonia-Torres-Plaza-Mayo-Hice_0_1638436343.html'
p3
aS'https://www.clarin.com/sociedad/Expectativa-desconfianza-regreso-puerta_0_1638436331.html'
p4
aS'https://www.clarin.com/politica/Crisis-Aduana-efedrina-Perez-Corradi_0_1638436333.html'
p5
aS'https://www.clarin.com/sociedad/ministro-Educacion-estudiantes-disfrazados-nazis_0_1638436339.html'
p6
aS'https://www.clarin.com/politica/amenaza-bomba-Palacio-Hacienda_0_1638436335.html'
p7
a.