(lp0
Vhttps://www.clarin.com/sociedad/canasta-Pascua-cara-llego-aumento_0_1537646665.html
p1
aVhttps://www.clarin.com/sociedad/canasta-Pascua-cara-llego-aumento_0_1537646665.html
p2
aVhttps://www.clarin.com/sociedad/precios-bajan-consumo-alertas-salud_0_1537646671.html
p3
aVhttps://www.clarin.com/sociedad/precios-bajan-consumo-alertas-salud_0_1537646671.html
p4
aVhttps://www.clarin.com/politica/Rosenkrantz-primer-paso-Corte-sobresaltos_0_1537646637.html
p5
aVhttps://www.clarin.com/politica/Rosenkrantz-primer-paso-Corte-sobresaltos_0_1537646637.html
p6
aVhttps://www.clarin.com/ieco/economia/Prat-Gay-Pese-cambios-cumplir-abril_0_1537646618.html
p7
aVhttps://www.clarin.com/ieco/economia/Prat-Gay-Pese-cambios-cumplir-abril_0_1537646618.html
p8
aVhttps://www.clarin.com/politica/tramite-largo-negociaciones_0_1537646633.html
p9
aVhttps://www.clarin.com/politica/tramite-largo-negociaciones_0_1537646633.html
p10
aVhttps://www.clarin.com/politica/Provincia-rechazan-criticas-colocacion-deuda_0_1537646693.html
p11
aVhttps://www.clarin.com/politica/Despues-trompadas-siguen-tironeos-FpV_0_1537646704.html
p12
aVhttps://www.clarin.com/opinion/Pagani-hizo-llorar_0_1537646577.html
p13
aVhttps://www.clarin.com/opinion/Pagani-hizo-llorar_0_1537646577.html
p14
aVhttps://www.clarin.com/sociedad/gigante-blanco-cayo-mirada-mundo_0_1537646683.html
p15
aVhttps://www.clarin.com/sociedad/gigante-blanco-cayo-mirada-mundo_0_1537646683.html
p16
aVhttps://www.clarin.com/ieco/economia/Preven-inversiones-millonarias-energia-eolica_0_1537646620.html
p17
aVhttps://www.clarin.com/sociedad/Esquiva-cambio-climatico_0_1537646681.html
p18
a.