(lp0
S'https://www.clarin.com/ieco/economia/Oficinas-demanda-suben-alquileres_0_1507049739.html'
p1
aS'https://www.clarin.com/ieco/economia/Provincia-limites-financiar-gasto-bonaerense_0_1507049737.html'
p2
aS'https://www.clarin.com/politica/Paul_Singer-Davos_0_1507649388.html'
p3
aS'https://www.clarin.com/politica/Federico_Sturzenegger-Davos_0_1507649380.html'
p4
aS'https://www.clarin.com/politica/Petroleros-podrian-instalar-frente-Rosada_0_1507649382.html'
p5
aS'https://www.clarin.com/ieco/economia/Banco-Central-frena-tasas-corto_0_1507649377.html'
p6
aS'https://www.clarin.com/ieco/economia/baja-petroleo-vuelve-arrastrar-bolsas_0_1507649395.html'
p7
aS'https://www.clarin.com/ieco/economia/Encuesta-Foro-crecio-optimismo-ejecutivos_0_1507649384.html'
p8
a.