(lp0
Vhttps://www.clarin.com/ieco/Nobel-Economia-Hart-Holmstrom-contratos_0_1666033459.html
p1
aVhttps://www.clarin.com/ieco/Nobel-Economia-Hart-Holmstrom-contratos_0_1666033459.html
p2
aVhttps://www.clarin.com/sociedad/Amenazo-hijos-novia-mujer-asesino_0_1666033457.html
p3
aVhttps://www.clarin.com/sociedad/Amenazo-hijos-novia-mujer-asesino_0_1666033457.html
p4
aVhttps://www.clarin.com/sociedad/denunciaron-violencia-encontro-arsenal-objetos_0_1666033454.html
p5
aVhttps://www.clarin.com/sociedad/denunciaron-violencia-encontro-arsenal-objetos_0_1666033454.html
p6
aVhttps://www.clarin.com/sociedad/inteligencia-artificial-todavia-superar-Medicina_0_1666033452.html
p7
aVhttps://www.clarin.com/sociedad/inteligencia-artificial-todavia-superar-Medicina_0_1666033452.html
p8
aVhttps://www.clarin.com/politica/senadores-radicales-infarto-pusieron-stents_0_1666033450.html
p9
aVhttps://www.clarin.com/politica/senadores-radicales-infarto-pusieron-stents_0_1666033450.html
p10
a.