(lp0
S'https://www.clarin.com/politica/Boudou-vecino-destacado-Mar-Plata_0_1546045602.html'
p1
aS'https://www.clarin.com/sociedad/Tragedia-familia-Salta_0_1546045606.html'
p2
aS'https://www.clarin.com/politica/Bariloche-alterada-pendiente-visita-Obama_0_1546045593.html'
p3
aS'https://www.clarin.com/politica/Obama-Parque-Memoria-blancas-silencio_0_1546045591.html'
p4
aS'https://www.clarin.com/politica/hombres-detenidos-intentaron-Obama-petitorio_0_1546045609.html'
p5
aS'https://www.clarin.com/ieco/Primeros-gestos-activar-comercio-EEUU_0_1546045560.html'
p6
aS'https://www.clarin.com/sociedad/enternecedora-carta-despedida-tragedia-Germanwings_0_1546045586.html'
p7
aS'https://www.clarin.com/politica/frases-Obama-Parque-Memoria_0_1546045584.html'
p8
a.