(lp0
Vhttps://www.clarin.com/opinion/Administracion_Publica-Igualdad-Justicia-Servicio_Publico_0_1505249533.html
p1
aVhttps://www.clarin.com/sociedad/drones-controlan-cuatriciclos-Pinamar_0_1504649959.html
p2
aVhttps://www.clarin.com/politica/Triple_Crimen-efedrina-Christian_Fabbiani-Martin_Lanatta_0_1505249524.html
p3
aVhttps://www.clarin.com/politica/Triple_Crimen-Ibar_Perez_Corradi-efedrina_0_1505249523.html
p4
aVhttps://www.clarin.com/politica/Provincia_de_Buenos_Aires-Maria_Eugenia_Vidal-paritaria_docente-Ley_de_Presupuesto_0_1505249522.html
p5
aVhttps://www.clarin.com/politica/Provincia_de_Buenos_Aires-Maria_Eugenia_Vidal-paritaria_docente-Ley_de_Presupuesto_0_1505249522.html
p6
aVhttps://www.clarin.com/sociedad/nuevos_billetes-200-500_y_1-000_pesos_0_1505249521.html
p7
aVhttps://www.clarin.com/politica/Morales-Sala-Plaza-Acampe_0_1505249520.html
p8
aVhttps://www.clarin.com/politica/Morales-Sala-Plaza-Acampe_0_1505249520.html
p9
aVhttps://www.clarin.com/ieco/Sol-Aerolineas-Contrato-220-Telegramas-Gremios_0_1505249519.html
p10
aVhttps://www.clarin.com/sociedad/comer-comida_chatarra-condena-Shametarianism_0_1505249518.html
p11
aVhttps://www.clarin.com/ieco/Cresta-Roja-Quiebra-3-500-Trabajadores-Sueldos_0_1505249517.html
p12
aVhttps://www.clarin.com/politica/Sabbatella-volvio-entrar-AFSCA-horas_0_1504650006.html
p13
aVhttps://www.clarin.com/politica/Sabbatella-volvio-entrar-AFSCA-horas_0_1504650006.html
p14
aVhttps://www.clarin.com/politica/Rosenkrantz-apoyos-Corte_0_1504649998.html
p15
a.