(lp0
S'https://www.clarin.com/sociedad/primera-pareja-sordos-lengua-senas_0_1617438435.html'
p1
aS'https://www.clarin.com/ieco/trabas-Justicia-discutida-suba-tarifas_0_1617438431.html'
p2
aS'https://www.clarin.com/sociedad/jovenes-salvaron-pasajero-ACV-colectivo_0_1617438436.html'
p3
a.