(lp0
Vhttps://www.clarin.com/politica/funcionario-Gobierno-Echegaray-removido-AGN_0_1547245563.html
p1
aVhttps://www.clarin.com/politica/funcionario-Gobierno-Echegaray-removido-AGN_0_1547245563.html
p2
aVhttps://www.clarin.com/sociedad/Obama-saludar-jovenes-argentinos-hablar_0_1547245562.html
p3
aVhttps://www.clarin.com/sociedad/Obama-saludar-jovenes-argentinos-hablar_0_1547245562.html
p4
aVhttps://www.clarin.com/ieco/economia/enfrenta-Eurnekian-control-empresa-holding_0_1547245551.html
p5
aVhttps://www.clarin.com/ieco/economia/enfrenta-Eurnekian-control-empresa-holding_0_1547245551.html
p6
a.