(lp0
S'https://www.clarin.com/politica/Cristina-versus-Bonadio-intimidad-media_0_1558044402.html'
p1
aS'https://www.clarin.com/ieco/FMI-buitres-aliviara-cuentas-Central_0_1558044391.html'
p2
aS'https://www.clarin.com/politica/Cristina-critica-Macri-Salta-Urtubey_0_1558044392.html'
p3
aS'https://www.clarin.com/ieco/economia/LAN-Mendoza-Lima-vuelos-directos_0_1558044407.html'
p4
aS'https://www.clarin.com/politica/Gobierno-Cristina-reaparecio-peor-momento_0_1558044409.html'
p5
aS'https://www.clarin.com/sociedad/conmovedora-carta-Federico-Storani-recordar_0_1558044403.html'
p6
aS'https://www.clarin.com/politica/Cristina-militantes-van-convencer-nadie_0_1558044401.html'
p7
a.