(lp0
Vhttps://www.clarin.com/sociedad/descubren-dinosaurio-argentina-Mendoza-Notocolossus_0_1508249469.html
p1
aVhttps://www.clarin.com/sociedad/descubren-dinosaurio-argentina-Mendoza-Notocolossus_0_1508249469.html
p2
aVhttps://www.clarin.com/sociedad/hombre-anciano-mundo-sobreviviente-Auschwitz_0_1508249481.html
p3
aVhttps://www.clarin.com/sociedad/hombre-anciano-mundo-sobreviviente-Auschwitz_0_1508249481.html
p4
aVhttps://www.clarin.com/politica/Mensajes-cargadas-Macri-realidad-virtual_0_1508249476.html
p5
aVhttps://www.clarin.com/politica/Mensajes-cargadas-Macri-realidad-virtual_0_1508249476.html
p6
aVhttps://www.clarin.com/sociedad/Trepar-Mont-Blanc-virtual-Google_0_1508249474.html
p7
aVhttps://www.clarin.com/sociedad/Trepar-Mont-Blanc-virtual-Google_0_1508249474.html
p8
aVhttps://www.clarin.com/sociedad/real-dibujo_0_1507049609.html
p9
aVhttps://www.clarin.com/sociedad/real-dibujo_0_1507049609.html
p10
aVhttps://www.clarin.com/sociedad/Desnudo-mujer-calle-infiel_0_1508249462.html
p11
aVhttps://www.clarin.com/sociedad/Desnudo-mujer-calle-infiel_0_1508249462.html
p12
a.