(lp0
S'https://www.clarin.com/politica/Macri-saludo-gobernadores-Rosada_0_1537646477.html'
p1
aS'https://www.clarin.com/politica/Macri-saludo-gobernadores-Rosada_0_1537646477.html'
p2
aS'https://www.clarin.com/politica/Pampa-echo-secretario-privado-borracho_0_1537646487.html'
p3
aS'https://www.clarin.com/politica/Pampa-echo-secretario-privado-borracho_0_1537646487.html'
p4
aS'https://www.clarin.com/politica/Rosenkrantz-militara-jueces-paguen-ganancias_0_1537646474.html'
p5
aS'https://www.clarin.com/politica/Rosenkrantz-militara-jueces-paguen-ganancias_0_1537646474.html'
p6
aS'https://www.clarin.com/sociedad/empleados-Barrick-apelaran-procesamiento_0_1537646471.html'
p7
aS'https://www.clarin.com/sociedad/empleados-Barrick-apelaran-procesamiento_0_1537646471.html'
p8
aS'https://www.clarin.com/politica/Hablo-diputado-acusado-amenazar-armado_0_1537646457.html'
p9
aS'https://www.clarin.com/politica/Hablo-diputado-acusado-amenazar-armado_0_1537646457.html'
p10
aS'https://www.clarin.com/ieco/economia/Gobierno-impuestos-promover-integracion-automotor_0_1537046764.html'
p11
aS'https://www.clarin.com/ieco/economia/Gobierno-impuestos-promover-integracion-automotor_0_1537046764.html'
p12
a.