(lp0
S'https://www.clarin.com/sociedad/controles-drogas-choferes-micros_0_1660034071.html'
p1
aS'https://www.clarin.com/politica/fotografos-quedaron-poder-imagenes-Macri_0_1660034086.html'
p2
aS'https://www.clarin.com/politica/Mega-frenadas-revision-presupuestos-sospechosos_0_1660034068.html'
p3
a.