(lp0
S'https://www.clarin.com/ieco/economia/autos-vendidos_0_1498650314.html'
p1
aS'https://www.clarin.com/politica/Patricia-Bullrich-profugos-delincuentes-peligrosos_0_1498650311.html'
p2
aS'https://www.clarin.com/politica/Patricia-Bullrich-profugos-delincuentes-peligrosos_0_1498650311.html'
p3
aS'https://www.clarin.com/politica/abogado-barra-dice-cliente-perejil_0_1498650308.html'
p4
aS'https://www.clarin.com/politica/abogado-barra-dice-cliente-perejil_0_1498650308.html'
p5
aS'https://www.clarin.com/sociedad/mujer-longeva-Argentina-anos_0_1498650292.html'
p6
aS'https://www.clarin.com/sociedad/mujer-longeva-Argentina-anos_0_1498650292.html'
p7
aS'https://www.clarin.com/politica/Aparecio-camioneta-Kangoo-calcinada-crecen_0_1498650295.html'
p8
aS'https://www.clarin.com/politica/Aparecio-camioneta-Kangoo-calcinada-crecen_0_1498650295.html'
p9
aS'https://www.clarin.com/ieco/economia/Gobierno-emite-bonos-millones_0_1498650293.html'
p10
a.