(lp0
Vhttps://www.clarin.com/politica/Julio-Vido-denuncian-Planificacion-defraudacion_0_1679232199.html
p1
aVhttps://www.clarin.com/politica/Julio-Vido-denuncian-Planificacion-defraudacion_0_1679232199.html
p2
aVhttps://www.clarin.com/opinion/Espana-panico-sensatez_0_1679232198.html
p3
aVhttps://www.clarin.com/opinion/camino-igualdad-ley_0_1679232196.html
p4
aVhttps://www.clarin.com/opinion/camino-igualdad-ley_0_1679232196.html
p5
aVhttps://www.clarin.com/politica/Casacion-recibira-denuncia-Nisman-Cristina_0_1679232193.html
p6
aVhttps://www.clarin.com/politica/Casacion-recibira-denuncia-Nisman-Cristina_0_1679232193.html
p7
aVhttps://www.clarin.com/ieco/desacelera-recaudacion-tributaria-subio-octubre_0_1679232190.html
p8
a.