(lp0
Vhttps://www.clarin.com/sociedad/elefantes-circo-ringling-peta-animales_0_1502849970.html
p1
aVhttps://www.clarin.com/sociedad/elefantes-circo-ringling-peta-animales_0_1502849970.html
p2
aVhttps://www.clarin.com/sociedad/piton-mordio-turista-queria-darle_0_1502849952.html
p3
aVhttps://www.clarin.com/sociedad/piton-mordio-turista-queria-darle_0_1502849952.html
p4
aVhttps://www.clarin.com/politica/interna-FpV-aprobar-Presupuesto-bonaerense_0_1502850002.html
p5
aVhttps://www.clarin.com/politica/interna-FpV-aprobar-Presupuesto-bonaerense_0_1502850002.html
p6
aVhttps://www.clarin.com/politica/Cristina-grabo-saludo-Campora_0_1502849999.html
p7
aVhttps://www.clarin.com/politica/Cristina-grabo-saludo-Campora_0_1502849999.html
p8
aVhttps://www.clarin.com/ieco/empresas-y-negocios/YPF-jueves-extiende-vacaciones-trabajadores_0_1502849987.html
p9
aVhttps://www.clarin.com/ieco/empresas-y-negocios/YPF-jueves-extiende-vacaciones-trabajadores_0_1502849987.html
p10
aVhttps://www.clarin.com/sociedad/Hernan-Casciari-infarto-primera-persona_0_1502849988.html
p11
aVhttps://www.clarin.com/sociedad/Hernan-Casciari-infarto-primera-persona_0_1502849988.html
p12
a.