(lp0
Vhttps://www.clarin.com/sociedad/submarino-encuentra-monstruo-Ness-equivocado_0_1558644417.html
p1
aVhttps://www.clarin.com/sociedad/submarino-encuentra-monstruo-Ness-equivocado_0_1558644417.html
p2
aVhttps://www.clarin.com/sociedad/lideres-piden-cambios-politicas-drogas_0_1558644401.html
p3
aVhttps://www.clarin.com/sociedad/lideres-piden-cambios-politicas-drogas_0_1558644401.html
p4
aVhttps://www.clarin.com/sociedad/Iba-vacaciones-descompuso-internada-Qatar_0_1558644414.html
p5
aVhttps://www.clarin.com/sociedad/Iba-vacaciones-descompuso-internada-Qatar_0_1558644414.html
p6
a.