(lp0
S'https://www.clarin.com/politica/Sabbatella-volver-AFSCA-dejaron-entrar_0_1504649647.html'
p1
aS'https://www.clarin.com/politica/Sabbatella-volver-AFSCA-dejaron-entrar_0_1504649647.html'
p2
aS'https://www.clarin.com/politica/Lombardi-suma-cineasta-medios-publicos_0_1504649642.html'
p3
aS'https://www.clarin.com/politica/Lombardi-suma-cineasta-medios-publicos_0_1504649642.html'
p4
aS'https://www.clarin.com/ieco/economia/fondos_buitre-default-citibank-thomas_griesa_0_1504050062.html'
p5
aS'https://www.clarin.com/ieco/tecnologia/Patagon-PayPal-Wenceslao_Casares_0_1504049871.html'
p6
aS'https://www.clarin.com/ieco/tecnologia/Patagon-PayPal-Wenceslao_Casares_0_1504049871.html'
p7
aS'https://www.clarin.com/ieco/economia/INDEC-recomienda-Ciudad-San-Luis_0_1504049862.html'
p8
aS'https://www.clarin.com/ieco/economia/INDEC-recomienda-Ciudad-San-Luis_0_1504049862.html'
p9
aS'https://www.clarin.com/sociedad/Radio_y_Television_Argentina_-RTA-Radio_Nacional-TV_Publica-Telam-Lombardi-Sigal-Pereira_0_1504050085.html'
p10
aS'https://www.clarin.com/ieco/emprendedores/errores-muestran-camino-seguir_0_1504049903.html'
p11
aS'https://www.clarin.com/ieco/emprendedores/errores-muestran-camino-seguir_0_1504049903.html'
p12
a.