(lp0
Vhttps://www.clarin.com/opinion/acaba-plata-viene-futbol_0_1683431641.html
p1
aVhttps://www.clarin.com/politica/maniobra-dejaria-denuncia-Nisman-kirchneristas_0_1682831883.html
p2
aVhttps://www.clarin.com/politica/maniobra-dejaria-denuncia-Nisman-kirchneristas_0_1682831883.html
p3
aVhttps://www.clarin.com/politica/Nisman-DAIA-ratificar-apelacion-Casacion_0_1682831846.html
p4
aVhttps://www.clarin.com/politica/Nisman-DAIA-ratificar-apelacion-Casacion_0_1682831846.html
p5
aVhttps://www.clarin.com/politica/Macri-cumpleanos-Cuarto-Midachi_0_1682831749.html
p6
aVhttps://www.clarin.com/politica/Macri-cumpleanos-Cuarto-Midachi_0_1682831749.html
p7
aVhttps://www.clarin.com/sociedad/Reclaman-emergencia-violencia-genero-Rios_0_1682831881.html
p8
aVhttps://www.clarin.com/sociedad/Reclaman-emergencia-violencia-genero-Rios_0_1682831881.html
p9
aVhttps://www.clarin.com/sociedad/femicidios-horas-Gobierno-apunto-Justicia_0_1682831880.html
p10
aVhttps://www.clarin.com/sociedad/femicidios-horas-Gobierno-apunto-Justicia_0_1682831880.html
p11
aVhttps://www.clarin.com/sociedad/ovulos-vientre-Justicia-reconocio-madre_0_1682831878.html
p12
a.