(lp0
S'https://www.clarin.com/politica/declaracion-Stiuso-ampliarian-causa-Cristina_0_1657634362.html'
p1
aS'https://www.clarin.com/sociedad/Alto-WhatsApp-autoincrimina-Proyecto-XXX_0_1657634348.html'
p2
aS'https://www.clarin.com/ieco/economia/agosto-volvio-caer-empleo_0_1657634360.html'
p3
aS'https://www.clarin.com/politica/Ritondo-prevenciones-llegar-tranquilos-fiestas_0_1657634351.html'
p4
aS'https://www.clarin.com/ieco/economia/metas-inflacion-dejan-crecimiento-economico_0_1657634342.html'
p5
aS'https://www.clarin.com/sociedad/resolucion-problemas-capacidad-transversal_0_1657634364.html'
p6
a.