(lp0
Vhttps://www.clarin.com/politica/Detienen-hombre-amenazado-Quinta-Olivos_0_1651035033.html
p1
aVhttps://www.clarin.com/sociedad/Giselle-Rimolo-podria-volver-carcel_0_1651035031.html
p2
aVhttps://www.clarin.com/sociedad/Giselle-Rimolo-podria-volver-carcel_0_1651035031.html
p3
aVhttps://www.clarin.com/politica/imputacion-Jose-Lopez-autos-oficiales_0_1651035023.html
p4
aVhttps://www.clarin.com/politica/imputacion-Jose-Lopez-autos-oficiales_0_1651035023.html
p5
aVhttps://www.clarin.com/sociedad/chicos-escuelas-rendimientos-dispares_0_1651035020.html
p6
aVhttps://www.clarin.com/sociedad/chicos-escuelas-rendimientos-dispares_0_1651035020.html
p7
aVhttps://www.clarin.com/sociedad/basta-tener-alumnos-escuelas_0_1651035019.html
p8
aVhttps://www.clarin.com/sociedad/calidad-ensenanza-clave-exclusion_0_1651035018.html
p9
aVhttps://www.clarin.com/sociedad/participan-Salta-Senor-Virgen-Milagro_0_1651035017.html
p10
aVhttps://www.clarin.com/sociedad/participan-Salta-Senor-Virgen-Milagro_0_1651035017.html
p11
aVhttps://www.clarin.com/politica/Senado-oposicion-presento-proyecto-AUH_0_1651035014.html
p12
aVhttps://www.clarin.com/politica/Senado-oposicion-presento-proyecto-AUH_0_1651035014.html
p13
aVhttps://www.clarin.com/sociedad/Paseaba-perro-encontro-cartuchos-dinamita_0_1651035016.html
p14
aVhttps://www.clarin.com/sociedad/Paseaba-perro-encontro-cartuchos-dinamita_0_1651035016.html
p15
aVhttps://www.clarin.com/politica/Procuracion-Oil-Combustibles-tramitar-Capital_0_1651035008.html
p16
aVhttps://www.clarin.com/politica/Procuracion-Oil-Combustibles-tramitar-Capital_0_1651035008.html
p17
a.