(lp0
S'https://www.clarin.com/ieco/economia/Gonzalez-Fraga-polemica-consumo-media_0_1586241414.html'
p1
aS'https://www.clarin.com/ieco/economia/Gonzalez-Fraga-polemica-consumo-media_0_1586241414.html'
p2
aS'https://www.clarin.com/politica/Ex-secretario-Cultura-CCK-Kirchner_0_1586241412.html'
p3
aS'https://www.clarin.com/politica/Ex-secretario-Cultura-CCK-Kirchner_0_1586241412.html'
p4
aS'https://www.clarin.com/politica/educacion-video-porteno-Cristobal-Lopez_0_1586241409.html'
p5
aS'https://www.clarin.com/politica/educacion-video-porteno-Cristobal-Lopez_0_1586241409.html'
p6
aS'https://www.clarin.com/ieco/Volvieron-protestas-Misiones-boleta-luz_0_1586241411.html'
p7
aS'https://www.clarin.com/ieco/Primeros-AFIP-enfrentar-desmesurada-evasion_0_1586241401.html'
p8
aS'https://www.clarin.com/ieco/Primeros-AFIP-enfrentar-desmesurada-evasion_0_1586241401.html'
p9
a.