(lp0
S'https://www.clarin.com/sociedad/cuesta-pelota-solucion-enigma-planteado_0_1532247013.html'
p1
aS'https://www.clarin.com/sociedad/cuesta-pelota-solucion-enigma-planteado_0_1532247013.html'
p2
aS'https://www.clarin.com/politica/Palco-palco-lugares-VIP-Congreso_0_1532247010.html'
p3
aS'https://www.clarin.com/politica/Palco-palco-lugares-VIP-Congreso_0_1532247010.html'
p4
aS'https://www.clarin.com/politica/Papa-Kirchner-personajes-Macri-discurso_0_1532247006.html'
p5
aS'https://www.clarin.com/politica/Papa-Kirchner-personajes-Macri-discurso_0_1532247006.html'
p6
aS'https://www.clarin.com/sociedad/detenidos-crimen-jovenes-cambio-declaracion_0_1532247004.html'
p7
aS'https://www.clarin.com/sociedad/detenidos-crimen-jovenes-cambio-declaracion_0_1532247004.html'
p8
aS'https://www.clarin.com/politica/NIsman-Palmaghini-declaro-incompetente-federal_0_1532246996.html'
p9
aS'https://www.clarin.com/politica/Incidentes-Bancarios-pocas-cuadras-Congreso_0_1532246997.html'
p10
aS'https://www.clarin.com/politica/Incidentes-Bancarios-pocas-cuadras-Congreso_0_1532246997.html'
p11
aS'https://www.clarin.com/politica/promesas-proyectos-clave-Macri_0_1532246992.html'
p12
a.