(lp0
S'https://www.clarin.com/sociedad/acortan-viajes-crecen-escapadas-exterior_0_1520848330.html'
p1
aS'https://www.clarin.com/sociedad/acortan-viajes-crecen-escapadas-exterior_0_1520848330.html'
p2
aS'https://www.clarin.com/sociedad/locos-Einstein-contento_0_1520848321.html'
p3
a.