(lp0
Vhttps://www.clarin.com/politica/Macri-agradecio-gremios-inicio-termino_0_1531646985.html
p1
aVhttps://www.clarin.com/politica/Macri-agradecio-gremios-inicio-termino_0_1531646985.html
p2
aVhttps://www.clarin.com/sociedad/enigma-engana-apurados-cuesta-pelota_0_1531646983.html
p3
aVhttps://www.clarin.com/sociedad/enigma-engana-apurados-cuesta-pelota_0_1531646983.html
p4
aVhttps://www.clarin.com/ieco/economia/agro-aporto-balanza-comercial-exportaciones_0_1531646970.html
p5
aVhttps://www.clarin.com/ieco/economia/agro-aporto-balanza-comercial-exportaciones_0_1531646970.html
p6
aVhttps://www.clarin.com/ieco/economia/Crisis-amenaza-cierre-plantas-girasol_0_1531646973.html
p7
aVhttps://www.clarin.com/politica/Aerolineas-pago-millones-dolares-Kirchner_0_1531646972.html
p8
aVhttps://www.clarin.com/politica/Aerolineas-pago-millones-dolares-Kirchner_0_1531646972.html
p9
aVhttps://www.clarin.com/politica/colmo-herencia-masajista-reclama-deuda_0_1531047283.html
p10
aVhttps://www.clarin.com/politica/colmo-herencia-masajista-reclama-deuda_0_1531047283.html
p11
aVhttps://www.clarin.com/ieco/afterwork/dolar-sigue-atrasado-Brasil_0_1531646969.html
p12
aVhttps://www.clarin.com/politica/Hagamos-Papa-intendentes-narcotrafico-pobreza_0_1531646966.html
p13
aVhttps://www.clarin.com/politica/Hagamos-Papa-intendentes-narcotrafico-pobreza_0_1531646966.html
p14
aVhttps://www.clarin.com/ieco/economia/Fondos-buitre-manana-decision-Griesa_0_1531646964.html
p15
aVhttps://www.clarin.com/sociedad/Montanita-destino-buscado-jovenes-nocturna_0_1531646961.html
p16
aVhttps://www.clarin.com/sociedad/Montanita-destino-buscado-jovenes-nocturna_0_1531646961.html
p17
a.