(lp0
Vhttps://www.clarin.com/politica/Obispos-Patagonia-suman-protesta-aumento_0_1586841351.html
p1
aVhttps://www.clarin.com/politica/Obispos-Patagonia-suman-protesta-aumento_0_1586841351.html
p2
aVhttps://www.clarin.com/ieco/economia/Prat-Gay-Repsol-invertir-Argentina_0_1586841349.html
p3
aVhttps://www.clarin.com/ieco/economia/Prat-Gay-Repsol-invertir-Argentina_0_1586841349.html
p4
aVhttps://www.clarin.com/sociedad/Mar-Plata-evacuados-mal-tiempo_0_1586841345.html
p5
aVhttps://www.clarin.com/sociedad/Mar-Plata-evacuados-mal-tiempo_0_1586841345.html
p6
aVhttps://www.clarin.com/politica/abogados-Baez-pidieron-reunirse-fiscal_0_1586841340.html
p7
aVhttps://www.clarin.com/politica/abogados-Baez-pidieron-reunirse-fiscal_0_1586841340.html
p8
aVhttps://www.clarin.com/sociedad/Time-Warp-Stinfale-seguira-domiciliaria_0_1586841338.html
p9
aVhttps://www.clarin.com/sociedad/Time-Warp-Stinfale-seguira-domiciliaria_0_1586841338.html
p10
aVhttps://www.clarin.com/ieco/economia/Preocupa-Mendoza-desabaestecimiento-combustible-petroleros_0_1586841335.html
p11
aVhttps://www.clarin.com/politica/minuto-politicos-Showmatch_0_1586841334.html
p12
aVhttps://www.clarin.com/politica/minuto-politicos-Showmatch_0_1586841334.html
p13
a.