(lp0
S'https://www.clarin.com/sociedad/Presentaron-pais-camion-facilita-sobrepasos_0_1516648567.html'
p1
aS'https://www.clarin.com/ieco/economia/Regazzoni-denuncio-PAMI-remedios-afiliados_0_1516648564.html'
p2
aS'https://www.clarin.com/sociedad/Aerolineas-aumenta-pasajes-cabotaje_0_1516648584.html'
p3
aS'https://www.clarin.com/sociedad/ultramachistas-cancelaron-reunion-mundial_0_1516648577.html'
p4
aS'https://www.clarin.com/sociedad/Video-cuidar-abuela-Alzheimer-golpeaba_0_1516648490.html'
p5
aS'https://www.clarin.com/sociedad/Rescatan-operativo-atacada-perros-municipal_0_1516648581.html'
p6
aS'https://www.clarin.com/ieco/empresas-y-negocios/argentina-Sinteplast-compro-pinturas-Brasil_0_1516648569.html'
p7
aS'https://www.clarin.com/politica/Campora-Facebook-Bossio-llenaron-amenazas_0_1516648561.html'
p8
a.