(lp0
Vhttps://www.clarin.com/sociedad/autopsia-revelo-murio-hijo-Storani_0_1552645006.html
p1
aVhttps://www.clarin.com/sociedad/autopsia-revelo-murio-hijo-Storani_0_1552645006.html
p2
aVhttps://www.clarin.com/politica/Confirman-procesamiento-Sbatella-violar-secretos_0_1552644996.html
p3
aVhttps://www.clarin.com/politica/Confirman-procesamiento-Sbatella-violar-secretos_0_1552644996.html
p4
aVhttps://www.clarin.com/politica/Denuncia-Sauces-Bonadio-investigar-Cristina_0_1552645004.html
p5
aVhttps://www.clarin.com/politica/Denuncia-Sauces-Bonadio-investigar-Cristina_0_1552645004.html
p6
aVhttps://www.clarin.com/sociedad/nuevo-laboratorio-inflable-NASA_0_1552644995.html
p7
aVhttps://www.clarin.com/sociedad/nuevo-laboratorio-inflable-NASA_0_1552644995.html
p8
a.