(lp0
Vhttps://www.clarin.com/politica/petroleras-piden-suba-precios-noviembre_0_1672032918.html
p1
aVhttps://www.clarin.com/politica/petroleras-piden-suba-precios-noviembre_0_1672032918.html
p2
aVhttps://www.clarin.com/ieco/Isolux-sale-parques-eolicos_0_1672032930.html
p3
aVhttps://www.clarin.com/ieco/privados-sigue-recesion-actividad-cayo_0_1672632725.html
p4
aVhttps://www.clarin.com/opinion/Gobierno-empresarios-expectativas-desencontradas_0_1672032926.html
p5
aVhttps://www.clarin.com/opinion/Tormenta-malas-noticias-Cristina_0_1672632724.html
p6
aVhttps://www.clarin.com/opinion/Seduciendo-capital-gordos_0_1672632722.html
p7
aVhttps://www.clarin.com/opinion/Trump-punta-iceberg_0_1672632721.html
p8
aVhttps://www.clarin.com/politica/Costantini-Nordelta-Malba-economico-Gobierno_0_1672032979.html
p9
aVhttps://www.clarin.com/politica/Costantini-Nordelta-Malba-economico-Gobierno_0_1672032979.html
p10
aVhttps://www.clarin.com/ieco/economia/Pedido-Presidente-Laura-dejes-pasar_0_1672032976.html
p11
aVhttps://www.clarin.com/ieco/economia/Pedido-Presidente-Laura-dejes-pasar_0_1672032976.html
p12
aVhttps://www.clarin.com/politica/bono-estatales-cobran-cuenta-paritarias_0_1672032975.html
p13
aVhttps://www.clarin.com/politica/bono-estatales-cobran-cuenta-paritarias_0_1672032975.html
p14
a.