(lp0
S'https://www.clarin.com/politica/Prat-Gay-fantasma-proteccionista-Trump_0_1663633638.html'
p1
aS'https://www.clarin.com/sociedad/huracan-Matthew-cancelan-Ezeiza-Miami_0_1663633634.html'
p2
aS'https://www.clarin.com/politica/Triaca-anticipo-sectores-menores-ingresos_0_1663633631.html'
p3
aS'https://www.clarin.com/politica/Triaca-anticipo-sectores-menores-ingresos_0_1663633631.html'
p4
aS'https://www.clarin.com/politica/Prat-Gay-Sturzenegger-Washington-paralelas_0_1663633629.html'
p5
aS'https://www.clarin.com/politica/Prat-Gay-Sturzenegger-Washington-paralelas_0_1663633629.html'
p6
aS'https://www.clarin.com/politica/Baez-cumplio-detenido-prision-domiciliaria_0_1663033800.html'
p7
aS'https://www.clarin.com/politica/Baez-cumplio-detenido-prision-domiciliaria_0_1663033800.html'
p8
aS'https://www.clarin.com/politica/Recalculando-gastos-pesos-dolares_0_1663033849.html'
p9
aS'https://www.clarin.com/politica/Recalculando-gastos-pesos-dolares_0_1663033849.html'
p10
aS'https://www.clarin.com/ieco/economia/privados-empiezan-discutir-Comercio-ofrece_0_1663033870.html'
p11
aS'https://www.clarin.com/ieco/economia/privados-empiezan-discutir-Comercio-ofrece_0_1663033870.html'
p12
aS'https://www.clarin.com/ieco/economia/Energia-renovable-ganadores-licitacion_0_1663033835.html'
p13
aS'https://www.clarin.com/ieco/economia/Energia-renovable-ganadores-licitacion_0_1663033835.html'
p14
a.