(lp0
S'https://www.clarin.com/politica/veto-oficialismo-puede-sostenerlo-justo_0_1571243080.html'
p1
aS'https://www.clarin.com/politica/diputado-Hector-Recalde-entrevista-radial_0_1571243069.html'
p2
aS'https://www.clarin.com/sociedad/Suman-pedidos-nueva-Ley-Comunicaciones_0_1571243076.html'
p3
aS'https://www.clarin.com/politica/Bergman-bajarse-marcha-pasteras_0_1571243082.html'
p4
aS'https://www.clarin.com/sociedad/Pagina12-acto-pase-manos-porteros_0_1571243072.html'
p5
a.