(lp0
Vhttps://www.clarin.com/opinion/Oyarbide-renuncia-clausura-ley_0_1562243878.html
p1
aVhttps://www.clarin.com/opinion/prensa-militante-codigos-selva_0_1562243876.html
p2
aVhttps://www.clarin.com/opinion/hombre-dolares-banos_0_1562843703.html
p3
aVhttps://www.clarin.com/politica/bancarios-hacen-paro-siguen-negociaciones_0_1562243962.html
p4
aVhttps://www.clarin.com/politica/bancarios-hacen-paro-siguen-negociaciones_0_1562243962.html
p5
aVhttps://www.clarin.com/politica/Gobierno-rechaza-proyecto-apuesta-debate_0_1562243960.html
p6
aVhttps://www.clarin.com/politica/Gobierno-rechaza-proyecto-apuesta-debate_0_1562243960.html
p7
aVhttps://www.clarin.com/sociedad/Suspendieron-prefectos-llaman-declarar-personas_0_1562243958.html
p8
aVhttps://www.clarin.com/sociedad/Extasis-liquido-posible-mezcla-letal_0_1562243949.html
p9
aVhttps://www.clarin.com/ieco/economia/YPF-fuerte-reduccion-personal-petroleras_0_1562243898.html
p10
aVhttps://www.clarin.com/ieco/economia/YPF-fuerte-reduccion-personal-petroleras_0_1562243898.html
p11
aVhttps://www.clarin.com/politica/abrio-credito-ahora-van-inflacion_0_1562243966.html
p12
aVhttps://www.clarin.com/politica/bloque-Senado-resistencia-liderazgo-Cristina_0_1562243955.html
p13
aVhttps://www.clarin.com/politica/bloque-Senado-resistencia-liderazgo-Cristina_0_1562243955.html
p14
aVhttps://www.clarin.com/politica/Patricia-Bullrich-Cristina-intento-victimizacion_0_1562243951.html
p15
aVhttps://www.clarin.com/politica/Patricia-Bullrich-Cristina-intento-victimizacion_0_1562243951.html
p16
aVhttps://www.clarin.com/politica/Declara-Chueco-hombre-clave-dinero_0_1562243948.html
p17
aVhttps://www.clarin.com/politica/Declara-Chueco-hombre-clave-dinero_0_1562243948.html
p18
a.