(lp0
Vhttps://www.clarin.com/ieco/economia/lideres-empresarios-mayor-prestigio_0_1672632872.html
p1
aVhttps://www.clarin.com/ieco/economia/lideres-empresarios-mayor-prestigio_0_1672632872.html
p2
aVhttps://www.clarin.com/politica/Cristina-Kirchner-debera-devolver-pensiones_0_1673232806.html
p3
aVhttps://www.clarin.com/politica/Cristina-Kirchner-debera-devolver-pensiones_0_1673232806.html
p4
aVhttps://www.clarin.com/politica/Massa-politico-cana-ademas-devolver_0_1673232827.html
p5
aVhttps://www.clarin.com/politica/Massa-politico-cana-ademas-devolver_0_1673232827.html
p6
aVhttps://www.clarin.com/politica/Sergio-Massa-toque_0_1673232826.html
p7
aVhttps://www.clarin.com/politica/Sergio-Massa-toque_0_1673232826.html
p8
aVhttps://www.clarin.com/politica/Sergio-Massa-muchacho-barrio-presidencial_0_1673232821.html
p9
aVhttps://www.clarin.com/politica/Sergio-Massa-muchacho-barrio-presidencial_0_1673232821.html
p10
a.