(lp0
S'https://www.clarin.com/ieco/economia/indios-Issue-vienen-empresas-argentinas_0_1671433031.html'
p1
aS'https://www.clarin.com/sociedad/Marte-llego-mision-europea-misterio_0_1671433028.html'
p2
aS'https://www.clarin.com/politica/Acuerdan-minimo-trabajadores-sector-privado_0_1671433027.html'
p3
aS'https://www.clarin.com/politica/Lazaro-Baez-Jose-Lopez-fiscales_0_1671433026.html'
p4
aS'https://www.clarin.com/politica/acuerdo-profundizo-division-gremios_0_1671433022.html'
p5
aS'https://www.clarin.com/politica/Gobierno-impulsa-agencia-municipios-intendentes_0_1671433019.html'
p6
aS'https://www.clarin.com/politica/Prat-Gay-enojo-pregunta-cuentas-fiscales_0_1671433003.html'
p7
aS'https://www.clarin.com/politica/Alcances-limitaciones-acuerdo-mesa-dialogo_0_1671433032.html'
p8
aS'https://www.clarin.com/ieco/economia/Bioceres-Rizobacter-tablero-negocio-agroindustrial_0_1671433030.html'
p9
aS'https://www.clarin.com/ieco/economia/empresarios-acuerdo-politico-aceptan-negociar_0_1671433033.html'
p10
aS'https://www.clarin.com/sociedad/grito-subte-universidades_0_1671433024.html'
p11
a.