(lp0
S'https://www.clarin.com/politica/Carrio-Hebe-Bonafini-violenta-ladrona_0_1627637385.html'
p1
aS'https://www.clarin.com/politica/Masiva-Plaza-Mayo-protestar-Macri_0_1627637386.html'
p2
aS'https://www.clarin.com/politica/Papa-omnipresente-Liniers-Plaza_0_1627637381.html'
p3
aS'https://www.clarin.com/politica/San-Cayetano-estira-gente-plata_0_1627637380.html'
p4
aS'https://www.clarin.com/sociedad/Doble-crimen-Montanita-comienza-Ecuador_0_1627637377.html'
p5
aS'https://www.clarin.com/politica/Denuncian-contador-Baez-Lopez-financiera_0_1627637338.html'
p6
aS'https://www.clarin.com/politica/chupetometro-Derrota_0_1627637384.html'
p7
aS'https://www.clarin.com/politica/Escrachan-Sabbatella-aeropuerto-Santiago-Estero_0_1627637388.html'
p8
aS'https://www.clarin.com/politica/Iglesia-insistio-reclamo-progreso-justicia_0_1627637360.html'
p9
a.