(lp0
S'https://www.clarin.com/sociedad/CBU-cuentas-podran-tener-nombre_0_1634836688.html'
p1
aS'https://www.clarin.com/sociedad/CBU-cuentas-podran-tener-nombre_0_1634836688.html'
p2
aS'https://www.clarin.com/sociedad/Hospitales-violentos-paciente-cabeza-medica_0_1634836683.html'
p3
a.