(lp0
Vhttps://www.clarin.com/sociedad/gano-guerra-rating-super-domingo_0_1607239288.html
p1
aVhttps://www.clarin.com/sociedad/gano-guerra-rating-super-domingo_0_1607239288.html
p2
aVhttps://www.clarin.com/politica/Perez-Corradi-testigo-protegido-abogados_0_1607239286.html
p3
aVhttps://www.clarin.com/politica/Perez-Corradi-testigo-protegido-abogados_0_1607239286.html
p4
aVhttps://www.clarin.com/politica/Ines-increible-anecdota-Jose-Lopez_0_1607239283.html
p5
aVhttps://www.clarin.com/politica/Ines-increible-anecdota-Jose-Lopez_0_1607239283.html
p6
aVhttps://www.clarin.com/sociedad/Investigan-fraude-asegura-record-Everest_0_1607239281.html
p7
aVhttps://www.clarin.com/sociedad/Investigan-fraude-asegura-record-Everest_0_1607239281.html
p8
aVhttps://www.clarin.com/ieco/consumo-registro-junio-mayor-baja_0_1607239280.html
p9
a.