(lp0
S'https://www.clarin.com/politica/Cristina-Kirchner-Azurduy-Cristobal-Colon_0_1524447719.html'
p1
aS'https://www.clarin.com/politica/Cristina-Kirchner-Azurduy-Cristobal-Colon_0_1524447719.html'
p2
aS'https://www.clarin.com/sociedad/revitalizacion-home-noticiosa-pronosticos_0_1525047888.html'
p3
aS'https://www.clarin.com/sociedad/revitalizacion-home-noticiosa-pronosticos_0_1525047888.html'
p4
aS'https://www.clarin.com/sociedad/Volco-larga-distacia-Plata-heridos_0_1525647523.html'
p5
a.