(lp0
Vhttps://www.clarin.com/politica/Morales-empezara-desalojo-Tupac-Amaru_0_1506449471.html
p1
aVhttps://www.clarin.com/politica/Morales-empezara-desalojo-Tupac-Amaru_0_1506449471.html
p2
aVhttps://www.clarin.com/ieco/economia/langosta-plaga_0_1505849825.html
p3
aVhttps://www.clarin.com/ieco/economia/brito-comida_0_1505849824.html
p4
aVhttps://www.clarin.com/ieco/economia/Venta-autos-usados-alcanzo-record_0_1505849614.html
p5
aVhttps://www.clarin.com/ieco/economia/Micheli-afirmo-pediran-aumentos_0_1505849638.html
p6
aVhttps://www.clarin.com/politica/Morales-negocia-Milagro-Sala-presa_0_1506449409.html
p7
aVhttps://www.clarin.com/politica/Morales-negocia-Milagro-Sala-presa_0_1506449409.html
p8
aVhttps://www.clarin.com/politica/Creian-iba-incendiar-Provincia-tranquilo_0_1506449407.html
p9
aVhttps://www.clarin.com/politica/Creian-iba-incendiar-Provincia-tranquilo_0_1506449407.html
p10
aVhttps://www.clarin.com/opinion/Rolando_Barbano_0_1506449394.html
p11
a.