(lp0
S'https://www.clarin.com/politica/Hugo-Moyano-Gobierno-sincerando-economia_0_1568843103.html'
p1
aS'https://www.clarin.com/sociedad/vuelven-funcionar-trenes-Linea-Roca_0_1568843113.html'
p2
aS'https://www.clarin.com/politica/Represas-informe-oficial-alerta-irreversibles_0_1568843106.html'
p3
aS'https://www.clarin.com/politica/Detuvieron-Reynoso-investigado-proteger-Salta_0_1568843108.html'
p4
aS'https://www.clarin.com/politica/Marijuan-allanamientos-contribuido-sumamente-exitosos_0_1568843115.html'
p5
a.