(lp0
Vhttps://www.clarin.com/ieco/economia/Aranguren-suba-gas-llegara-junio_0_1527447415.html
p1
aVhttps://www.clarin.com/ieco/economia/Acindar-cierre_0_1527447581.html
p2
aVhttps://www.clarin.com/ieco/economia/Acindar-cierre_0_1527447581.html
p3
aVhttps://www.clarin.com/politica/Bullrich-corten-calles-cambio-paradigma_0_1528047227.html
p4
aVhttps://www.clarin.com/politica/Bullrich-corten-calles-cambio-paradigma_0_1528047227.html
p5
aVhttps://www.clarin.com/ieco/economia/Gobierno-acordo-tercio-fondos-juicio_0_1528047223.html
p6
aVhttps://www.clarin.com/politica/Gobierno-puso-revision-impacto-jubilados_0_1528047215.html
p7
aVhttps://www.clarin.com/politica/Gobierno-puso-revision-impacto-jubilados_0_1528047215.html
p8
aVhttps://www.clarin.com/opinion/redes_sociales-intimidad-relaciones_de_pareja-derecho_a_la_privacidad_0_1528047211.html
p9
aVhttps://www.clarin.com/opinion/Ley_del_arrepentido-libre_acceso_a_la_informacion_publica-corrupcion-fondos_reservados_0_1528047210.html
p10
a.