(lp0
S'https://www.clarin.com/politica/Rafecas-descarto-declaracion-indagatoria-Lopez_0_1606639449.html'
p1
aS'https://www.clarin.com/sociedad/record-NASA-llega-atmosfera-Jupiter_0_1606639445.html'
p2
aS'https://www.clarin.com/sociedad/record-NASA-llega-atmosfera-Jupiter_0_1606639445.html'
p3
aS'https://www.clarin.com/sociedad/record-NASA-llega-atmosfera-Jupiter_0_1606639446.html'
p4
aS'https://www.clarin.com/sociedad/record-NASA-llega-atmosfera-Jupiter_0_1606639446.html'
p5
aS'https://www.clarin.com/sociedad/Abanderado-zapatos-donan-pares-comunidad_0_1606639443.html'
p6
aS'https://www.clarin.com/sociedad/Murio-Arturo-polar-zoologico-Mendoza_0_1606639438.html'
p7
aS'https://www.clarin.com/sociedad/Murio-Arturo-polar-zoologico-Mendoza_0_1606639438.html'
p8
aS'https://www.clarin.com/sociedad/Furor-peculiar-escultura-Messi-Famailla_0_1606639423.html'
p9
aS'https://www.clarin.com/sociedad/Furor-peculiar-escultura-Messi-Famailla_0_1606639423.html'
p10
aS'https://www.clarin.com/sociedad/Indice-violencia-genero-respondieron-mujeres_0_1606639432.html'
p11
aS'https://www.clarin.com/sociedad/Indice-violencia-genero-respondieron-mujeres_0_1606639432.html'
p12
aS'https://www.clarin.com/politica/Farina-bolsos-Cristina-Vido-Echegaray_0_1606639427.html'
p13
aS'https://www.clarin.com/politica/Farina-bolsos-Cristina-Vido-Echegaray_0_1606639427.html'
p14
aS'https://www.clarin.com/politica/Reincoporan-gendarme-Cabandie-multa-transito_0_1606639431.html'
p15
aS'https://www.clarin.com/politica/Reincoporan-gendarme-Cabandie-multa-transito_0_1606639431.html'
p16
a.