(lp0
S'https://www.clarin.com/politica/Cristina-intendentes-rebeldes-iran-hoy_0_1561044032.html'
p1
aS'https://www.clarin.com/politica/Cristina-intendentes-rebeldes-iran-hoy_0_1561044032.html'
p2
aS'https://www.clarin.com/politica/Sindicalistas-reciben-obispos-situacion-social_0_1561044035.html'
p3
aS'https://www.clarin.com/politica/Sindicalistas-reciben-obispos-situacion-social_0_1561044035.html'
p4
aS'https://www.clarin.com/sociedad/jovenes-internados-siguen-grave_0_1561044031.html'
p5
aS'https://www.clarin.com/sociedad/jovenes-internados-siguen-grave_0_1561044031.html'
p6
aS'https://www.clarin.com/politica/Devolucion-IVA-alimentos-podran-cobrar_0_1561044029.html'
p7
aS'https://www.clarin.com/politica/Devolucion-IVA-alimentos-podran-cobrar_0_1561044029.html'
p8
aS'https://www.clarin.com/sociedad/Tragedia-Costa-Salguero-Santilli-Ciudad_0_1561044030.html'
p9
aS'https://www.clarin.com/sociedad/Tragedia-Costa-Salguero-Santilli-Ciudad_0_1561044030.html'
p10
aS'https://www.clarin.com/politica/Milagro-Sala-desvio-millones-viviendas_0_1561044022.html'
p11
aS'https://www.clarin.com/politica/Milagro-Sala-desvio-millones-viviendas_0_1561044022.html'
p12
aS'https://www.clarin.com/ieco/Buscan-evitar-maniobra-eludir-retenciones_0_1560444329.html'
p13
aS'https://www.clarin.com/politica/Oficializan-extraordinario-jubilados-beneficiarios-AUH_0_1561044007.html'
p14
aS'https://www.clarin.com/politica/Oficializan-extraordinario-jubilados-beneficiarios-AUH_0_1561044007.html'
p15
a.