(lp0
Vhttps://www.clarin.com/sociedad/fecha-juicio-oral-emblematico-trata_0_1656434417.html
p1
aVhttps://www.clarin.com/sociedad/fecha-juicio-oral-emblematico-trata_0_1656434417.html
p2
aVhttps://www.clarin.com/sociedad/brigada-rescate-bulldogs-robados_0_1655234595.html
p3
aVhttps://www.clarin.com/sociedad/brigada-rescate-bulldogs-robados_0_1655234595.html
p4
aVhttps://www.clarin.com/politica/Dante-Caputo-Malvinas-preocupan-Macri_0_1656434413.html
p5
aVhttps://www.clarin.com/politica/Dante-Caputo-Malvinas-preocupan-Macri_0_1656434413.html
p6
aVhttps://www.clarin.com/sociedad/escuela-celular-convirtio-nuevo-util_0_1656434411.html
p7
aVhttps://www.clarin.com/sociedad/escuela-celular-convirtio-nuevo-util_0_1656434411.html
p8
aVhttps://www.clarin.com/sociedad/guia-docente-crucial_0_1656434410.html
p9
aVhttps://www.clarin.com/sociedad/guia-docente-crucial_0_1656434410.html
p10
aVhttps://www.clarin.com/sociedad/futuro-educativo_0_1656434407.html
p11
aVhttps://www.clarin.com/sociedad/futuro-educativo_0_1656434407.html
p12
aVhttps://www.clarin.com/opinion/placer-viajar-traves-alma_0_1656434408.html
p13
aVhttps://www.clarin.com/sociedad/celular-escuela-testimonios-docentes_0_1655834597.html
p14
aVhttps://www.clarin.com/sociedad/celular-escuela-testimonios-docentes_0_1655834597.html
p15
a.