(lp0
S'https://www.clarin.com/politica/Canicoba-Corral-condenatorio-Caballo-Suarez_0_1652834816.html'
p1
aS'https://www.clarin.com/politica/Canicoba-Corral-condenatorio-Caballo-Suarez_0_1652834816.html'
p2
aS'https://www.clarin.com/opinion/perjuicios-regimenes-proteccionistas_0_1652834823.html'
p3
aS'https://www.clarin.com/politica/Discuten-cambios-avanzar-reforma-electoral_0_1652834820.html'
p4
aS'https://www.clarin.com/politica/Discuten-cambios-avanzar-reforma-electoral_0_1652834820.html'
p5
aS'https://www.clarin.com/politica/Fragata-Libertad-Espana-estrechar-vinculo_0_1652834815.html'
p6
aS'https://www.clarin.com/politica/Fragata-Libertad-Espana-estrechar-vinculo_0_1652834815.html'
p7
aS'https://www.clarin.com/politica/Malvinas-Coalicion-Carrio-Gobierno-Congreso_0_1652834809.html'
p8
aS'https://www.clarin.com/politica/Malvinas-Coalicion-Carrio-Gobierno-Congreso_0_1652834809.html'
p9
a.