(lp0
Vhttps://www.clarin.com/sociedad/Vecinos-denuncian-dengue-Vicente-Lopez_0_1532246902.html
p1
aVhttps://www.clarin.com/sociedad/Vecinos-denuncian-dengue-Vicente-Lopez_0_1532246902.html
p2
aVhttps://www.clarin.com/ieco/economia/Central-intervenir-calmar-US-millones_0_1532246893.html
p3
aVhttps://www.clarin.com/politica/Stiuso-Nisman-mataron-trabajo-haciendo_0_1532246891.html
p4
aVhttps://www.clarin.com/politica/Stiuso-Nisman-mataron-trabajo-haciendo_0_1532246891.html
p5
aVhttps://www.clarin.com/politica/Lijo-presidencial-Cristina-financio-ilicitos_0_1532246887.html
p6
aVhttps://www.clarin.com/politica/Lijo-presidencial-Cristina-financio-ilicitos_0_1532246887.html
p7
aVhttps://www.clarin.com/sociedad/Tremendo-accidente-Cordoba-aplastado-camion_0_1532246882.html
p8
aVhttps://www.clarin.com/sociedad/Tremendo-accidente-Cordoba-aplastado-camion_0_1532246882.html
p9
a.