(lp0
S'https://www.clarin.com/sociedad/Canjearan-celulares-equipos-baratos-cuotas_0_1528047641.html'
p1
aS'https://www.clarin.com/opinion/Macri-avanza-piso-enjabonado_0_1528647149.html'
p2
aS'https://www.clarin.com/opinion/Macri-avanza-piso-enjabonado_0_1528647149.html'
p3
aS'https://www.clarin.com/opinion/venganza-Menem_0_1528647147.html'
p4
aS'https://www.clarin.com/opinion/Auditoria-policia-seguridad_0_1528647145.html'
p5
aS'https://www.clarin.com/opinion/Energia_electrica-ajuste_tarifario-consumismo-protocolo_anti-piquetes_0_1528647144.html'
p6
aS'https://www.clarin.com/opinion/Pobreza-Programas_sociales-Milagro_Sala_0_1528647143.html'
p7
aS'https://www.clarin.com/opinion/Pobreza-Programas_sociales-Milagro_Sala_0_1528647143.html'
p8
a.