(lp0
S'https://www.clarin.com/ieco/economia/Macri-Mendoza-llevo-fondos-vinateros_0_1513048844.html'
p1
aS'https://www.clarin.com/politica/denuncias_de_corrupcion-macri-santoro_0_1513048736.html'
p2
aS'https://www.clarin.com/ieco/economia/Precio-carne-Gobierno-culpa-cadenas_0_1513048846.html'
p3
aS'https://www.clarin.com/ieco/economia/mayores-exportaciones-retrocedio-dolar-mayorista_0_1512449058.html'
p4
aS'https://www.clarin.com/sociedad/Hallan-cadaver-hombre-Florianopolis_0_1513048765.html'
p5
aS'https://www.clarin.com/opinion/Horacio_Convertini_0_1513048751.html'
p6
aS'https://www.clarin.com/ieco/deuda-jp_morgan-wall_street_0_1512449174.html'
p7
aS'https://www.clarin.com/ieco/Telecomunicaciones-Nextel-Cablevision-Grupo_Clarin_0_1512449004.html'
p8
a.