(lp0
S'https://www.clarin.com/politica/Marijuan-coimas-puede-complicar-Vido_0_1602439912.html'
p1
aS'https://www.clarin.com/politica/Marijuan-coimas-puede-complicar-Vido_0_1602439912.html'
p2
aS'https://www.clarin.com/politica/Anibal-Gandhi-progres-Milani_0_1602439818.html'
p3
aS'https://www.clarin.com/politica/Anibal-Gandhi-progres-Milani_0_1602439818.html'
p4
aS'https://www.clarin.com/politica/PRO-busca-reforzar-peronista-intendentes_0_1602439905.html'
p5
aS'https://www.clarin.com/politica/Defensor-Pueblo-pelea-PRO-PJ_0_1602439902.html'
p6
aS'https://www.clarin.com/politica/lealtad-Vido-deberia-propio-desafuero_0_1602439899.html'
p7
aS'https://www.clarin.com/politica/lealtad-Vido-deberia-propio-desafuero_0_1602439899.html'
p8
a.