(lp0
S'https://www.clarin.com/sociedad/relata-encuentro-tiburon-adorable-jaula_0_1670832917.html'
p1
aS'https://www.clarin.com/sociedad/relata-encuentro-tiburon-adorable-jaula_0_1670832917.html'
p2
aS'https://www.clarin.com/sociedad/protestas-docentes-alumnos-empezo-Aprender_0_1670832916.html'
p3
aS'https://www.clarin.com/sociedad/protestas-docentes-alumnos-empezo-Aprender_0_1670832916.html'
p4
aS'https://www.clarin.com/politica/Macri-chica-encuentro-gremios-empresas_0_1670832912.html'
p5
aS'https://www.clarin.com/politica/Macri-chica-encuentro-gremios-empresas_0_1670832912.html'
p6
aS'https://www.clarin.com/sociedad/murio-electrocutada-manipulaba-notebook-casa_0_1670832914.html'
p7
aS'https://www.clarin.com/politica/nuevas-medidas-fuerza-bancos-atenderan_0_1670832911.html'
p8
aS'https://www.clarin.com/politica/nuevas-medidas-fuerza-bancos-atenderan_0_1670832911.html'
p9
aS'https://www.clarin.com/ieco/Lanzaron-exposicion-alimentos-tendencias-Argentina_0_1670233103.html'
p10
aS'https://www.clarin.com/sociedad/Servicio-Meteorologico-alerta-vientos-fuertes_0_1670832908.html'
p11
aS'https://www.clarin.com/sociedad/Servicio-Meteorologico-alerta-vientos-fuertes_0_1670832908.html'
p12
aS'https://www.clarin.com/opinion/saber-sabemos_0_1670832906.html'
p13
aS'https://www.clarin.com/sociedad/futbolista-colombiano-detenido-golpear-pareja_0_1670832901.html'
p14
aS'https://www.clarin.com/sociedad/futbolista-colombiano-detenido-golpear-pareja_0_1670832901.html'
p15
a.