(lp0
S'https://www.clarin.com/sociedad/Ofrecen-euros-nadie-interesa-puesto_0_1528047442.html'
p1
aS'https://www.clarin.com/sociedad/Ofrecen-euros-nadie-interesa-puesto_0_1528047442.html'
p2
aS'https://www.clarin.com/politica/Coparticipacion-Macri-legitimo-reclamo-equilibrio_0_1528047438.html'
p3
aS'https://www.clarin.com/politica/Coparticipacion-Macri-legitimo-reclamo-equilibrio_0_1528047438.html'
p4
aS'https://www.clarin.com/politica/Detuvieron-Shakira-derecha-Milagro-Sala_0_1528047441.html'
p5
aS'https://www.clarin.com/politica/Detuvieron-Shakira-derecha-Milagro-Sala_0_1528047441.html'
p6
aS'https://www.clarin.com/politica/Malvinas-acuerdo-Londres-ADN-caidos_0_1528047435.html'
p7
aS'https://www.clarin.com/politica/Malvinas-acuerdo-Londres-ADN-caidos_0_1528047435.html'
p8
aS'https://www.clarin.com/ieco/finanzas/Bolsas-Francfort-Londres-negocian-fusion_0_1528047436.html'
p9
aS'https://www.clarin.com/politica/Macri-Corrientes-gabinete-operativo-seguridad_0_1528047409.html'
p10
aS'https://www.clarin.com/politica/Macri-Corrientes-gabinete-operativo-seguridad_0_1528047409.html'
p11
aS'https://www.clarin.com/sociedad/va-omnibus-solucion-enigma_0_1528047434.html'
p12
aS'https://www.clarin.com/sociedad/va-omnibus-solucion-enigma_0_1528047434.html'
p13
a.