(lp0
S'https://www.clarin.com/politica/Primera-oficialismo-Congreso-DNU-ganancias_0_1537046758.html'
p1
aS'https://www.clarin.com/politica/Primera-oficialismo-Congreso-DNU-ganancias_0_1537046758.html'
p2
aS'https://www.clarin.com/politica/Massa-equilibrista-soga-aguante_0_1537046752.html'
p3
aS'https://www.clarin.com/politica/Massa-equilibrista-soga-aguante_0_1537046752.html'
p4
aS'https://www.clarin.com/sociedad/Curas-abusadores-denuncian-quedan-limbo_0_1537046699.html'
p5
aS'https://www.clarin.com/sociedad/Curas-abusadores-denuncian-quedan-limbo_0_1537046699.html'
p6
aS'https://www.clarin.com/sociedad/casos-argentinos-denunciados-final-Spotlight_0_1537046703.html'
p7
aS'https://www.clarin.com/sociedad/casos-argentinos-denunciados-final-Spotlight_0_1537046703.html'
p8
aS'https://www.clarin.com/sociedad/normas-Vaticano-caso-abuso_0_1537046749.html'
p9
aS'https://www.clarin.com/sociedad/Compras-exterior-anticipan-reparto-domicilio_0_1537046728.html'
p10
aS'https://www.clarin.com/sociedad/Compras-exterior-anticipan-reparto-domicilio_0_1537046728.html'
p11
aS'https://www.clarin.com/politica/silobolsa-reinvento-argentino-mundo_0_1537046767.html'
p12
aS'https://www.clarin.com/opinion/hincha-cuna_0_1537046690.html'
p13
a.