(lp0
Vhttps://www.clarin.com/opinion/relato-colapso-medios-juego-azar_0_1539446058.html
p1
aVhttps://www.clarin.com/opinion/derecha-usa-corbata_0_1539446053.html
p2
aVhttps://www.clarin.com/politica/Detectan-millones-municiones-fabricaciones-militares_0_1538846501.html
p3
aVhttps://www.clarin.com/politica/Detectan-millones-municiones-fabricaciones-militares_0_1538846501.html
p4
aVhttps://www.clarin.com/politica/larga-historia-robos-arsenales-militares_0_1538846524.html
p5
aVhttps://www.clarin.com/politica/larga-historia-robos-arsenales-militares_0_1538846524.html
p6
aVhttps://www.clarin.com/politica/Malestar-Fuerza-Aerea-Franco-Macri_0_1538846488.html
p7
aVhttps://www.clarin.com/politica/Malestar-Fuerza-Aerea-Franco-Macri_0_1538846488.html
p8
a.