(lp0
S'https://www.clarin.com/sociedad/anuncio-llego-medio-semana-brocheriana_0_1508849247.html'
p1
aS'https://www.clarin.com/sociedad/anuncio-llego-medio-semana-brocheriana_0_1508849247.html'
p2
aS'https://www.clarin.com/politica/Macri-IV-FMI-INDEC-BCRA_0_1508849239.html'
p3
aS'https://www.clarin.com/politica/Macri-IV-FMI-INDEC-BCRA_0_1508849239.html'
p4
aS'https://www.clarin.com/sociedad/Francisco-aprobo-canonizacion-cura-Brochero_0_1508849240.html'
p5
aS'https://www.clarin.com/sociedad/Francisco-aprobo-canonizacion-cura-Brochero_0_1508849240.html'
p6
aS'https://www.clarin.com/sociedad/hombre-murio-perro-vuelve-buscarlo_0_1508849217.html'
p7
aS'https://www.clarin.com/sociedad/hombre-murio-perro-vuelve-buscarlo_0_1508849217.html'
p8
aS'https://www.clarin.com/politica/Santa-Cruz-crisis-publica-paralizada_0_1508249611.html'
p9
aS'https://www.clarin.com/politica/Santa-Cruz-crisis-publica-paralizada_0_1508249611.html'
p10
aS'https://www.clarin.com/opinion/Jorge_Velazquez_0_1508849172.html'
p11
a.