(lp0
Vhttps://www.clarin.com/ieco/campus-ieco/Rural-cumplio-promesas-liquidacion-dolares_0_1529247352.html
p1
aVhttps://www.clarin.com/ieco/campus-ieco/Rural-cumplio-promesas-liquidacion-dolares_0_1529247352.html
p2
aVhttps://www.clarin.com/ieco/economia/dolar-mantiene_0_1529247289.html
p3
aVhttps://www.clarin.com/politica/Capitanich-dispara-Pichetto-Asume-oficialista_0_1529247305.html
p4
aVhttps://www.clarin.com/politica/Capitanich-dispara-Pichetto-Asume-oficialista_0_1529247305.html
p5
aVhttps://www.clarin.com/ieco/economia/Rebelion-Rioja-quiere-subas-boleta_0_1529247347.html
p6
aVhttps://www.clarin.com/sociedad/Idiazabal-pueblo-cordobes-quedo-despues_0_1529247307.html
p7
aVhttps://www.clarin.com/sociedad/Idiazabal-pueblo-cordobes-quedo-despues_0_1529247307.html
p8
aVhttps://www.clarin.com/politica/Baradel-viernes-resolvemos-proximo-empiezan_0_1529247343.html
p9
aVhttps://www.clarin.com/politica/Baradel-viernes-resolvemos-proximo-empiezan_0_1529247343.html
p10
aVhttps://www.clarin.com/politica/Massa-Congreso-PJ-discusion-fondo_0_1529247340.html
p11
aVhttps://www.clarin.com/politica/Massa-Congreso-PJ-discusion-fondo_0_1529247340.html
p12
a.