(lp0
Vhttps://www.clarin.com/sociedad/Alerta-global-seguido-record-calor_0_1580242088.html
p1
aVhttps://www.clarin.com/sociedad/Alerta-global-seguido-record-calor_0_1580242088.html
p2
aVhttps://www.clarin.com/politica/Macri-Cresta-Roja-autoridad-trabajadores_0_1580242077.html
p3
aVhttps://www.clarin.com/politica/Macri-Cresta-Roja-autoridad-trabajadores_0_1580242077.html
p4
aVhttps://www.clarin.com/sociedad/argentina-debe-devolver-manana-Unidos_0_1580242073.html
p5
aVhttps://www.clarin.com/sociedad/argentina-debe-devolver-manana-Unidos_0_1580242073.html
p6
a.