(lp0
Vhttps://www.clarin.com/politica/maximo-monzo-despacho_0_1508249529.html
p1
aVhttps://www.clarin.com/politica/maximo-monzo-despacho_0_1508249529.html
p2
aVhttps://www.clarin.com/sociedad/veterano-reencontrara-Segunda-Guerra-Mundial_0_1508249519.html
p3
aVhttps://www.clarin.com/sociedad/veterano-reencontrara-Segunda-Guerra-Mundial_0_1508249519.html
p4
a.