(lp0
S'https://www.clarin.com/politica/funcionaria-Macri-victima-secuestro-virtual_0_1603639692.html'
p1
aS'https://www.clarin.com/politica/pronostico-Barrionuevo-Fantino-Doctora-embargar_0_1603639697.html'
p2
aS'https://www.clarin.com/politica/sincericidio-Moyano-reunion-dirigentes-futbol_0_1603639690.html'
p3
aS'https://www.clarin.com/ieco/presion-fiscal-actividad-agricola-menor_0_1603639696.html'
p4
aS'https://www.clarin.com/politica/abogados-Baez-pidieron-suspender-indagatorias_0_1603639700.html'
p5
aS'https://www.clarin.com/sociedad/Revelan-receta-famoso-robada-esclavo_0_1603639694.html'
p6
aS'https://www.clarin.com/ieco/ajuste-Macri-viendo-buenas-noticias_0_1603639688.html'
p7
aS'https://www.clarin.com/ieco/economia/jubilen-agosto-podrian-recibir-mayor_0_1603639702.html'
p8
a.