(lp0
Vhttps://www.clarin.com/politica/Espana-Mariano-Rajoy-elegido-Presidente_0_1677432302.html
p1
aVhttps://www.clarin.com/politica/Espana-Mariano-Rajoy-elegido-Presidente_0_1677432302.html
p2
aVhttps://www.clarin.com/politica/Iberoamericana-Argentina-Malvinas-Cristina-Kirchner_0_1677432301.html
p3
aVhttps://www.clarin.com/politica/Iberoamericana-Argentina-Malvinas-Cristina-Kirchner_0_1677432301.html
p4
aVhttps://www.clarin.com/sociedad/Moda-alegria-brasilera_0_1677432269.html
p5
aVhttps://www.clarin.com/sociedad/Moda-alegria-brasilera_0_1677432269.html
p6
aVhttps://www.clarin.com/sociedad/Video-trucos-meter-cosas-valija_0_1677432295.html
p7
aVhttps://www.clarin.com/sociedad/Video-trucos-meter-cosas-valija_0_1677432295.html
p8
a.