(lp0
Vhttps://www.clarin.com/politica/Alicia-Kirchner-Buenos-Aires-plata_0_1645635496.html
p1
aVhttps://www.clarin.com/politica/Alicia-Kirchner-Buenos-Aires-plata_0_1645635496.html
p2
aVhttps://www.clarin.com/sociedad/original-utilizo-campeon-mundial-Scrabble_0_1645635510.html
p3
aVhttps://www.clarin.com/sociedad/original-utilizo-campeon-mundial-Scrabble_0_1645635510.html
p4
aVhttps://www.clarin.com/politica/Corte-negaron-declaraciones-juradas-Carrio_0_1645635509.html
p5
aVhttps://www.clarin.com/politica/Corte-negaron-declaraciones-juradas-Carrio_0_1645635509.html
p6
aVhttps://www.clarin.com/ieco/Arranca-normalizacion-facturas-impagas-abril_0_1645635507.html
p7
aVhttps://www.clarin.com/ieco/Arranca-normalizacion-facturas-impagas-abril_0_1645635507.html
p8
aVhttps://www.clarin.com/ieco/economia/fallo-Corte-suben-acciones-electricas_0_1645635501.html
p9
aVhttps://www.clarin.com/ieco/economia/fallo-Corte-suben-acciones-electricas_0_1645635501.html
p10
aVhttps://www.clarin.com/ieco/economia/Aranguren-facturas-gas-iran-mes_0_1645635500.html
p11
aVhttps://www.clarin.com/ieco/economia/Aranguren-facturas-gas-iran-mes_0_1645635500.html
p12
aVhttps://www.clarin.com/sociedad/Video-trompadas-patadas-chicas-plaza_0_1645635499.html
p13
aVhttps://www.clarin.com/sociedad/Video-trompadas-patadas-chicas-plaza_0_1645635499.html
p14
aVhttps://www.clarin.com/sociedad/Logro-desfilar-concurso-dejaban-gordita_0_1645635498.html
p15
aVhttps://www.clarin.com/sociedad/Logro-desfilar-concurso-dejaban-gordita_0_1645635498.html
p16
a.