(lp0
S'https://www.clarin.com/ieco/economia/transporte-lidera-ofensiva-sindical-Ganancias_0_1535846522.html'
p1
aS'https://www.clarin.com/politica/Denuncian-Tupac-Amaru-Banco-Nacion_0_1535846518.html'
p2
aS'https://www.clarin.com/politica/Denuncian-Tupac-Amaru-Banco-Nacion_0_1535846518.html'
p3
aS'https://www.clarin.com/politica/Fondos-buitre-guino-gobernador-Macri_0_1535846519.html'
p4
aS'https://www.clarin.com/politica/Fondos-buitre-guino-gobernador-Macri_0_1535846519.html'
p5
aS'https://www.clarin.com/ieco/economia/Arranca-manana-Expoagro-muestra-campo_0_1535846516.html'
p6
aS'https://www.clarin.com/politica/Garavano-mayores-garantias-esclarecer-Nisman_0_1535846505.html'
p7
aS'https://www.clarin.com/politica/Garavano-mayores-garantias-esclarecer-Nisman_0_1535846505.html'
p8
aS'https://www.clarin.com/politica/Senado-toma-examen-candidato-Corte_0_1535246825.html'
p9
aS'https://www.clarin.com/politica/Senado-toma-examen-candidato-Corte_0_1535246825.html'
p10
aS'https://www.clarin.com/politica/Gobierno-derecho-hacer-poder-politico_0_1535246810.html'
p11
aS'https://www.clarin.com/politica/Coparticipacion-diferencias-gobernadores-PJ_0_1535246854.html'
p12
aS'https://www.clarin.com/politica/Coparticipacion-diferencias-gobernadores-PJ_0_1535246854.html'
p13
aS'https://www.clarin.com/politica/Fondos-oposicion-cambios-complica-Macri_0_1535246798.html'
p14
aS'https://www.clarin.com/politica/Fondos-oposicion-cambios-complica-Macri_0_1535246798.html'
p15
a.