(lp0
Vhttps://www.clarin.com/ieco/economia/cooperativas-vitivinicolas-salen-competir-mundo_0_1602439765.html
p1
aVhttps://www.clarin.com/ieco/economia/cooperativas-vitivinicolas-salen-competir-mundo_0_1602439765.html
p2
aVhttps://www.clarin.com/ieco/economia/negocio-frutos-rojos-tino-verde_0_1601240026.html
p3
aVhttps://www.clarin.com/politica/Ibar-Perez-Corradi-aseguro-seguir_0_1602439750.html
p4
aVhttps://www.clarin.com/politica/Ibar-Perez-Corradi-aseguro-seguir_0_1602439750.html
p5
aVhttps://www.clarin.com/politica/offshore-Baez-Panama-Mossack-Fonseca_0_1601839944.html
p6
aVhttps://www.clarin.com/politica/offshore-Baez-Panama-Mossack-Fonseca_0_1601839944.html
p7
aVhttps://www.clarin.com/opinion/Rusia-disena-mapamundi-riesgoso_0_1601839951.html
p8
aVhttps://www.clarin.com/opinion/casona-Belgrano-Escocia-whisky_0_1601839949.html
p9
aVhttps://www.clarin.com/opinion/casona-Belgrano-Escocia-whisky_0_1601839949.html
p10
a.