(lp0
S'https://www.clarin.com/ieco/economia/Gobierno-conversa-bancos-emision-bonos_0_1544845772.html'
p1
aS'https://www.clarin.com/ieco/economia/Gobierno-conversa-bancos-emision-bonos_0_1544845772.html'
p2
a.