(lp0
S'https://www.clarin.com/politica/funcionario-defendio-colectivo-armado-Macri_0_1658234213.html'
p1
aS'https://www.clarin.com/ieco/produccion-autos-cayo-agosto_0_1658234206.html'
p2
aS'https://www.clarin.com/politica/claves-proyecto-Gobierno-controlar-empresas_0_1658234207.html'
p3
aS'https://www.clarin.com/politica/Murio-Patricia-Bullrich-despidio-Facebook_0_1658234210.html'
p4
a.