(lp0
S'https://www.clarin.com/politica/Llevan-intendente-Bariloche-dirigentes-PJ_0_1597040367.html'
p1
aS'https://www.clarin.com/sociedad/intendente-detuvieron-borracho-prohibio-alcoholemia_0_1597040368.html'
p2
aS'https://www.clarin.com/sociedad/Tierra-vista-espacio-ultra-definicion_0_1597040363.html'
p3
aS'https://www.clarin.com/sociedad/padres-atacado-cocodrilo-Disney-devastados_0_1597040373.html'
p4
aS'https://www.clarin.com/politica/UIF-denuncio-Lopez-lavado-dinero_0_1597040375.html'
p5
aS'https://www.clarin.com/politica/Oficina-Anticorrupcion-reclamo-fideicomiso-Macri_0_1597040370.html'
p6
aS'https://www.clarin.com/ieco/economia/Productores-yerba-amenazan-bloquear-camiones_0_1597040369.html'
p7
a.