(lp0
Vhttps://www.clarin.com/ieco/economia/esperar-llegue-cosecha_0_1531047076.html
p1
aVhttps://www.clarin.com/ieco/economia/esperar-llegue-cosecha_0_1531047076.html
p2
aVhttps://www.clarin.com/ieco/economia/restaurante-abre-dia_0_1531047060.html
p3
aVhttps://www.clarin.com/ieco/economia/restaurante-abre-dia_0_1531047060.html
p4
aVhttps://www.clarin.com/ieco/economia/Crece-oferta-cursos-aprender-videojuegos_0_1531047055.html
p5
aVhttps://www.clarin.com/ieco/economia/Crece-oferta-cursos-aprender-videojuegos_0_1531047055.html
p6
aVhttps://www.clarin.com/ieco/economia/Gerentes-Planta-perfil-demanda-sostenida_0_1531047053.html
p7
aVhttps://www.clarin.com/ieco/economia/grupos-CREA-llegan-Georgia_0_1531047048.html
p8
aVhttps://www.clarin.com/ieco/economia/grupos-CREA-llegan-Georgia_0_1531047048.html
p9
aVhttps://www.clarin.com/ieco/economia/Spots-videos-apuntan-mobile_0_1531047047.html
p10
aVhttps://www.clarin.com/ieco/economia/Spots-videos-apuntan-mobile_0_1531047047.html
p11
aVhttps://www.clarin.com/ieco/economia/Tortoni-ganar-mercados-portena-emblematica_0_1531047046.html
p12
aVhttps://www.clarin.com/ieco/economia/Tortoni-ganar-mercados-portena-emblematica_0_1531047046.html
p13
aVhttps://www.clarin.com/ieco/economia/holdouts-provincias-buscaran-financiamiento-externo_0_1531047043.html
p14
aVhttps://www.clarin.com/ieco/economia/Nacion-gobernadores-cierran-pacto-convivencia_0_1531047042.html
p15
aVhttps://www.clarin.com/ieco/economia/Nacion-gobernadores-cierran-pacto-convivencia_0_1531047042.html
p16
aVhttps://www.clarin.com/ieco/economia/costo-capital-hunde-tasas_0_1531047040.html
p17
aVhttps://www.clarin.com/ieco/economia/costo-capital-hunde-tasas_0_1531047040.html
p18
aVhttps://www.clarin.com/ieco/economia/Dar-vuelta-pagina-acreedores_0_1531047039.html
p19
aVhttps://www.clarin.com/ieco/economia/indicador-favorito-Fed-mayor-meses_0_1531047038.html
p20
aVhttps://www.clarin.com/ieco/economia/inversores-vuelven-flexibles_0_1531047037.html
p21
aVhttps://www.clarin.com/ieco/economia/inversores-vuelven-flexibles_0_1531047037.html
p22
aVhttps://www.clarin.com/ieco/economia/Autonomos-olvidados-mejora-Ganancias_0_1531047035.html
p23
aVhttps://www.clarin.com/ieco/economia/Buen-pronostico-campo_0_1531047034.html
p24
aVhttps://www.clarin.com/ieco/economia/Buen-pronostico-campo_0_1531047034.html
p25
a.