(lp0
Vhttps://www.clarin.com/opinion/mejor-sintesis_0_1577842205.html
p1
aVhttps://www.clarin.com/sociedad/escandalo-iglesia-Lima-ven-fieles_0_1577242411.html
p2
aVhttps://www.clarin.com/politica/Vialidad-Lazaro-Baez-relaciones-carnales_0_1577242392.html
p3
aVhttps://www.clarin.com/politica/actitud-empezar-cerrar-grieta_0_1577242423.html
p4
aVhttps://www.clarin.com/sociedad/crucificando-dijo-parroco_0_1577242412.html
p5
aVhttps://www.clarin.com/opinion/Baby-Doc_0_1577842204.html
p6
aVhttps://www.clarin.com/opinion/Baby-Doc_0_1577842204.html
p7
a.