(lp0
Vhttps://www.clarin.com/politica/Menem-Kirchner-Rua-Cristina-pobreza_0_1665433574.html
p1
aVhttps://www.clarin.com/politica/Menem-Kirchner-Rua-Cristina-pobreza_0_1665433574.html
p2
aVhttps://www.clarin.com/politica/Inseguridad-esperan-mejoras-largo-plazo_0_1665433570.html
p3
aVhttps://www.clarin.com/politica/Inseguridad-esperan-mejoras-largo-plazo_0_1665433570.html
p4
aVhttps://www.clarin.com/politica/Juan-Manuel-Pedrini-informaticas-elecciones_0_1665433569.html
p5
aVhttps://www.clarin.com/politica/Juan-Manuel-Pedrini-informaticas-elecciones_0_1665433569.html
p6
aVhttps://www.clarin.com/politica/Inesperada-pelea-cartel-Diputados-Senado_0_1664233764.html
p7
aVhttps://www.clarin.com/politica/Inesperada-pelea-cartel-Diputados-Senado_0_1664233764.html
p8
aVhttps://www.clarin.com/politica/Macri-radicales-Olivos-homenaje-Yrigoyen_0_1665433506.html
p9
aVhttps://www.clarin.com/politica/Macri-radicales-Olivos-homenaje-Yrigoyen_0_1665433506.html
p10
a.