(lp0
S'https://www.clarin.com/sociedad/David-finalmente-viajar-tratarse-Boston_0_1613838700.html'
p1
aS'https://www.clarin.com/sociedad/David-finalmente-viajar-tratarse-Boston_0_1613838700.html'
p2
aS'https://www.clarin.com/politica/Stolbizer-mediacion-Cristina-desista-demanda_0_1613838697.html'
p3
aS'https://www.clarin.com/politica/Stolbizer-mediacion-Cristina-desista-demanda_0_1613838697.html'
p4
aS'https://www.clarin.com/sociedad/Gran-parte-Bariloche-ayer-tarde_0_1613838692.html'
p5
aS'https://www.clarin.com/sociedad/Gran-parte-Bariloche-ayer-tarde_0_1613838692.html'
p6
aS'https://www.clarin.com/politica/Gobierno-vinculo-cacerolazo-personajes-kirchnerismo_0_1613838684.html'
p7
aS'https://www.clarin.com/politica/Gobierno-vinculo-cacerolazo-personajes-kirchnerismo_0_1613838684.html'
p8
aS'https://www.clarin.com/sociedad/ingeniero-riojano-estudio-sandwiches-Macri_0_1613838683.html'
p9
aS'https://www.clarin.com/sociedad/ingeniero-riojano-estudio-sandwiches-Macri_0_1613838683.html'
p10
aS'https://www.clarin.com/sociedad/fabricante-aviones-quiere-historia-espacio_0_1613838681.html'
p11
aS'https://www.clarin.com/sociedad/fabricante-aviones-quiere-historia-espacio_0_1613838681.html'
p12
a.