(lp0
S'https://www.clarin.com/ieco/tarifa-luz-inflacion-IPC_CABA_0_1511849068.html'
p1
aS'https://www.clarin.com/sociedad/crearon-parche-ayuda-prevenir-cancer_de_piel-L-Oreal_0_1511849043.html'
p2
aS'https://www.clarin.com/sociedad/Faltan-repelentes-mosquito-dengue_0_1511849064.html'
p3
aS'https://www.clarin.com/politica/Rogelio_Frigerio-decreto-coparticipacion-gobernadores-Capital_0_1511849076.html'
p4
aS'https://www.clarin.com/sociedad/Investigan-caso-zika-Neuquen_0_1511849094.html'
p5
a.