(lp0
S'https://www.clarin.com/ieco/Central-pasara-Tesoro-millones-pesos_0_1605439607.html'
p1
aS'https://www.clarin.com/sociedad/ovulos-congelados-muerta-podra-madre_0_1605439616.html'
p2
aS'https://www.clarin.com/politica/Cristina-mantiene-comercial-Cristobal-Lopez_0_1605439613.html'
p3
a.