(lp0
Vhttps://www.clarin.com/sociedad/muerte-fans-recordaron-Gilda-Chacarita_0_1646235489.html
p1
aVhttps://www.clarin.com/sociedad/muerte-fans-recordaron-Gilda-Chacarita_0_1646235489.html
p2
aVhttps://www.clarin.com/sociedad/Efecto-clases-diversidad-sexual-Biela_0_1646235488.html
p3
aVhttps://www.clarin.com/sociedad/Efecto-clases-diversidad-sexual-Biela_0_1646235488.html
p4
aVhttps://www.clarin.com/politica/Vuelven-hacer-simulacros-antiterroristas_0_1646235477.html
p5
aVhttps://www.clarin.com/politica/Vuelven-hacer-simulacros-antiterroristas_0_1646235477.html
p6
a.