(lp0
S'https://www.clarin.com/ieco/campus-ieco/emprendimiento-argentino-seleccionado-desarrollarse-Dubai_0_1578442306.html'
p1
aS'https://www.clarin.com/ieco/campus-ieco/emprendimiento-argentino-seleccionado-desarrollarse-Dubai_0_1578442306.html'
p2
aS'https://www.clarin.com/ieco/Sturzenegger-recorto-tasas-inflacion-bajando_0_1578442357.html'
p3
aS'https://www.clarin.com/ieco/Aumento-ocupacion-laboral-Capital_0_1578442201.html'
p4
aS'https://www.clarin.com/ieco/Aumento-ocupacion-laboral-Capital_0_1578442201.html'
p5
aS'https://www.clarin.com/politica/extienden-amparos-suba-tarifas_0_1578442338.html'
p6
aS'https://www.clarin.com/politica/extienden-amparos-suba-tarifas_0_1578442338.html'
p7
aS'https://www.clarin.com/politica/Italia-garantia-soberana-creditos-Argentina_0_1578442354.html'
p8
aS'https://www.clarin.com/politica/Italia-garantia-soberana-creditos-Argentina_0_1578442354.html'
p9
aS'https://www.clarin.com/politica/Cristina-procesamiento-causa-dolar-futuro_0_1578442249.html'
p10
aS'https://www.clarin.com/politica/Cristina-procesamiento-causa-dolar-futuro_0_1578442249.html'
p11
aS'https://www.clarin.com/politica/Vidal-diputados-reclamar-Fondo-Conurbano_0_1578442276.html'
p12
aS'https://www.clarin.com/politica/Vidal-diputados-reclamar-Fondo-Conurbano_0_1578442276.html'
p13
a.