(lp0
Vhttps://www.clarin.com/politica/calientes-entrevista-Cristina-medios-extranjeros_0_1618638207.html
p1
aVhttps://www.clarin.com/politica/calientes-entrevista-Cristina-medios-extranjeros_0_1618638207.html
p2
aVhttps://www.clarin.com/sociedad/humano-capaz-sobrevivir-accidentes-transito_0_1618638202.html
p3
aVhttps://www.clarin.com/sociedad/humano-capaz-sobrevivir-accidentes-transito_0_1618638202.html
p4
aVhttps://www.clarin.com/politica/informe-oficial-revela-despedidos-noquis_0_1618638201.html
p5
aVhttps://www.clarin.com/politica/informe-oficial-revela-despedidos-noquis_0_1618638201.html
p6
aVhttps://www.clarin.com/politica/Binner-Macri-claro-frenar-inflacion_0_1618638198.html
p7
aVhttps://www.clarin.com/politica/Bullrich-revelo-custodios-Cristina-Kirchner_0_1618638196.html
p8
aVhttps://www.clarin.com/politica/Bullrich-revelo-custodios-Cristina-Kirchner_0_1618638196.html
p9
a.