(lp0
Vhttps://www.clarin.com/sociedad/Marie-Kondo-consejos-experta-ordenar_0_1500450259.html
p1
aVhttps://www.clarin.com/sociedad/Marie-Kondo-consejos-experta-ordenar_0_1500450259.html
p2
aVhttps://www.clarin.com/politica/Triple_crimen-triple_fuga-Mauricio_Macri-Patricia_Bullrich_0_1502849722.html
p3
aVhttps://www.clarin.com/politica/Triple_crimen-triple_fuga-recompensa-Santa_Fe_0_1502849721.html
p4
aVhttps://www.clarin.com/politica/Triple_crimen-triple_fuga-Gobierno_nacional-Santa_Fe_0_1502849720.html
p5
aVhttps://www.clarin.com/politica/Triple_crimen-captura-arrocera-Cristian_Lanatta-Victor_Schillaci-Martin_Franco-Cayasta_0_1502849719.html
p6
aVhttps://www.clarin.com/politica/Triple_crimen-captura-arrocera-Cristian_Lanatta-Victor_Schillaci-Martin_Franco-Cayasta_0_1502849719.html
p7
aVhttps://www.clarin.com/politica/Triple_crimen-triple_fuga-Maria_Eugenia_Vidal-Ibar_Perez_Corradi-provincia_de_Buenos_Aires_0_1502849718.html
p8
aVhttps://www.clarin.com/politica/Triple_crimen-triple_fuga-Maria_Eugenia_Vidal-Ibar_Perez_Corradi-provincia_de_Buenos_Aires_0_1502849718.html
p9
aVhttps://www.clarin.com/politica/Triple_crimen-Cristian_Lanatta-Victor_Schillaci-captura-Santa_Fe_0_1502849717.html
p10
aVhttps://www.clarin.com/politica/Triple_crimen-Cristian_Lanatta-Victor_Schillaci-captura-Santa_Fe_0_1502849717.html
p11
aVhttps://www.clarin.com/politica/Triple_crimen-El_Faraon-profugos_0_1502849716.html
p12
a.