(lp0
S'https://www.clarin.com/ieco/economia/medidas-auxilio-tributario-socorrer-pymes_0_1577242298.html'
p1
aS'https://www.clarin.com/ieco/economia/Ingresos-meses-salario-perdio-puntos_0_1577242294.html'
p2
aS'https://www.clarin.com/ieco/economia/fronteras-borrosas-negocio-seguridad_0_1577242305.html'
p3
aS'https://www.clarin.com/ieco/economia/Revolucion-mundo-avanzado_0_1577242293.html'
p4
aS'https://www.clarin.com/ieco/economia/Rural-cambia-presidente_0_1577242299.html'
p5
aS'https://www.clarin.com/ieco/economia/razones-explican-inflacion-sigue-alta_0_1577242300.html'
p6
aS'https://www.clarin.com/ieco/economia/tasas-altas-impactan-actividad-economica_0_1577242301.html'
p7
aS'https://www.clarin.com/ieco/economia/Caida-dolar-Goldman-Sachs-crecera_0_1577242292.html'
p8
aS'https://www.clarin.com/ieco/economia/Delitos-informaticos-mayoria-empresas-denuncia_0_1577242304.html'
p9
aS'https://www.clarin.com/ieco/economia/Justicia-logra-pocas-condenas_0_1577242306.html'
p10
aS'https://www.clarin.com/ieco/economia/Tecnicaturas-especializaciones-maestrias_0_1577242303.html'
p11
a.