(lp0
S'https://www.clarin.com/sociedad/gendarme-formosena-convertirse-Miss-Mundo_0_1627637244.html'
p1
aS'https://www.clarin.com/politica/Arranco-recorrera-kilometros-Plaza-Mayo_0_1627637238.html'
p2
aS'https://www.clarin.com/politica/Bonafini-ratifico-declarar-Martinez-Giorgi_0_1627637282.html'
p3
aS'https://www.clarin.com/politica/Macri-convoco-construir-juntos-sistema_0_1627637239.html'
p4
aS'https://www.clarin.com/sociedad/Dias-antorcha-olimipica-Ivo-Pitanguy_0_1627637241.html'
p5
a.