(lp0
S'https://www.clarin.com/sociedad/Condenaron-prision-perpetua-hombres-femicidio_0_1621637841.html'
p1
aS'https://www.clarin.com/sociedad/ejercicio-necesita-compensar-horas-sentado_0_1621637849.html'
p2
aS'https://www.clarin.com/politica/Macri-cardiologo-unidad-medica-presidencial_0_1621637845.html'
p3
aS'https://www.clarin.com/politica/Stolbizer-Jorge-Macri-Tecnopolis-electoral_0_1621637840.html'
p4
aS'https://www.clarin.com/politica/Vidal-Puan-Pigue-reclamo-inundados_0_1621637848.html'
p5
aS'https://www.clarin.com/sociedad/Aparecieron-imagenes-vistas-privada-Hitler_0_1621637838.html'
p6
aS'https://www.clarin.com/politica/jueces-fiscales-atormentan-macrismo_0_1621637847.html'
p7
a.