(lp0
Vhttps://www.clarin.com/sociedad/Trasladan-oso-polar-triste-mundo_0_1687031308.html
p1
aVhttps://www.clarin.com/sociedad/Trasladan-oso-polar-triste-mundo_0_1687031308.html
p2
aVhttps://www.clarin.com/politica/Bonadio-futurologia-decir-Cristina-presa_0_1687031305.html
p3
aVhttps://www.clarin.com/politica/Bonadio-futurologia-decir-Cristina-presa_0_1687031305.html
p4
aVhttps://www.clarin.com/politica/fotos-grave-accidente-juez-Lorenzetti_0_1687031297.html
p5
aVhttps://www.clarin.com/politica/fotos-grave-accidente-juez-Lorenzetti_0_1687031297.html
p6
aVhttps://www.clarin.com/sociedad/Detienen-policia-camioneta-investigan-borracho_0_1687031296.html
p7
aVhttps://www.clarin.com/politica/Tiros-Rio-Gallegos-Lazaro-Baez_0_1686431408.html
p8
aVhttps://www.clarin.com/politica/Tiros-Rio-Gallegos-Lazaro-Baez_0_1686431408.html
p9
aVhttps://www.clarin.com/sociedad/grande-brillante-noche-disfruto-mundo_0_1687031291.html
p10
aVhttps://www.clarin.com/sociedad/grande-brillante-noche-disfruto-mundo_0_1687031291.html
p11
a.