(lp0
Vhttps://www.clarin.com/politica/Clarin-indices-optimismo-politico-economico_0_1580842000.html
p1
aVhttps://www.clarin.com/politica/Rio-Turbio-proyecto-impulso-Cristina_0_1581441974.html
p2
aVhttps://www.clarin.com/politica/Rio-Turbio-proyecto-impulso-Cristina_0_1581441974.html
p3
aVhttps://www.clarin.com/politica/deudas-Gobierno-sociales-equivalen-millones_0_1581442009.html
p4
aVhttps://www.clarin.com/ieco/economia/Gobierno-asegura-inversiones-US-millones_0_1581441972.html
p5
aVhttps://www.clarin.com/ieco/economia/Gobierno-asegura-inversiones-US-millones_0_1581441972.html
p6
aVhttps://www.clarin.com/politica/Promesa-Macri-estatales-nuevos-despidos_0_1581442008.html
p7
aVhttps://www.clarin.com/politica/millones-personas-problemas-empleo_0_1581442007.html
p8
aVhttps://www.clarin.com/ieco/economia/Consumo-recorto-gastos-esperanzado_0_1581442005.html
p9
aVhttps://www.clarin.com/ieco/economia/Consumo-recorto-gastos-esperanzado_0_1581442005.html
p10
aVhttps://www.clarin.com/opinion/venta-monumento-historico_0_1581441942.html
p11
aVhttps://www.clarin.com/opinion/Drogas-modelo-belico-solucion-final_0_1581441945.html
p12
aVhttps://www.clarin.com/opinion/Drogas-modelo-belico-solucion-final_0_1581441945.html
p13
aVhttps://www.clarin.com/opinion/calidez-desear-buen-dia_0_1581441966.html
p14
aVhttps://www.clarin.com/sociedad/anos-detectaron-tumor-Papa-esperanza_0_1581441979.html
p15
a.