(lp0
S'https://www.clarin.com/sociedad/escandalo-formula-fama-show-politica_0_1534046816.html'
p1
aS'https://www.clarin.com/ieco/Samsung-LG-Motorola-smartphones-Argentina_0_1534046825.html'
p2
aS'https://www.clarin.com/sociedad/Hubble-descubrio-galaxia-lejana-conocida_0_1534046817.html'
p3
aS'https://www.clarin.com/sociedad/Adonde-gato-nuevo-agudeza-visual_0_1534046828.html'
p4
aS'https://www.clarin.com/ieco/economia/Moodys-acuerdo-buitres-insuficiente_0_1534046819.html'
p5
aS'https://www.clarin.com/politica/Intendente-invita-Vidal-gobernadora-Gabinete_0_1534046808.html'
p6
a.