(lp0
Vhttps://www.clarin.com/politica/paritarias-inflacion-salarios-precios-macri_0_1504649976.html
p1
aVhttps://www.clarin.com/politica/paritarias-inflacion-salarios-precios-macri_0_1504649976.html
p2
aVhttps://www.clarin.com/ieco/afip-ganancias-impuestos_0_1504649974.html
p3
aVhttps://www.clarin.com/politica/Alicia-Kirchner-Rosada-auxilio-financiero_0_1504649947.html
p4
aVhttps://www.clarin.com/politica/Alicia-Kirchner-Rosada-auxilio-financiero_0_1504649947.html
p5
aVhttps://www.clarin.com/politica/venado-Evita-condor-Malvinas_0_1504649943.html
p6
aVhttps://www.clarin.com/politica/venado-Evita-condor-Malvinas_0_1504649943.html
p7
aVhttps://www.clarin.com/politica/Mauricio_Macri-Luis_Juez_0_1504649939.html
p8
aVhttps://www.clarin.com/politica/Mauricio_Macri-Luis_Juez_0_1504649939.html
p9
aVhttps://www.clarin.com/politica/Macri-recibira-Olivos-hijas-Nisman_0_1504649933.html
p10
aVhttps://www.clarin.com/politica/Macri-recibira-Olivos-hijas-Nisman_0_1504649933.html
p11
aVhttps://www.clarin.com/politica/Sabbatella-logro-entrar-edificio-AFSCA_0_1504649851.html
p12
aVhttps://www.clarin.com/politica/Sabbatella-logro-entrar-edificio-AFSCA_0_1504649851.html
p13
a.