(lp0
S'https://www.clarin.com/politica/banderas-Campora-CFK-departamento-Recoleta_0_1556844702.html'
p1
aS'https://www.clarin.com/politica/viaje-horas-Cristina-aterrizo-Aeroparque_0_1556844741.html'
p2
a.