(lp0
Vhttps://www.clarin.com/politica/oficial-Vaticano-visita-Macri-Papa_0_1669633115.html
p1
aVhttps://www.clarin.com/politica/oficial-Vaticano-visita-Macri-Papa_0_1669633115.html
p2
aVhttps://www.clarin.com/sociedad/Detuvieron-tercer-sospechoso-Lucia-Perez_0_1669633049.html
p3
aVhttps://www.clarin.com/sociedad/Detuvieron-tercer-sospechoso-Lucia-Perez_0_1669633049.html
p4
aVhttps://www.clarin.com/politica/Juan-Manuel-Urtubey-peronismo-Argentina_0_1669633114.html
p5
aVhttps://www.clarin.com/politica/Juan-Manuel-Urtubey-peronismo-Argentina_0_1669633114.html
p6
aVhttps://www.clarin.com/ieco/ventas-Dia-Madre-cayeron_0_1669633107.html
p7
aVhttps://www.clarin.com/ieco/ventas-Dia-Madre-cayeron_0_1669633107.html
p8
aVhttps://www.clarin.com/ieco/economia/comunicacion-interna-segmenta-efectiva_0_1669633054.html
p9
aVhttps://www.clarin.com/ieco/economia/Argentina-estrella-regional_0_1669633042.html
p10
aVhttps://www.clarin.com/ieco/economia/Argentina-estrella-regional_0_1669633042.html
p11
a.