(lp0
S'https://www.clarin.com/ieco/beneficiados-podran-accediendo-devolucion-IVA_0_1621638027.html'
p1
aS'https://www.clarin.com/politica/libro-rescata-memorias-protagonistas_0_1621638021.html'
p2
aS'https://www.clarin.com/politica/Bastones-Largos-golpe-aciago-ciencia_0_1621638020.html'
p3
aS'https://www.clarin.com/politica/Bastones-Largos-golpe-aciago-ciencia_0_1621638020.html'
p4
a.