(lp0
S'https://www.clarin.com/sociedad/Uruguay-gano-fallo-historico-tabacalera_0_1611439006.html'
p1
aS'https://www.clarin.com/politica/Schoklender-Lopez-Vido-Suenos-Compartidos_0_1611438997.html'
p2
aS'https://www.clarin.com/politica/Schoklender-Lopez-Vido-Suenos-Compartidos_0_1611438997.html'
p3
a.