(lp0
Vhttps://www.clarin.com/politica/Gobierno-acerca-Alianza-Pacifico_0_1578442225.html
p1
aVhttps://www.clarin.com/ieco/economia/Contrataciones-publicas-Gobierno-llamados-licitacion_0_1578442238.html
p2
aVhttps://www.clarin.com/sociedad/Aseguran-conocer-persona-traves-celular_0_1578442227.html
p3
aVhttps://www.clarin.com/sociedad/Aseguran-conocer-persona-traves-celular_0_1578442227.html
p4
aVhttps://www.clarin.com/politica/Marijuan-allanados-Baez-ascienden-millones_0_1578442233.html
p5
aVhttps://www.clarin.com/politica/Marijuan-allanados-Baez-ascienden-millones_0_1578442233.html
p6
aVhttps://www.clarin.com/ieco/web-yihadista-dinero-avisos-Google_0_1578442232.html
p7
aVhttps://www.clarin.com/ieco/web-yihadista-dinero-avisos-Google_0_1578442232.html
p8
a.