(lp0
S'https://www.clarin.com/politica/Disputa-tiros-sede-UOCRA-Neuquen_0_1531647035.html'
p1
aS'https://www.clarin.com/ieco/pagar-buitres-emitirian-millones-dolares_0_1531647045.html'
p2
aS'https://www.clarin.com/politica/Antonio-Stiuso-anterior-declaracion-Fein_0_1531647047.html'
p3
aS'https://www.clarin.com/politica/preguntas-jueza-Stiuso_0_1531647032.html'
p4
aS'https://www.clarin.com/sociedad/Dolor-indignacion-amigos-muertas-Ecuador_0_1531647050.html'
p5
a.