(lp0
Vhttps://www.clarin.com/sociedad/Arranca-Peregrinacion-Lujan-fraternidad-argentinos_0_1660633932.html
p1
aVhttps://www.clarin.com/sociedad/Arranca-Peregrinacion-Lujan-fraternidad-argentinos_0_1660633932.html
p2
aVhttps://www.clarin.com/sociedad/Sandalias-rotas-Tutankamon-momias-Egipto_0_1660034166.html
p3
aVhttps://www.clarin.com/sociedad/Sandalias-rotas-Tutankamon-momias-Egipto_0_1660034166.html
p4
aVhttps://www.clarin.com/ieco/economia/venta-subio-septiembre_0_1660633926.html
p5
aVhttps://www.clarin.com/opinion/voces-oiran_0_1660633925.html
p6
aVhttps://www.clarin.com/opinion/realidad-editada-acto-periodistas_0_1660633924.html
p7
aVhttps://www.clarin.com/opinion/cambian-cosas-Nisman-AMIA_0_1660633923.html
p8
a.