(lp0
Vhttps://www.clarin.com/politica/Cristina-quedo-juicio-dolar-futuro_0_1685231663.html
p1
aVhttps://www.clarin.com/politica/Cristina-quedo-juicio-dolar-futuro_0_1685231663.html
p2
aVhttps://www.clarin.com/sociedad/Escribir-libre-Maria-sindrome-Down_0_1685231656.html
p3
aVhttps://www.clarin.com/sociedad/Escribir-libre-Maria-sindrome-Down_0_1685231656.html
p4
aVhttps://www.clarin.com/sociedad/Demoraron-horas-atenderla-espera-hospital_0_1685231647.html
p5
aVhttps://www.clarin.com/sociedad/Demoraron-horas-atenderla-espera-hospital_0_1685231647.html
p6
aVhttps://www.clarin.com/sociedad/algoritmos-ayudan-conseguir-pareja-perfecta_0_1685231651.html
p7
aVhttps://www.clarin.com/sociedad/algoritmos-ayudan-conseguir-pareja-perfecta_0_1685231651.html
p8
aVhttps://www.clarin.com/politica/legisladores-argentinos-sueldos-promedio-Latinoamerica_0_1685231604.html
p9
aVhttps://www.clarin.com/politica/legisladores-argentinos-sueldos-promedio-Latinoamerica_0_1685231604.html
p10
aVhttps://www.clarin.com/sociedad/Tecnoadictos-argentinos-chequea-celular-noche_0_1685231649.html
p11
aVhttps://www.clarin.com/sociedad/Tecnoadictos-argentinos-chequea-celular-noche_0_1685231649.html
p12
aVhttps://www.clarin.com/ieco/economia/Gobierno-ofertas-invertir-energias-renovables_0_1685231624.html
p13
aVhttps://www.clarin.com/ieco/economia/Gobierno-ofertas-invertir-energias-renovables_0_1685231624.html
p14
aVhttps://www.clarin.com/politica/Gobierno-insisten-error-apuesta-Hillary_0_1685231646.html
p15
aVhttps://www.clarin.com/politica/Gobierno-insisten-error-apuesta-Hillary_0_1685231646.html
p16
a.