(lp0
S'https://www.clarin.com/sociedad/Hallan-estrellas-antiguas-millones-anos_0_1667233341.html'
p1
aS'https://www.clarin.com/sociedad/Hallan-estrellas-antiguas-millones-anos_0_1667233341.html'
p2
aS'https://www.clarin.com/ieco/economia/Facilitan-tramites-jubilados-adhieran-ANSeS_0_1667233338.html'
p3
aS'https://www.clarin.com/ieco/economia/Facilitan-tramites-jubilados-adhieran-ANSeS_0_1667233338.html'
p4
aS'https://www.clarin.com/politica/Lanata-cobarde-abogado-Cristina-Kirchner_0_1667233336.html'
p5
aS'https://www.clarin.com/politica/Lanata-cobarde-abogado-Cristina-Kirchner_0_1667233336.html'
p6
aS'https://www.clarin.com/sociedad/Avanza-prepagas-cubran-leches-alergicos_0_1667233334.html'
p7
aS'https://www.clarin.com/sociedad/Avanza-prepagas-cubran-leches-alergicos_0_1667233334.html'
p8
aS'https://www.clarin.com/politica/millon-jovenes-estudia-trabaja-Argentina_0_1667233333.html'
p9
aS'https://www.clarin.com/politica/millon-jovenes-estudia-trabaja-Argentina_0_1667233333.html'
p10
aS'https://www.clarin.com/politica/Maxima-reunida-Macri-Olivos_0_1667233330.html'
p11
aS'https://www.clarin.com/politica/Maxima-reunida-Macri-Olivos_0_1667233330.html'
p12
aS'https://www.clarin.com/politica/Pedro-desmiente-Casanello-Olivos-operaciones_0_1667233332.html'
p13
aS'https://www.clarin.com/politica/Pedro-desmiente-Casanello-Olivos-operaciones_0_1667233332.html'
p14
a.