(lp0
Vhttps://www.clarin.com/sociedad/Riesgo-volante-alertan-crecio-ilegales_0_1591641024.html
p1
aVhttps://www.clarin.com/sociedad/Riesgo-volante-alertan-crecio-ilegales_0_1591641024.html
p2
aVhttps://www.clarin.com/politica/Sanz-importante-acuerdo-peronismo_0_1591641020.html
p3
aVhttps://www.clarin.com/sociedad/Anticipan-mananas-heladas-queda-semana_0_1591641015.html
p4
aVhttps://www.clarin.com/sociedad/Anticipan-mananas-heladas-queda-semana_0_1591641015.html
p5
a.