(lp0
Vhttps://www.clarin.com/sociedad/Tragedia-Costa-Salguero-Casanello-indagatorias_0_1565843473.html
p1
aVhttps://www.clarin.com/sociedad/Tragedia-Costa-Salguero-Casanello-indagatorias_0_1565843473.html
p2
aVhttps://www.clarin.com/politica/Ley-antidespidos-presion-macrismo-gobernadores_0_1565843471.html
p3
aVhttps://www.clarin.com/politica/Ley-antidespidos-presion-macrismo-gobernadores_0_1565843471.html
p4
aVhttps://www.clarin.com/sociedad/mandamientos-pasta-mejor-chef-italiano_0_1565843466.html
p5
aVhttps://www.clarin.com/sociedad/mandamientos-pasta-mejor-chef-italiano_0_1565843466.html
p6
aVhttps://www.clarin.com/sociedad/columna-Pagni-blindaje-judicial-CFK_0_1565843467.html
p7
aVhttps://www.clarin.com/sociedad/columna-Pagni-blindaje-judicial-CFK_0_1565843467.html
p8
a.