(lp0
Vhttps://www.clarin.com/politica/Grande-Kirchner-Gobierno-Campora-Retiro_0_1667233293.html
p1
aVhttps://www.clarin.com/politica/Grande-Kirchner-Gobierno-Campora-Retiro_0_1667233293.html
p2
aVhttps://www.clarin.com/politica/Quilmes-Cristina-esperar-nazca-nieta_0_1667233291.html
p3
aVhttps://www.clarin.com/politica/Quilmes-Cristina-esperar-nazca-nieta_0_1667233291.html
p4
aVhttps://www.clarin.com/ieco/economia/Oficializan-criterios-acceder-tarifa-social_0_1667233292.html
p5
aVhttps://www.clarin.com/ieco/economia/Oficializan-criterios-acceder-tarifa-social_0_1667233292.html
p6
aVhttps://www.clarin.com/politica/nueva-polemica-hijo-Luis-DElia_0_1667233286.html
p7
aVhttps://www.clarin.com/politica/nueva-polemica-hijo-Luis-DElia_0_1667233286.html
p8
aVhttps://www.clarin.com/sociedad/Desesperado-pidiendo-golpea-amenaza-acosa_0_1667233280.html
p9
aVhttps://www.clarin.com/sociedad/Desesperado-pidiendo-golpea-amenaza-acosa_0_1667233280.html
p10
aVhttps://www.clarin.com/politica/Pablo-Micheli-acuerdan-vamos-paro_0_1667233278.html
p11
aVhttps://www.clarin.com/politica/Pablo-Micheli-acuerdan-vamos-paro_0_1667233278.html
p12
a.