(lp0
Vhttps://www.clarin.com/sociedad/cumplir-sueno-San-Fernando-Alaska_0_1570043156.html
p1
aVhttps://www.clarin.com/sociedad/cumplir-sueno-San-Fernando-Alaska_0_1570043156.html
p2
aVhttps://www.clarin.com/sociedad/WhatsApp-escolar-manual-padres-pesadilla_0_1570043163.html
p3
aVhttps://www.clarin.com/sociedad/WhatsApp-escolar-manual-padres-pesadilla_0_1570043163.html
p4
aVhttps://www.clarin.com/politica/titular-PAMI-insolitas-encontro-jubilados_0_1570043147.html
p5
aVhttps://www.clarin.com/politica/titular-PAMI-insolitas-encontro-jubilados_0_1570043147.html
p6
aVhttps://www.clarin.com/ieco/economia/consultora-estima-inflacion-cercana-abril_0_1570043132.html
p7
aVhttps://www.clarin.com/sociedad/Dictaron-conciliacion-obligatoria-manana-vuelos_0_1570043133.html
p8
aVhttps://www.clarin.com/sociedad/Dictaron-conciliacion-obligatoria-manana-vuelos_0_1570043133.html
p9
a.