(lp0
S'https://www.clarin.com/politica/denuncia-ISIS-reflota-Bullrich-Burzaco_0_1649235235.html'
p1
aS'https://www.clarin.com/politica/denuncia-ISIS-reflota-Bullrich-Burzaco_0_1649235235.html'
p2
aS'https://www.clarin.com/ieco/economia/Amcham-considero-perjudicial-FR-emergencia_0_1649235224.html'
p3
aS'https://www.clarin.com/sociedad/Demora-compras-conflicto-gremial-Oca_0_1649235220.html'
p4
aS'https://www.clarin.com/sociedad/Demora-compras-conflicto-gremial-Oca_0_1649235220.html'
p5
aS'https://www.clarin.com/ieco/economia/BID-credito-US-millones-publicas_0_1649235216.html'
p6
a.