(lp0
Vhttps://www.clarin.com/politica/admite-tarifas-aumentar_0_1622837860.html
p1
aVhttps://www.clarin.com/politica/Cristina-accidente-domestico-bien_0_1622837868.html
p2
aVhttps://www.clarin.com/politica/Cristina-accidente-domestico-bien_0_1622837868.html
p3
aVhttps://www.clarin.com/sociedad/Medicos-urgentes-guardianes-diversion-juvenil_0_1622837867.html
p4
aVhttps://www.clarin.com/sociedad/Medicos-urgentes-guardianes-diversion-juvenil_0_1622837867.html
p5
aVhttps://www.clarin.com/sociedad/verdad-mentirosa-anida-Internet_0_1622837866.html
p6
aVhttps://www.clarin.com/sociedad/Penas-duelo-separacion-puede-durar_0_1622837862.html
p7
aVhttps://www.clarin.com/sociedad/Penas-duelo-separacion-puede-durar_0_1622837862.html
p8
aVhttps://www.clarin.com/sociedad/Alerta-comunidad-arabe-brote-discriminatorio_0_1622837858.html
p9
aVhttps://www.clarin.com/politica/datos-pruebas-rol-financieras_0_1622837850.html
p10
aVhttps://www.clarin.com/politica/Exclusivo-semana-Farina-detallara-publica_0_1622837826.html
p11
aVhttps://www.clarin.com/politica/Exclusivo-semana-Farina-detallara-publica_0_1622837826.html
p12
a.