(lp0
S'https://www.clarin.com/politica/Macri-Davos-Argentina-recibida-entusiasmo_0_1509449285.html'
p1
aS'https://www.clarin.com/politica/Sabado-peronismo-Macri-presidencia-partidaria_0_1509449276.html'
p2
aS'https://www.clarin.com/politica/publico-Macri-Facebook-viaje-Davos_0_1509449290.html'
p3
aS'https://www.clarin.com/politica/politica-Pena-elogios-Macri-Massa_0_1509449260.html'
p4
aS'https://www.clarin.com/politica/Scioli-metio-polemica-presidencia-PJ_0_1509449255.html'
p5
aS'https://www.clarin.com/sociedad/Lejos-limbo_0_1509449247.html'
p6
aS'https://www.clarin.com/sociedad/Advierten-dengue-epidemia-Pais_0_1509449272.html'
p7
aS'https://www.clarin.com/politica/Cumbre_gobernadores-San_Juan-Alicia_Kirchner-Juan_Manuel_Urtubey_0_1509449306.html'
p8
a.