(lp0
Vhttps://www.clarin.com/ieco/Reconocimiento-Gobierno-alcauciles-Plata_0_1565243543.html
p1
aVhttps://www.clarin.com/ieco/Cabrera-reune-Brasil-desbalance-comercial_0_1565243545.html
p2
aVhttps://www.clarin.com/ieco/Cabrera-reune-Brasil-desbalance-comercial_0_1565243545.html
p3
aVhttps://www.clarin.com/sociedad/quemo-cuerpo-mujer-pasara-preso_0_1565243541.html
p4
aVhttps://www.clarin.com/sociedad/quemo-cuerpo-mujer-pasara-preso_0_1565243541.html
p5
aVhttps://www.clarin.com/politica/Macri-Mandamos-Congreso-primer-empleo_0_1565243527.html
p6
aVhttps://www.clarin.com/politica/Macri-Mandamos-Congreso-primer-empleo_0_1565243527.html
p7
aVhttps://www.clarin.com/sociedad/organizador-Time-Warp-presentarse-Justicia_0_1565243511.html
p8
aVhttps://www.clarin.com/sociedad/organizador-Time-Warp-presentarse-Justicia_0_1565243511.html
p9
aVhttps://www.clarin.com/politica/costado-cholulo-Macri-famosos-Twitter_0_1565243524.html
p10
aVhttps://www.clarin.com/politica/costado-cholulo-Macri-famosos-Twitter_0_1565243524.html
p11
a.