(lp0
Vhttps://www.clarin.com/sociedad/luna-Europa-lugar-unico-enigmatico_0_1657634389.html
p1
aVhttps://www.clarin.com/sociedad/luna-Europa-lugar-unico-enigmatico_0_1657634389.html
p2
aVhttps://www.clarin.com/sociedad/Detectan-cerca-Jupiter-esperanza-hallar_0_1657634388.html
p3
aVhttps://www.clarin.com/sociedad/Detectan-cerca-Jupiter-esperanza-hallar_0_1657634388.html
p4
a.