(lp0
Vhttps://www.clarin.com/ieco/economia/tercios-renta-agricola-parar-bolsillo_0_1556244550.html
p1
aVhttps://www.clarin.com/ieco/economia/tercios-renta-agricola-parar-bolsillo_0_1556244550.html
p2
aVhttps://www.clarin.com/ieco/economia/calcula-indice-FADA_0_1556244549.html
p3
aVhttps://www.clarin.com/ieco/economia/presion-promociones_0_1556244548.html
p4
aVhttps://www.clarin.com/ieco/economia/presion-promociones_0_1556244548.html
p5
aVhttps://www.clarin.com/ieco/economia/Atravesar-puente-ver-mejoras_0_1556244547.html
p6
aVhttps://www.clarin.com/ieco/economia/Atravesar-puente-ver-mejoras_0_1556244547.html
p7
aVhttps://www.clarin.com/ieco/economia/motor-inversion-exportacion_0_1556244545.html
p8
aVhttps://www.clarin.com/ieco/economia/motor-inversion-exportacion_0_1556244545.html
p9
aVhttps://www.clarin.com/ieco/economia/Consumo-tarifazo-inflacion-guerra-promos_0_1556244543.html
p10
aVhttps://www.clarin.com/ieco/economia/Consumo-tarifazo-inflacion-guerra-promos_0_1556244543.html
p11
aVhttps://www.clarin.com/ieco/economia/Inteligencia-prudencia-endeudarse_0_1556244542.html
p12
aVhttps://www.clarin.com/ieco/economia/Inteligencia-prudencia-endeudarse_0_1556244542.html
p13
aVhttps://www.clarin.com/ieco/economia/economia-quedo-meta-inflacion_0_1556244541.html
p14
aVhttps://www.clarin.com/ieco/economia/economia-quedo-meta-inflacion_0_1556244541.html
p15
aVhttps://www.clarin.com/ieco/economia/problemas-poner-todas-fichas-tasa_0_1556244540.html
p16
aVhttps://www.clarin.com/ieco/economia/problemas-poner-todas-fichas-tasa_0_1556244540.html
p17
aVhttps://www.clarin.com/ieco/economia/Preven-fuerte-emision-deuda_0_1556244539.html
p18
aVhttps://www.clarin.com/ieco/economia/Preven-fuerte-emision-deuda_0_1556244539.html
p19
aVhttps://www.clarin.com/ieco/economia/quiebra-sueno-americano_0_1556244538.html
p20
aVhttps://www.clarin.com/ieco/economia/dinero-vuelve-economico-bancos-centrales_0_1556244537.html
p21
aVhttps://www.clarin.com/ieco/economia/dinero-vuelve-economico-bancos-centrales_0_1556244537.html
p22
a.