(lp0
S'https://www.clarin.com/politica/Heller-saco-Intratables_0_1571242922.html'
p1
aS'https://www.clarin.com/politica/Heller-saco-Intratables_0_1571242922.html'
p2
aS'https://www.clarin.com/sociedad/Emotivo-mensaje-mama-siamesas-Luciana_0_1571242919.html'
p3
aS'https://www.clarin.com/sociedad/Emotivo-mensaje-mama-siamesas-Luciana_0_1571242919.html'
p4
aS'https://www.clarin.com/sociedad/AcercArte-cultura-recorre-municipios_0_1571242917.html'
p5
aS'https://www.clarin.com/sociedad/AcercArte-cultura-recorre-municipios_0_1571242917.html'
p6
aS'https://www.clarin.com/ieco/Angelo-Calcaterra-Macri-constructora-Iecsa_0_1571242916.html'
p7
aS'https://www.clarin.com/ieco/Angelo-Calcaterra-Macri-constructora-Iecsa_0_1571242916.html'
p8
aS'https://www.clarin.com/sociedad/Congreso-secreto-Youtubers-Rubius-PewDiePie_0_1571242914.html'
p9
aS'https://www.clarin.com/sociedad/Congreso-secreto-Youtubers-Rubius-PewDiePie_0_1571242914.html'
p10
aS'https://www.clarin.com/politica/Baez-rechazo-acusaciones-responder-presento_0_1571242910.html'
p11
aS'https://www.clarin.com/politica/Baez-rechazo-acusaciones-responder-presento_0_1571242910.html'
p12
aS'https://www.clarin.com/politica/massismo-insiste-cuidar-generan-trabajo_0_1571242902.html'
p13
aS'https://www.clarin.com/politica/massismo-insiste-cuidar-generan-trabajo_0_1571242902.html'
p14
a.