(lp0
Vhttps://www.clarin.com/sociedad/Norma-cumple-sueno-termina-secundaria_0_1588041333.html
p1
aVhttps://www.clarin.com/sociedad/Norma-cumple-sueno-termina-secundaria_0_1588041333.html
p2
aVhttps://www.clarin.com/politica/Justicia-Echegaray-Auditoria-General-Nacion_0_1590441045.html
p3
aVhttps://www.clarin.com/politica/Justicia-Echegaray-Auditoria-General-Nacion_0_1590441045.html
p4
aVhttps://www.clarin.com/politica/Presiono-PJ-Scioli-Banco-Provincia_0_1590441043.html
p5
aVhttps://www.clarin.com/politica/Presiono-PJ-Scioli-Banco-Provincia_0_1590441043.html
p6
aVhttps://www.clarin.com/politica/Baez-echo-abogada-escuchas-Casanello_0_1590441041.html
p7
aVhttps://www.clarin.com/politica/Baez-echo-abogada-escuchas-Casanello_0_1590441041.html
p8
aVhttps://www.clarin.com/ieco/economia/motos-vendidas-ano_0_1590441038.html
p9
aVhttps://www.clarin.com/ieco/economia/motos-vendidas-ano_0_1590441038.html
p10
a.