(lp0
Vhttps://www.clarin.com/politica/Alicia-nombro-fiscalia-controlar-gestion_0_1522647992.html
p1
aVhttps://www.clarin.com/politica/Alicia-nombro-fiscalia-controlar-gestion_0_1522647992.html
p2
aVhttps://www.clarin.com/politica/Gonzalez-Fraga-optimista-aumento-precios_0_1522648029.html
p3
aVhttps://www.clarin.com/politica/Gonzalez-Fraga-optimista-aumento-precios_0_1522648029.html
p4
aVhttps://www.clarin.com/politica/Angry-Buitres-infantil-Plaza-artistas_0_1522648023.html
p5
aVhttps://www.clarin.com/politica/Angry-Buitres-infantil-Plaza-artistas_0_1522648023.html
p6
aVhttps://www.clarin.com/sociedad/salame-largo-pesado-argentino_0_1522648026.html
p7
aVhttps://www.clarin.com/ieco/economia/Radiografia-oferta-pago-argentina-acreedores_0_1522647919.html
p8
aVhttps://www.clarin.com/ieco/economia/Radiografia-oferta-pago-argentina-acreedores_0_1522647919.html
p9
aVhttps://www.clarin.com/ieco/economia/Problemas-Impuesto-Ganancias_0_1522647925.html
p10
aVhttps://www.clarin.com/ieco/economia/Problemas-Impuesto-Ganancias_0_1522647925.html
p11
aVhttps://www.clarin.com/politica/Massa-inflacion-importante-resolver-Gobierno_0_1522647984.html
p12
aVhttps://www.clarin.com/politica/Massa-inflacion-importante-resolver-Gobierno_0_1522647984.html
p13
a.