(lp0
S'https://www.clarin.com/ieco/regalan-manzanas-importan-Chile_0_1637236391.html'
p1
aS'https://www.clarin.com/ieco/regalan-manzanas-importan-Chile_0_1637236391.html'
p2
aS'https://www.clarin.com/sociedad/arzobispo-Plata-Vivimos-cultura-fornicaria_0_1637236389.html'
p3
aS'https://www.clarin.com/sociedad/arzobispo-Plata-Vivimos-cultura-fornicaria_0_1637236389.html'
p4
aS'https://www.clarin.com/politica/causas-complican-Cristina-Kirchner_0_1633036806.html'
p5
aS'https://www.clarin.com/politica/causas-complican-Cristina-Kirchner_0_1633036806.html'
p6
aS'https://www.clarin.com/ieco/economia/jornada-licitacion-lebacs-dolar-levemente_0_1637236387.html'
p7
aS'https://www.clarin.com/ieco/economia/jornada-licitacion-lebacs-dolar-levemente_0_1637236387.html'
p8
a.