(lp0
S'https://www.clarin.com/sociedad/femicidio-Rios-mujer-machetazos-delante_0_1687031362.html'
p1
aS'https://www.clarin.com/sociedad/verdadera-historia-foto-viral-tiburon_0_1687031353.html'
p2
aS'https://www.clarin.com/ieco/dolar-trepa-centavos_0_1687031360.html'
p3
aS'https://www.clarin.com/politica/Cristina-Kirchner-juicio-dolar-futuro_0_1687031354.html'
p4
aS'https://www.clarin.com/politica/Tinelli-Macri-especulaciones-politicas-Olivos_0_1687031338.html'
p5
aS'https://www.clarin.com/sociedad/Crearon-aula-proyecto-tratar-Legislatura_0_1687031359.html'
p6
aS'https://www.clarin.com/politica/Primer-Ministro-Nueva-Zelanda-Argentina_0_1687031363.html'
p7
aS'https://www.clarin.com/sociedad/Video-brutal-pelea-salida-boliche_0_1687031357.html'
p8
a.