(lp0
S'https://www.clarin.com/politica/Malvinas-pagaron-gastos-traerlo-continente_0_1672032874.html'
p1
aS'https://www.clarin.com/politica/Malvinas-pagaron-gastos-traerlo-continente_0_1672032874.html'
p2
aS'https://www.clarin.com/politica/Canicoba-Irak-acusado-atentado-AMIA_0_1672032878.html'
p3
aS'https://www.clarin.com/politica/Canicoba-Irak-acusado-atentado-AMIA_0_1672032878.html'
p4
aS'https://www.clarin.com/sociedad/casos-violencia-adolescente_0_1672032875.html'
p5
aS'https://www.clarin.com/sociedad/casos-violencia-adolescente_0_1672032875.html'
p6
a.