(lp0
S'https://www.clarin.com/ieco/CAME-ventas-minoristas-cayeron-febrero_0_1535246683.html'
p1
aS'https://www.clarin.com/ieco/CAME-ventas-minoristas-cayeron-febrero_0_1535246683.html'
p2
aS'https://www.clarin.com/politica/Galuccio-situacion-petrolera-YPF-necesita_0_1535246675.html'
p3
aS'https://www.clarin.com/politica/Galuccio-situacion-petrolera-YPF-necesita_0_1535246675.html'
p4
aS'https://www.clarin.com/politica/Terminan-revisar-contratos-Senado-despidos_0_1535246669.html'
p5
aS'https://www.clarin.com/politica/Terminan-revisar-contratos-Senado-despidos_0_1535246669.html'
p6
aS'https://www.clarin.com/sociedad/Moron-mujer-asesinada-punaladas-adelante_0_1535246657.html'
p7
aS'https://www.clarin.com/sociedad/Moron-mujer-asesinada-punaladas-adelante_0_1535246657.html'
p8
aS'https://www.clarin.com/ieco/economia/Cubriran-deficit-emision_0_1535246597.html'
p9
aS'https://www.clarin.com/ieco/economia/Cubriran-deficit-emision_0_1535246597.html'
p10
aS'https://www.clarin.com/ieco/economia/menu-bonos-apuestan-tasa_0_1535246598.html'
p11
aS'https://www.clarin.com/ieco/economia/menu-bonos-apuestan-tasa_0_1535246598.html'
p12
a.