(lp0
S'https://www.clarin.com/politica/Bariloche-alterada-visita-Obama-Macri_0_1545445756.html'
p1
aS'https://www.clarin.com/ieco/mano-exportaciones-febrero-superavit-comercial_0_1545445815.html'
p2
a.