(lp0
S'https://www.clarin.com/ieco/Sola-despidos-favorece-parte-poderosa_0_1570642986.html'
p1
aS'https://www.clarin.com/ieco/Sola-despidos-favorece-parte-poderosa_0_1570642986.html'
p2
aS'https://www.clarin.com/ieco/CAME-cifro-mil-numero-despedidos_0_1570642981.html'
p3
aS'https://www.clarin.com/sociedad/ver-Stinfale-chicos-autodestruyen_0_1570642979.html'
p4
aS'https://www.clarin.com/sociedad/ver-Stinfale-chicos-autodestruyen_0_1570642979.html'
p5
aS'https://www.clarin.com/ieco/economia/Moodys-recien-ve-mejoras-economia_0_1570642974.html'
p6
aS'https://www.clarin.com/ieco/economia/Moodys-recien-ve-mejoras-economia_0_1570642974.html'
p7
aS'https://www.clarin.com/politica/Vidal-despidos-Comparto-Presidente-propuesta_0_1570642968.html'
p8
aS'https://www.clarin.com/politica/Vidal-despidos-Comparto-Presidente-propuesta_0_1570642968.html'
p9
a.