(lp0
Vhttps://www.clarin.com/sociedad/cientifico-desarrollara-permitira-adelantar-psicoticos_0_1625237607.html
p1
aVhttps://www.clarin.com/sociedad/cientifico-desarrollara-permitira-adelantar-psicoticos_0_1625237607.html
p2
aVhttps://www.clarin.com/politica/Hallaron-US-Aduana-Buenos-Aires_0_1625237604.html
p3
aVhttps://www.clarin.com/politica/Hallaron-US-Aduana-Buenos-Aires_0_1625237604.html
p4
aVhttps://www.clarin.com/ieco/economia/Justicia-frena-aumento-luz-pais_0_1625237616.html
p5
aVhttps://www.clarin.com/ieco/economia/Justicia-frena-aumento-luz-pais_0_1625237616.html
p6
aVhttps://www.clarin.com/politica/Brasil-aprovechar-Olimpiadas-discutir-Mercosur_0_1625237614.html
p7
aVhttps://www.clarin.com/politica/Brasil-aprovechar-Olimpiadas-discutir-Mercosur_0_1625237614.html
p8
aVhttps://www.clarin.com/sociedad/astrologa-prometio-multiplicar-ahorros-estafo_0_1625237609.html
p9
aVhttps://www.clarin.com/politica/Carrio-politico-magistrado-Jose-Lopez_0_1625237605.html
p10
aVhttps://www.clarin.com/politica/Carrio-politico-magistrado-Jose-Lopez_0_1625237605.html
p11
aVhttps://www.clarin.com/politica/Bonafini-presenta-declarar-podrian-llevarla_0_1625237602.html
p12
aVhttps://www.clarin.com/politica/Bonafini-presenta-declarar-podrian-llevarla_0_1625237602.html
p13
aVhttps://www.clarin.com/politica/polemica-guardaespaldas-miedo-custodia-Ocana_0_1625237600.html
p14
aVhttps://www.clarin.com/politica/polemica-guardaespaldas-miedo-custodia-Ocana_0_1625237600.html
p15
a.