(lp0
S'https://www.clarin.com/politica/Carrio-pidio-Kirchner-aporten-fortuna_0_1541246016.html'
p1
aS'https://www.clarin.com/politica/Carrio-pidio-Kirchner-aporten-fortuna_0_1541246016.html'
p2
aS'https://www.clarin.com/politica/Papelon-diputado-favor-mosca-levantar_0_1541246014.html'
p3
aS'https://www.clarin.com/politica/Papelon-diputado-favor-mosca-levantar_0_1541246014.html'
p4
aS'https://www.clarin.com/politica/AFIP-moratoria-impuesto-Cristobal-Lopez_0_1541246006.html'
p5
aS'https://www.clarin.com/sociedad/Conmocion-Junin-Andes-manejaba-atropello_0_1541246001.html'
p6
aS'https://www.clarin.com/sociedad/Conmocion-Junin-Andes-manejaba-atropello_0_1541246001.html'
p7
a.