(lp0
Vhttps://www.clarin.com/politica/gobernadores-peronistas-fuerte-respaldo-Gobierno_0_1585041548.html
p1
aVhttps://www.clarin.com/politica/Frigerio-expresion-dirigida-Hebe-Bonafini_0_1585041546.html
p2
aVhttps://www.clarin.com/politica/Frigerio-expresion-dirigida-Hebe-Bonafini_0_1585041546.html
p3
aVhttps://www.clarin.com/politica/Carrio-acuerdo-blanqueo_0_1585041544.html
p4
aVhttps://www.clarin.com/politica/Fernandez-Diaz-Papa-terrible-Argentina_0_1585041543.html
p5
a.