(lp0
S'https://www.clarin.com/ieco/Inflacion-alimentos-precios_0_1497450422.html'
p1
aS'https://www.clarin.com/sociedad/Cordoba-anegamientos-Villa-Allende-evacuados_0_1497450348.html'
p2
aS'https://www.clarin.com/politica/polemico-Anibal-Fernandez-Ritondo-defenderse_0_1497450428.html'
p3
aS'https://www.clarin.com/politica/muestra-detalles-ataque-policias-Ranchos_0_1497450418.html'
p4
aS'https://www.clarin.com/politica/Descabezaron-DDI-Quilmes-busqueda-profugos_0_1497450411.html'
p5
aS'https://www.clarin.com/politica/Parque-Pereyre-Iraola-Triple-Crimen_0_1497450385.html'
p6
a.