(lp0
S'https://www.clarin.com/politica/natatorio-millonarias-Jose-Lopez-Vido_0_1630037039.html'
p1
aS'https://www.clarin.com/politica/natatorio-millonarias-Jose-Lopez-Vido_0_1630037039.html'
p2
aS'https://www.clarin.com/politica/Rafecas-menciono-Lopez-visitara-Tigre_0_1630636972.html'
p3
aS'https://www.clarin.com/politica/Rafecas-menciono-Lopez-visitara-Tigre_0_1630636972.html'
p4
aS'https://www.clarin.com/sociedad/Ahora-suspendieron-show-Cordera-Cordoba_0_1630636968.html'
p5
aS'https://www.clarin.com/sociedad/Ahora-suspendieron-show-Cordera-Cordoba_0_1630636968.html'
p6
aS'https://www.clarin.com/ieco/Combustibles-Aranguren-petroleras-negociar-congelamiento_0_1630636969.html'
p7
aS'https://www.clarin.com/ieco/Combustibles-Aranguren-petroleras-negociar-congelamiento_0_1630636969.html'
p8
aS'https://www.clarin.com/politica/Agresiones-Macri-Vidal-Mar-Plata_0_1630636964.html'
p9
aS'https://www.clarin.com/politica/Agresiones-Macri-Vidal-Mar-Plata_0_1630636964.html'
p10
a.