(lp0
S'https://www.clarin.com/sociedad/Tragedia-Costa-Salguero-descubrio-autopsias_0_1560444156.html'
p1
aS'https://www.clarin.com/politica/fuertes-indicios-Lazaro-Baez-Brasil_0_1560444158.html'
p2
aS'https://www.clarin.com/sociedad/Bullrich-tragedia-Costa-Salguero-veneno_0_1560444144.html'
p3
aS'https://www.clarin.com/sociedad/periodistas-buscan-salvarse-millennials_0_1560444159.html'
p4
aS'https://www.clarin.com/politica/Macri-prometio-bajara-inflacion-Cristina_0_1560444171.html'
p5
aS'https://www.clarin.com/ieco/economia/chef-Tarquino-Rosada_0_1560444103.html'
p6
a.