(lp0
Vhttps://www.clarin.com/politica/Oil-petrolera-Cristobal-Lopez-acreedores_0_1550245141.html
p1
aVhttps://www.clarin.com/politica/Oil-petrolera-Cristobal-Lopez-acreedores_0_1550245141.html
p2
aVhttps://www.clarin.com/ieco/economia/pilotos-Aerolineas-paran-manana_0_1550245155.html
p3
aVhttps://www.clarin.com/ieco/economia/pilotos-Aerolineas-paran-manana_0_1550245155.html
p4
aVhttps://www.clarin.com/sociedad/grupo-argentinos-varado-Malvinas-marzo_0_1550245153.html
p5
aVhttps://www.clarin.com/sociedad/grupo-argentinos-varado-Malvinas-marzo_0_1550245153.html
p6
aVhttps://www.clarin.com/ieco/colectivo-costara-tarifa-social_0_1550245152.html
p7
aVhttps://www.clarin.com/ieco/colectivo-costara-tarifa-social_0_1550245152.html
p8
aVhttps://www.clarin.com/politica/Fondos-Buitre-voto-senador_0_1550245149.html
p9
aVhttps://www.clarin.com/politica/Lazaro-Baez-millonarias-inversiones-Calafate_0_1550245090.html
p10
aVhttps://www.clarin.com/politica/Lazaro-Baez-millonarias-inversiones-Calafate_0_1550245090.html
p11
aVhttps://www.clarin.com/sociedad/gobierno-bonaerense-racionalidad-auxiliares-escolares_0_1550245146.html
p12
aVhttps://www.clarin.com/sociedad/gobierno-bonaerense-racionalidad-auxiliares-escolares_0_1550245146.html
p13
a.