(lp0
S'https://www.clarin.com/sociedad/Crece-incertidumbre-mision-europea-Marte_0_1671432952.html'
p1
aS'https://www.clarin.com/politica/Bonadio-Rafecas-inhiba-denuncia-Nisman_0_1671432938.html'
p2
aS'https://www.clarin.com/sociedad/travesti-hoy-marcho-feminizacion-violencia_0_1671432943.html'
p3
aS'https://www.clarin.com/sociedad/Llegan-mujeres-Obelisco-marcha-Niunamenos_0_1671432948.html'
p4
aS'https://www.clarin.com/ieco/economia/Ventas-shoppings-crecen-debajo-inflacion_0_1671432953.html'
p5
aS'https://www.clarin.com/sociedad/Aprender-responde-preguntas-examen-historia_0_1671432946.html'
p6
a.