(lp0
Vhttps://www.clarin.com/politica/Quino-corrupcion-Mafalda-espantada_0_1643835688.html
p1
aVhttps://www.clarin.com/politica/Quino-corrupcion-Mafalda-espantada_0_1643835688.html
p2
aVhttps://www.clarin.com/ieco/empresario-decisiones-firmes-gran-audacia_0_1643835694.html
p3
aVhttps://www.clarin.com/ieco/empresario-decisiones-firmes-gran-audacia_0_1643835694.html
p4
aVhttps://www.clarin.com/politica/Macri-G-20-increible-Messi-China_0_1643835692.html
p5
aVhttps://www.clarin.com/politica/Macri-G-20-increible-Messi-China_0_1643835692.html
p6
aVhttps://www.clarin.com/sociedad/milagros-convertiran-Madre-Teresa-Calcuta_0_1643835674.html
p7
aVhttps://www.clarin.com/sociedad/milagros-convertiran-Madre-Teresa-Calcuta_0_1643835674.html
p8
aVhttps://www.clarin.com/politica/Malena-Galmarini-Magario-Cristina-peronismo_0_1643835675.html
p9
aVhttps://www.clarin.com/politica/Malena-Galmarini-Magario-Cristina-peronismo_0_1643835675.html
p10
a.