(lp0
Vhttps://www.clarin.com/politica/Corte_Suprema-Senado-Miguel_Pichetto-FpV-Mauricio_Macri_0_1520847919.html
p1
aVhttps://www.clarin.com/politica/INDEC-indice_de_salarios-movilidad_jubilatoria-_jubilaciones-ANSES_0_1520847918.html
p2
aVhttps://www.clarin.com/sociedad/contrato-vencio-diciembre-renovar-aumento_0_1520847910.html
p3
aVhttps://www.clarin.com/sociedad/contrato-vencio-diciembre-renovar-aumento_0_1520847910.html
p4
aVhttps://www.clarin.com/politica/Telam-La_Campora-Ariel_Lijo-allanamientos_0_1520847906.html
p5
aVhttps://www.clarin.com/politica/pj-presidente-peleas_0_1520847905.html
p6
aVhttps://www.clarin.com/politica/anonimo-allanamiento-Ibar_Perez_Corradi_0_1520847904.html
p7
aVhttps://www.clarin.com/opinion/Cristobal_Reinoso_-Crist-Pasiones_argentinas_0_1520847902.html
p8
aVhttps://www.clarin.com/sociedad/Alquileres-nubes-piden-renovar-contratos_0_1520248393.html
p9
aVhttps://www.clarin.com/sociedad/Alquileres-nubes-piden-renovar-contratos_0_1520248393.html
p10
aVhttps://www.clarin.com/sociedad/ganancia-duenos-subio-minimos-historicos_0_1520248390.html
p11
a.