(lp0
Vhttps://www.clarin.com/ieco/economia/centenar-empresarios-italianos-visitan-Argentina_0_1577242380.html
p1
aVhttps://www.clarin.com/politica/Moreno-arremetio-Jorge-Macri-primarios_0_1577242387.html
p2
aVhttps://www.clarin.com/politica/Moreno-arremetio-Jorge-Macri-primarios_0_1577242387.html
p3
aVhttps://www.clarin.com/ieco/economia/Fabricantes-juguetes-comprometieron-aumentar-mantener_0_1577242375.html
p4
a.