(lp0
S'https://www.clarin.com/opinion/Hernan_Firpo_0_1503449954.html'
p1
aS'https://www.clarin.com/ieco/tecnologia/Auto_inteligente-inversiones-tecnologicas-automotrices-Damian_Kantor_0_1503449943.html'
p2
aS'https://www.clarin.com/ieco/tecnologia/Auto_inteligente-inversiones-tecnologicas-automotrices-Damian_Kantor_0_1503449943.html'
p3
aS'https://www.clarin.com/sociedad/Hizo-videojuego-inmortalizar-cancer-terminal_0_1503449918.html'
p4
aS'https://www.clarin.com/sociedad/Hizo-videojuego-inmortalizar-cancer-terminal_0_1503449918.html'
p5
aS'https://www.clarin.com/politica/triple_crimen-vidal_0_1503449928.html'
p6
aS'https://www.clarin.com/politica/triple_crimen-vidal_0_1503449928.html'
p7
aS'https://www.clarin.com/ieco/Venta_callejera-informalidad-comercio-Camara_Argentina_de_Comercio_0_1503449926.html'
p8
aS'https://www.clarin.com/ieco/Venta_callejera-informalidad-comercio-Camara_Argentina_de_Comercio_0_1503449926.html'
p9
aS'https://www.clarin.com/politica/Gobierno-promete-publicara-sueldos-funcionarios_0_1503449912.html'
p10
aS'https://www.clarin.com/politica/Gobierno-promete-publicara-sueldos-funcionarios_0_1503449912.html'
p11
a.