(lp0
Vhttps://www.clarin.com/sociedad/Mueren-pilotos-escalofriante-accidente-lancha_0_1670233027.html
p1
aVhttps://www.clarin.com/sociedad/Mueren-pilotos-escalofriante-accidente-lancha_0_1670233027.html
p2
aVhttps://www.clarin.com/sociedad/titular-FUBA-contesto-Lanata-ortografia_0_1670233026.html
p3
aVhttps://www.clarin.com/sociedad/titular-FUBA-contesto-Lanata-ortografia_0_1670233026.html
p4
aVhttps://www.clarin.com/ieco/meses-sumaron-pobres-Ciudad_0_1670233023.html
p5
aVhttps://www.clarin.com/ieco/meses-sumaron-pobres-Ciudad_0_1670233023.html
p6
aVhttps://www.clarin.com/politica/documento-grupo-anti-Macri-entregara-Papa_0_1670233019.html
p7
aVhttps://www.clarin.com/politica/documento-grupo-anti-Macri-entregara-Papa_0_1670233019.html
p8
aVhttps://www.clarin.com/sociedad/Murio-panda-cautiverio-viejo-mundo_0_1670233018.html
p9
aVhttps://www.clarin.com/sociedad/Murio-panda-cautiverio-viejo-mundo_0_1670233018.html
p10
aVhttps://www.clarin.com/politica/Madonna-Quiroz-CGT-San-Vicente_0_1669633175.html
p11
aVhttps://www.clarin.com/politica/Madonna-Quiroz-CGT-San-Vicente_0_1669633175.html
p12
a.