(lp0
S'https://www.clarin.com/politica/Cristina-defiende-causa-dolar-futuro_0_1561044108.html'
p1
aS'https://www.clarin.com/politica/Ranking-Carrio-Kicillof-Scioli-Michetti_0_1561044119.html'
p2
aS'https://www.clarin.com/ieco/Arranco-colocacion-deuda-interes-inversores_0_1561044129.html'
p3
aS'https://www.clarin.com/sociedad/Polemica-Catamarca-convocatoria-Policia-Infantil_0_1561044110.html'
p4
aS'https://www.clarin.com/ieco/suba-tarifas-lleva-inflacion-arriba_0_1561044112.html'
p5
aS'https://www.clarin.com/sociedad/vendian-pastillas-dentro-Time-Warp_0_1561044113.html'
p6
aS'https://www.clarin.com/ieco/Macri-recibe-empresarios-lista-invitados_0_1561044115.html'
p7
a.