(lp0
S'https://www.clarin.com/ieco/Oficializaron-ley-blanqueo-pago-jubilados_0_1618038212.html'
p1
aS'https://www.clarin.com/ieco/Oficializaron-ley-blanqueo-pago-jubilados_0_1618038212.html'
p2
aS'https://www.clarin.com/politica/Viviani-candidatos-CGT-movimiento-obrero_0_1618038211.html'
p3
aS'https://www.clarin.com/politica/Viviani-candidatos-CGT-movimiento-obrero_0_1618038211.html'
p4
aS'https://www.clarin.com/sociedad/desaparecida-familia-cree-cayo-secta_0_1618038206.html'
p5
aS'https://www.clarin.com/sociedad/desaparecida-familia-cree-cayo-secta_0_1618038206.html'
p6
a.