(lp0
Vhttps://www.clarin.com/politica/Dan-contenido-hallado-telefonos-Lopez_0_1654034588.html
p1
aVhttps://www.clarin.com/politica/Dan-contenido-hallado-telefonos-Lopez_0_1654034588.html
p2
aVhttps://www.clarin.com/opinion/Basta-salud-axioma-sabio_0_1654034585.html
p3
aVhttps://www.clarin.com/ieco/Importaciones-ganancia-ve_0_1654034584.html
p4
aVhttps://www.clarin.com/politica/formula-exportacion_0_1654034583.html
p5
aVhttps://www.clarin.com/politica/Champan-frances-Quinquela-dragon_0_1654034582.html
p6
aVhttps://www.clarin.com/politica/Aranguren-audiencias-publicas-genuinos-politicos_0_1653434834.html
p7
aVhttps://www.clarin.com/politica/Aranguren-audiencias-publicas-genuinos-politicos_0_1653434834.html
p8
aVhttps://www.clarin.com/politica/Hablo-DElia-Lanata-debatir-dirigente_0_1653434830.html
p9
aVhttps://www.clarin.com/politica/Hablo-DElia-Lanata-debatir-dirigente_0_1653434830.html
p10
aVhttps://www.clarin.com/sociedad/jovenes-riesgo-desercion-falta-trabajo_0_1653434829.html
p11
aVhttps://www.clarin.com/sociedad/jovenes-riesgo-desercion-falta-trabajo_0_1653434829.html
p12
aVhttps://www.clarin.com/sociedad/necesitan-politicas-publicas-apoyen_0_1653434828.html
p13
aVhttps://www.clarin.com/sociedad/sistema-educativo-mire-afuera-aulas_0_1653434827.html
p14
aVhttps://www.clarin.com/ieco/economia/Sturzenegger-batalla-inflacion-recien-comienza_0_1653434800.html
p15
aVhttps://www.clarin.com/sociedad/Jornada-extendida-horas-clase-escuelas_0_1653434826.html
p16
aVhttps://www.clarin.com/sociedad/Jornada-extendida-horas-clase-escuelas_0_1653434826.html
p17
a.