(lp0
S'https://www.clarin.com/sociedad/viven-voluntarios-encerraron-simular-Marte_0_1555044772.html'
p1
aS'https://www.clarin.com/sociedad/Degustaciones-shows-descuentos-Semana-Malbec_0_1555044768.html'
p2
aS'https://www.clarin.com/sociedad/Video-impactantes-imagenes-lanzallamas-camara_0_1555044763.html'
p3
aS'https://www.clarin.com/sociedad/Logran-secuenciar-cromosoma-hombre-Neandertal_0_1555044767.html'
p4
aS'https://www.clarin.com/ieco/economia/fideicomiso-ciego-Macri-pondra-fortuna_0_1555044771.html'
p5
aS'https://www.clarin.com/politica/Sel-silencio-contesto-Dady-Brieva_0_1555044715.html'
p6
a.