(lp0
S'https://www.clarin.com/ieco/economia/Gobierno-acepta-rojo-fiscal-llegaria_0_1625237628.html'
p1
aS'https://www.clarin.com/ieco/economia/Gobierno-acepta-rojo-fiscal-llegaria_0_1625237628.html'
p2
aS'https://www.clarin.com/sociedad/Argentina-desempleo-joven-alto-region_0_1625237666.html'
p3
aS'https://www.clarin.com/sociedad/Argentina-desempleo-joven-alto-region_0_1625237666.html'
p4
aS'https://www.clarin.com/politica/Gobierno-salio-frenar-reapertura-paritarias_0_1625237660.html'
p5
aS'https://www.clarin.com/ieco/economia/Bodegas-apuntan-clases-recuperar-ventas_0_1625237612.html'
p6
aS'https://www.clarin.com/politica/Justicia-freno-pais-aumento-precio_0_1625237661.html'
p7
aS'https://www.clarin.com/ieco/economia/CGT-julio-inflacion_0_1625237645.html'
p8
aS'https://www.clarin.com/ieco/inflacion-mismo-partido-pasan-veces_0_1625237669.html'
p9
aS'https://www.clarin.com/politica/EEUU-Casa-Rosada-Kerry-Macri_0_1625837406.html'
p10
aS'https://www.clarin.com/politica/EEUU-Casa-Rosada-Kerry-Macri_0_1625837406.html'
p11
aS'https://www.clarin.com/opinion/compras-puerta-mira_0_1625837405.html'
p12
aS'https://www.clarin.com/opinion/imagenes-neutrales_0_1625837404.html'
p13
aS'https://www.clarin.com/opinion/Hipotesis-conflicto-guerra_0_1625237608.html'
p14
aS'https://www.clarin.com/opinion/Hipotesis-conflicto-guerra_0_1625237608.html'
p15
aS'https://www.clarin.com/opinion/silencio-resuena-palabras_0_1625237585.html'
p16
aS'https://www.clarin.com/opinion/proteccion-datos-personales_0_1625237584.html'
p17
a.