(lp0
S'https://www.clarin.com/politica/Macri-llevara-recuperar-matriz-energetica_0_1613238872.html'
p1
aS'https://www.clarin.com/sociedad/Vacaciones-salir-chicos-costara-hace_0_1613238864.html'
p2
aS'https://www.clarin.com/politica/Encuentran-US-seguridad-Florencia-Kirchner_0_1613238784.html'
p3
aS'https://www.clarin.com/sociedad/Abanderados-trabajo-mejores-alumnos-secundario_0_1613238869.html'
p4
aS'https://www.clarin.com/politica/convento-reconocido-Vaticano_0_1613238865.html'
p5
aS'https://www.clarin.com/politica/PAE-invertira-US-incrementar-produccion_0_1613238880.html'
p6
a.