(lp0
Vhttps://www.clarin.com/sociedad/Medio-siglo-kiosquero-Topolino-preservativos_0_1690630936.html
p1
aVhttps://www.clarin.com/sociedad/Medio-siglo-kiosquero-Topolino-preservativos_0_1690630936.html
p2
aVhttps://www.clarin.com/sociedad/Violento-choque-patrullero-Balvanera-herido_0_1690630933.html
p3
aVhttps://www.clarin.com/sociedad/Violento-choque-patrullero-Balvanera-herido_0_1690630933.html
p4
aVhttps://www.clarin.com/sociedad/espumantes-champagne-espumosos-fiestas_0_1688831247.html
p5
aVhttps://www.clarin.com/sociedad/espumantes-champagne-espumosos-fiestas_0_1688831247.html
p6
aVhttps://www.clarin.com/ieco/economia/insolito-AFIP-derrame-efecto-Trump_0_1689431226.html
p7
aVhttps://www.clarin.com/ieco/economia/equipos-mayor-produccion-cambio-tecnico_0_1688831290.html
p8
aVhttps://www.clarin.com/ieco/economia/Vaca-Muerta-moverse-despertar-gigante_0_1688831279.html
p9
aVhttps://www.clarin.com/ieco/emprendedores/Venderles-pimenton-espanoles_0_1689431196.html
p10
aVhttps://www.clarin.com/ieco/emprendedores/Venderles-pimenton-espanoles_0_1689431196.html
p11
aVhttps://www.clarin.com/ieco/economia/economia-estadounidense-necesita-Trump_0_1689431182.html
p12
aVhttps://www.clarin.com/ieco/economia/Ley-tarjetas-costo-cuotas-tasa_0_1689431197.html
p13
a.