(lp0
Vhttps://www.clarin.com/ieco/economia/rol-proactivo_0_1581441864.html
p1
aVhttps://www.clarin.com/ieco/economia/rol-proactivo_0_1581441864.html
p2
aVhttps://www.clarin.com/ieco/economia/Exploran-nuevas-estrategias-amortiguar-Brasil_0_1581441863.html
p3
aVhttps://www.clarin.com/ieco/economia/Vemos-escenario-economico-optimista-sectoriales_0_1581441862.html
p4
aVhttps://www.clarin.com/ieco/economia/Vemos-escenario-economico-optimista-sectoriales_0_1581441862.html
p5
aVhttps://www.clarin.com/ieco/economia/planta-Toyota-realidad-virtual_0_1581441861.html
p6
aVhttps://www.clarin.com/ieco/economia/blanqueo-oportuno-necesario_0_1581441860.html
p7
aVhttps://www.clarin.com/ieco/economia/blanqueo-oportuno-necesario_0_1581441860.html
p8
aVhttps://www.clarin.com/ieco/economia/Cosechando-ideas-progreso_0_1581441859.html
p9
aVhttps://www.clarin.com/ieco/economia/Cosechando-ideas-progreso_0_1581441859.html
p10
aVhttps://www.clarin.com/ieco/economia/Resurgio-debate-uso-fondos-jubilados_0_1581441858.html
p11
aVhttps://www.clarin.com/ieco/economia/Ruta-Seda-integra-mundo_0_1581441857.html
p12
aVhttps://www.clarin.com/ieco/economia/datos-entender-Fed-camino-subir_0_1581441856.html
p13
aVhttps://www.clarin.com/ieco/economia/datos-entender-Fed-camino-subir_0_1581441856.html
p14
a.