(lp0
S'https://www.clarin.com/opinion/evangelizacion-jueces_0_1571242862.html'
p1
aS'https://www.clarin.com/opinion/corrupcion-codo_0_1570643046.html'
p2
aS'https://www.clarin.com/opinion/tarifas-falacias-populismo_0_1570643101.html'
p3
aS'https://www.clarin.com/opinion/tarifas-falacias-populismo_0_1570643101.html'
p4
aS'https://www.clarin.com/opinion/Oportunidad-Consenso-Bicentenario_0_1570643043.html'
p5
aS'https://www.clarin.com/ieco/Pagan-US-millones-cupones-default_0_1570643133.html'
p6
aS'https://www.clarin.com/sociedad/Time-Warp-sobreviviente-buscara-responsables_0_1570643094.html'
p7
aS'https://www.clarin.com/sociedad/Time-Warp-sobreviviente-buscara-responsables_0_1570643094.html'
p8
aS'https://www.clarin.com/ieco/productores-Alto-Valle-denuncian-peor_0_1570643065.html'
p9
aS'https://www.clarin.com/ieco/petroquimica-recesion-actual-perspectivas-adelante_0_1570643108.html'
p10
a.