(lp0
S'https://www.clarin.com/sociedad/Inundaciones-lluvias-seguiran-junio-afectados_0_1562243940.html'
p1
aS'https://www.clarin.com/politica/declaracion-Farina-Cristina-Lazaro-Baez_0_1562243935.html'
p2
aS'https://www.clarin.com/ieco/economia/consumo-masivo-cayo-marzo_0_1562243925.html'
p3
aS'https://www.clarin.com/ieco/economia/Efecto-lluvias-llego-maximo-meses_0_1562243915.html'
p4
aS'https://www.clarin.com/sociedad/Time-Warp-Casanello-indagatoria-sospechosos_0_1562243931.html'
p5
aS'https://www.clarin.com/politica/Senado-oposicion-dio-impulso-antidespidos_0_1562243922.html'
p6
a.