(lp0
S'https://www.clarin.com/sociedad/Boliches-violentos-inocente-detenido-adolescente_0_1535846709.html'
p1
aS'https://www.clarin.com/politica/CN23-conciliacion-obligatoria-trabajadores-despedidos_0_1535846687.html'
p2
aS'https://www.clarin.com/sociedad/piloto-amenazo-estrellar-pasajeros-dejaba_0_1535846701.html'
p3
aS'https://www.clarin.com/ieco/economia/dolar-arranca-semana-bajando-centavo_0_1535846649.html'
p4
aS'https://www.clarin.com/ieco/economia/abono-telefonia-primer-ajuste-anos_0_1535846691.html'
p5
aS'https://www.clarin.com/sociedad/Eligieron-argentinas-podran-porristas-EEUU_0_1535846700.html'
p6
aS'https://www.clarin.com/sociedad/Angeles-pagar-difundir-foto-muerta_0_1535846705.html'
p7
a.