(lp0
S'https://www.clarin.com/politica/empresario-declaro-Lopez-alcanzaba-comprarle_0_1628837205.html'
p1
aS'https://www.clarin.com/politica/empresario-declaro-Lopez-alcanzaba-comprarle_0_1628837205.html'
p2
a.