(lp0
S'https://www.clarin.com/sociedad/medicos-britanicos-visten-protestar-machista_0_1508249382.html'
p1
aS'https://www.clarin.com/politica/petroleros-Chubut-Asamblea-despidos-Jorge_Avila_0_1508249425.html'
p2
aS'https://www.clarin.com/sociedad/accidente-brasil-viral-redes_sociales-furgoneta-jatai_0_1508249387.html'
p3
aS'https://www.clarin.com/sociedad/segundo-Bolivia-convertido-desierto-climatico_0_1508249416.html'
p4
aS'https://www.clarin.com/ieco/economia/Aumento-tarifas-Aranguren-anuncios-semana_0_1508249422.html'
p5
aS'https://www.clarin.com/politica/Pablo_Gonzalez-Santa_Cruz-Casa_Rosada_0_1508249434.html'
p6
aS'https://www.clarin.com/ieco/Boca-Nike-camiseta-suplente_0_1508249407.html'
p7
aS'https://www.clarin.com/sociedad/Papa_Francisco-lavado_de_pies-mujeres-ninos-Jueves_Santo_0_1508249374.html'
p8
a.