(lp0
Vhttps://www.clarin.com/politica/Jueces-confiesan_0_1658234162.html
p1
aVhttps://www.clarin.com/politica/Cooperativistas-acampan-Plaza-Mayo_0_1657634406.html
p2
aVhttps://www.clarin.com/politica/Cooperativistas-acampan-Plaza-Mayo_0_1657634406.html
p3
aVhttps://www.clarin.com/politica/Carrio-ultimatum-Majdalani-mantienen-SIDE_0_1657634405.html
p4
aVhttps://www.clarin.com/politica/Carrio-ultimatum-Majdalani-mantienen-SIDE_0_1657634405.html
p5
aVhttps://www.clarin.com/politica/Cristina-viaja-jueves-Ecuador-Correa_0_1657634404.html
p6
aVhttps://www.clarin.com/politica/Cristina-viaja-jueves-Ecuador-Correa_0_1657634404.html
p7
aVhttps://www.clarin.com/sociedad/Remedios-habilitan-importar-patentes-polemica_0_1657634402.html
p8
aVhttps://www.clarin.com/politica/Macri-llegar-Cartagena-creyente-dialogo_0_1657634400.html
p9
aVhttps://www.clarin.com/politica/Macri-llegar-Cartagena-creyente-dialogo_0_1657634400.html
p10
aVhttps://www.clarin.com/sociedad/Cayo-Vaquita-acusado-tragica-Moreno_0_1657634399.html
p11
aVhttps://www.clarin.com/sociedad/Cayo-Vaquita-acusado-tragica-Moreno_0_1657634399.html
p12
aVhttps://www.clarin.com/politica/Existe-proteger-infraestructura-estrategica-medias_0_1657634397.html
p13
aVhttps://www.clarin.com/politica/Existe-proteger-infraestructura-estrategica-medias_0_1657634397.html
p14
aVhttps://www.clarin.com/sociedad/Efecto-invernadero-alertan-temperatura-subira_0_1657634394.html
p15
aVhttps://www.clarin.com/sociedad/Efecto-invernadero-alertan-temperatura-subira_0_1657634394.html
p16
a.