(lp0
S'https://www.clarin.com/sociedad/Stinfale-encuentro-respuestas-Cuneo-Libarona_0_1570043182.html'
p1
aS'https://www.clarin.com/sociedad/Stinfale-encuentro-respuestas-Cuneo-Libarona_0_1570043182.html'
p2
aS'https://www.clarin.com/sociedad/Academia-Ciencia-EEUU-Gabriel-Rabinovich_0_1570043174.html'
p3
aS'https://www.clarin.com/sociedad/Academia-Ciencia-EEUU-Gabriel-Rabinovich_0_1570043174.html'
p4
aS'https://www.clarin.com/sociedad/Stinfale-detenido-fiesta-Time-Warp_0_1570043171.html'
p5
aS'https://www.clarin.com/sociedad/Stinfale-detenido-fiesta-Time-Warp_0_1570043171.html'
p6
a.