(lp0
S'https://www.clarin.com/politica/Mauricio-Macri-Encontramos-corrupcion-imaginaba_0_1645035495.html'
p1
aS'https://www.clarin.com/sociedad/Detienen-profesor-acusado-abuso-sexual_0_1645035508.html'
p2
aS'https://www.clarin.com/ieco/Aumentan-jubilaciones-pensiones-asignaciones-familiares_0_1645035506.html'
p3
aS'https://www.clarin.com/sociedad/zika-freno-ahora-extiende-Asia_0_1645035496.html'
p4
aS'https://www.clarin.com/ieco/Argentina-pierde-Chile-disputa-Malbec_0_1645035502.html'
p5
a.