(lp0
Vhttps://www.clarin.com/politica/Bullrich-medico-mato-ladron-cuidar_0_1644435633.html
p1
aVhttps://www.clarin.com/politica/Bullrich-medico-mato-ladron-cuidar_0_1644435633.html
p2
aVhttps://www.clarin.com/politica/Vidal-Mirtha-Heidi-ahora-heroina_0_1644435631.html
p3
aVhttps://www.clarin.com/politica/Vidal-Mirtha-Heidi-ahora-heroina_0_1644435631.html
p4
aVhttps://www.clarin.com/sociedad/reencontro-duena-despues-guardia-hospital_0_1644435615.html
p5
aVhttps://www.clarin.com/sociedad/reencontro-duena-despues-guardia-hospital_0_1644435615.html
p6
aVhttps://www.clarin.com/sociedad/Escandalo-EEUU-sacrificio-beagles-universidad_0_1644435630.html
p7
aVhttps://www.clarin.com/sociedad/Escandalo-EEUU-sacrificio-beagles-universidad_0_1644435630.html
p8
aVhttps://www.clarin.com/politica/Scioli-goleador-confianza-renovacion-PJ_0_1644435628.html
p9
aVhttps://www.clarin.com/politica/Scioli-goleador-confianza-renovacion-PJ_0_1644435628.html
p10
aVhttps://www.clarin.com/politica/Juliana-Awada-visito-templo-budista_0_1644435626.html
p11
aVhttps://www.clarin.com/politica/Juliana-Awada-visito-templo-budista_0_1644435626.html
p12
aVhttps://www.clarin.com/politica/personalidades-despidieron-Carlos-Bulgheroni-diarios_0_1644435621.html
p13
aVhttps://www.clarin.com/politica/personalidades-despidieron-Carlos-Bulgheroni-diarios_0_1644435621.html
p14
a.