(lp0
Vhttps://www.clarin.com/politica/Vidal-Congreso-suban-Fondo-Conurbano_0_1570643139.html
p1
aVhttps://www.clarin.com/politica/Vidal-Congreso-suban-Fondo-Conurbano_0_1570643139.html
p2
aVhttps://www.clarin.com/ieco/Caen-ventas-consumidores-cambian-habitos_0_1570643137.html
p3
aVhttps://www.clarin.com/ieco/Caen-ventas-consumidores-cambian-habitos_0_1570643137.html
p4
aVhttps://www.clarin.com/politica/Asoma-interna-obras-publicas_0_1570643121.html
p5
aVhttps://www.clarin.com/ieco/economia/tasas-lebacs-dolar-quedo-estable_0_1570643100.html
p6
aVhttps://www.clarin.com/politica/Iglesia-empleos-alerto-inflacion-creciente_0_1570642980.html
p7
aVhttps://www.clarin.com/politica/Iglesia-empleos-alerto-inflacion-creciente_0_1570642980.html
p8
aVhttps://www.clarin.com/politica/gremios-ponen-presion-frena-despidos_0_1570643140.html
p9
aVhttps://www.clarin.com/politica/gremios-ponen-presion-frena-despidos_0_1570643140.html
p10
aVhttps://www.clarin.com/ieco/suba-promedio-Precios-Cuidados_0_1571242863.html
p11
aVhttps://www.clarin.com/sociedad/titulos-universitarios-podran-validez-europea_0_1570643135.html
p12
aVhttps://www.clarin.com/sociedad/titulos-universitarios-podran-validez-europea_0_1570643135.html
p13
aVhttps://www.clarin.com/sociedad/tutores-lograron-reducir-escuela-secundaria_0_1570643141.html
p14
aVhttps://www.clarin.com/sociedad/tutores-lograron-reducir-escuela-secundaria_0_1570643141.html
p15
a.