(lp0
Vhttps://www.clarin.com/politica/bilateral-Macri-Xi-Argentina-turistas_0_1643235689.html
p1
aVhttps://www.clarin.com/politica/bilateral-Macri-Xi-Argentina-turistas_0_1643235689.html
p2
aVhttps://www.clarin.com/politica/Marcha-Federal-Ciudad-Buenos-Aires_0_1643235686.html
p3
aVhttps://www.clarin.com/politica/Marcha-Federal-Ciudad-Buenos-Aires_0_1643235686.html
p4
aVhttps://www.clarin.com/politica/DNU-Gobierno-amplio-millones-Presupuesto_0_1643235685.html
p5
aVhttps://www.clarin.com/politica/DNU-Gobierno-amplio-millones-Presupuesto_0_1643235685.html
p6
aVhttps://www.clarin.com/politica/impacto-denuncia-Carrio-interna-Cambiemos_0_1642635913.html
p7
aVhttps://www.clarin.com/politica/impacto-denuncia-Carrio-interna-Cambiemos_0_1642635913.html
p8
aVhttps://www.clarin.com/sociedad/Samsung-suspende-Note-varios-prendieron_0_1643235682.html
p9
aVhttps://www.clarin.com/sociedad/Samsung-suspende-Note-varios-prendieron_0_1643235682.html
p10
aVhttps://www.clarin.com/sociedad/Chicos-emprendedores-disenar-propios-inventos_0_1643235680.html
p11
aVhttps://www.clarin.com/sociedad/Chicos-emprendedores-disenar-propios-inventos_0_1643235680.html
p12
a.