(lp0
S'https://www.clarin.com/sociedad/Casanello-haciendo-reconstruccion-Costa-Salguero_0_1562243875.html'
p1
aS'https://www.clarin.com/politica/Justicia-explicacion-Alicia-mausoleo-Kirchner_0_1561044125.html'
p2
aS'https://www.clarin.com/sociedad/pusieron-protesis-pene-estatua_0_1562243864.html'
p3
aS'https://www.clarin.com/politica/Gobierno-proyectos-despidos-Primer-Empleo_0_1562243863.html'
p4
aS'https://www.clarin.com/sociedad/Prefectura-informo-decomisos-eventos-Dell_0_1562243872.html'
p5
aS'https://www.clarin.com/politica/Jueces-fiscales-conviviran-discutir-legislacion_0_1562243865.html'
p6
a.