(lp0
S'https://www.clarin.com/politica/Guillermo_Moreno-Alejandro_Vanoli-Grupo_Clarin-procesado_0_1517248533.html'
p1
aS'https://www.clarin.com/sociedad/Chico-correntino-canta-fama-video_0_1517248511.html'
p2
aS'https://www.clarin.com/politica/Alicia-Kirchner-Macri-Lazaro-Baez_0_1517248556.html'
p3
aS'https://www.clarin.com/sociedad/Mato-hijo-anos-futuro-familia_0_1517248553.html'
p4
aS'https://www.clarin.com/ieco/finanzas/grupo-chino-compra-Bolsa-Chicago_0_1517248560.html'
p5
aS'https://www.clarin.com/politica/Patria-Grande-Nestor-Kirchner-Retiro_0_1517248529.html'
p6
aS'https://www.clarin.com/politica/Malcorra-Vaticano-sustancia-revistas-corazon_0_1517248535.html'
p7
aS'https://www.clarin.com/politica/Maximiliano_Rusconi-Diego_Lagomarsino-caso_Nisman-renuncio-defensa_0_1517248550.html'
p8
aS'https://www.clarin.com/sociedad/Confirman-Mendoza-caso-zika-Argentina_0_1517248546.html'
p9
aS'https://www.clarin.com/politica/Alberto_Nisman-la_muerte_del_fiscal-marcha-18F-fiscales_0_1517248563.html'
p10
a.