(lp0
Vhttps://www.clarin.com/sociedad/Usan-murcielagos-frenar-mosquitos_0_1607839394.html
p1
aVhttps://www.clarin.com/sociedad/Usan-murcielagos-frenar-mosquitos_0_1607839394.html
p2
aVhttps://www.clarin.com/ieco/economia/Cristobal-Lopez-Finansur-Luis-Manzano_0_1607839422.html
p3
aVhttps://www.clarin.com/ieco/economia/Cristobal-Lopez-Finansur-Luis-Manzano_0_1607839422.html
p4
aVhttps://www.clarin.com/opinion/siembra-ciclista-gloria_0_1607839399.html
p5
aVhttps://www.clarin.com/ieco/economia/Buscan-Fabrica-Militar-Aviones-Embraer_0_1607839375.html
p6
aVhttps://www.clarin.com/ieco/economia/Buscan-Fabrica-Militar-Aviones-Embraer_0_1607839375.html
p7
aVhttps://www.clarin.com/politica/Stolbizer-producir-familia-Kirchner-terminen_0_1607839436.html
p8
aVhttps://www.clarin.com/politica/Stolbizer-producir-familia-Kirchner-terminen_0_1607839436.html
p9
aVhttps://www.clarin.com/politica/Bicentenario-jefes-PJ-sesion-Tucuman_0_1607839435.html
p10
aVhttps://www.clarin.com/politica/Vidal-medico-radical-intendente-massista_0_1607839434.html
p11
aVhttps://www.clarin.com/politica/Vidal-medico-radical-intendente-massista_0_1607839434.html
p12
aVhttps://www.clarin.com/politica/panalistas-ex-reclaman-indeminizaciones-millonarias_0_1607839432.html
p13
aVhttps://www.clarin.com/politica/dirigentes-autorizo-actos-acompanen_0_1607839430.html
p14
aVhttps://www.clarin.com/politica/dirigentes-autorizo-actos-acompanen_0_1607839430.html
p15
a.