(lp0
Vhttps://www.clarin.com/ieco/cana-azucar-bioetanol-ahora-electricidad_0_1640835951.html
p1
aVhttps://www.clarin.com/ieco/cana-azucar-bioetanol-ahora-electricidad_0_1640835951.html
p2
aVhttps://www.clarin.com/ieco/Cordoba-Renault-suspendera-empleados_0_1640836067.html
p3
aVhttps://www.clarin.com/politica/Gobierno-prometio-ingenuo-relacion-China_0_1640835982.html
p4
aVhttps://www.clarin.com/politica/Gobierno-prometio-ingenuo-relacion-China_0_1640835982.html
p5
aVhttps://www.clarin.com/politica/Corte-decide-preocupa-Casa-Rosada_0_1641435848.html
p6
aVhttps://www.clarin.com/politica/Corte-decide-preocupa-Casa-Rosada_0_1641435848.html
p7
aVhttps://www.clarin.com/politica/Secuestraron-escrituras-Cristina-Rio-Gallegos_0_1641435847.html
p8
aVhttps://www.clarin.com/politica/Secuestraron-escrituras-Cristina-Rio-Gallegos_0_1641435847.html
p9
aVhttps://www.clarin.com/ieco/economia/Gobierno-mete-pulseada-tarjetas_0_1641435846.html
p10
aVhttps://www.clarin.com/ieco/economia/Gobierno-mete-pulseada-tarjetas_0_1641435846.html
p11
aVhttps://www.clarin.com/opinion/dificil-arte-construir-coalicion-gobierno_0_1640836036.html
p12
aVhttps://www.clarin.com/opinion/China-brujula-desarrollo_0_1640836033.html
p13
aVhttps://www.clarin.com/opinion/Megamineria-repite-empeora_0_1640836035.html
p14
aVhttps://www.clarin.com/opinion/Megamineria-repite-empeora_0_1640836035.html
p15
aVhttps://www.clarin.com/opinion/riesgo-policias-on-line_0_1641435845.html
p16
aVhttps://www.clarin.com/politica/dura-tarea-corto-largo-plazo_0_1641435844.html
p17
aVhttps://www.clarin.com/politica/Marketing-simulacion-politica_0_1641435843.html
p18
a.