(lp0
Vhttps://www.clarin.com/politica/Alicia-ayuda-Rosada-Santa-Cruz_0_1504049645.html
p1
aVhttps://www.clarin.com/politica/Alicia-ayuda-Rosada-Santa-Cruz_0_1504049645.html
p2
aVhttps://www.clarin.com/opinion/Marcelo_Guerrero_0_1504049642.html
p3
aVhttps://www.clarin.com/politica/triple_crimen-vidal_0_1504049626.html
p4
aVhttps://www.clarin.com/politica/triple_crimen-vidal_0_1504049626.html
p5
aVhttps://www.clarin.com/politica/triple_crimen-vidal-perez_corradi_0_1504049625.html
p6
aVhttps://www.clarin.com/politica/triple_crimen-vidal-perez_corradi_0_1504049624.html
p7
aVhttps://www.clarin.com/politica/triple_crimen-vidal-perez_corradi_0_1504049624.html
p8
aVhttps://www.clarin.com/politica/triple_crimen-vidal-bullrich_0_1504049623.html
p9
aVhttps://www.clarin.com/politica/triple_crimen-vidal-bullrich_0_1504049623.html
p10
aVhttps://www.clarin.com/politica/triple_crimen-vidal_0_1504049622.html
p11
aVhttps://www.clarin.com/politica/triple_crimen-vidal_0_1504049622.html
p12
aVhttps://www.clarin.com/opinion/Bosques_nativos-Desmonte-Ley_de_Bosques-Agricultura_sustentable_0_1504049614.html
p13
a.