(lp0
Vhttps://www.clarin.com/opinion/peores-dias-gobierno-Macri_0_1573042686.html
p1
aVhttps://www.clarin.com/opinion/peores-dias-gobierno-Macri_0_1573042686.html
p2
aVhttps://www.clarin.com/opinion/malhumor-social-prueba-apuesta-oficial_0_1573042685.html
p3
aVhttps://www.clarin.com/ieco/Gobierno-alerta-temores-economia_0_1572442910.html
p4
aVhttps://www.clarin.com/ieco/Macri-apura-desembolso-millones-publicas_0_1572442909.html
p5
aVhttps://www.clarin.com/ieco/Macri-apura-desembolso-millones-publicas_0_1572442909.html
p6
aVhttps://www.clarin.com/opinion/Cambiemos-peronismo_0_1573042682.html
p7
aVhttps://www.clarin.com/politica/cuentas-Cristina-agujero-negro_0_1572442903.html
p8
aVhttps://www.clarin.com/politica/rigido-pruebas-clave-causa-Sauces_0_1572442895.html
p9
aVhttps://www.clarin.com/politica/rigido-pruebas-clave-causa-Sauces_0_1572442895.html
p10
aVhttps://www.clarin.com/opinion/Carta-amada-nieta_0_1572442886.html
p11
aVhttps://www.clarin.com/opinion/Carta-amada-nieta_0_1572442886.html
p12
aVhttps://www.clarin.com/opinion/Saber-decir-favor-gracias_0_1572442858.html
p13
aVhttps://www.clarin.com/ieco/economia/Concluidos-ajustes-tarifas-inflacion-nucleo_0_1572442881.html
p14
aVhttps://www.clarin.com/ieco/economia/Concluidos-ajustes-tarifas-inflacion-nucleo_0_1572442881.html
p15
a.