(lp0
S'https://www.clarin.com/ieco/economia/revierte-deflacion-mundial_0_1585641453.html'
p1
aS'https://www.clarin.com/sociedad/batalla-herencia-alta-sociedad_0_1585041646.html'
p2
aS'https://www.clarin.com/ieco/economia/empresas-creadas-mujeres-capitales-riesgo_0_1585641452.html'
p3
a.