(lp0
S'https://www.clarin.com/ieco/economia/Came-produccion-pymes-industriales-nivel_0_1623437744.html'
p1
aS'https://www.clarin.com/ieco/economia/Came-produccion-pymes-industriales-nivel_0_1623437744.html'
p2
aS'https://www.clarin.com/ieco/economia/China-financiara-infraestructura-US-Argentina_0_1623437748.html'
p3
aS'https://www.clarin.com/ieco/economia/China-financiara-infraestructura-US-Argentina_0_1623437748.html'
p4
aS'https://www.clarin.com/sociedad/Escandalo-San-Juan-director-manejando_0_1623437746.html'
p5
aS'https://www.clarin.com/sociedad/Escandalo-San-Juan-director-manejando_0_1623437746.html'
p6
a.