(lp0
S'https://www.clarin.com/sociedad/gripe-adelanto-ano-aseguran-pandemia_0_1579042111.html'
p1
aS'https://www.clarin.com/politica/Coparticipacion-Alicia-Kirchner-funcionarios-macristas_0_1579042112.html'
p2
aS'https://www.clarin.com/politica/Nueva-indagatoria-Boudou-falsos-DNI_0_1579042099.html'
p3
aS'https://www.clarin.com/politica/Cristina-abogada-titulo-insiste-denunciante_0_1579042098.html'
p4
aS'https://www.clarin.com/politica/Macri-comienzo-etapa-maravillosa-pais_0_1579042101.html'
p5
a.