(lp0
S'https://www.clarin.com/politica/Macri-desembarca-Tecnopolis-Gabinete-XL_0_1529847292.html'
p1
aS'https://www.clarin.com/sociedad/escarabajos-invadieron-playas-Mar-Ajo_0_1529847275.html'
p2
aS'https://www.clarin.com/sociedad/Indignacion-Francia-maltrato-animal-ecologica_0_1529847291.html'
p3
a.