(lp0
Vhttps://www.clarin.com/politica/historia-Kirchner-declarada-Monumento-Historico_0_1612038904.html
p1
aVhttps://www.clarin.com/politica/historia-Kirchner-declarada-Monumento-Historico_0_1612038904.html
p2
aVhttps://www.clarin.com/ieco/economia/Gremialistas-quejan-Macri-invita-acto_0_1612038903.html
p3
aVhttps://www.clarin.com/sociedad/Video-coro-sorprendio-shopping-marplatense_0_1612038898.html
p4
aVhttps://www.clarin.com/sociedad/Video-coro-sorprendio-shopping-marplatense_0_1612038898.html
p5
aVhttps://www.clarin.com/sociedad/Fin-tedioso-Internet-Registro-Automotor_0_1612038901.html
p6
aVhttps://www.clarin.com/sociedad/Fin-tedioso-Internet-Registro-Automotor_0_1612038901.html
p7
aVhttps://www.clarin.com/sociedad/personas-varadas-Ezeiza-viernes_0_1612038900.html
p8
aVhttps://www.clarin.com/sociedad/personas-varadas-Ezeiza-viernes_0_1612038900.html
p9
a.