(lp0
Vhttps://www.clarin.com/sociedad/Mundos-intimos-hermano-paralisis-cerebral_0_1567643378.html
p1
aVhttps://www.clarin.com/sociedad/Mundos-intimos-hermano-paralisis-cerebral_0_1567643378.html
p2
aVhttps://www.clarin.com/sociedad/mirada-censure_0_1567643405.html
p3
aVhttps://www.clarin.com/sociedad/extremo-insolito-intento-boliches-portenos_0_1567643449.html
p4
aVhttps://www.clarin.com/sociedad/bipolares-locos_0_1567643451.html
p5
aVhttps://www.clarin.com/sociedad/bipolares-locos_0_1567643451.html
p6
aVhttps://www.clarin.com/ieco/Pollack-secretos-negociacion-fondos-buitre_0_1567643442.html
p7
aVhttps://www.clarin.com/politica/Schiavoni-reelecto-titular-PRO_0_1567643462.html
p8
aVhttps://www.clarin.com/politica/Schiavoni-reelecto-titular-PRO_0_1567643462.html
p9
aVhttps://www.clarin.com/opinion/Revocatorio-disolucion-regimen-venezolano_0_1568243212.html
p10
aVhttps://www.clarin.com/opinion/Recordamos-interesa-entender_0_1567643420.html
p11
aVhttps://www.clarin.com/opinion/Recordamos-interesa-entender_0_1567643420.html
p12
a.