(lp0
S'https://www.clarin.com/politica/Vuelve-Congreso-arrepentido-reforma-electoral_0_1622837832.html'
p1
aS'https://www.clarin.com/politica/Vuelve-Congreso-arrepentido-reforma-electoral_0_1622837832.html'
p2
aS'https://www.clarin.com/sociedad/paracaidas-lanzo-metros-altura-aterrizo_0_1623437645.html'
p3
aS'https://www.clarin.com/sociedad/paracaidas-lanzo-metros-altura-aterrizo_0_1623437645.html'
p4
aS'https://www.clarin.com/opinion/Palomas-mensajeras-deporte-realidad-pasion_0_1622837831.html'
p5
aS'https://www.clarin.com/opinion/Palomas-mensajeras-deporte-realidad-pasion_0_1622837831.html'
p6
aS'https://www.clarin.com/opinion/Brexit-puede-ayudar-negociar-Malvinas_0_1622837838.html'
p7
aS'https://www.clarin.com/opinion/hospitales-convirtieron-objetivos-conflictos-armados_0_1622837825.html'
p8
aS'https://www.clarin.com/opinion/hospitales-convirtieron-objetivos-conflictos-armados_0_1622837825.html'
p9
aS'https://www.clarin.com/opinion/Eliana-Bormida-arquitecta-vino_0_1622837834.html'
p10
aS'https://www.clarin.com/opinion/Eliana-Bormida-arquitecta-vino_0_1622837834.html'
p11
aS'https://www.clarin.com/opinion/Alianza-Pacifico-oportunidad-reactivar-integracion_0_1622837840.html'
p12
aS'https://www.clarin.com/opinion/Alianza-Pacifico-privilegiar-relacion-Norte-Sur_0_1622837841.html'
p13
a.