(lp0
S'https://www.clarin.com/politica/Marcos_Pena-jefe_de_Gabinete-decretazo-Mauricio_Macri_0_1501649844.html'
p1
aS'https://www.clarin.com/politica/Marcos_Pena-Jefe_de_Gabinete-fuerzas_de_seguridad-Gobierno_nacional_0_1501649843.html'
p2
aS'https://www.clarin.com/politica/historias-triple_crimen-Martin_Lanatta-Cayasta_0_1501649842.html'
p3
aS'https://www.clarin.com/politica/historias-triple_crimen-Martin_Lanatta-Cayasta_0_1501649842.html'
p4
aS'https://www.clarin.com/sociedad/Disparador-Marcelo_Moreno-elefantes_imaginarios-Montaigne_0_1501649841.html'
p5
aS'https://www.clarin.com/sociedad/Sanguinetti-Kovadloff-Punta_del_Este_0_1501649840.html'
p6
aS'https://www.clarin.com/sociedad/tocadisco-discos-vinilos-CES-Las_Vegas_0_1501649838.html'
p7
aS'https://www.clarin.com/sociedad/tocadisco-discos-vinilos-CES-Las_Vegas_0_1501649838.html'
p8
aS'https://www.clarin.com/politica/Triple_Crimen-Triple_Fuga_0_1501050295.html'
p9
aS'https://www.clarin.com/opinion/barras_bravas_efedrina_narcotrafico_triple_fuga_Quilmes_Marcelo_Mallo_Hermanos_lanatta_0_1501050294.html'
p10
aS'https://www.clarin.com/politica/efedrina-martin_lanatta-chapu_guzman_0_1501050283.html'
p11
aS'https://www.clarin.com/politica/efedrina-martin_lanatta-chapu_guzman_0_1501050283.html'
p12
a.