(lp0
Vhttps://www.clarin.com/sociedad/multaron-avisar-cobraban-servicio-mesa_0_1529247515.html
p1
aVhttps://www.clarin.com/politica/acuerdo-paritaria-nacional-docente_0_1529247502.html
p2
aVhttps://www.clarin.com/politica/acuerdo-paritaria-nacional-docente_0_1529247502.html
p3
a.