(lp0
Vhttps://www.clarin.com/sociedad/Mantuvo-anos-atado-ventana-dias_0_1511249070.html
p1
aVhttps://www.clarin.com/sociedad/Mantuvo-anos-atado-ventana-dias_0_1511249070.html
p2
aVhttps://www.clarin.com/sociedad/familia-desaparecidos-la_matanza-desaparecida-German_Fitzi_0_1511249067.html
p3
aVhttps://www.clarin.com/sociedad/familia-desaparecidos-la_matanza-desaparecida-German_Fitzi_0_1511249067.html
p4
aVhttps://www.clarin.com/ieco/economia/Gobierno-impulsara-IVA-beneficiarios-sociales_0_1511249076.html
p5
aVhttps://www.clarin.com/ieco/economia/Gobierno-impulsara-IVA-beneficiarios-sociales_0_1511249076.html
p6
aVhttps://www.clarin.com/politica/Mauricio_Macri-Cordoba-Cura_Brochero_0_1511249047.html
p7
aVhttps://www.clarin.com/politica/Mauricio_Macri-Cordoba-Cura_Brochero_0_1511249047.html
p8
aVhttps://www.clarin.com/sociedad/foto-modelo-desato-polemica_0_1511249061.html
p9
aVhttps://www.clarin.com/sociedad/foto-modelo-desato-polemica_0_1511249061.html
p10
aVhttps://www.clarin.com/politica/Cynthia-Garcia-lanzo-YouTube-censura_0_1511249060.html
p11
aVhttps://www.clarin.com/politica/Cynthia-Garcia-lanzo-YouTube-censura_0_1511249060.html
p12
a.