(lp0
S'https://www.clarin.com/ieco/economia/Deco-estilo-escandinavo_0_1573042729.html'
p1
aS'https://www.clarin.com/ieco/economia/Deco-estilo-escandinavo_0_1573042729.html'
p2
aS'https://www.clarin.com/politica/PAMI-personas-fallecidas-pagaban-servicios_0_1573042756.html'
p3
aS'https://www.clarin.com/politica/PAMI-personas-fallecidas-pagaban-servicios_0_1573042756.html'
p4
aS'https://www.clarin.com/politica/Hector-Recalde-antidespidos-aceptamos-modificacion_0_1573042720.html'
p5
aS'https://www.clarin.com/politica/Hector-Recalde-antidespidos-aceptamos-modificacion_0_1573042720.html'
p6
a.