(lp0
Vhttps://www.clarin.com/ieco/recesion-profundiza_0_1604239728.html
p1
aVhttps://www.clarin.com/politica/Ahora-Lazaro-Baez-podria-embargado_0_1604239725.html
p2
aVhttps://www.clarin.com/politica/Ahora-Lazaro-Baez-podria-embargado_0_1604239725.html
p3
a.