(lp0
Vhttps://www.clarin.com/politica/COLOR-PJ_0_1516648474.html
p1
aVhttps://www.clarin.com/politica/COLOR-PJ_0_1516648474.html
p2
aVhttps://www.clarin.com/sociedad/Playboy-anticipa-nueva-tapa-desnudos_0_1516648484.html
p3
aVhttps://www.clarin.com/sociedad/Playboy-anticipa-nueva-tapa-desnudos_0_1516648484.html
p4
aVhttps://www.clarin.com/sociedad/dengue-misiones-muerte-desmentida-ministerio-salud_0_1516648478.html
p5
aVhttps://www.clarin.com/sociedad/dengue-misiones-muerte-desmentida-ministerio-salud_0_1516648478.html
p6
aVhttps://www.clarin.com/politica/Pinedo-proponemos-disparates-problemas-quorum_0_1516648470.html
p7
aVhttps://www.clarin.com/politica/Pinedo-proponemos-disparates-problemas-quorum_0_1516648470.html
p8
aVhttps://www.clarin.com/ieco/economia/Banco-Provincia-dice-chau-patacones_0_1516648466.html
p9
aVhttps://www.clarin.com/sociedad/canasta-escolar-ano-llega-aumento_0_1516648455.html
p10
aVhttps://www.clarin.com/sociedad/canasta-escolar-ano-llega-aumento_0_1516648455.html
p11
a.