(lp0
Vhttps://www.clarin.com/politica/Stiuso-Chavez-Nestor-cooperacion-Iran_0_1533447179.html
p1
aVhttps://www.clarin.com/politica/Stiuso-Chavez-Nestor-cooperacion-Iran_0_1533447179.html
p2
aVhttps://www.clarin.com/opinion/Lecciones-derrota-Evo_0_1533447020.html
p3
aVhttps://www.clarin.com/opinion/dolar-metio-cola-gabinete-economico_0_1533447102.html
p4
aVhttps://www.clarin.com/opinion/dolar-metio-cola-gabinete-economico_0_1533447102.html
p5
aVhttps://www.clarin.com/ieco/Comercio-acordo-aumento-salarial-meses_0_1533447123.html
p6
aVhttps://www.clarin.com/ieco/Comercio-acordo-aumento-salarial-meses_0_1533447123.html
p7
aVhttps://www.clarin.com/opinion/Balance-necesario-herencia-hipoteca_0_1533447015.html
p8
aVhttps://www.clarin.com/sociedad/Vieron-mendocinas-crimen-version-oficial_0_1533447146.html
p9
aVhttps://www.clarin.com/ieco/baja-retenciones-recaudacion-crecio-febrero_0_1533447155.html
p10
aVhttps://www.clarin.com/sociedad/Velas-lagrimas-Marina-Maria-Jose_0_1533447182.html
p11
aVhttps://www.clarin.com/sociedad/Velas-lagrimas-Marina-Maria-Jose_0_1533447182.html
p12
a.