(lp0
S'https://www.clarin.com/ieco/economia/Brasil-sanciona-ley-blanqueo-capitales_0_1504049785.html'
p1
aS'https://www.clarin.com/ieco/economia/Brasil-sanciona-ley-blanqueo-capitales_0_1504049785.html'
p2
aS'https://www.clarin.com/sociedad/invasiio-langostas-firas-santiago-del-estero_0_1504049773.html'
p3
aS'https://www.clarin.com/sociedad/invasiio-langostas-firas-santiago-del-estero_0_1504049773.html'
p4
aS'https://www.clarin.com/ieco/economia/comercio-Brasil-Argentina-cayo-mitad_0_1501650092.html'
p5
aS'https://www.clarin.com/ieco/economia/comercio-Brasil-Argentina-cayo-mitad_0_1501650092.html'
p6
aS'https://www.clarin.com/ieco/Aseguran-Apple-interesada-Time-Warner_0_1504049764.html'
p7
aS'https://www.clarin.com/ieco/Aseguran-Apple-interesada-Time-Warner_0_1504049764.html'
p8
aS'https://www.clarin.com/politica/ranking-10-politicos-mencionados-web-2015_0_1504049763.html'
p9
aS'https://www.clarin.com/politica/ranking-10-politicos-mencionados-web-2015_0_1504049763.html'
p10
aS'https://www.clarin.com/sociedad/canguros-fotos-muerte-mato-macho-hembra-australia-morir-imagenes_0_1504049755.html'
p11
aS'https://www.clarin.com/sociedad/canguros-fotos-muerte-mato-macho-hembra-australia-morir-imagenes_0_1504049755.html'
p12
a.