(lp0
S'https://www.clarin.com/opinion/cultura-oriental-sacude-complaciente-identidad_0_1538846453.html'
p1
aS'https://www.clarin.com/opinion/comercio-sexual-expande-rutas-Patagonia_0_1538846460.html'
p2
aS'https://www.clarin.com/opinion/Corrupcion-politica-eclipsan-Cristina_0_1539446065.html'
p3
aS'https://www.clarin.com/sociedad/Avanza-inteligencia-artificial-maquina-hombre_0_1538846500.html'
p4
aS'https://www.clarin.com/opinion/Daniel-Divinsky-recuerdos-flor-editor_0_1538846462.html'
p5
aS'https://www.clarin.com/sociedad/Peliculon-curas-ruines-periodistas-verdad_0_1538846497.html'
p6
aS'https://www.clarin.com/sociedad/videos-intimos-parte-nueva-sexualidad_0_1538846503.html'
p7
aS'https://www.clarin.com/opinion/Gracias-Botticelli-podrian-desfilar-hoy_0_1538846471.html'
p8
aS'https://www.clarin.com/opinion/Fin-ciclo-obediencia-debida_0_1539446061.html'
p9
aS'https://www.clarin.com/opinion/Cristina-interrogada-justicia_0_1538846465.html'
p10
aS'https://www.clarin.com/opinion/ley-fin-default-sale_0_1539446063.html'
p11
a.