(lp0
Vhttps://www.clarin.com/ieco/economia/Techint-anuncio-rebaja-precio-chapa_0_1515448588.html
p1
aVhttps://www.clarin.com/ieco/economia/Confirman-analizan-ajuste-precios-gas_0_1515448593.html
p2
aVhttps://www.clarin.com/ieco/economia/Techint-anuncio-rebaja-precio-chapa_0_1515448589.html
p3
aVhttps://www.clarin.com/sociedad/Encontraron-beba-prematura-abandonada-basural_0_1515448575.html
p4
aVhttps://www.clarin.com/sociedad/Encontraron-beba-prematura-abandonada-basural_0_1515448575.html
p5
aVhttps://www.clarin.com/politica/Gobierno-techo-paritarias-margen-discusion_0_1515448567.html
p6
aVhttps://www.clarin.com/politica/Gobierno-techo-paritarias-margen-discusion_0_1515448567.html
p7
a.