(lp0
S'https://www.clarin.com/politica/Cristina-pension-presidenta-bloquearon-cuenta_0_1616238467.html'
p1
aS'https://www.clarin.com/politica/arzobispado-Lujan-investigara-convento-Lopez_0_1616238463.html'
p2
a.