(lp0
S'https://www.clarin.com/politica/municipio-convocan-docentes-marcha-buitres_0_1540646162.html'
p1
aS'https://www.clarin.com/politica/Lorenzetti-urgente-politica-impunidad_0_1540646165.html'
p2
aS'https://www.clarin.com/ieco/gobierno-apura-medidas-rescate-tamberos_0_1540646153.html'
p3
aS'https://www.clarin.com/politica/Macri-Congreso-Judio-Mundial-escuchara_0_1540646120.html'
p4
aS'https://www.clarin.com/sociedad/Explosiones-explicarian-desapariciones-Triangulo-Bermudas_0_1540646159.html'
p5
aS'https://www.clarin.com/ieco/finanzas/Quinta-caida-consecutiva-Bolsa-portena_0_1540646158.html'
p6
aS'https://www.clarin.com/politica/Maximo-coca-mano-entrada-tarde_0_1540646183.html'
p7
a.