(lp0
Vhttps://www.clarin.com/ieco/empresas-y-negocios/estrategia-Netflix-invertir-primero-despues_0_1498650442.html
p1
aVhttps://www.clarin.com/ieco/empresas-y-negocios/estrategia-Netflix-invertir-primero-despues_0_1498650442.html
p2
aVhttps://www.clarin.com/sociedad/Catalina-cometa-podra-simple-vista_0_1498650428.html
p3
aVhttps://www.clarin.com/sociedad/Catalina-cometa-podra-simple-vista_0_1498650428.html
p4
aVhttps://www.clarin.com/sociedad/Sistema-argentinos-eludido-control-velocidad_0_1498650439.html
p5
aVhttps://www.clarin.com/sociedad/Sistema-argentinos-eludido-control-velocidad_0_1498650439.html
p6
aVhttps://www.clarin.com/sociedad/Misiones-personas-reciben-tratamiento-dengue_0_1498650388.html
p7
aVhttps://www.clarin.com/sociedad/Misiones-personas-reciben-tratamiento-dengue_0_1498650388.html
p8
aVhttps://www.clarin.com/ieco/banco_central-creditos-costo_financiero_total-reglamentacion_0_1498650433.html
p9
aVhttps://www.clarin.com/ieco/banco_central-creditos-costo_financiero_total-reglamentacion_0_1498650433.html
p10
aVhttps://www.clarin.com/politica/Massa-Voy-Davos-Presidente-Argentina_0_1498650421.html
p11
aVhttps://www.clarin.com/politica/Massa-Voy-Davos-Presidente-Argentina_0_1498650421.html
p12
aVhttps://www.clarin.com/politica/Ricardo_Echegaray-AGN-Gabriela_Michetti-Emilio_Monzo_0_1498650420.html
p13
aVhttps://www.clarin.com/politica/Ricardo_Echegaray-AGN-Gabriela_Michetti-Emilio_Monzo_0_1498650420.html
p14
aVhttps://www.clarin.com/ieco/economia/compraventa-propiedades-Capital-recuperandose-aumento_0_1498650412.html
p15
aVhttps://www.clarin.com/ieco/economia/compraventa-propiedades-Capital-recuperandose-aumento_0_1498650412.html
p16
a.