(lp0
Vhttps://www.clarin.com/opinion/rezos-Cristina-furioso-antichavista_0_1634836643.html
p1
aVhttps://www.clarin.com/politica/Afirman-piedrazos-Macri-parte-plan_0_1634836691.html
p2
aVhttps://www.clarin.com/politica/Afirman-piedrazos-Macri-parte-plan_0_1634836691.html
p3
aVhttps://www.clarin.com/politica/Tarifas-inflacion-consumo-medio-lleno_0_1634836698.html
p4
aVhttps://www.clarin.com/politica/Perdio-Gobierno-perdio-Macri_0_1634836692.html
p5
aVhttps://www.clarin.com/opinion/pregunta-pertinente_0_1634836655.html
p6
a.