(lp0
Vhttps://www.clarin.com/sociedad/argentinas-podrian-porristas-EEUU_0_1536446646.html
p1
aVhttps://www.clarin.com/sociedad/argentinas-podrian-porristas-EEUU_0_1536446646.html
p2
aVhttps://www.clarin.com/sociedad/Mira-ruptura-glaciar-Perito-Moreno_0_1536446634.html
p3
aVhttps://www.clarin.com/sociedad/Mira-ruptura-glaciar-Perito-Moreno_0_1536446634.html
p4
a.