(lp0
Vhttps://www.clarin.com/politica/Triaca-emergencia-gobierno-reconocer-pobreza_0_1689431065.html
p1
aVhttps://www.clarin.com/politica/Triaca-emergencia-gobierno-reconocer-pobreza_0_1689431065.html
p2
aVhttps://www.clarin.com/sociedad/chica-autoricen-congelar-cuerpo-muerte_0_1689431059.html
p3
aVhttps://www.clarin.com/sociedad/chica-autoricen-congelar-cuerpo-muerte_0_1689431059.html
p4
aVhttps://www.clarin.com/sociedad/empleados-Latam-levantaron-paro_0_1689431054.html
p5
aVhttps://www.clarin.com/sociedad/empleados-Latam-levantaron-paro_0_1689431054.html
p6
aVhttps://www.clarin.com/politica/Tarjetas-credito-Diputados-dictamen-cambios_0_1688831197.html
p7
aVhttps://www.clarin.com/politica/Tarjetas-credito-Diputados-dictamen-cambios_0_1688831197.html
p8
a.