(lp0
S'https://www.clarin.com/sociedad/arranco-espera-invierno-normal-Ciudad_0_1599440108.html'
p1
aS'https://www.clarin.com/sociedad/Macri-rosarino-hacer-tarea-escuela_0_1599440100.html'
p2
aS'https://www.clarin.com/sociedad/Video-flotando-Artico-alertar-deshielo_0_1599440095.html'
p3
aS'https://www.clarin.com/ieco/economia/BCE-prepara-enfrentar-Brexit_0_1599440106.html'
p4
a.