(lp0
S'https://www.clarin.com/politica/Macri-Gabinete-volvio-timbreos-GBA_0_1673232739.html'
p1
aS'https://www.clarin.com/politica/Triaca-CGT-aceptaria-bono-cuotas_0_1673232735.html'
p2
aS'https://www.clarin.com/sociedad/Aparecio-ballena-costa-Vicente-Lopez_0_1673232740.html'
p3
aS'https://www.clarin.com/sociedad/Protectores-indignados-Victoria-Vannucci-escrache_0_1673232722.html'
p4
a.