(lp0
Vhttps://www.clarin.com/politica/Elisa-Carrio-Sergio-Massa-Corradi_0_1645035567.html
p1
aVhttps://www.clarin.com/politica/Elisa-Carrio-Sergio-Massa-Corradi_0_1645035567.html
p2
aVhttps://www.clarin.com/sociedad/odisea-maestros-rurales-atrapados-nieve_0_1645035564.html
p3
aVhttps://www.clarin.com/sociedad/odisea-maestros-rurales-atrapados-nieve_0_1645035564.html
p4
aVhttps://www.clarin.com/ieco/cheques-podran-depositarse-celular_0_1645035560.html
p5
aVhttps://www.clarin.com/ieco/cheques-podran-depositarse-celular_0_1645035560.html
p6
aVhttps://www.clarin.com/sociedad/vino-soda-invento-mendocino_0_1645035559.html
p7
aVhttps://www.clarin.com/sociedad/vino-soda-invento-mendocino_0_1645035559.html
p8
aVhttps://www.clarin.com/sociedad/Japon-reanuda-polemica-caza-ballenas_0_1645035553.html
p9
aVhttps://www.clarin.com/sociedad/Japon-reanuda-polemica-caza-ballenas_0_1645035553.html
p10
aVhttps://www.clarin.com/politica/saludo-Macri-presidente-cuestionado_0_1645035557.html
p11
aVhttps://www.clarin.com/politica/saludo-Macri-presidente-cuestionado_0_1645035557.html
p12
a.