(lp0
Vhttps://www.clarin.com/politica/mauricio_macri-discurso_en_villa_la_angostura_0_1496850580.html
p1
aVhttps://www.clarin.com/politica/mauricio_macri-discurso_en_villa_la_angostura_0_1496850580.html
p2
aVhttps://www.clarin.com/politica/guillermo_dietrich-surfeando_0_1496850564.html
p3
aVhttps://www.clarin.com/sociedad/ahogada-intentaban-resucitarla-seguian-bailando_0_1496850554.html
p4
aVhttps://www.clarin.com/sociedad/ahogada-intentaban-resucitarla-seguian-bailando_0_1496850554.html
p5
a.