(lp0
Vhttps://www.clarin.com/sociedad/Nemo-recorrio-kilometros-extirparan-gigante_0_1586841426.html
p1
aVhttps://www.clarin.com/sociedad/Nemo-recorrio-kilometros-extirparan-gigante_0_1586841426.html
p2
aVhttps://www.clarin.com/politica/Apuran-reintegro-IVA-Senado-dictamen_0_1586841445.html
p3
aVhttps://www.clarin.com/politica/Apuran-reintegro-IVA-Senado-dictamen_0_1586841445.html
p4
aVhttps://www.clarin.com/politica/Casanello-nego-particiado-reuniones-Cristina_0_1586841437.html
p5
aVhttps://www.clarin.com/politica/Casanello-nego-particiado-reuniones-Cristina_0_1586841437.html
p6
aVhttps://www.clarin.com/ieco/INDEC-industria-cayo-construccion_0_1586841443.html
p7
a.