(lp0
Vhttps://www.clarin.com/opinion/Lavado-dinero-estafa-politica_0_1563443658.html
p1
aVhttps://www.clarin.com/politica/venta-divisas-Baez-hizo-euro_0_1562843946.html
p2
aVhttps://www.clarin.com/politica/Baez-bancos-suizos-financieras-fugar_0_1562843943.html
p3
aVhttps://www.clarin.com/politica/Baez-bancos-suizos-financieras-fugar_0_1562843943.html
p4
aVhttps://www.clarin.com/sociedad/UBA-afirman-presupuesto-alcanza-agosto_0_1562843942.html
p5
aVhttps://www.clarin.com/politica/Identifican-personales-clave-Rosadita_0_1562843944.html
p6
aVhttps://www.clarin.com/politica/Identifican-personales-clave-Rosadita_0_1562843944.html
p7
aVhttps://www.clarin.com/politica/Procesaron-Jaime-asesor-quiere-hablar_0_1562843924.html
p8
aVhttps://www.clarin.com/politica/empresarios-lanzan-contraofensiva-salga-ley_0_1562843954.html
p9
aVhttps://www.clarin.com/politica/empresarios-lanzan-contraofensiva-salga-ley_0_1562843954.html
p10
aVhttps://www.clarin.com/politica/acuerdo-levanto-bancos-operaran-normalidad_0_1563443657.html
p11
aVhttps://www.clarin.com/politica/acuerdo-levanto-bancos-operaran-normalidad_0_1563443657.html
p12
aVhttps://www.clarin.com/opinion/Fin-default-comienzo-burbuja-financiera_0_1562843911.html
p13
aVhttps://www.clarin.com/opinion/Fin-default-comienzo-burbuja-financiera_0_1562843911.html
p14
aVhttps://www.clarin.com/opinion/llegada-Uber-inevitable-futuro_0_1562843861.html
p15
aVhttps://www.clarin.com/opinion/Inundaciones-preocupan_0_1562843855.html
p16
a.