(lp0
S'https://www.clarin.com/politica/Traeran-Malvinas-velero-abandono-Campora_0_1634836577.html'
p1
aS'https://www.clarin.com/politica/Traeran-Malvinas-velero-abandono-Campora_0_1634836577.html'
p2
aS'https://www.clarin.com/politica/Massa-descarto-candidato-elecciones-proximo_0_1634836579.html'
p3
aS'https://www.clarin.com/politica/Massa-descarto-candidato-elecciones-proximo_0_1634836579.html'
p4
aS'https://www.clarin.com/ieco/economia/Presentan-proyecto-nueva-ley-semilllas_0_1634836578.html'
p5
aS'https://www.clarin.com/ieco/economia/Presentan-proyecto-nueva-ley-semilllas_0_1634836578.html'
p6
aS'https://www.clarin.com/sociedad/Pokebolas-celular-ciberideas-regalarles-chicos_0_1634836575.html'
p7
aS'https://www.clarin.com/sociedad/Pokebolas-celular-ciberideas-regalarles-chicos_0_1634836575.html'
p8
aS'https://www.clarin.com/sociedad/Senado-bonaerense-preocupado-pokemones-dependencias_0_1634836576.html'
p9
aS'https://www.clarin.com/sociedad/Senado-bonaerense-preocupado-pokemones-dependencias_0_1634836576.html'
p10
aS'https://www.clarin.com/sociedad/dias-corazon-artificial-Marianella-bien_0_1634836566.html'
p11
aS'https://www.clarin.com/sociedad/dias-corazon-artificial-Marianella-bien_0_1634836566.html'
p12
a.