(lp0
S'https://www.clarin.com/ieco/noviembre-inscriptos-IVA-emitiran-electronica_0_1654034610.html'
p1
aS'https://www.clarin.com/ieco/noviembre-inscriptos-IVA-emitiran-electronica_0_1654034610.html'
p2
aS'https://www.clarin.com/sociedad/OMS-derriba-mitos-suicidio_0_1654034609.html'
p3
aS'https://www.clarin.com/sociedad/OMS-derriba-mitos-suicidio_0_1654034609.html'
p4
aS'https://www.clarin.com/politica/denuncias-intendente-salio-bancar-Scioli_0_1654034608.html'
p5
aS'https://www.clarin.com/politica/denuncias-intendente-salio-bancar-Scioli_0_1654034608.html'
p6
aS'https://www.clarin.com/ieco/ANSeS-publico-contrato-firmar-jubilados_0_1654034607.html'
p7
aS'https://www.clarin.com/ieco/ANSeS-publico-contrato-firmar-jubilados_0_1654034607.html'
p8
aS'https://www.clarin.com/politica/Marijuan-investiga-supuestas-propiedades-Baez_0_1653434777.html'
p9
aS'https://www.clarin.com/politica/Marijuan-investiga-supuestas-propiedades-Baez_0_1653434777.html'
p10
a.