(lp0
S'https://www.clarin.com/politica/Golpe-Caballo-Suarez-desalojaron-SOMU_0_1628837320.html'
p1
aS'https://www.clarin.com/sociedad/dispositivos-casas-Wi-Fi-da-abasto_0_1628837314.html'
p2
aS'https://www.clarin.com/politica/Piden-reabra-causa-camarista-Freiler_0_1628837322.html'
p3
aS'https://www.clarin.com/politica/acuerdo-levanto-paro-petroleros-Chubut_0_1628837313.html'
p4
aS'https://www.clarin.com/politica/Avanza-acuerdo-ADN-caidos-Malvinas_0_1628837267.html'
p5
aS'https://www.clarin.com/politica/Ex-SIDE-oposicion-favor-condiciones_0_1628837325.html'
p6
aS'https://www.clarin.com/politica/Auditoria-final-Echegaray-acorralado-denuncias_0_1628837328.html'
p7
aS'https://www.clarin.com/politica/Casa-Rosada-hablan-batalla-cultural_0_1628837324.html'
p8
aS'https://www.clarin.com/ieco/economia/Catarsis-UIA-actividad-ingreso-importados_0_1628837319.html'
p9
aS'https://www.clarin.com/sociedad/Revelan-millones-celulares-riesgo-falla_0_1628837317.html'
p10
a.