(lp0
S'https://www.clarin.com/sociedad/Giro-fisioterapeuta-asesinada-apuntan-pareja_0_1571842921.html'
p1
aS'https://www.clarin.com/sociedad/Giro-fisioterapeuta-asesinada-apuntan-pareja_0_1571842921.html'
p2
aS'https://www.clarin.com/ieco/economia/Axion-prestamo-US-Banco-Mundial_0_1571842915.html'
p3
aS'https://www.clarin.com/ieco/economia/Axion-prestamo-US-Banco-Mundial_0_1571842915.html'
p4
aS'https://www.clarin.com/politica/departamentos-Cristina-Baez-Cristobal-Lopez_0_1571842916.html'
p5
aS'https://www.clarin.com/politica/departamentos-Cristina-Baez-Cristobal-Lopez_0_1571842916.html'
p6
aS'https://www.clarin.com/politica/Casanello-ordeno-captura-dueno-Rosadita_0_1571842914.html'
p7
aS'https://www.clarin.com/politica/Casanello-ordeno-captura-dueno-Rosadita_0_1571842914.html'
p8
aS'https://www.clarin.com/sociedad/Quedo-muerte-cerebral-accidente-despues_0_1571842909.html'
p9
aS'https://www.clarin.com/sociedad/Quedo-muerte-cerebral-accidente-despues_0_1571842909.html'
p10
a.