(lp0
Vhttps://www.clarin.com/ieco/Lanzan-nuevos-creditos-compra-nacionales_0_1579042127.html
p1
aVhttps://www.clarin.com/sociedad/Recuperan-Colon-descubrimiento-Nuevo-Mundo_0_1579042125.html
p2
aVhttps://www.clarin.com/sociedad/Recuperan-Colon-descubrimiento-Nuevo-Mundo_0_1579042125.html
p3
aVhttps://www.clarin.com/politica/Vido-Comodoro-Py-indagado-viunculadas_0_1579042122.html
p4
aVhttps://www.clarin.com/politica/Vido-Comodoro-Py-indagado-viunculadas_0_1579042122.html
p5
aVhttps://www.clarin.com/sociedad/Educacion-traslado-donados-Bunge-UBA_0_1579042120.html
p6
aVhttps://www.clarin.com/sociedad/Educacion-traslado-donados-Bunge-UBA_0_1579042120.html
p7
aVhttps://www.clarin.com/ieco/economia/unico-eslabon-formacion-precios_0_1579042119.html
p8
aVhttps://www.clarin.com/ieco/economia/unico-eslabon-formacion-precios_0_1579042119.html
p9
aVhttps://www.clarin.com/politica/condeno-Echegaray-catapulto-Negro-Tata_0_1579042113.html
p10
aVhttps://www.clarin.com/politica/condeno-Echegaray-catapulto-Negro-Tata_0_1579042113.html
p11
a.