(lp0
S'https://www.clarin.com/ieco/economia/endeudamiento-dolares-duplico-semestre_0_1609639050.html'
p1
aS'https://www.clarin.com/politica/Justicia-Prat-Gay-impuestos-denunciado-Echegaray_0_1609639055.html'
p2
aS'https://www.clarin.com/sociedad/Sol-Chicos-Axel-visitar-maternal_0_1609039288.html'
p3
aS'https://www.clarin.com/sociedad/laberinto-posavasos-vuelve-comensales-resolverlo_0_1609639045.html'
p4
aS'https://www.clarin.com/sociedad/Lot-Rubens-subastado-millones-dolares_0_1609639051.html'
p5
a.