(lp0
Vhttps://www.clarin.com/sociedad/Tutorial-reutilizar-frascos-vacios_0_1666633420.html
p1
aVhttps://www.clarin.com/sociedad/Tutorial-reutilizar-frascos-vacios_0_1666633420.html
p2
aVhttps://www.clarin.com/ieco/empresarios-dicen-pueden-pagar-bono_0_1666633417.html
p3
aVhttps://www.clarin.com/ieco/empresarios-dicen-pueden-pagar-bono_0_1666633417.html
p4
aVhttps://www.clarin.com/sociedad/Yom-Kipur-sagrado-comunidad-judia_0_1666633415.html
p5
aVhttps://www.clarin.com/sociedad/Yom-Kipur-sagrado-comunidad-judia_0_1666633415.html
p6
aVhttps://www.clarin.com/ieco/economia/UIA-lamento-dano-kirchnerismo-industria_0_1666633409.html
p7
aVhttps://www.clarin.com/ieco/economia/UIA-lamento-dano-kirchnerismo-industria_0_1666633409.html
p8
aVhttps://www.clarin.com/sociedad/intendente-misionero-manejando-borracho-juicio_0_1666633407.html
p9
aVhttps://www.clarin.com/sociedad/intendente-misionero-manejando-borracho-juicio_0_1666633407.html
p10
a.