(lp0
S'https://www.clarin.com/opinion/Reforma-ley-Defensa-competencia_0_1666033505.html'
p1
aS'https://www.clarin.com/opinion/Mejores-politicas-ingenieros_0_1666033504.html'
p2
aS'https://www.clarin.com/opinion/Mejores-politicas-ingenieros_0_1666033504.html'
p3
aS'https://www.clarin.com/politica/Macri-volvio-hacerse-control-rodilla_0_1666033503.html'
p4
aS'https://www.clarin.com/politica/Macri-volvio-hacerse-control-rodilla_0_1666033503.html'
p5
aS'https://www.clarin.com/opinion/San-Martin-legado-anticolonial_0_1666033502.html'
p6
aS'https://www.clarin.com/politica/Macri-recibira-Lousteau-Rosada_0_1666033499.html'
p7
aS'https://www.clarin.com/politica/Macri-recibira-Lousteau-Rosada_0_1666033499.html'
p8
aS'https://www.clarin.com/sociedad/Buscan-mujer-anos-desaparecio-Almagro_0_1666033496.html'
p9
a.