(lp0
Vhttps://www.clarin.com/ieco/economia/vez-surtidores-falta-rentabilidad_0_1526847513.html
p1
aVhttps://www.clarin.com/ieco/economia/vez-surtidores-falta-rentabilidad_0_1526847513.html
p2
aVhttps://www.clarin.com/politica/Pablo-Micheli-descartamos-nacional-marzo_0_1526847557.html
p3
aVhttps://www.clarin.com/politica/Pablo-Micheli-descartamos-nacional-marzo_0_1526847557.html
p4
aVhttps://www.clarin.com/politica/Frigerio-adelanto-Gobierno-provincias-paritaria_0_1526847552.html
p5
aVhttps://www.clarin.com/politica/Frigerio-adelanto-Gobierno-provincias-paritaria_0_1526847552.html
p6
aVhttps://www.clarin.com/politica/Lousteau-Obama-significa-Argentina-internacional_0_1526847520.html
p7
aVhttps://www.clarin.com/politica/Lousteau-Obama-significa-Argentina-internacional_0_1526847520.html
p8
aVhttps://www.clarin.com/politica/Perro-Santillan-Milagro-Sala-domicilio_0_1526847490.html
p9
aVhttps://www.clarin.com/politica/Perro-Santillan-Milagro-Sala-domicilio_0_1526847490.html
p10
aVhttps://www.clarin.com/sociedad/Dengue-pasar-fumigadores-entrar-robar_0_1526247571.html
p11
aVhttps://www.clarin.com/sociedad/Dengue-pasar-fumigadores-entrar-robar_0_1526247571.html
p12
a.