(lp0
S'https://www.clarin.com/politica/sacar-sistema-colapso_0_1513648709.html'
p1
aS'https://www.clarin.com/opinion/nuevo_escenario_politico-definir_rol_empresarial_0_1513648700.html'
p2
aS'https://www.clarin.com/politica/Luche-vuelve_0_1513648704.html'
p3
aS'https://www.clarin.com/politica/hoteles-cristina-maximo-alonso-anticorrupcion_0_1513648701.html'
p4
aS'https://www.clarin.com/politica/balza-libro_0_1513648703.html'
p5
aS'https://www.clarin.com/politica/triple_crimen-vidal-perez_corradi_0_1513648702.html'
p6
aS'https://www.clarin.com/sociedad/ensenanza-abuela_0_1513648719.html'
p7
a.