(lp0
S'https://www.clarin.com/ieco/economia/familias-chicos-pobreza-trepa_0_1551445220.html'
p1
aS'https://www.clarin.com/politica/Avanza-oficial-llevar-banda-pueblos_0_1551445219.html'
p2
aS'https://www.clarin.com/politica/Macri-discreto-acto-caidos-Malvinas_0_1551445207.html'
p3
a.