(lp0
Vhttps://www.clarin.com/sociedad/Sigue-desaparicion-argentina-mantiene-Espana_0_1645635479.html
p1
aVhttps://www.clarin.com/sociedad/Sigue-desaparicion-argentina-mantiene-Espana_0_1645635479.html
p2
aVhttps://www.clarin.com/politica/Corte-avalo-cautelar-aumentos-Provincia_0_1645635492.html
p3
aVhttps://www.clarin.com/politica/Corte-avalo-cautelar-aumentos-Provincia_0_1645635492.html
p4
aVhttps://www.clarin.com/sociedad/destrozo-cartel-entrada-Villa-Gesell_0_1645635487.html
p5
aVhttps://www.clarin.com/sociedad/destrozo-cartel-entrada-Villa-Gesell_0_1645635487.html
p6
aVhttps://www.clarin.com/sociedad/Cuantas-horas-semana-jugar-videojuegos_0_1645635484.html
p7
aVhttps://www.clarin.com/sociedad/Cuantas-horas-semana-jugar-videojuegos_0_1645635484.html
p8
aVhttps://www.clarin.com/politica/Dolar-Cristina-Kirchner-sobreseimiento-embargo_0_1645635483.html
p9
aVhttps://www.clarin.com/politica/Dolar-Cristina-Kirchner-sobreseimiento-embargo_0_1645635483.html
p10
aVhttps://www.clarin.com/ieco/economia/Llega-mision-mayores-empresas-Brasil_0_1645635482.html
p11
aVhttps://www.clarin.com/ieco/economia/Llega-mision-mayores-empresas-Brasil_0_1645635482.html
p12
aVhttps://www.clarin.com/politica/Finalmente-Kirchner-aceptaron-llave-hotel_0_1645635438.html
p13
aVhttps://www.clarin.com/politica/Finalmente-Kirchner-aceptaron-llave-hotel_0_1645635438.html
p14
a.