(lp0
S'https://www.clarin.com/sociedad/cocacolero-sobrevive-paso-tiempo_0_1582641756.html'
p1
aS'https://www.clarin.com/ieco/economia/Paul-Polman-requiere-rediseno-economia_0_1582641751.html'
p2
aS'https://www.clarin.com/sociedad/Docentes-universitarios-Conadu-Historica-acuerdo_0_1582641755.html'
p3
aS'https://www.clarin.com/ieco/Subas-gobernadores-parece-insuficiente-limite_0_1582641745.html'
p4
aS'https://www.clarin.com/politica/obispo-critico-Gobierno-aumentos-tarifas_0_1582641754.html'
p5
aS'https://www.clarin.com/ieco/IVA-anticipos-retenciones-impositivos-Pymes_0_1582641750.html'
p6
aS'https://www.clarin.com/sociedad/paro-maestros-Provincia-suma-medicos_0_1582641747.html'
p7
a.