(lp0
Vhttps://www.clarin.com/sociedad/usurparon-semana-Twitter-peleando-ocupantes_0_1679832119.html
p1
aVhttps://www.clarin.com/sociedad/usurparon-semana-Twitter-peleando-ocupantes_0_1679832119.html
p2
aVhttps://www.clarin.com/sociedad/Burger-Calderon-millennials-sobreeducados-comen-verso_0_1679832117.html
p3
aVhttps://www.clarin.com/sociedad/Burger-Calderon-millennials-sobreeducados-comen-verso_0_1679832117.html
p4
aVhttps://www.clarin.com/sociedad/tijeras-Escandinavia_0_1679832116.html
p5
aVhttps://www.clarin.com/sociedad/tijeras-Escandinavia_0_1679832116.html
p6
aVhttps://www.clarin.com/politica/Fuerte-Senado-Formosa-Insfran-narcotrafico_0_1679832114.html
p7
aVhttps://www.clarin.com/politica/Fuerte-Senado-Formosa-Insfran-narcotrafico_0_1679832114.html
p8
a.