(lp0
Vhttps://www.clarin.com/sociedad/Detienen-hombre-producir-sexuales-menores_0_1684631574.html
p1
aVhttps://www.clarin.com/politica/costado-desconocido-sindicalista-paraliza-pastelero_0_1684631571.html
p2
aVhttps://www.clarin.com/politica/costado-desconocido-sindicalista-paraliza-pastelero_0_1684631571.html
p3
aVhttps://www.clarin.com/sociedad/mujeres-denuncian-Pity-Alvarez-encerro_0_1684631570.html
p4
aVhttps://www.clarin.com/sociedad/mujeres-denuncian-Pity-Alvarez-encerro_0_1684631570.html
p5
aVhttps://www.clarin.com/sociedad/Paro-docente-Vidal-ratifico-descontara_0_1684631566.html
p6
aVhttps://www.clarin.com/sociedad/Paro-docente-Vidal-ratifico-descontara_0_1684631566.html
p7
aVhttps://www.clarin.com/ieco/Emiten-Letras-US-millones-ANSES_0_1684631567.html
p8
aVhttps://www.clarin.com/ieco/Emiten-Letras-US-millones-ANSES_0_1684631567.html
p9
a.