(lp0
Vhttps://www.clarin.com/politica/Detuvieron-Paraguay-Corradi-Triple-Crimen_0_1598240186.html
p1
aVhttps://www.clarin.com/politica/Detuvieron-Paraguay-Corradi-Triple-Crimen_0_1598240186.html
p2
aVhttps://www.clarin.com/politica/Macri-Tucuman-mostro-enviado-Papa_0_1598240183.html
p3
aVhttps://www.clarin.com/politica/Macri-Tucuman-mostro-enviado-Papa_0_1598240183.html
p4
aVhttps://www.clarin.com/sociedad/Video-empleado-Disney-caiman-montana_0_1598240179.html
p5
aVhttps://www.clarin.com/sociedad/Video-empleado-Disney-caiman-montana_0_1598240179.html
p6
aVhttps://www.clarin.com/politica/Recalde-Iglesia-resistir-pedofilos-corruptos_0_1598240178.html
p7
aVhttps://www.clarin.com/politica/Recalde-Iglesia-resistir-pedofilos-corruptos_0_1598240178.html
p8
a.