(lp0
Vhttps://www.clarin.com/opinion/Ir-Hillary-volver-Trump_0_1684631524.html
p1
aVhttps://www.clarin.com/politica/Gobierno-rescindiria-concesiones-Cristobal-Lopez_0_1684031727.html
p2
aVhttps://www.clarin.com/politica/Gobierno-rescindiria-concesiones-Cristobal-Lopez_0_1684031727.html
p3
aVhttps://www.clarin.com/sociedad/primera-provincia-aceite-cannabis-tratamiento_0_1684031795.html
p4
aVhttps://www.clarin.com/sociedad/primera-provincia-aceite-cannabis-tratamiento_0_1684031795.html
p5
a.