(lp0
S'https://www.clarin.com/politica/Gobierno-modifico-Presupuesto-millones-subsidios_0_1636636326.html'
p1
aS'https://www.clarin.com/politica/sospechas-Vido-fondos-viviendas-Rioja_0_1636036514.html'
p2
aS'https://www.clarin.com/politica/EEUU-buscar-cuentas-vinculadas-Baez_0_1636036542.html'
p3
aS'https://www.clarin.com/politica/Gomez-Centurion-cable-vinculo-efedrina_0_1636636331.html'
p4
aS'https://www.clarin.com/opinion/reformas-hoja-ruta_0_1636036475.html'
p5
aS'https://www.clarin.com/politica/Imputan-jefe-Aduana-acusa-SIDE_0_1636036516.html'
p6
aS'https://www.clarin.com/politica/Faraon-Lorenzetti-temor-Macri-inversiones_0_1636036543.html'
p7
aS'https://www.clarin.com/politica/Revelan-Cristina-movimientos-sospechosos-US_0_1636036528.html'
p8
aS'https://www.clarin.com/politica/suspension-Gomez-Centurion-polemica-curarse_0_1636036521.html'
p9
aS'https://www.clarin.com/sociedad/Salvar-principal-mision-manejan-solos_0_1636036525.html'
p10
a.