(lp0
S'https://www.clarin.com/ieco/economia/Llach-caminos-pagos-moviles_0_1640236005.html'
p1
aS'https://www.clarin.com/ieco/economia/Crece-guerra-tarjetas-Gobierno-comercios_0_1640236003.html'
p2
aS'https://www.clarin.com/ieco/economia/Crece-guerra-tarjetas-Gobierno-comercios_0_1640236003.html'
p3
aS'https://www.clarin.com/ieco/economia/reforma-mercado-capitales_0_1640236002.html'
p4
aS'https://www.clarin.com/ieco/economia/reforma-mercado-capitales_0_1640236002.html'
p5
aS'https://www.clarin.com/ieco/economia/Crisis-productividad-EEUU_0_1640235996.html'
p6
aS'https://www.clarin.com/ieco/economia/Crisis-productividad-EEUU_0_1640235996.html'
p7
aS'https://www.clarin.com/ieco/economia/peso-cosecha-baja-inflacion_0_1640235995.html'
p8
aS'https://www.clarin.com/politica/Gobernadores-intendentes-peronista-cierra-encuentro_0_1639036154.html'
p9
aS'https://www.clarin.com/politica/Gobernadores-intendentes-peronista-cierra-encuentro_0_1639036154.html'
p10
aS'https://www.clarin.com/ieco/Desinflacion-palabra-viene_0_1639636190.html'
p11
a.