(lp0
S'https://www.clarin.com/sociedad/Sorpresa-San-Luis-meteoro-Merlo_0_1646235413.html'
p1
aS'https://www.clarin.com/politica/Stolbizer-parece-Presidente-descalifique-Massa_0_1646235409.html'
p2
aS'https://www.clarin.com/politica/Stolbizer-parece-Presidente-descalifique-Massa_0_1646235409.html'
p3
aS'https://www.clarin.com/ieco/Europa-quiere-Google-medios-contenidos_0_1646235407.html'
p4
aS'https://www.clarin.com/ieco/Europa-quiere-Google-medios-contenidos_0_1646235407.html'
p5
aS'https://www.clarin.com/politica/fallo-Lorenzetti-Vaticano-hablar-ambiente_0_1646235403.html'
p6
aS'https://www.clarin.com/politica/fallo-Lorenzetti-Vaticano-hablar-ambiente_0_1646235403.html'
p7
aS'https://www.clarin.com/ieco/construccion-recuperarse-insumos-cayeron-agosto_0_1646235401.html'
p8
aS'https://www.clarin.com/ieco/construccion-recuperarse-insumos-cayeron-agosto_0_1646235401.html'
p9
aS'https://www.clarin.com/politica/Milani-politica-buscando-espacio-politico_0_1645635457.html'
p10
aS'https://www.clarin.com/politica/Milani-politica-buscando-espacio-politico_0_1645635457.html'
p11
a.