(lp0
Vhttps://www.clarin.com/ieco/management/Claves-CEO-exitoso_0_1643235833.html
p1
aVhttps://www.clarin.com/ieco/economia/salida-Dilma-Brasil-busca-mercados_0_1643235805.html
p2
aVhttps://www.clarin.com/ieco/economia/salida-Dilma-Brasil-busca-mercados_0_1643235805.html
p3
aVhttps://www.clarin.com/opinion/Dilma-Lula-Cristina-Scioli-Macri_0_1643835752.html
p4
aVhttps://www.clarin.com/opinion/Vendo-Plaza-Mayo-ideal-torre_0_1643835747.html
p5
aVhttps://www.clarin.com/opinion/Vendo-Plaza-Mayo-ideal-torre_0_1643835747.html
p6
aVhttps://www.clarin.com/politica/efedrina-Justicia-complico-Anibal-Fernandez_0_1643835765.html
p7
aVhttps://www.clarin.com/politica/efedrina-Justicia-complico-Anibal-Fernandez_0_1643835765.html
p8
aVhttps://www.clarin.com/opinion/cosas-hacen-llorar_0_1643835721.html
p9
aVhttps://www.clarin.com/opinion/piropo-puede-violento_0_1643835751.html
p10
aVhttps://www.clarin.com/opinion/piropo-puede-violento_0_1643835751.html
p11
aVhttps://www.clarin.com/politica/Pases-factura-amenazas-retoques-Gobierno_0_1643835771.html
p12
aVhttps://www.clarin.com/politica/Encontraron-mansiones-Lazaro-Baez-Pinamar_0_1643835773.html
p13
aVhttps://www.clarin.com/politica/Encontraron-mansiones-Lazaro-Baez-Pinamar_0_1643835773.html
p14
aVhttps://www.clarin.com/sociedad/secretarias-alma-oficina-app-reemplace_0_1643835738.html
p15
aVhttps://www.clarin.com/sociedad/secretarias-alma-oficina-app-reemplace_0_1643835738.html
p16
aVhttps://www.clarin.com/sociedad/manifestaciones-Aerolineas-Argentinas-volara-Caracas_0_1643835775.html
p17
a.