(lp0
Vhttps://www.clarin.com/politica/Oyarbide-denunciado-enriquecimiento-ilicito_0_1663033797.html
p1
aVhttps://www.clarin.com/politica/Oyarbide-denunciado-enriquecimiento-ilicito_0_1663033797.html
p2
aVhttps://www.clarin.com/politica/Allanan-San-Fernando-investigan-vinculacion_0_1663033787.html
p3
aVhttps://www.clarin.com/politica/Allanan-San-Fernando-investigan-vinculacion_0_1663033787.html
p4
aVhttps://www.clarin.com/sociedad/Locos-cerveza-familia-anos-Oktoberfest_0_1663033784.html
p5
aVhttps://www.clarin.com/sociedad/Locos-cerveza-familia-anos-Oktoberfest_0_1663033784.html
p6
a.