(lp0
S'https://www.clarin.com/politica/Advierten-politico-denunciado-Sabbatella-probado_0_1536446533.html'
p1
aS'https://www.clarin.com/sociedad/despedida-ejemplo-fortaleza-alegria-vivir_0_1536446545.html'
p2
aS'https://www.clarin.com/ieco/economia/Corte-pronunciara-juicios-cepo-dolar_0_1536446542.html'
p3
aS'https://www.clarin.com/politica/Bossio-vinculo-Cristina-propaganda_0_1536446539.html'
p4
aS'https://www.clarin.com/sociedad/beso-Naomi_0_1536446548.html'
p5
aS'https://www.clarin.com/sociedad/grabaron-desnuda-recibira-indemnizacion-millonaria_0_1536446546.html'
p6
aS'https://www.clarin.com/politica/Blejer-advierte-buitres-terminar-devaluando_0_1536446547.html'
p7
aS'https://www.clarin.com/politica/Misiones-protesta-cachetazo-ministro-TV_0_1536446551.html'
p8
aS'https://www.clarin.com/ieco/prestamos-comerciales-cayeron-febrero_0_1536446564.html'
p9
a.