(lp0
S'https://www.clarin.com/opinion/Carrio-propio-poder-usa-siempre_0_1678032184.html'
p1
aS'https://www.clarin.com/ieco/economia/America-Latina-algoritmos_0_1676832438.html'
p2
aS'https://www.clarin.com/politica/Macri-tentacion-peligro-enfrentar-Cristina_0_1677432328.html'
p3
aS'https://www.clarin.com/ieco/economia/cambios-politicos-China_0_1676832441.html'
p4
aS'https://www.clarin.com/ieco/economia/riesgo-merece-espacio-carteras-inversion_0_1676832439.html'
p5
aS'https://www.clarin.com/ieco/economia/Impacto-Argentina-cambio-Time-Warner_0_1676832432.html'
p6
aS'https://www.clarin.com/ieco/afterwork/Llega-nueva-edicion-Vinos-Lujo_0_1676832444.html'
p7
aS'https://www.clarin.com/ieco/economia/mano-Sturzenegger_0_1676832460.html'
p8
aS'https://www.clarin.com/ieco/economia/Macri-prepara-futuro-Massa_0_1676832458.html'
p9
aS'https://www.clarin.com/ieco/economia/elecciones-peso-va-ganar-dolar_0_1676832429.html'
p10
aS'https://www.clarin.com/ieco/economia/China-alcanza-asegurar-crecimiento-economico_0_1676832451.html'
p11
a.