(lp0
S'https://www.clarin.com/politica/Das-Neves-sintiera-limitacion-primero_0_1675632457.html'
p1
aS'https://www.clarin.com/politica/Latas-expedientes-increibles-Mafia-Aduana_0_1675632460.html'
p2
aS'https://www.clarin.com/sociedad/Altisima-cocina-reunen-lideres-mundo_0_1675632467.html'
p3
aS'https://www.clarin.com/sociedad/adicto-vivia-calle-ahora-millonario_0_1675632453.html'
p4
aS'https://www.clarin.com/ieco/ingreso-pareja-profesionales-cuota-hipotecaria_0_1675632465.html'
p5
a.