(lp0
S'https://www.clarin.com/politica/gabinete-reunion-inflacion_0_1520248421.html'
p1
aS'https://www.clarin.com/ieco/economia/AFIP-oficializo-permanente-deudores-impositivos_0_1520248133.html'
p2
aS'https://www.clarin.com/opinion/Zika-OMS-epidemias-emergencia_sanitaria-acceso_a_la_salud_0_1520847930.html'
p3
aS'https://www.clarin.com/opinion/Presidencias-estilos_de_liderazgo-Cristina_Kirchner-Mauricio_Macri_0_1520847931.html'
p4
aS'https://www.clarin.com/politica/impostura-Boudou_0_1520847934.html'
p5
aS'https://www.clarin.com/opinion/paritarias-acuerdo_social-sindicatos-condiciones_laborales_0_1520847929.html'
p6
aS'https://www.clarin.com/sociedad/Twitter-cambia-cara-conseguir-usuarios_0_1520248382.html'
p7
aS'https://www.clarin.com/ieco/Paritarias_2016-Comercio-Cavalieri-CAME-CAC_0_1520847922.html'
p8
aS'https://www.clarin.com/politica/Paritarias_2016-Mauricio_Macri-Gremios-Moyano-Calo_0_1520847923.html'
p9
a.