(lp0
Vhttps://www.clarin.com/sociedad/hijas-Rolling-Stones-modelos-Argentina_0_1648035201.html
p1
aVhttps://www.clarin.com/sociedad/hijas-Rolling-Stones-modelos-Argentina_0_1648035201.html
p2
aVhttps://www.clarin.com/sociedad/proyecto-solidario-skaters-argentinas-Africa_0_1643235868.html
p3
aVhttps://www.clarin.com/sociedad/proyecto-solidario-skaters-argentinas-Africa_0_1643235868.html
p4
aVhttps://www.clarin.com/politica/Gobierno-insiste-inflacion-problema-superado_0_1648035221.html
p5
aVhttps://www.clarin.com/politica/Gobierno-insiste-inflacion-problema-superado_0_1648035221.html
p6
aVhttps://www.clarin.com/sociedad/Iglesia-alerta-pobreza-creciente-solidaridad_0_1648035220.html
p7
aVhttps://www.clarin.com/sociedad/Iglesia-alerta-pobreza-creciente-solidaridad_0_1648035220.html
p8
a.