(lp0
Vhttps://www.clarin.com/politica/Moreno-cotillon-Clarin-pagaban-empresarios_0_1562843854.html
p1
aVhttps://www.clarin.com/politica/Moreno-cotillon-Clarin-pagaban-empresarios_0_1562843854.html
p2
aVhttps://www.clarin.com/politica/insolita-historia-containers-nadie-reclamar_0_1561643863.html
p3
aVhttps://www.clarin.com/politica/argumentos-Bonadio-rechazar-recusacion-Cristina_0_1562843839.html
p4
aVhttps://www.clarin.com/politica/argumentos-Bonadio-rechazar-recusacion-Cristina_0_1562843839.html
p5
aVhttps://www.clarin.com/sociedad/Lemus-advirtio-lluvias-repico-dengue_0_1562843837.html
p6
aVhttps://www.clarin.com/sociedad/Lemus-advirtio-lluvias-repico-dengue_0_1562843837.html
p7
aVhttps://www.clarin.com/sociedad/Armada-envia-barcos-ayudar-inundados_0_1562843834.html
p8
aVhttps://www.clarin.com/sociedad/Armada-envia-barcos-ayudar-inundados_0_1562843834.html
p9
aVhttps://www.clarin.com/politica/modelo-acuso-Berni-anticipar-allanamientos_0_1562843838.html
p10
aVhttps://www.clarin.com/politica/modelo-acuso-Berni-anticipar-allanamientos_0_1562843838.html
p11
a.