(lp0
Vhttps://www.clarin.com/sociedad/pareja-mujeres-inscribir-despues-espera_0_1571242953.html
p1
aVhttps://www.clarin.com/sociedad/pareja-mujeres-inscribir-despues-espera_0_1571242953.html
p2
aVhttps://www.clarin.com/politica/propio-intendente-Comodoro-Rivadavia-petroleros_0_1571242947.html
p3
aVhttps://www.clarin.com/politica/propio-intendente-Comodoro-Rivadavia-petroleros_0_1571242947.html
p4
aVhttps://www.clarin.com/politica/Ahora-pondran-negra-rompehielos-Irizar_0_1571242945.html
p5
aVhttps://www.clarin.com/politica/Ahora-pondran-negra-rompehielos-Irizar_0_1571242945.html
p6
aVhttps://www.clarin.com/sociedad/avion-Aerolineas-rozo-LATAM-Aeroparque_0_1571242943.html
p7
aVhttps://www.clarin.com/sociedad/avion-Aerolineas-rozo-LATAM-Aeroparque_0_1571242943.html
p8
aVhttps://www.clarin.com/sociedad/chicos-argentinos-pobre_0_1570643142.html
p9
aVhttps://www.clarin.com/sociedad/chicos-argentinos-pobre_0_1570643142.html
p10
aVhttps://www.clarin.com/politica/Vargas-Llosa-necesita-haciendo-Argentina_0_1571242936.html
p11
aVhttps://www.clarin.com/politica/Vargas-Llosa-necesita-haciendo-Argentina_0_1571242936.html
p12
a.