(lp0
Vhttps://www.clarin.com/politica/Suris-imputado-facturas-truchas-Baez_0_1544245844.html
p1
aVhttps://www.clarin.com/politica/Suris-imputado-facturas-truchas-Baez_0_1544245844.html
p2
aVhttps://www.clarin.com/politica/vicegobernador-acusa-Casanello-socio-Cristina_0_1544245802.html
p3
aVhttps://www.clarin.com/politica/vicegobernador-acusa-Casanello-socio-Cristina_0_1544245802.html
p4
aVhttps://www.clarin.com/politica/vice-Kirchner-Casanello-socio-Cristina_0_1544245825.html
p5
aVhttps://www.clarin.com/politica/vice-Kirchner-Casanello-socio-Cristina_0_1544245825.html
p6
aVhttps://www.clarin.com/sociedad/Advierten-mantendra-tendencia-desastres-climaticos_0_1544245817.html
p7
aVhttps://www.clarin.com/sociedad/Advierten-mantendra-tendencia-desastres-climaticos_0_1544245817.html
p8
aVhttps://www.clarin.com/sociedad/Gran-Barrera-Coral-alerta-maxima_0_1544245815.html
p9
aVhttps://www.clarin.com/sociedad/Gran-Barrera-Coral-alerta-maxima_0_1544245815.html
p10
a.