(lp0
S'https://www.clarin.com/sociedad/Mato-punalada-perro-labrador-detenido_0_1537646568.html'
p1
aS'https://www.clarin.com/politica/Nuevas-sospechas-denuncias-Cristina-Kirchner_0_1537646544.html'
p2
aS'https://www.clarin.com/politica/Nuevas-sospechas-denuncias-Cristina-Kirchner_0_1537646544.html'
p3
aS'https://www.clarin.com/sociedad/gesto-solidario-Tevez-visito-cancer_0_1537646557.html'
p4
aS'https://www.clarin.com/sociedad/gesto-solidario-Tevez-visito-cancer_0_1537646557.html'
p5
aS'https://www.clarin.com/politica/Ottavis-Web-version-denuncias-violencia_0_1537646547.html'
p6
aS'https://www.clarin.com/politica/Ottavis-Web-version-denuncias-violencia_0_1537646547.html'
p7
aS'https://www.clarin.com/sociedad/Renuncio-funcionaria-Ecuador-declaraciones-mendocinas_0_1537646551.html'
p8
aS'https://www.clarin.com/sociedad/Renuncio-funcionaria-Ecuador-declaraciones-mendocinas_0_1537646551.html'
p9
a.