(lp0
Vhttps://www.clarin.com/politica/Cristina-nueva-cita-Bonadio-miercoles_0_1607239318.html
p1
aVhttps://www.clarin.com/politica/Cristina-nueva-cita-Bonadio-miercoles_0_1607239318.html
p2
aVhttps://www.clarin.com/politica/video-Macri-Independencia-gente-comun_0_1607239323.html
p3
aVhttps://www.clarin.com/politica/video-Macri-Independencia-gente-comun_0_1607239323.html
p4
aVhttps://www.clarin.com/ieco/canasta-basica-aumento-junio_0_1607239322.html
p5
aVhttps://www.clarin.com/ieco/canasta-basica-aumento-junio_0_1607239322.html
p6
aVhttps://www.clarin.com/politica/Jose-Lopez-pidio-excarcelacion_0_1607239321.html
p7
aVhttps://www.clarin.com/politica/Jose-Lopez-pidio-excarcelacion_0_1607239321.html
p8
aVhttps://www.clarin.com/sociedad/cuesta-clonar-perro_0_1607239317.html
p9
aVhttps://www.clarin.com/sociedad/cuesta-clonar-perro_0_1607239317.html
p10
aVhttps://www.clarin.com/sociedad/Arturo-reavivo-polemica-animales-cautiverio_0_1607239314.html
p11
aVhttps://www.clarin.com/sociedad/Arturo-reavivo-polemica-animales-cautiverio_0_1607239314.html
p12
aVhttps://www.clarin.com/sociedad/Amenaza-bomba-Ideas-Sur_0_1607239316.html
p13
aVhttps://www.clarin.com/sociedad/Amenaza-bomba-Ideas-Sur_0_1607239316.html
p14
aVhttps://www.clarin.com/sociedad/vino-tomara-Macri-Julio_0_1607239310.html
p15
aVhttps://www.clarin.com/sociedad/vino-tomara-Macri-Julio_0_1607239310.html
p16
a.