(lp0
S'https://www.clarin.com/ieco/reavivan-importaciones-alimentos-reclaman-ponerles_0_1548445432.html'
p1
aS'https://www.clarin.com/sociedad/Detienen-suboficial-Armada-hijastra-filmarlo_0_1548445441.html'
p2
aS'https://www.clarin.com/sociedad/Espectacular-hallazgo-perrito-Edad-Hielo_0_1548445414.html'
p3
aS'https://www.clarin.com/politica/Gobierno-ONU-reconocio-soberania-Malvinas_0_1548445445.html'
p4
a.