(lp0
S'https://www.clarin.com/politica/Intendentes-peronistas-Gobierno-Audiencia-Publica_0_1513048834.html'
p1
aS'https://www.clarin.com/sociedad/Encontraron-cuerpo-desaparecida-familia-femicidio_0_1513048822.html'
p2
aS'https://www.clarin.com/sociedad/Declaran-emergencia-hidrica-provincias-Nino_0_1513048845.html'
p3
aS'https://www.clarin.com/ieco/economia/Plata-creditos-sector-fruticola_0_1513048842.html'
p4
aS'https://www.clarin.com/politica/Brasil-Macri-bailando-promocionar-carnaval_0_1513048849.html'
p5
a.