(lp0
S'https://www.clarin.com/sociedad/chino-sorprende-llanto-noche-morgue_0_1519648332.html'
p1
aS'https://www.clarin.com/sociedad/chino-sorprende-llanto-noche-morgue_0_1519648332.html'
p2
aS'https://www.clarin.com/sociedad/Parana-Salado-siguen-evacuadas-personas_0_1519648321.html'
p3
aS'https://www.clarin.com/sociedad/Parana-Salado-siguen-evacuadas-personas_0_1519648321.html'
p4
aS'https://www.clarin.com/sociedad/Festejan-chino-robots-flota-drones_0_1519648317.html'
p5
aS'https://www.clarin.com/sociedad/Festejan-chino-robots-flota-drones_0_1519648317.html'
p6
aS'https://www.clarin.com/sociedad/marido-pidio-divorcio-furor-Instagram_0_1519648301.html'
p7
aS'https://www.clarin.com/sociedad/marido-pidio-divorcio-furor-Instagram_0_1519648301.html'
p8
a.