(lp0
Vhttps://www.clarin.com/sociedad/gustos-helados-raros-fernet-palta-cerveza_0_1681031989.html
p1
aVhttps://www.clarin.com/sociedad/profecia-Mao_0_1681631876.html
p2
aVhttps://www.clarin.com/sociedad/profecia-Mao_0_1681631876.html
p3
aVhttps://www.clarin.com/politica/cara-macrismo-habla-clausulas-gatillo_0_1681631874.html
p4
aVhttps://www.clarin.com/opinion/Boudou-patas-Juan-Molina_0_1681631871.html
p5
aVhttps://www.clarin.com/opinion/gloria-Devoto_0_1681631870.html
p6
aVhttps://www.clarin.com/sociedad/FOPEA-entrego-premios-periodismo-investigacion_0_1681631869.html
p7
aVhttps://www.clarin.com/sociedad/FOPEA-entrego-premios-periodismo-investigacion_0_1681631869.html
p8
aVhttps://www.clarin.com/politica/Cristina-arrastrar-Massa-Alberto-Fernandez_0_1681032094.html
p9
aVhttps://www.clarin.com/politica/Cristina-arrastrar-Massa-Alberto-Fernandez_0_1681032094.html
p10
aVhttps://www.clarin.com/politica/presion-Vidal-reabre-paritaria-estatales_0_1681032091.html
p11
aVhttps://www.clarin.com/sociedad/leyes-familia_0_1680432081.html
p12
a.