(lp0
Vhttps://www.clarin.com/politica/Milagro_Sala-Gerardo_Morales-Jujuy-Tupac_Amaru_0_1504049754.html
p1
aVhttps://www.clarin.com/politica/Milagro_Sala-Gerardo_Morales-Jujuy-Tupac_Amaru_0_1504049754.html
p2
aVhttps://www.clarin.com/ieco/economia/Arrastradas-petroleo-bolsas-caen_0_1504049751.html
p3
aVhttps://www.clarin.com/ieco/economia/Arrastradas-petroleo-bolsas-caen_0_1504049751.html
p4
aVhttps://www.clarin.com/politica/Triple_Fuga-Victor_Schillaci-Cristian_Lanatta_0_1504049745.html
p5
aVhttps://www.clarin.com/politica/Triple_Fuga-Victor_Schillaci-Cristian_Lanatta_0_1504049745.html
p6
aVhttps://www.clarin.com/sociedad/Neuquen-taxistas-aprender-buenos-modales_0_1504049744.html
p7
aVhttps://www.clarin.com/sociedad/Neuquen-taxistas-aprender-buenos-modales_0_1504049744.html
p8
aVhttps://www.clarin.com/sociedad/Bahia-Blanca-resarcimiento-descuento-boleta_0_1504049732.html
p9
aVhttps://www.clarin.com/sociedad/Bahia-Blanca-resarcimiento-descuento-boleta_0_1504049732.html
p10
aVhttps://www.clarin.com/ieco/economia/Aumentaron-gasto-publico-millones_0_1504049737.html
p11
aVhttps://www.clarin.com/sociedad/mujeres-salvaron-milagro-atropelladas-camion_0_1503449951.html
p12
aVhttps://www.clarin.com/sociedad/mujeres-salvaron-milagro-atropelladas-camion_0_1503449951.html
p13
aVhttps://www.clarin.com/ieco/economia/Fuerte-ajuste-minera-Sierra-Grande_0_1504049735.html
p14
a.