(lp0
S'https://www.clarin.com/politica/Denuncian-Maximo-presunto-testaferro-Kirchner_0_1659434043.html'
p1
aS'https://www.clarin.com/sociedad/Dicen-Diana-Quer-desaparecida-Espana_0_1659434084.html'
p2
aS'https://www.clarin.com/politica/Macri-chicana-oficial-mirando-Tinelli_0_1659434095.html'
p3
aS'https://www.clarin.com/ieco/FMI-avances-economia-advierte-inflacion_0_1659434098.html'
p4
aS'https://www.clarin.com/sociedad/Villa-punaladas-chica-buscan-pareja_0_1659434089.html'
p5
aS'https://www.clarin.com/sociedad/Hablo-director-colegio-expulso-publicar_0_1659434082.html'
p6
a.