(lp0
S'https://www.clarin.com/politica/puntos-proyecto-Modernizacion-Macri_0_1527447492.html'
p1
aS'https://www.clarin.com/politica/puntos-proyecto-Modernizacion-Macri_0_1527447492.html'
p2
aS'https://www.clarin.com/sociedad/Recomendaciones-hacer-mordedura-vibora_0_1527447488.html'
p3
aS'https://www.clarin.com/sociedad/Recomendaciones-hacer-mordedura-vibora_0_1527447488.html'
p4
aS'https://www.clarin.com/sociedad/Rodriguez-Larreta-payaso_0_1527447486.html'
p5
aS'https://www.clarin.com/sociedad/Rodriguez-Larreta-payaso_0_1527447486.html'
p6
aS'https://www.clarin.com/ieco/economia/Nombran-Federico-Rava-Telefonica-Argentina_0_1527447475.html'
p7
aS'https://www.clarin.com/politica/Pena-gremios-docentes-manipular-paritaria_0_1527447476.html'
p8
aS'https://www.clarin.com/politica/Pena-gremios-docentes-manipular-paritaria_0_1527447476.html'
p9
aS'https://www.clarin.com/politica/fical-pericia-bienes-general-Milani_0_1527447473.html'
p10
aS'https://www.clarin.com/politica/fical-pericia-bienes-general-Milani_0_1527447473.html'
p11
aS'https://www.clarin.com/politica/Gobierno-promete-analizar-Ganancias-jubilaciones_0_1527447470.html'
p12
aS'https://www.clarin.com/politica/Gobierno-promete-analizar-Ganancias-jubilaciones_0_1527447470.html'
p13
a.