(lp0
Vhttps://www.clarin.com/politica/Macri-cifra-desaparecidos-idea_0_1629437226.html
p1
aVhttps://www.clarin.com/sociedad/Revelan-ciclistas-pesan-kilos-automovilistas_0_1629437225.html
p2
aVhttps://www.clarin.com/sociedad/Revelan-ciclistas-pesan-kilos-automovilistas_0_1629437225.html
p3
aVhttps://www.clarin.com/sociedad/Diputados-pide-investigue-medicinal-cannabis_0_1629437220.html
p4
aVhttps://www.clarin.com/sociedad/Diputados-pide-investigue-medicinal-cannabis_0_1629437220.html
p5
aVhttps://www.clarin.com/politica/Feinmann-fallida-audencia-CFK-callar_0_1629437212.html
p6
aVhttps://www.clarin.com/politica/Feinmann-fallida-audencia-CFK-callar_0_1629437212.html
p7
aVhttps://www.clarin.com/politica/Cristina-Patricia-Bullrich-Twitter-ministra_0_1629437210.html
p8
aVhttps://www.clarin.com/politica/Cristina-Patricia-Bullrich-Twitter-ministra_0_1629437210.html
p9
aVhttps://www.clarin.com/politica/Mini-reunion-secretaria-Comercio_0_1629437200.html
p10
aVhttps://www.clarin.com/politica/Mini-reunion-secretaria-Comercio_0_1629437200.html
p11
a.