(lp0
S'https://www.clarin.com/sociedad/puede-moverse-bolsillos_0_1651635004.html'
p1
aS'https://www.clarin.com/sociedad/puede-moverse-bolsillos_0_1651635004.html'
p2
aS'https://www.clarin.com/opinion/refranero-mona-vista-seda-queda_0_1651635003.html'
p3
aS'https://www.clarin.com/opinion/Malvinas-martes_0_1651634999.html'
p4
aS'https://www.clarin.com/ieco/Conferencia-viajes-corporativos_0_1651634996.html'
p5
aS'https://www.clarin.com/ieco/Conferencia-viajes-corporativos_0_1651634996.html'
p6
aS'https://www.clarin.com/sociedad/suerte-tipo_0_1651634994.html'
p7
aS'https://www.clarin.com/sociedad/Mundos-intimos-casino-soledad-jugadores_0_1651634993.html'
p8
aS'https://www.clarin.com/sociedad/Mundos-intimos-casino-soledad-jugadores_0_1651634993.html'
p9
aS'https://www.clarin.com/sociedad/incidentes-vecinos-Jachal-pidieron-cierren_0_1651634985.html'
p10
aS'https://www.clarin.com/sociedad/incidentes-vecinos-Jachal-pidieron-cierren_0_1651634985.html'
p11
aS'https://www.clarin.com/ieco/economia/primera-llega-FMI-auditar-economia_0_1651634983.html'
p12
aS'https://www.clarin.com/ieco/economia/primera-llega-FMI-auditar-economia_0_1651634983.html'
p13
a.