(lp0
S'https://www.clarin.com/ieco/economia/Eliminan-retenciones-exportacion-productos-organicos_0_1524447761.html'
p1
aS'https://www.clarin.com/ieco/cortes-electricidad-calor-edenor-edesur_0_1524447754.html'
p2
aS'https://www.clarin.com/ieco/economia/Gobierno-Comision-Nacional-Defensa-Competencia_0_1524447744.html'
p3
aS'https://www.clarin.com/sociedad/Hallan-Jerusalen-restos-asentamiento-anos_0_1524447732.html'
p4
aS'https://www.clarin.com/politica/Hablo-recibio-primera-Qunita-desconfianza_0_1524447739.html'
p5
aS'https://www.clarin.com/politica/renovador-pedidos-Vidal-medio-bonaerense_0_1524447709.html'
p6
a.