(lp0
S'https://www.clarin.com/sociedad/Demoran-micro-chofer-drogado_0_1525047795.html'
p1
aS'https://www.clarin.com/sociedad/Demoran-micro-chofer-drogado_0_1525047795.html'
p2
aS'https://www.clarin.com/sociedad/nueva-Tana-Pasman-santiaguena_0_1525047784.html'
p3
aS'https://www.clarin.com/sociedad/nueva-Tana-Pasman-santiaguena_0_1525047784.html'
p4
aS'https://www.clarin.com/politica/Mauricio_Macri-gastos_de_campana-elecciones_2015_0_1525047783.html'
p5
aS'https://www.clarin.com/politica/Macri-sabia-viaje-Obama-Argentina_0_1525047773.html'
p6
aS'https://www.clarin.com/politica/Macri-sabia-viaje-Obama-Argentina_0_1525047773.html'
p7
aS'https://www.clarin.com/politica/Boudou-apelo-procesamieto-dadivas_0_1525047765.html'
p8
a.