(lp0
Vhttps://www.clarin.com/sociedad/Mundos-intimos-esclerosis-multiple-intensidad_0_1634836649.html
p1
aVhttps://www.clarin.com/sociedad/Mundos-intimos-esclerosis-multiple-intensidad_0_1634836649.html
p2
aVhttps://www.clarin.com/politica/Danza-nombres-Defensoria-Pueblo_0_1634836670.html
p3
aVhttps://www.clarin.com/politica/Danza-nombres-Defensoria-Pueblo_0_1634836670.html
p4
aVhttps://www.clarin.com/politica/Gobierno-desplazo-titular-Aduana-irregularidades_0_1634836697.html
p5
aVhttps://www.clarin.com/politica/Gobierno-desplazo-titular-Aduana-irregularidades_0_1634836697.html
p6
aVhttps://www.clarin.com/politica/Roces-Casa-Rosada-fallo-Corte_0_1635436499.html
p7
aVhttps://www.clarin.com/politica/facturas-Corte-Suprema-llegaran-septiembre_0_1634836696.html
p8
aVhttps://www.clarin.com/opinion/Lectura-escritura-eternos-deficits_0_1634836648.html
p9
aVhttps://www.clarin.com/opinion/Siria-trama-alianzas-convergen-Damasco_0_1635436497.html
p10
aVhttps://www.clarin.com/ieco/economia/Tarifas-inflacion-consumo-medio-vacio_0_1635436496.html
p11
aVhttps://www.clarin.com/opinion/populismo-sale_0_1635436495.html
p12
aVhttps://www.clarin.com/politica/Gobierno-convoco-audiencias-publicas_0_1634836659.html
p13
aVhttps://www.clarin.com/opinion/leyenda-tarifas-redes-sociales_0_1635436494.html
p14
a.