(lp0
S'https://www.clarin.com/politica/Unidad-Medica-Presidencial-incorpora-Antonia_0_1538246467.html'
p1
aS'https://www.clarin.com/politica/Unidad-Medica-Presidencial-incorpora-Antonia_0_1538246467.html'
p2
aS'https://www.clarin.com/politica/Tirotearon-pescaba-ilegalmente-frente-Chubut_0_1538246450.html'
p3
aS'https://www.clarin.com/politica/Tirotearon-pescaba-ilegalmente-frente-Chubut_0_1538246450.html'
p4
aS'https://www.clarin.com/sociedad/Procesaron-brasileno-crimen-intendente-Calera_0_1538246437.html'
p5
aS'https://www.clarin.com/sociedad/Procesaron-brasileno-crimen-intendente-Calera_0_1538246437.html'
p6
aS'https://www.clarin.com/sociedad/aerolinea-retraso-vuelo-coincidiera-eclipse_0_1538246433.html'
p7
aS'https://www.clarin.com/sociedad/aerolinea-retraso-vuelo-coincidiera-eclipse_0_1538246433.html'
p8
a.