(lp0
Vhttps://www.clarin.com/ieco/Gobierno-relativizo-conflictos-judiciales-tarifazos_0_1628237203.html
p1
aVhttps://www.clarin.com/ieco/Gobierno-relativizo-conflictos-judiciales-tarifazos_0_1628237203.html
p2
aVhttps://www.clarin.com/sociedad/docentes-bonaerenses-amenazan-hacer-jueves_0_1628237202.html
p3
aVhttps://www.clarin.com/sociedad/docentes-bonaerenses-amenazan-hacer-jueves_0_1628237202.html
p4
aVhttps://www.clarin.com/ieco/productores-leche-piden-precio-tambo_0_1628237199.html
p5
aVhttps://www.clarin.com/ieco/productores-leche-piden-precio-tambo_0_1628237199.html
p6
aVhttps://www.clarin.com/sociedad/famoso-alquiler-vientre-detuvieron-personas_0_1628237193.html
p7
aVhttps://www.clarin.com/sociedad/famoso-alquiler-vientre-detuvieron-personas_0_1628237193.html
p8
aVhttps://www.clarin.com/sociedad/Pistorius-intento-suicidarse-carcel_0_1628237194.html
p9
aVhttps://www.clarin.com/sociedad/Pistorius-intento-suicidarse-carcel_0_1628237194.html
p10
aVhttps://www.clarin.com/politica/Vido-frente-causa-Suenos-Compartidos_0_1628237195.html
p11
aVhttps://www.clarin.com/politica/Vido-frente-causa-Suenos-Compartidos_0_1628237195.html
p12
aVhttps://www.clarin.com/sociedad/nene-murio-tobogan-alto-mundo_0_1628237190.html
p13
aVhttps://www.clarin.com/sociedad/nene-murio-tobogan-alto-mundo_0_1628237190.html
p14
aVhttps://www.clarin.com/politica/Baranao-referente-Carta-Abierta-bufon_0_1628237189.html
p15
aVhttps://www.clarin.com/politica/Baranao-referente-Carta-Abierta-bufon_0_1628237189.html
p16
a.