(lp0
Vhttps://www.clarin.com/politica/Gemignani-involucro-Vido-escandalo-Casacion_0_1622237850.html
p1
aVhttps://www.clarin.com/politica/Gemignani-involucro-Vido-escandalo-Casacion_0_1622237850.html
p2
aVhttps://www.clarin.com/sociedad/informatica-podria-invalidar-estudios-cerebro_0_1622237845.html
p3
aVhttps://www.clarin.com/ieco/economia/Banco-Central-US-millones-principio_0_1622237843.html
p4
aVhttps://www.clarin.com/ieco/economia/Banco-Central-US-millones-principio_0_1622237843.html
p5
a.