(lp0
S'https://www.clarin.com/sociedad/Clarin-festeja-cambios-rutina-redaccion_0_1537646573.html'
p1
aS'https://www.clarin.com/sociedad/Clarin-festeja-cambios-rutina-redaccion_0_1537646573.html'
p2
a.