(lp0
Vhttps://www.clarin.com/politica/Oficios-ejecuciones-documentacion-Lazaro-Baez_0_1592840745.html
p1
aVhttps://www.clarin.com/politica/Oficios-ejecuciones-documentacion-Lazaro-Baez_0_1592840745.html
p2
aVhttps://www.clarin.com/ieco/economia/actividad-industrial-cayo-abril_0_1592840755.html
p3
aVhttps://www.clarin.com/ieco/economia/actividad-industrial-cayo-abril_0_1592840755.html
p4
aVhttps://www.clarin.com/ieco/economia/Prat-Gay-devolucion-IVA-noviembre_0_1592840751.html
p5
aVhttps://www.clarin.com/ieco/economia/Prat-Gay-devolucion-IVA-noviembre_0_1592840751.html
p6
aVhttps://www.clarin.com/sociedad/oficial-viernes-feriado-ano_0_1592840743.html
p7
aVhttps://www.clarin.com/sociedad/oficial-viernes-feriado-ano_0_1592840743.html
p8
aVhttps://www.clarin.com/sociedad/largas-cargar-podria-faltar-semana_0_1592840741.html
p9
aVhttps://www.clarin.com/ieco/economia/Prat-Gay-confirmo-actualizaran-monotributo_0_1592840740.html
p10
aVhttps://www.clarin.com/politica/Macri-Yapeyu-festejos-Bicentenario-independencia_0_1592840739.html
p11
aVhttps://www.clarin.com/politica/Macri-Yapeyu-festejos-Bicentenario-independencia_0_1592840739.html
p12
a.