(lp0
Vhttps://www.clarin.com/sociedad/Nutricosmeticos-boom-antienvejecimiento_0_1690031061.html
p1
aVhttps://www.clarin.com/sociedad/Nutricosmeticos-boom-antienvejecimiento_0_1690031061.html
p2
aVhttps://www.clarin.com/sociedad/Minimalismo-Argentina_0_1690031084.html
p3
aVhttps://www.clarin.com/sociedad/Minimalismo-Argentina_0_1690031084.html
p4
aVhttps://www.clarin.com/politica/Video-desopilante-festejo-Carrio-CC-ARI_0_1690031078.html
p5
aVhttps://www.clarin.com/politica/Video-desopilante-festejo-Carrio-CC-ARI_0_1690031078.html
p6
aVhttps://www.clarin.com/politica/Carrio-CC-ARI-Vidal-Larreta-PRO_0_1690031068.html
p7
a.