(lp0
S'https://www.clarin.com/politica/Efectivizan-aumento-judiciales_0_1536446506.html'
p1
aS'https://www.clarin.com/sociedad/Vaticano-proceso-beatificacion-cardenal-Pironio_0_1536446528.html'
p2
aS'https://www.clarin.com/politica/Gobierno-advierte-toleraran-escraches-funcionarios_0_1536446540.html'
p3
aS'https://www.clarin.com/ieco/economia/Elsztain-sigue-expandiendose-sector-minero_0_1536446521.html'
p4
aS'https://www.clarin.com/ieco/campus-ieco/mejores-MBA-online-Financial-Times_0_1536446526.html'
p5
a.