(lp0
S'https://www.clarin.com/ieco/economia/fondo-dice-trabas-invertir-Argentina_0_1685231522.html'
p1
aS'https://www.clarin.com/sociedad/Mendoza-suma-movida-festivales-gastronomicos_0_1685231518.html'
p2
aS'https://www.clarin.com/ieco/Alibaba-incluir-productos-argentinos-plataforma_0_1685231508.html'
p3
aS'https://www.clarin.com/sociedad/reacciona-vegetariana-volvio-comer-despues_0_1685231511.html'
p4
aS'https://www.clarin.com/politica/Milani-candidato-aventura-Guillermo-Moreno_0_1685231509.html'
p5
a.