(lp0
Vhttps://www.clarin.com/politica/salida-default-vuelve-Fragata-Libertad_0_1558644604.html
p1
aVhttps://www.clarin.com/politica/salida-default-vuelve-Fragata-Libertad_0_1558644604.html
p2
aVhttps://www.clarin.com/ieco/Central-prepara-revision-FMI_0_1558644615.html
p3
aVhttps://www.clarin.com/ieco/Central-prepara-revision-FMI_0_1558644615.html
p4
aVhttps://www.clarin.com/politica/Casino-vendio-yegua-investiga-justicia_0_1558644353.html
p5
aVhttps://www.clarin.com/politica/Casino-vendio-yegua-investiga-justicia_0_1558644353.html
p6
aVhttps://www.clarin.com/ieco/antibiotico-prohibido-argentina-exportaba-China_0_1558644286.html
p7
aVhttps://www.clarin.com/ieco/antibiotico-prohibido-argentina-exportaba-China_0_1558644286.html
p8
a.