(lp0
S'https://www.clarin.com/ieco/coloquioidea/sectores-economia-despegaran-empresarios_0_1667833396.html'
p1
aS'https://www.clarin.com/ieco/economia/Gobierno-deuda-anos-fija-millones_0_1667833344.html'
p2
aS'https://www.clarin.com/ieco/economia/Ganancias-eximicion-aguinaldo-representa-mejora_0_1667833370.html'
p3
aS'https://www.clarin.com/politica/cumbre-nuclear-Papa-Macri_0_1668433155.html'
p4
aS'https://www.clarin.com/sociedad/Presion-nubes-revelan-hipertension-aumento_0_1668433159.html'
p5
aS'https://www.clarin.com/politica/Mesa-Dialogo-patas-inestables_0_1668433156.html'
p6
aS'https://www.clarin.com/politica/Bono-empresarios-quieren-discutir-sectores_0_1667833386.html'
p7
aS'https://www.clarin.com/politica/Macri-Roma-Papa-canonizacion-Brochero_0_1668433158.html'
p8
aS'https://www.clarin.com/ieco/economia/bono-ano-ganan-alcance-limitado_0_1667833362.html'
p9
a.