(lp0
Vhttps://www.clarin.com/politica/Vanoli-justifico-Bonadio-venta-futuro_0_1554444785.html
p1
aVhttps://www.clarin.com/politica/Vanoli-justifico-Bonadio-venta-futuro_0_1554444785.html
p2
aVhttps://www.clarin.com/sociedad/Rioja-desplazaron-funcionaria-declaraciones-femicidio_0_1554444784.html
p3
aVhttps://www.clarin.com/sociedad/Rioja-desplazaron-funcionaria-declaraciones-femicidio_0_1554444784.html
p4
aVhttps://www.clarin.com/sociedad/Callejeros-Ezeiza-Fontanet-traslado-Cordoba_0_1554444740.html
p5
aVhttps://www.clarin.com/sociedad/Callejeros-Ezeiza-Fontanet-traslado-Cordoba_0_1554444740.html
p6
aVhttps://www.clarin.com/politica/Pinedo-desliga-Cristina-futuro-Vanoli_0_1554444776.html
p7
aVhttps://www.clarin.com/politica/Pinedo-desliga-Cristina-futuro-Vanoli_0_1554444776.html
p8
aVhttps://www.clarin.com/sociedad/remedios-PAMI-saco-cobertura-gratuita_0_1554444778.html
p9
aVhttps://www.clarin.com/sociedad/remedios-PAMI-saco-cobertura-gratuita_0_1554444778.html
p10
aVhttps://www.clarin.com/ieco/economia/Condenan-empresarios-retenciones-Ingresos-Brutos_0_1554444773.html
p11
aVhttps://www.clarin.com/ieco/economia/Condenan-empresarios-retenciones-Ingresos-Brutos_0_1554444773.html
p12
a.