(lp0
Vhttps://www.clarin.com/politica/Macri-Carrio-Sanz-Cambiemos-Nacional_0_1676232527.html
p1
aVhttps://www.clarin.com/politica/Macri-Carrio-Sanz-Cambiemos-Nacional_0_1676232527.html
p2
aVhttps://www.clarin.com/politica/Maximo-Kirchner-Macri-caer-gilada_0_1676232524.html
p3
aVhttps://www.clarin.com/politica/Maximo-Kirchner-Macri-caer-gilada_0_1676232524.html
p4
aVhttps://www.clarin.com/opinion/Recrear-casas-sabiduria_0_1676232525.html
p5
aVhttps://www.clarin.com/opinion/Guia-leer-mundo-viene_0_1676232520.html
p6
aVhttps://www.clarin.com/opinion/Guia-leer-mundo-viene_0_1676232520.html
p7
aVhttps://www.clarin.com/politica/CGT-sumara-protesta-organizaciones-sociales_0_1676232518.html
p8
aVhttps://www.clarin.com/politica/CGT-sumara-protesta-organizaciones-sociales_0_1676232518.html
p9
aVhttps://www.clarin.com/sociedad/Brecha-argentinas-trepan-puntos-ranking_0_1676232449.html
p10
aVhttps://www.clarin.com/politica/Vidal-secreto-Massa-negociar-Presupuesto_0_1676232509.html
p11
aVhttps://www.clarin.com/politica/Vidal-secreto-Massa-negociar-Presupuesto_0_1676232509.html
p12
aVhttps://www.clarin.com/sociedad/Revelan-anos-cantidad-animales-planeta_0_1676232512.html
p13
aVhttps://www.clarin.com/sociedad/Revelan-anos-cantidad-animales-planeta_0_1676232512.html
p14
a.