(lp0
Vhttps://www.clarin.com/ieco/Cayo-abril-venta-insumos-construccion_0_1571242983.html
p1
aVhttps://www.clarin.com/ieco/economia/Gobierno-millones-mensuales-comprar-dolares_0_1571242982.html
p2
aVhttps://www.clarin.com/ieco/economia/Gobierno-millones-mensuales-comprar-dolares_0_1571242982.html
p3
a.