(lp0
S'https://www.clarin.com/politica/Hebe-Bonafini-Hace-conversacion-Papa_0_1574842582.html'
p1
aS'https://www.clarin.com/politica/Hebe-Bonafini-Hace-conversacion-Papa_0_1574842582.html'
p2
aS'https://www.clarin.com/politica/Quieren-traspasos-mando-ordenados-ley_0_1574842579.html'
p3
aS'https://www.clarin.com/politica/Quieren-traspasos-mando-ordenados-ley_0_1574842579.html'
p4
aS'https://www.clarin.com/politica/Escucha-Fernandez-Diaz-dirigentes-peronistas_0_1574842577.html'
p5
aS'https://www.clarin.com/politica/Escucha-Fernandez-Diaz-dirigentes-peronistas_0_1574842577.html'
p6
aS'https://www.clarin.com/sociedad/Volver-Futuro-frances-volo-aerotabla_0_1574842576.html'
p7
aS'https://www.clarin.com/sociedad/Volver-Futuro-frances-volo-aerotabla_0_1574842576.html'
p8
aS'https://www.clarin.com/politica/Triaca-critico-antidespidos-resuelve-situacion_0_1574842574.html'
p9
aS'https://www.clarin.com/politica/Triaca-critico-antidespidos-resuelve-situacion_0_1574842574.html'
p10
aS'https://www.clarin.com/ieco/Espana-levanto-exportacion-biodiesel-argentino_0_1574842571.html'
p11
aS'https://www.clarin.com/ieco/Espana-levanto-exportacion-biodiesel-argentino_0_1574842571.html'
p12
a.