(lp0
S'https://www.clarin.com/politica/Constitucion-advierten-Ciudad-autonoma_0_1662433855.html'
p1
aS'https://www.clarin.com/politica/Elisa-Carrio-sometida-angioplastia-colocaron_0_1662433852.html'
p2
aS'https://www.clarin.com/sociedad/sufrio-trataron-Lilita-Carrio_0_1662433862.html'
p3
aS'https://www.clarin.com/politica/Ordenan-investigando-Milagro-Sala-Morales_0_1662433853.html'
p4
a.