(lp0
Vhttps://www.clarin.com/ieco/baja-retenciones-peligra-textil-Trelew_0_1583241779.html
p1
aVhttps://www.clarin.com/ieco/baja-retenciones-peligra-textil-Trelew_0_1583241779.html
p2
aVhttps://www.clarin.com/politica/Macri-declaro-patrimonio-millones-doble_0_1583841628.html
p3
aVhttps://www.clarin.com/politica/Macri-declaro-patrimonio-millones-doble_0_1583841628.html
p4
aVhttps://www.clarin.com/ieco/Gobierno-ajuste-tarifario-terminado_0_1583841627.html
p5
aVhttps://www.clarin.com/ieco/Gobierno-ajuste-tarifario-terminado_0_1583841627.html
p6
aVhttps://www.clarin.com/ieco/economia/recorte-tasas-miran-precio-dolar_0_1583841624.html
p7
aVhttps://www.clarin.com/sociedad/NASA-habitaculo-Estacion-Espacial-Internacional_0_1583841616.html
p8
aVhttps://www.clarin.com/sociedad/NASA-habitaculo-Estacion-Espacial-Internacional_0_1583841616.html
p9
aVhttps://www.clarin.com/politica/Paris-celebrarse-Mayo-embajada-argentina_0_1583841613.html
p10
aVhttps://www.clarin.com/politica/Paris-celebrarse-Mayo-embajada-argentina_0_1583841613.html
p11
a.