(lp0
S'https://www.clarin.com/politica/Jubilados-blanqueo-Macri-opositor-aprobar_0_1585041600.html'
p1
aS'https://www.clarin.com/politica/Jubilados-blanqueo-Macri-opositor-aprobar_0_1585041600.html'
p2
aS'https://www.clarin.com/politica/medio-tironeos-gestos-Papa-Vidal_0_1585041596.html'
p3
aS'https://www.clarin.com/politica/medio-tironeos-gestos-Papa-Vidal_0_1585041596.html'
p4
aS'https://www.clarin.com/sociedad/look-Star-Wars-llegando-guardarropa_0_1585041584.html'
p5
aS'https://www.clarin.com/sociedad/look-Star-Wars-llegando-guardarropa_0_1585041584.html'
p6
a.