(lp0
Vhttps://www.clarin.com/ieco/alimentos-agroindustria-agricultura-exportaciones-matias_longoni-senasa_0_1512449046.html
p1
aVhttps://www.clarin.com/ieco/alimentos-agroindustria-agricultura-exportaciones-matias_longoni-senasa_0_1512449046.html
p2
aVhttps://www.clarin.com/sociedad/quiso-sacar-selfie-termino-fondo_0_1512449043.html
p3
aVhttps://www.clarin.com/sociedad/quiso-sacar-selfie-termino-fondo_0_1512449043.html
p4
aVhttps://www.clarin.com/sociedad/Convocan-cumbre-ministros-Mercosur-avance_0_1512449040.html
p5
aVhttps://www.clarin.com/sociedad/Convocan-cumbre-ministros-Mercosur-avance_0_1512449040.html
p6
aVhttps://www.clarin.com/politica/Alicia_Kirchner-Gobierno-gobernadores_0_1512449030.html
p7
aVhttps://www.clarin.com/politica/Alicia_Kirchner-Gobierno-gobernadores_0_1512449030.html
p8
aVhttps://www.clarin.com/sociedad/Presentaron-nueva-Barbie-gordita-petisa_0_1512449027.html
p9
aVhttps://www.clarin.com/sociedad/Presentaron-nueva-Barbie-gordita-petisa_0_1512449027.html
p10
aVhttps://www.clarin.com/politica/Cristobal_Lopez-Casino-Miami_0_1512449021.html
p11
aVhttps://www.clarin.com/politica/Cristobal_Lopez-Casino-Miami_0_1512449021.html
p12
aVhttps://www.clarin.com/sociedad/OMS-convoco-comite-urgencia-zika_0_1512449018.html
p13
aVhttps://www.clarin.com/sociedad/OMS-convoco-comite-urgencia-zika_0_1512449018.html
p14
aVhttps://www.clarin.com/sociedad/controlados-incendios-forestales-Alerces-Trevelin_0_1512449017.html
p15
aVhttps://www.clarin.com/sociedad/controlados-incendios-forestales-Alerces-Trevelin_0_1512449017.html
p16
a.