(lp0
S'https://www.clarin.com/opinion/convivir-miedo-vivir_0_1665433442.html'
p1
aS'https://www.clarin.com/politica/Inseguridad-argentinos-confia-Poder-Judicial_0_1664833662.html'
p2
aS'https://www.clarin.com/politica/Macri-Olivos-Centurion-repondra-Aduana_0_1664833664.html'
p3
aS'https://www.clarin.com/ieco/coloquioidea/Empleo-educacion-pobreza-vision-empresas_0_1664233745.html'
p4
aS'https://www.clarin.com/politica/oportunidad-retomar-reformas_0_1664833669.html'
p5
aS'https://www.clarin.com/politica/Echegaray-volvio-puesto-Aduana-gana_0_1664833670.html'
p6
aS'https://www.clarin.com/opinion/Luche-vuelve-Companero-Papa_0_1665433441.html'
p7
aS'https://www.clarin.com/ieco/Gobierno-economia-atraviesa-debate-oscuro_0_1664833665.html'
p8
aS'https://www.clarin.com/ieco/coloquioidea/Levy-Yeyati-generar-desarrollo-medidas_0_1664233716.html'
p9
a.