(lp0
S'https://www.clarin.com/politica/Axel-Kicillof-Espana-apoyar-Podemos_0_1602439800.html'
p1
aS'https://www.clarin.com/ieco/economia/Finalmente-llego-turno-dolar_0_1602439795.html'
p2
aS'https://www.clarin.com/sociedad/Politicos-honestos-encuestados-colifas_0_1601839963.html'
p3
aS'https://www.clarin.com/politica/Corte-Pueyrredon-crimenes-Kosteki-Santillan_0_1602439809.html'
p4
aS'https://www.clarin.com/ieco/economia/analistas-reconocen-supieron-anticipar-Brexit_0_1602439751.html'
p5
aS'https://www.clarin.com/politica/Marijuan-sobreprecio-explicarian-fortuna-Baez_0_1602439808.html'
p6
aS'https://www.clarin.com/sociedad/Desesperada-espera-corazon-nena-anos_0_1602439803.html'
p7
aS'https://www.clarin.com/politica/kirchnerismo-DElia-Chino-Navarro-dijeron_0_1602439804.html'
p8
aS'https://www.clarin.com/ieco/economia/FMI-cambios-cosmeticos-programas-ajuste_0_1602439754.html'
p9
a.