(lp0
Vhttps://www.clarin.com/politica/Obama-Unidos-listos-trabajar-Argentina_0_1545445965.html
p1
aVhttps://www.clarin.com/politica/Obama-Unidos-listos-trabajar-Argentina_0_1545445965.html
p2
aVhttps://www.clarin.com/politica/Lejos-mujer_0_1545445950.html
p3
aVhttps://www.clarin.com/politica/Lejos-mujer_0_1545445950.html
p4
aVhttps://www.clarin.com/politica/town-hall-sorprendio-Boca_0_1545445931.html
p5
aVhttps://www.clarin.com/politica/aliado-inesperado-Cono-Sur_0_1545445929.html
p6
aVhttps://www.clarin.com/politica/aliado-inesperado-Cono-Sur_0_1545445929.html
p7
aVhttps://www.clarin.com/politica/abiertos-dialogo-extorsion_0_1545445872.html
p8
aVhttps://www.clarin.com/politica/Ushuaia-dias-poder-entrar-Gobierno_0_1545445868.html
p9
a.