(lp0
S'https://www.clarin.com/politica/Salvaje-funcionario-nacional-golpearon-revolvieron_0_1664233649.html'
p1
aS'https://www.clarin.com/sociedad/Misterio-Alemania-anos-encerrado-padres_0_1664233629.html'
p2
aS'https://www.clarin.com/ieco/Aranguren-Quedaran-dentro-tarifa-social_0_1664233632.html'
p3
aS'https://www.clarin.com/politica/UCR-Presidente-boina-blanca-kirchnerismo_0_1664233633.html'
p4
aS'https://www.clarin.com/sociedad/edicion-lujo-conocer-autos-inolvidables_0_1664233631.html'
p5
aS'https://www.clarin.com/ieco/economia/Crean-Regimen-Ventanilla-Unica-exterior_0_1664233642.html'
p6
aS'https://www.clarin.com/ieco/economia/aumentos-tarifas-gas-rigen-hoy_0_1664233645.html'
p7
aS'https://www.clarin.com/sociedad/Descubren-capacidades-entendimiento-exclusivas-humanos_0_1664233635.html'
p8
a.