(lp0
Vhttps://www.clarin.com/politica/afirmo-Macri-nuevas-amenazas-Vidal_0_1637236291.html
p1
aVhttps://www.clarin.com/politica/afirmo-Macri-nuevas-amenazas-Vidal_0_1637236291.html
p2
aVhttps://www.clarin.com/politica/Scioli-contesto-Macri-trabajadores-hombro_0_1637236290.html
p3
aVhttps://www.clarin.com/politica/Scioli-contesto-Macri-trabajadores-hombro_0_1637236290.html
p4
aVhttps://www.clarin.com/politica/custodio-encontro-cartucho-caido-nadie_0_1637236287.html
p5
aVhttps://www.clarin.com/politica/custodio-encontro-cartucho-caido-nadie_0_1637236287.html
p6
aVhttps://www.clarin.com/politica/abogado-Cristina-Lanta-periodista-leche_0_1637236285.html
p7
aVhttps://www.clarin.com/politica/abogado-Cristina-Lanta-periodista-leche_0_1637236285.html
p8
aVhttps://www.clarin.com/ieco/Productores-regalaran-toneladas-Plaza-Mayo_0_1637236283.html
p9
aVhttps://www.clarin.com/ieco/Productores-regalaran-toneladas-Plaza-Mayo_0_1637236283.html
p10
aVhttps://www.clarin.com/sociedad/curtiendo-provocadora-reaccion-Mini-Cooper_0_1637236282.html
p11
aVhttps://www.clarin.com/sociedad/curtiendo-provocadora-reaccion-Mini-Cooper_0_1637236282.html
p12
a.