(lp0
S'https://www.clarin.com/ieco/empresas-y-negocios/Preven-baja-ventas-autos-ano_0_1525647723.html'
p1
aS'https://www.clarin.com/ieco/economia/dolar-mantiene_0_1525647671.html'
p2
aS'https://www.clarin.com/politica/lunes-rucula-jengibre-Casa-Rosada_0_1525647765.html'
p3
aS'https://www.clarin.com/ieco/fondos_buitre-default-citibank-thomas_griesa_0_1525647766.html'
p4
aS'https://www.clarin.com/politica/Juego-Oca-ministerio-Alicia-Kirchner_0_1525647757.html'
p5
aS'https://www.clarin.com/sociedad/Afirman-mejor-tener-perro-gato_0_1525647751.html'
p6
a.