(lp0
S'https://www.clarin.com/sociedad/record-gases-efecto-invernadero-atmosfera_0_1674432558.html'
p1
aS'https://www.clarin.com/sociedad/Sorprendio-ex-calle-mato-punaladas_0_1674432555.html'
p2
aS'https://www.clarin.com/politica/CGT-cruzo-Triaca-cuotas-discutido_0_1674432559.html'
p3
aS'https://www.clarin.com/sociedad/Mejoran-nenes-heridos-femicida-Mendoza_0_1674432563.html'
p4
a.