(lp0
S'https://www.clarin.com/politica/Crisis_petrolera-Chubut-Mario_Das_Neves-Casa_Rosada-paro_petrolero-barril_de_crudo-Sindicato_0_1514249007.html'
p1
aS'https://www.clarin.com/opinion/emergencia-seguridad_0_1514848535.html'
p2
aS'https://www.clarin.com/opinion/narcotrafico-derribo_de_aviones_0_1514848539.html'
p3
aS'https://www.clarin.com/sociedad/desorden-ambiental-afecta-salud_0_1514848534.html'
p4
aS'https://www.clarin.com/opinion/Realismo-magico-funcionarios-indemnizacion_0_1514848532.html'
p5
aS'https://www.clarin.com/opinion/chavismo-kirchnerismo_0_1514848541.html'
p6
aS'https://www.clarin.com/opinion/igualdad_de_genero_0_1514848540.html'
p7
a.