(lp0
S'https://www.clarin.com/politica/Gobernadores-intendentes-PJ-aislar-Cristina_0_1642635847.html'
p1
aS'https://www.clarin.com/politica/Gobernadores-intendentes-PJ-aislar-Cristina_0_1642635847.html'
p2
aS'https://www.clarin.com/sociedad/Imputaron-rugbiers-boliche-San-Isidro_0_1642635846.html'
p3
aS'https://www.clarin.com/sociedad/Imputaron-rugbiers-boliche-San-Isidro_0_1642635846.html'
p4
aS'https://www.clarin.com/ieco/economia/Caputo-modificara-Ley-Mercados-Capitales_0_1642635844.html'
p5
aS'https://www.clarin.com/ieco/economia/Caputo-modificara-Ley-Mercados-Capitales_0_1642635844.html'
p6
a.