(lp0
S'https://www.clarin.com/sociedad/participa-error-maraton-termina-septima_0_1511249104.html'
p1
aS'https://www.clarin.com/sociedad/participa-error-maraton-termina-septima_0_1511249104.html'
p2
aS'https://www.clarin.com/politica/Roberto_Giubetich-Pablo_Grasso-Rio_Gallegos-intendencia_0_1511249097.html'
p3
aS'https://www.clarin.com/politica/Roberto_Giubetich-Pablo_Grasso-Rio_Gallegos-intendencia_0_1511249097.html'
p4
aS'https://www.clarin.com/sociedad/detenidos-incendio-Alerces_0_1511249094.html'
p5
aS'https://www.clarin.com/sociedad/detenidos-incendio-Alerces_0_1511249094.html'
p6
aS'https://www.clarin.com/politica/Scioli-candidato-intendentes-Cacho-Castana_0_1511249088.html'
p7
aS'https://www.clarin.com/politica/Scioli-candidato-intendentes-Cacho-Castana_0_1511249088.html'
p8
a.