(lp0
S'https://www.clarin.com/sociedad/Denuncian-tiraron-restos-cementerio-rellenar_0_1567043472.html'
p1
aS'https://www.clarin.com/sociedad/universidad-prohibieron-clases-panelista-denunciado_0_1567043467.html'
p2
aS'https://www.clarin.com/politica/Macri-antidespidos-Destruye-trabajo-argentinos_0_1567043468.html'
p3
aS'https://www.clarin.com/politica/Macri-anuncio-construir-millon-viviendas_0_1567043455.html'
p4
aS'https://www.clarin.com/politica/Allanan-estancia-Baez-Uruguay_0_1567043465.html'
p5
aS'https://www.clarin.com/politica/Confirman-empresario-acusado-sobornar-Recalde_0_1567043450.html'
p6
a.