(lp0
Vhttps://www.clarin.com/sociedad/Alerta-tiburones-record-ataques-personas_0_1523248061.html
p1
aVhttps://www.clarin.com/sociedad/Alerta-tiburones-record-ataques-personas_0_1523248061.html
p2
aVhttps://www.clarin.com/sociedad/Bullrich-gremios-docentes-seguiran-negociaciones_0_1523248040.html
p3
aVhttps://www.clarin.com/sociedad/Bullrich-gremios-docentes-seguiran-negociaciones_0_1523248040.html
p4
a.