(lp0
S'https://www.clarin.com/politica/Anibal-consiguio-refugio-Senado-pareja_0_1533446885.html'
p1
aS'https://www.clarin.com/politica/Anibal-consiguio-refugio-Senado-pareja_0_1533446885.html'
p2
aS'https://www.clarin.com/ieco/Aranguren-critico-endeudamiento-YPF-Senado_0_1533446908.html'
p3
aS'https://www.clarin.com/ieco/Aranguren-critico-endeudamiento-YPF-Senado_0_1533446908.html'
p4
aS'https://www.clarin.com/politica/fiscal-Saenz-imputar-Lagomarsino-crimen_0_1533446899.html'
p5
aS'https://www.clarin.com/politica/fiscal-Saenz-imputar-Lagomarsino-crimen_0_1533446899.html'
p6
aS'https://www.clarin.com/ieco/economia/dolar-acentua-caida-minorista-mayorista_0_1533446894.html'
p7
aS'https://www.clarin.com/sociedad/explica-sindrome-Down-video-emociona_0_1533446892.html'
p8
aS'https://www.clarin.com/sociedad/explica-sindrome-Down-video-emociona_0_1533446892.html'
p9
a.