(lp0
Vhttps://www.clarin.com/politica/Barrionuevo-pego-piedad-Van-cana_0_1567643304.html
p1
aVhttps://www.clarin.com/politica/Barrionuevo-pego-piedad-Van-cana_0_1567643304.html
p2
aVhttps://www.clarin.com/sociedad/Trasladaran-recuperacion-elefante-aparecio-Gualeguaychu_0_1567643299.html
p3
aVhttps://www.clarin.com/sociedad/Trasladaran-recuperacion-elefante-aparecio-Gualeguaychu_0_1567643299.html
p4
aVhttps://www.clarin.com/politica/peronismo-muestra-marcha-futuro-Cristina_0_1567643297.html
p5
aVhttps://www.clarin.com/politica/peronismo-muestra-marcha-futuro-Cristina_0_1567643297.html
p6
aVhttps://www.clarin.com/ieco/economia/Banco-Nacion-beneficios-afectados-inundaciones_0_1567643295.html
p7
aVhttps://www.clarin.com/ieco/economia/Banco-Nacion-beneficios-afectados-inundaciones_0_1567643295.html
p8
a.