(lp0
S'https://www.clarin.com/politica/Alargan-plazos-exportacion-economias-regionales_0_1537646656.html'
p1
aS'https://www.clarin.com/politica/AGN-detecto-estafa-PAMI-millones_0_1537646643.html'
p2
aS'https://www.clarin.com/ieco/Luego-crisis-maquinaria-agricola-revancha_0_1537646700.html'
p3
aS'https://www.clarin.com/politica/Diego-Bossio-asumio-Macri-todavia_0_1538246223.html'
p4
a.