(lp0
Vhttps://www.clarin.com/sociedad/Zarate-chico-disparo-victima-bullying_0_1679832150.html
p1
aVhttps://www.clarin.com/politica/Milagro-Sala-asumir-Parlasur-carcel_0_1679832144.html
p2
aVhttps://www.clarin.com/politica/Milagro-Sala-asumir-Parlasur-carcel_0_1679832144.html
p3
aVhttps://www.clarin.com/sociedad/Sandwiches_0_1679832140.html
p4
aVhttps://www.clarin.com/sociedad/Sandwiches_0_1679832140.html
p5
aVhttps://www.clarin.com/opinion/victima-debe-poder-querellante_0_1679832136.html
p6
aVhttps://www.clarin.com/opinion/musica-toca-cerebro_0_1679832135.html
p7
a.