(lp0
S'https://www.clarin.com/sociedad/Exodo-consumidores-Misiones-Brasil-Paraguay_0_1604239588.html'
p1
aS'https://www.clarin.com/politica/Boudou-participo-compra-autos-lujo_0_1604239590.html'
p2
aS'https://www.clarin.com/politica/Horacio-Rosatti-ministro-Corte-Suprema_0_1604239601.html'
p3
aS'https://www.clarin.com/sociedad/Video-increible-escalaron-Torre-Eiffel_0_1604239608.html'
p4
aS'https://www.clarin.com/sociedad/conmovedor-video-UNICEF-alertar-infancia_0_1604239596.html'
p5
aS'https://www.clarin.com/politica/presidentes-bandas-militares-fiesta-julio_0_1604239602.html'
p6
aS'https://www.clarin.com/sociedad/escuela-quedo-alumno-piden-cierren_0_1604239597.html'
p7
aS'https://www.clarin.com/ieco/economia/empleo-construccion-cayo-abril_0_1604239604.html'
p8
aS'https://www.clarin.com/politica/Maximo-Baez-hable-veniamos-descansando_0_1604239594.html'
p9
a.