(lp0
S'https://www.clarin.com/sociedad/adolescente-descubrio-ciudad-oculta-siglos_0_1573642701.html'
p1
aS'https://www.clarin.com/politica/Malcorra-buscara-Londres-levante-embargo_0_1573642736.html'
p2
aS'https://www.clarin.com/sociedad/Locos-mercurio-nubes-pararon-fanaticos_0_1573642742.html'
p3
aS'https://www.clarin.com/politica/Macri-oficializo-despidos-critico-oposicion_0_1573642741.html'
p4
aS'https://www.clarin.com/politica/Gobierno-quiere-vote-boleta-unica_0_1573642737.html'
p5
aS'https://www.clarin.com/sociedad/Seguiran-huemules-rastreadores-satelitales_0_1573642725.html'
p6
aS'https://www.clarin.com/sociedad/Fisioterapeuta-asesinada-hijas-recibido-amenazas_0_1573642743.html'
p7
aS'https://www.clarin.com/politica/hotel-boutique-Cristina-nadie-administre_0_1573642719.html'
p8
aS'https://www.clarin.com/sociedad/Video-querer-grabar-queda-pelada_0_1573642729.html'
p9
aS'https://www.clarin.com/politica/Reves-Echegaray-causa-facturacion-trucha_0_1573642730.html'
p10
a.