(lp0
S'https://www.clarin.com/ieco/economia/Prendas-amor-animal_0_1661233893.html'
p1
aS'https://www.clarin.com/ieco/economia/Prendas-amor-animal_0_1661233893.html'
p2
aS'https://www.clarin.com/sociedad/Alarma-nuevos-casos-choferes-drogados_0_1661233941.html'
p3
aS'https://www.clarin.com/sociedad/Alarma-nuevos-casos-choferes-drogados_0_1661233941.html'
p4
aS'https://www.clarin.com/politica/Carrio-programa-Mirtha-problemas-cardiacos_0_1661233940.html'
p5
aS'https://www.clarin.com/politica/Carrio-programa-Mirtha-problemas-cardiacos_0_1661233940.html'
p6
aS'https://www.clarin.com/sociedad/Choque-multiple-Autopista-Oeste-heridos_0_1661233934.html'
p7
aS'https://www.clarin.com/sociedad/Choque-multiple-Autopista-Oeste-heridos_0_1661233934.html'
p8
aS'https://www.clarin.com/politica/Margarita-Barrientos-urgentemente-reaccion-Gobierno_0_1661233935.html'
p9
aS'https://www.clarin.com/politica/Margarita-Barrientos-urgentemente-reaccion-Gobierno_0_1661233935.html'
p10
a.