(lp0
S'https://www.clarin.com/politica/Gobierno-promulgo-ley-pago-holdouts_0_1550845024.html'
p1
aS'https://www.clarin.com/politica/Dietrich-terminos-plata-aumento-transporte_0_1550845042.html'
p2
aS'https://www.clarin.com/ieco/Aranguren-justifico-herencia-gobierno-anterior_0_1550845040.html'
p3
aS'https://www.clarin.com/ieco/Venden-US-millones-frenar-disparada_0_1550845049.html'
p4
a.