(lp0
S'https://www.clarin.com/sociedad/Japon-avenida-centrica-hundio-genero_0_1683431686.html'
p1
aS'https://www.clarin.com/sociedad/Japon-avenida-centrica-hundio-genero_0_1683431686.html'
p2
aS'https://www.clarin.com/sociedad/Pulseras-electronicas-sistema-quieren-femicidios_0_1683431667.html'
p3
aS'https://www.clarin.com/sociedad/Pulseras-electronicas-sistema-quieren-femicidios_0_1683431667.html'
p4
a.