(lp0
S'https://www.clarin.com/sociedad/pareja-mujeres-inscribir-despues-espera_0_1571242953.html'
p1
aS'https://www.clarin.com/sociedad/chicos-argentinos-pobre_0_1570643142.html'
p2
aS'https://www.clarin.com/politica/Ahora-pondran-negra-rompehielos-Irizar_0_1571242945.html'
p3
aS'https://www.clarin.com/politica/Vargas-Llosa-necesita-haciendo-Argentina_0_1571242936.html'
p4
aS'https://www.clarin.com/politica/propio-intendente-Comodoro-Rivadavia-petroleros_0_1571242947.html'
p5
aS'https://www.clarin.com/sociedad/avion-Aerolineas-rozo-LATAM-Aeroparque_0_1571242943.html'
p6
a.