(lp0
Vhttps://www.clarin.com/sociedad/ver-tele-peliculas-guardadas-computadora_0_1679832165.html
p1
aVhttps://www.clarin.com/sociedad/ver-tele-peliculas-guardadas-computadora_0_1679832165.html
p2
aVhttps://www.clarin.com/sociedad/Tragedia-Zarate-familia-sufria-bullying_0_1679832159.html
p3
aVhttps://www.clarin.com/politica/Aumento-diputados-pegaron-faltazo-votacion_0_1679832168.html
p4
aVhttps://www.clarin.com/politica/Aumento-diputados-pegaron-faltazo-votacion_0_1679832168.html
p5
aVhttps://www.clarin.com/politica/Sel-embajada-Panama-vuelve-Midachi_0_1679832170.html
p6
aVhttps://www.clarin.com/politica/Sel-embajada-Panama-vuelve-Midachi_0_1679832170.html
p7
aVhttps://www.clarin.com/ieco/economia/marchito-cayeron-ventas-cemento-octubre_0_1679832155.html
p8
aVhttps://www.clarin.com/ieco/economia/marchito-cayeron-ventas-cemento-octubre_0_1679832155.html
p9
aVhttps://www.clarin.com/politica/informe-determino-contamina-Gualeguaychu-Botnia_0_1679832154.html
p10
aVhttps://www.clarin.com/politica/informe-determino-contamina-Gualeguaychu-Botnia_0_1679832154.html
p11
aVhttps://www.clarin.com/sociedad/tripulantes-cabina-Latam-descartan-sorpresivos_0_1679832152.html
p12
aVhttps://www.clarin.com/sociedad/tripulantes-cabina-Latam-descartan-sorpresivos_0_1679832152.html
p13
a.