(lp0
S'https://www.clarin.com/sociedad/precios-nafta-provincias-tanque_0_1508849118.html'
p1
aS'https://www.clarin.com/politica/maximo-despacho-congreso_0_1508849113.html'
p2
aS'https://www.clarin.com/politica/maximo-despacho-congreso_0_1508849113.html'
p3
aS'https://www.clarin.com/politica/ee-uu-creditos-davos_0_1508849112.html'
p4
aS'https://www.clarin.com/politica/anibal-lanatta-abogado_0_1508249657.html'
p5
aS'https://www.clarin.com/politica/anibal-lanatta-abogado_0_1508249657.html'
p6
aS'https://www.clarin.com/politica/Macri-Cameron-Malvinas_0_1508249637.html'
p7
aS'https://www.clarin.com/politica/Macri-Cameron-Malvinas_0_1508249637.html'
p8
a.