(lp0
S'https://www.clarin.com/ieco/fondos_buitre-Thomas_Griesa-NML-Aurelius_0_1520848306.html'
p1
aS'https://www.clarin.com/politica/Enviaran-proyecto-Ganancias-Congreso-proxima_0_1520848272.html'
p2
aS'https://www.clarin.com/politica/Enviaran-proyecto-Ganancias-Congreso-proxima_0_1520848272.html'
p3
a.