(lp0
Vhttps://www.clarin.com/sociedad/Ganas-conociendo-gente-nueva-divertido_0_1656434457.html
p1
aVhttps://www.clarin.com/sociedad/Ganas-conociendo-gente-nueva-divertido_0_1656434457.html
p2
aVhttps://www.clarin.com/sociedad/alquilo-vez-ahora-gran-amiga_0_1656434456.html
p3
aVhttps://www.clarin.com/sociedad/alquilo-vez-ahora-gran-amiga_0_1656434456.html
p4
aVhttps://www.clarin.com/sociedad/geografia-fiesta-suele-tragica_0_1656434455.html
p5
aVhttps://www.clarin.com/politica/Obra-publica-Jose-Lopez-revelaria_0_1656434453.html
p6
aVhttps://www.clarin.com/politica/Obra-publica-Jose-Lopez-revelaria_0_1656434453.html
p7
aVhttps://www.clarin.com/politica/Stiuso-guerra-espias-muerte-Nisman_0_1656434402.html
p8
aVhttps://www.clarin.com/politica/Stiuso-guerra-espias-muerte-Nisman_0_1656434402.html
p9
aVhttps://www.clarin.com/politica/Tomeo-aporto-campana-Cambiemos_0_1656434449.html
p10
aVhttps://www.clarin.com/politica/Tomeo-aporto-campana-Cambiemos_0_1656434449.html
p11
a.