(lp0
S'https://www.clarin.com/politica/bloque-Justicialista-Diputados-cruzo-Capitanich_0_1529847189.html'
p1
aS'https://www.clarin.com/sociedad/Confirman-primer-autoctono-contagio-sexual_0_1529847263.html'
p2
aS'https://www.clarin.com/ieco/economia/Aranguren-mitad-revision-tarifaria-integral_0_1529847257.html'
p3
aS'https://www.clarin.com/ieco/economia/ARBA-nuevo-pagos-morosos-impositivos_0_1529847247.html'
p4
aS'https://www.clarin.com/ieco/bancarios-advierten-faltar-cajeros-semana_0_1529847244.html'
p5
aS'https://www.clarin.com/sociedad/Caballero-galan-investigacion-hecha-Inglaterra_0_1529847238.html'
p6
a.