(lp0
S'https://www.clarin.com/sociedad/uso-medicinal-debate-pendiente-Argentina_0_1522048203.html'
p1
aS'https://www.clarin.com/ieco/cara-dolorosa-inflacion_0_1522647789.html'
p2
aS'https://www.clarin.com/politica/Transicion-economica-costo-desconocido_0_1522647785.html'
p3
aS'https://www.clarin.com/opinion/sistema_educativo-ensenanza_primaria-ensenanza_media-calendario_escolar_0_1522647782.html'
p4
aS'https://www.clarin.com/opinion/sistema_educativo-ensenanza_primaria-ensenanza_media-calendario_escolar_0_1522647781.html'
p5
aS'https://www.clarin.com/opinion/Dialogo_politico-negociacion-acuerdos-Congreso_0_1522647780.html'
p6
aS'https://www.clarin.com/opinion/Alberto_Grimoldi-zapatos-industria_nacional_0_1522647779.html'
p7
aS'https://www.clarin.com/opinion/Alberto_Grimoldi-zapatos-industria_nacional_0_1522647779.html'
p8
aS'https://www.clarin.com/opinion/Costanera_Sur-camioneros-puerto-villa_Rodrigo_Bueno_0_1522647778.html'
p9
aS'https://www.clarin.com/opinion/Costanera_Sur-camioneros-puerto-villa_Rodrigo_Bueno_0_1522647778.html'
p10
aS'https://www.clarin.com/opinion/Carlos_Altschul-cambio_organizacional-liderazgo-nuevos_paradigmas_0_1522647776.html'
p11
aS'https://www.clarin.com/opinion/Carlos_Altschul-cambio_organizacional-liderazgo-nuevos_paradigmas_0_1522647776.html'
p12
aS'https://www.clarin.com/sociedad/marihuana-permite-vivir-hija_0_1522048201.html'
p13
a.