(lp0
Vhttps://www.clarin.com/politica/Milani-acusaciones-represion-desaparecio-Ledo_0_1601239944.html
p1
aVhttps://www.clarin.com/politica/Milani-acusaciones-represion-desaparecio-Ledo_0_1601239944.html
p2
aVhttps://www.clarin.com/sociedad/Piquetero-inesperado-elefante-crias-cruzaran_0_1601239943.html
p3
aVhttps://www.clarin.com/sociedad/Piquetero-inesperado-elefante-crias-cruzaran_0_1601239943.html
p4
aVhttps://www.clarin.com/ieco/economia/Permitiran-veces-facturas-ultimo-bimestre_0_1601239942.html
p5
aVhttps://www.clarin.com/ieco/economia/Permitiran-veces-facturas-ultimo-bimestre_0_1601239942.html
p6
aVhttps://www.clarin.com/sociedad/Trasladaron-Buenos-Aires-pinguinos-accidento_0_1601239938.html
p7
aVhttps://www.clarin.com/sociedad/Trasladaron-Buenos-Aires-pinguinos-accidento_0_1601239938.html
p8
aVhttps://www.clarin.com/sociedad/Video-camion-quedo-llego-frenar_0_1601239935.html
p9
aVhttps://www.clarin.com/sociedad/Video-camion-quedo-llego-frenar_0_1601239935.html
p10
a.