(lp0
Vhttps://www.clarin.com/sociedad/Semana-Santa-turistas-vuelta-Costa_0_1547845576.html
p1
aVhttps://www.clarin.com/sociedad/Semana-Santa-turistas-vuelta-Costa_0_1547845576.html
p2
aVhttps://www.clarin.com/sociedad/operacion-Lanata-revirtio-caida-trasplantes_0_1547845510.html
p3
aVhttps://www.clarin.com/sociedad/nuevos-relojes-inteligentes-elegantes-glamour_0_1548445173.html
p4
aVhttps://www.clarin.com/sociedad/nuevos-relojes-inteligentes-elegantes-glamour_0_1548445173.html
p5
aVhttps://www.clarin.com/sociedad/invento-argentino-hallan-remedio-abejas_0_1547845581.html
p6
aVhttps://www.clarin.com/sociedad/invento-argentino-hallan-remedio-abejas_0_1547845581.html
p7
aVhttps://www.clarin.com/sociedad/Piden-fortalecer-alerta-dengue_0_1547845579.html
p8
aVhttps://www.clarin.com/opinion/Superiores-abstenerse-ahora-jefe-amigo_0_1548445168.html
p9
aVhttps://www.clarin.com/opinion/blindaje-Cristina-entro-crisis_0_1548445166.html
p10
aVhttps://www.clarin.com/opinion/Basta-Cristina_0_1548445164.html
p11
aVhttps://www.clarin.com/opinion/America-latina-fin-ciclo-convergencias_0_1547845492.html
p12
aVhttps://www.clarin.com/opinion/Obama-marxista-Raul-Fidel_0_1547845489.html
p13
aVhttps://www.clarin.com/opinion/Cambiar-modelo-hospital-publico_0_1547845494.html
p14
aVhttps://www.clarin.com/opinion/Cambiar-modelo-hospital-publico_0_1547845494.html
p15
a.