(lp0
Vhttps://www.clarin.com/politica/PRO-jueces-paguen-impuesto-Ganancias_0_1643235784.html
p1
aVhttps://www.clarin.com/politica/PRO-jueces-paguen-impuesto-Ganancias_0_1643235784.html
p2
aVhttps://www.clarin.com/politica/Video-Plaza-Mayo-ahora_0_1643235780.html
p3
aVhttps://www.clarin.com/politica/Video-Plaza-Mayo-ahora_0_1643235780.html
p4
a.