(lp0
S'https://www.clarin.com/politica/PJ-San_Juan-Mauricio_Macri-coparticipacion-interna_0_1508249599.html'
p1
aS'https://www.clarin.com/politica/PJ-San_Juan-Mauricio_Macri-coparticipacion-interna_0_1508249599.html'
p2
aS'https://www.clarin.com/sociedad/Austral-humo-La_Rioja_0_1508249586.html'
p3
aS'https://www.clarin.com/ieco/economia/Bolsa-reboto-suba-petroleo_0_1508249566.html'
p4
aS'https://www.clarin.com/ieco/economia/Real-brasileno-cayo-valor-historia_0_1508249559.html'
p5
aS'https://www.clarin.com/ieco/economia/Macri-Pena-Nieto-directores-multinacionales_0_1508249521.html'
p6
aS'https://www.clarin.com/ieco/economia/Macri-Pena-Nieto-directores-multinacionales_0_1508249521.html'
p7
a.