(lp0
S'https://www.clarin.com/sociedad/dificil-estimularlos-tecnologia_0_1632436851.html'
p1
aS'https://www.clarin.com/opinion/Cris-Hebe-Thelma-Louise_0_1633036682.html'
p2
aS'https://www.clarin.com/sociedad/Conmocion-pueblo-femicidio-amazona_0_1632436865.html'
p3
aS'https://www.clarin.com/ieco/semestre-telefonicas-perdieron-lineas-fijas_0_1632436879.html'
p4
aS'https://www.clarin.com/opinion/edad-jubilarse-perspectiva_0_1633036684.html'
p5
aS'https://www.clarin.com/sociedad/alumnos-juegan-online-rinden-sociales_0_1632436858.html'
p6
aS'https://www.clarin.com/politica/Corte-acuerdo-fallo-tarifas_0_1632436856.html'
p7
aS'https://www.clarin.com/politica/ruidos-ahora-vienen_0_1633036683.html'
p8
aS'https://www.clarin.com/ieco/economia/Suben-precios-perder-facturacion-ventas_0_1632436863.html'
p9
a.