(lp0
Vhttps://www.clarin.com/politica/gobernadores-salieron-medidas-sociales-Macri_0_1560444368.html
p1
aVhttps://www.clarin.com/politica/gobernadores-salieron-medidas-sociales-Macri_0_1560444368.html
p2
aVhttps://www.clarin.com/politica/causa-fiesta-electronica-fuero-federal_0_1560444351.html
p3
aVhttps://www.clarin.com/politica/Cristina-critico-Gobierno-Macri-Twitter_0_1560444345.html
p4
aVhttps://www.clarin.com/politica/Cristina-critico-Gobierno-Macri-Twitter_0_1560444345.html
p5
a.