(lp0
Vhttps://www.clarin.com/opinion/Victimas-chorros-paso_0_1606639428.html
p1
aVhttps://www.clarin.com/politica/Trafico-Corradi-Anibal-Echegaray-Granero_0_1606639474.html
p2
aVhttps://www.clarin.com/politica/Trafico-Corradi-Anibal-Echegaray-Granero_0_1606639474.html
p3
aVhttps://www.clarin.com/politica/Desfile-Tribunales-casos-graves-corrupcion_0_1606639444.html
p4
aVhttps://www.clarin.com/politica/Desfile-Tribunales-casos-graves-corrupcion_0_1606639444.html
p5
aVhttps://www.clarin.com/politica/Cristina-relacion-Baez-Cristobal-inmuebles_0_1606639473.html
p6
aVhttps://www.clarin.com/politica/Cristina-relacion-Baez-Cristobal-inmuebles_0_1606639473.html
p7
aVhttps://www.clarin.com/politica/sospechas-Scholas-Ocurrentes-obra-millonaria_0_1606639472.html
p8
aVhttps://www.clarin.com/politica/sospechas-Scholas-Ocurrentes-obra-millonaria_0_1606639472.html
p9
aVhttps://www.clarin.com/politica/Conti-on-fire-Maximo-pasto_0_1606639469.html
p10
aVhttps://www.clarin.com/politica/Conti-on-fire-Maximo-pasto_0_1606639469.html
p11
aVhttps://www.clarin.com/politica/Cristina-victimizo-pego-oposicion_0_1606639470.html
p12
aVhttps://www.clarin.com/politica/Cristina-victimizo-pego-oposicion_0_1606639470.html
p13
a.