(lp0
Vhttps://www.clarin.com/sociedad/ondas-gravitacionales-revolucionan-mundo-cientifico_0_1520848153.html
p1
aVhttps://www.clarin.com/sociedad/ondas-gravitacionales-revolucionan-mundo-cientifico_0_1520848153.html
p2
aVhttps://www.clarin.com/ieco/economia/fuerte-bolsas-mundiales-arrastra-Merval_0_1520848146.html
p3
aVhttps://www.clarin.com/sociedad/Detectan-existencia-gravitacionales-predichas-Einstein_0_1520848143.html
p4
aVhttps://www.clarin.com/sociedad/Detectan-existencia-gravitacionales-predichas-Einstein_0_1520848143.html
p5
aVhttps://www.clarin.com/politica/Telam-allanamiento_0_1520848133.html
p6
aVhttps://www.clarin.com/politica/kirchnerismo-barbas-veraniegas-lideres_0_1520848130.html
p7
aVhttps://www.clarin.com/politica/kirchnerismo-barbas-veraniegas-lideres_0_1520848130.html
p8
aVhttps://www.clarin.com/sociedad/Murio-soldado-indio-sobrevivido-nieve_0_1520848128.html
p9
aVhttps://www.clarin.com/sociedad/Murio-soldado-indio-sobrevivido-nieve_0_1520848128.html
p10
aVhttps://www.clarin.com/politica/Propaganda-Telam-postales-marquillas-publicos_0_1520848123.html
p11
aVhttps://www.clarin.com/politica/Propaganda-Telam-postales-marquillas-publicos_0_1520848123.html
p12
a.