(lp0
Vhttps://www.clarin.com/ieco/economia/Salta-demora-emision-US-millones_0_1597040311.html
p1
aVhttps://www.clarin.com/sociedad/Moreno-profesor-gimnasia-abusar-chicos_0_1597040309.html
p2
aVhttps://www.clarin.com/politica/Delgado-Lopez-investigan-Cristina-declarar_0_1597040308.html
p3
aVhttps://www.clarin.com/ieco/economia/Newsan-Vamos-crecer-importacion_0_1596440463.html
p4
aVhttps://www.clarin.com/ieco/economia/Newsan-Vamos-crecer-importacion_0_1596440463.html
p5
aVhttps://www.clarin.com/politica/Blanqueo-final-excluyeron-familiares-funcionarios_0_1596440562.html
p6
aVhttps://www.clarin.com/politica/Blanqueo-final-excluyeron-familiares-funcionarios_0_1596440562.html
p7
a.