(lp0
Vhttps://www.clarin.com/sociedad/Mundos-intimos-asusta-apellido-Cancer_0_1643235821.html
p1
aVhttps://www.clarin.com/sociedad/Mundos-intimos-asusta-apellido-Cancer_0_1643235821.html
p2
aVhttps://www.clarin.com/politica/AFI-afirmo-Justicia-espionaje-ilegal_0_1643235869.html
p3
aVhttps://www.clarin.com/politica/AFI-afirmo-Justicia-espionaje-ilegal_0_1643235869.html
p4
aVhttps://www.clarin.com/politica/Macri-Xi-Jinping-inicio-China_0_1643235870.html
p5
aVhttps://www.clarin.com/politica/Macri-Xi-Jinping-inicio-China_0_1643235870.html
p6
aVhttps://www.clarin.com/politica/Amenazan-Luis-Majul-Leonardo-Farina_0_1643235866.html
p7
aVhttps://www.clarin.com/politica/Amenazan-Luis-Majul-Leonardo-Farina_0_1643235866.html
p8
aVhttps://www.clarin.com/politica/Masiva-marcha-Gobierno-gremios-opositores_0_1643235865.html
p9
aVhttps://www.clarin.com/politica/Masiva-marcha-Gobierno-gremios-opositores_0_1643235865.html
p10
aVhttps://www.clarin.com/sociedad/prepagas-suben-cuarta-ano-acumulan_0_1643235859.html
p11
aVhttps://www.clarin.com/sociedad/prepagas-suben-cuarta-ano-acumulan_0_1643235859.html
p12
aVhttps://www.clarin.com/politica/Denuncian-vaciamiento-Telam-publicidad-oficial_0_1643235856.html
p13
aVhttps://www.clarin.com/politica/Denuncian-intereses-financieros-exhorbitantes-Kirchner_0_1643235812.html
p14
aVhttps://www.clarin.com/politica/Denuncian-intereses-financieros-exhorbitantes-Kirchner_0_1643235812.html
p15
a.