(lp0
S'https://www.clarin.com/politica/Massa-vuelve-coquetear-macrismo-negociara_0_1593440773.html'
p1
aS'https://www.clarin.com/politica/Ciudad-Provincia-juntas-protocolo-antipiquetes_0_1593440814.html'
p2
aS'https://www.clarin.com/politica/casa-vive-Cristina-maniobra-sospechosa_0_1594040581.html'
p3
aS'https://www.clarin.com/politica/casa-vive-Cristina-maniobra-sospechosa_0_1594040581.html'
p4
aS'https://www.clarin.com/politica/pedido-intendentes-volveran-gendarmes-Conurbano_0_1593440806.html'
p5
aS'https://www.clarin.com/opinion/Coimear-funeral_0_1593440762.html'
p6
aS'https://www.clarin.com/opinion/anos-Brisa-nieta_0_1593440780.html'
p7
aS'https://www.clarin.com/opinion/anos-Brisa-nieta_0_1593440780.html'
p8
aS'https://www.clarin.com/politica/Mensaje-Gobierno-PJ-ampliacion-Corte_0_1593440811.html'
p9
aS'https://www.clarin.com/politica/promesas-Gobierno-desalojara-protestas-calles_0_1593440810.html'
p10
aS'https://www.clarin.com/politica/promesas-Gobierno-desalojara-protestas-calles_0_1593440810.html'
p11
aS'https://www.clarin.com/ieco/economia/salto-mieles-exito-fondo-tambor_0_1594040660.html'
p12
aS'https://www.clarin.com/ieco/economia/salto-mieles-exito-fondo-tambor_0_1594040660.html'
p13
aS'https://www.clarin.com/ieco/economia/problemas-abundancia-dolares_0_1594040659.html'
p14
aS'https://www.clarin.com/ieco/economia/problemas-abundancia-dolares_0_1594040659.html'
p15
aS'https://www.clarin.com/ieco/economia/viene-repunte-leve-actividad-economica_0_1594040657.html'
p16
aS'https://www.clarin.com/ieco/economia/viene-repunte-leve-actividad-economica_0_1594040657.html'
p17
aS'https://www.clarin.com/ieco/economia/concepto-distinto-mujeres_0_1594040639.html'
p18
aS'https://www.clarin.com/ieco/economia/concepto-distinto-mujeres_0_1594040639.html'
p19
a.