(lp0
Vhttps://www.clarin.com/politica/Movimiento-Evita-pide-autocritica-aleja_0_1561643826.html
p1
aVhttps://www.clarin.com/politica/Movimiento-Evita-pide-autocritica-aleja_0_1561643826.html
p2
aVhttps://www.clarin.com/politica/Macri-empresarios-maximo-esfuerzo-empleados_0_1561044157.html
p3
aVhttps://www.clarin.com/politica/Macri-empresarios-maximo-esfuerzo-empleados_0_1561044157.html
p4
a.