(lp0
S'https://www.clarin.com/politica/Macri-ranking-figuras-importantes-mundo_0_1556844512.html'
p1
aS'https://www.clarin.com/politica/Macri-ranking-figuras-importantes-mundo_0_1556844512.html'
p2
aS'https://www.clarin.com/sociedad/Piden-ONU-legisle-robots-asesinos_0_1556844545.html'
p3
aS'https://www.clarin.com/sociedad/Piden-ONU-legisle-robots-asesinos_0_1556844545.html'
p4
aS'https://www.clarin.com/sociedad/drone-rompe-vidrio-golpea-hombre_0_1556844537.html'
p5
aS'https://www.clarin.com/sociedad/drone-rompe-vidrio-golpea-hombre_0_1556844537.html'
p6
aS'https://www.clarin.com/sociedad/Inundaciones-Santa-Fe-situacion-inedita_0_1556844541.html'
p7
aS'https://www.clarin.com/sociedad/Inundaciones-Santa-Fe-situacion-inedita_0_1556844541.html'
p8
aS'https://www.clarin.com/politica/Alfredo-Casero-activo-Twitter-Cristina_0_1556844525.html'
p9
aS'https://www.clarin.com/politica/Alfredo-Casero-activo-Twitter-Cristina_0_1556844525.html'
p10
aS'https://www.clarin.com/ieco/Unidos-confirman-facilidades-visas-argentinos_0_1556844539.html'
p11
aS'https://www.clarin.com/ieco/Unidos-confirman-facilidades-visas-argentinos_0_1556844539.html'
p12
aS'https://www.clarin.com/sociedad/Capturaron-piton-grande-mundo_0_1556844535.html'
p13
aS'https://www.clarin.com/sociedad/Capturaron-piton-grande-mundo_0_1556844535.html'
p14
aS'https://www.clarin.com/ieco/Argentina-Chile-crean-binacional-construir_0_1556844527.html'
p15
aS'https://www.clarin.com/politica/aguante-Cristina-arranca-tarde-Calafate_0_1556844517.html'
p16
aS'https://www.clarin.com/politica/aguante-Cristina-arranca-tarde-Calafate_0_1556844517.html'
p17
a.