(lp0
S'https://www.clarin.com/sociedad/Chicos-multipantallas-mayoria-cuarto_0_1637836410.html'
p1
aS'https://www.clarin.com/sociedad/Chicos-multipantallas-mayoria-cuarto_0_1637836410.html'
p2
aS'https://www.clarin.com/politica/Macri-almorzo-Moyano-gestos-amistosos_0_1637836409.html'
p3
aS'https://www.clarin.com/sociedad/dicen-adolescentes-uso-pantallas_0_1637836407.html'
p4
aS'https://www.clarin.com/sociedad/dicen-adolescentes-uso-pantallas_0_1637836407.html'
p5
aS'https://www.clarin.com/sociedad/Santos-Pokemones-catolico-salieron-pokesantos_0_1637836401.html'
p6
aS'https://www.clarin.com/sociedad/Santos-Pokemones-catolico-salieron-pokesantos_0_1637836401.html'
p7
aS'https://www.clarin.com/politica/heridos-bala-desalojo-corte-Salta_0_1637836399.html'
p8
aS'https://www.clarin.com/politica/triunvirato-CGT-falto-cita_0_1637836397.html'
p9
aS'https://www.clarin.com/politica/triunvirato-CGT-falto-cita_0_1637836397.html'
p10
aS'https://www.clarin.com/politica/Congreso-impulsan-proyecto-declara-emergencia_0_1637836389.html'
p11
aS'https://www.clarin.com/sociedad/educacion-partida-golpear-escuelas-publicas_0_1637836394.html'
p12
aS'https://www.clarin.com/sociedad/educacion-partida-golpear-escuelas-publicas_0_1637836394.html'
p13
a.