(lp0
S'https://www.clarin.com/politica/Gobierno_nacional-Partido_Justicialista-Frente_para_la_Victoria-Camara_de_Diputados_0_1517248301.html'
p1
aS'https://www.clarin.com/politica/Diego_Bossio-Bloque_Justicialista-Frente_para_la_Victoria-Mauricio_Macri_0_1517248300.html'
p2
aS'https://www.clarin.com/politica/Diego_Bossio-Bloque_Justicialista-Frente_para_la_Victoria-Mauricio_Macri_0_1517248300.html'
p3
aS'https://www.clarin.com/politica/En_el_bolsillo-Mauricio_Macri-inflacion-kirchnerismo-corrupcion_0_1517248299.html'
p4
aS'https://www.clarin.com/politica/En_el_bolsillo-Mauricio_Macri-inflacion-kirchnerismo-corrupcion_0_1517248299.html'
p5
aS'https://www.clarin.com/politica/Frente_para_la_Victoria-oposicion-Camara_de_Diputados_0_1517248298.html'
p6
aS'https://www.clarin.com/ieco/economia/Banco_Provincia-adios-patacones_0_1517248297.html'
p7
aS'https://www.clarin.com/politica/Consejo_de_la_Mgistratura-Camara_de_Casacion-Cristina_Fernandez-jueces_subrogantes_0_1517248281.html'
p8
a.