(lp0
Vhttps://www.clarin.com/ieco/Citan-testigo-CEO-Shell-Aranguren_0_1642035831.html
p1
aVhttps://www.clarin.com/ieco/Citan-testigo-CEO-Shell-Aranguren_0_1642035831.html
p2
aVhttps://www.clarin.com/politica/Macri-inicia-viaje-Cumbre-G-20_0_1642035829.html
p3
aVhttps://www.clarin.com/politica/Macri-inicia-viaje-Cumbre-G-20_0_1642035829.html
p4
aVhttps://www.clarin.com/sociedad/Develan-misteriosa-version-famosa-Grito_0_1642035825.html
p5
aVhttps://www.clarin.com/sociedad/Develan-misteriosa-version-famosa-Grito_0_1642035825.html
p6
aVhttps://www.clarin.com/politica/Gobierno-estima-inflacion-proximo-ano_0_1642035822.html
p7
aVhttps://www.clarin.com/politica/Gobierno-estima-inflacion-proximo-ano_0_1642035822.html
p8
aVhttps://www.clarin.com/ieco/crisis-politica-economia-Brasil-volvio_0_1642035819.html
p9
aVhttps://www.clarin.com/ieco/crisis-politica-economia-Brasil-volvio_0_1642035819.html
p10
aVhttps://www.clarin.com/sociedad/diputada-ataco-patadas-queria-volver_0_1642035817.html
p11
aVhttps://www.clarin.com/sociedad/diputada-ataco-patadas-queria-volver_0_1642035817.html
p12
a.