(lp0
S'https://www.clarin.com/politica/Nisman-ratifican-Bonadio-causa-Timerman_0_1642635884.html'
p1
aS'https://www.clarin.com/ieco/economia/recaudacion-volvio-subir-inflacion_0_1642635895.html'
p2
aS'https://www.clarin.com/politica/Diputados-aprobo-acuerdo-Paris-climatico_0_1642635874.html'
p3
aS'https://www.clarin.com/politica/UVIs-Senado-aprobo-proyecto-Cobos_0_1642635897.html'
p4
aS'https://www.clarin.com/ieco/economia/Crece-participacion-complejos-oleaginoso-exportaciones_0_1642635880.html'
p5
a.