(lp0
Vhttps://www.clarin.com/sociedad/Record-mundial-logra-andar-bicicleta_0_1651634879.html
p1
aVhttps://www.clarin.com/sociedad/Record-mundial-logra-andar-bicicleta_0_1651634879.html
p2
aVhttps://www.clarin.com/politica/Conflicto-Chile-desechos-minera_0_1651634880.html
p3
aVhttps://www.clarin.com/politica/Conflicto-Chile-desechos-minera_0_1651634880.html
p4
aVhttps://www.clarin.com/ieco/EEUU-Deutsche-Bank-US-millones_0_1651634876.html
p5
aVhttps://www.clarin.com/ieco/EEUU-Deutsche-Bank-US-millones_0_1651634876.html
p6
aVhttps://www.clarin.com/sociedad/ano-camino-convertirse-caliente-historia_0_1651634877.html
p7
aVhttps://www.clarin.com/sociedad/ano-camino-convertirse-caliente-historia_0_1651634877.html
p8
a.