(lp0
S'https://www.clarin.com/politica/Caso-Milagro-Sala-detuvieron-filmadas_0_1544845907.html'
p1
aS'https://www.clarin.com/ieco/Cayo-deficit-primeros-meses-ano_0_1544845912.html'
p2
aS'https://www.clarin.com/ieco/titular-OMC-analiza-exportaciones-argentinas_0_1544845892.html'
p3
aS'https://www.clarin.com/ieco/economia/Senado-dictamen-pagarles-fondos-buitre_0_1544845882.html'
p4
aS'https://www.clarin.com/politica/Vocera-Obama-Presidente-ansioso-comer_0_1544845903.html'
p5
a.