(lp0
S'https://www.clarin.com/sociedad/Tercer-dramatica-busqueda-Storani-Delta_0_1552045059.html'
p1
aS'https://www.clarin.com/sociedad/Tercer-dramatica-busqueda-Storani-Delta_0_1552045059.html'
p2
aS'https://www.clarin.com/politica/Jaime-Scioli-Recalde-avalaron-detencion_0_1552045054.html'
p3
aS'https://www.clarin.com/politica/Jaime-Scioli-Recalde-avalaron-detencion_0_1552045054.html'
p4
aS'https://www.clarin.com/politica/Reino-Unido-proteccion-Marina-Malvinas_0_1552045030.html'
p5
aS'https://www.clarin.com/politica/Reino-Unido-proteccion-Marina-Malvinas_0_1552045030.html'
p6
a.