(lp0
Vhttps://www.clarin.com/politica/Ordenan-reabrir-Anibal-Fernandez-enriquecimiento_0_1630037113.html
p1
aVhttps://www.clarin.com/politica/Ordenan-reabrir-Anibal-Fernandez-enriquecimiento_0_1630037113.html
p2
a.