(lp0
S'https://www.clarin.com/sociedad/sopa-consejos-expertos-plato-invierno_0_1621037960.html'
p1
aS'https://www.clarin.com/sociedad/sopa-consejos-expertos-plato-invierno_0_1621037960.html'
p2
aS'https://www.clarin.com/politica/Trolls-Center-Fakes-Bots-Macri-Tinelli_0_1621037954.html'
p3
aS'https://www.clarin.com/politica/Trolls-Center-Fakes-Bots-Macri-Tinelli_0_1621037954.html'
p4
aS'https://www.clarin.com/politica/Macri-Tinelli-solas-Olivos-sellar_0_1621037953.html'
p5
aS'https://www.clarin.com/politica/Macri-Tinelli-solas-Olivos-sellar_0_1621037953.html'
p6
aS'https://www.clarin.com/sociedad/Advertencia-CAME-US-millones-productos_0_1621037952.html'
p7
aS'https://www.clarin.com/sociedad/Advertencia-CAME-US-millones-productos_0_1621037952.html'
p8
aS'https://www.clarin.com/ieco/trimestre-Deutsche-Bank-investigado-EEUU_0_1621037951.html'
p9
aS'https://www.clarin.com/sociedad/Rosetta-corta-comunicacion-espacial-Philae_0_1621037947.html'
p10
aS'https://www.clarin.com/sociedad/Rosetta-corta-comunicacion-espacial-Philae_0_1621037947.html'
p11
aS'https://www.clarin.com/ieco/dolar-sube-centavos_0_1621037945.html'
p12
aS'https://www.clarin.com/ieco/dolar-sube-centavos_0_1621037945.html'
p13
a.