(lp0
Vhttps://www.clarin.com/politica/Detectaron-ciudadano-libanes-sospechado-terrorismo_0_1646835493.html
p1
aVhttps://www.clarin.com/politica/Detectaron-ciudadano-libanes-sospechado-terrorismo_0_1646835493.html
p2
aVhttps://www.clarin.com/sociedad/Efecto-yaguarete-billete-cajeros-redujo_0_1646835492.html
p3
aVhttps://www.clarin.com/sociedad/Efecto-yaguarete-billete-cajeros-redujo_0_1646835492.html
p4
aVhttps://www.clarin.com/politica/Carrio-propuso-expulsar-Vido-Diputados_0_1646835490.html
p5
aVhttps://www.clarin.com/ieco/economia/Crecio-agosto-ingreso-heladeras_0_1646835489.html
p6
a.