(lp0
Vhttps://www.clarin.com/politica/Berni-reconocio-sabia-Perez-Corradi_0_1599440135.html
p1
aVhttps://www.clarin.com/politica/Berni-reconocio-sabia-Perez-Corradi_0_1599440135.html
p2
aVhttps://www.clarin.com/sociedad/Centro-Cultural-Cordoba-policias-culipatin_0_1599440136.html
p3
aVhttps://www.clarin.com/sociedad/Centro-Cultural-Cordoba-policias-culipatin_0_1599440136.html
p4
aVhttps://www.clarin.com/sociedad/Video-piso-caia-pedir-perdon_0_1599440122.html
p5
aVhttps://www.clarin.com/sociedad/Video-piso-caia-pedir-perdon_0_1599440122.html
p6
aVhttps://www.clarin.com/ieco/economia/tramite-AFIP-reintegre-dolar-ahorro_0_1599440130.html
p7
aVhttps://www.clarin.com/ieco/economia/tramite-AFIP-reintegre-dolar-ahorro_0_1599440130.html
p8
aVhttps://www.clarin.com/sociedad/Despues-junio-piden-sume-feriado_0_1599440128.html
p9
aVhttps://www.clarin.com/sociedad/Despues-junio-piden-sume-feriado_0_1599440128.html
p10
a.