(lp0
S'https://www.clarin.com/sociedad/Revelan-reales-cifras-oficiales-muertes_0_1592240813.html'
p1
aS'https://www.clarin.com/politica/Macri-telefono-Putin-Rusia-inversiones_0_1592240820.html'
p2
aS'https://www.clarin.com/ieco/economia/Curutchet-sistema-bancario-dolares-prestar_0_1592240815.html'
p3
aS'https://www.clarin.com/ieco/economia/Basavilbaso-Cristina-emociones-sentimientos-negativos_0_1592240808.html'
p4
aS'https://www.clarin.com/politica/Arroyo-Salgado-queja-Nisman-CIDH_0_1592240805.html'
p5
aS'https://www.clarin.com/politica/angeles-Cristina-senadoras-cambios-Corte_0_1592240814.html'
p6
a.