(lp0
Vhttps://www.clarin.com/politica/Milagro_Sala-Jujuy_0_1507649460.html
p1
aVhttps://www.clarin.com/politica/Milagro_Sala-Jujuy_0_1507649460.html
p2
aVhttps://www.clarin.com/sociedad/Adios-emblema-erotismo-publicarse-Penthouse_0_1507649456.html
p3
aVhttps://www.clarin.com/sociedad/Adios-emblema-erotismo-publicarse-Penthouse_0_1507649456.html
p4
aVhttps://www.clarin.com/politica/Scioli-Mirtha-disputa-Macri-pasando_0_1507649452.html
p5
aVhttps://www.clarin.com/politica/Scioli-Mirtha-disputa-Macri-pasando_0_1507649452.html
p6
aVhttps://www.clarin.com/politica/Davos-cumbre-claves-Mauricio_Macri_0_1507649447.html
p7
aVhttps://www.clarin.com/politica/Davos-cumbre-claves-Mauricio_Macri_0_1507649447.html
p8
aVhttps://www.clarin.com/politica/Santiago_Canton-Maria_Eugenia_Vidal-Derechos_Humanos_0_1507649443.html
p9
aVhttps://www.clarin.com/politica/Santiago_Canton-Maria_Eugenia_Vidal-Derechos_Humanos_0_1507649443.html
p10
aVhttps://www.clarin.com/sociedad/Libros-amor-triunfe_0_1507649435.html
p11
aVhttps://www.clarin.com/sociedad/Libros-amor-triunfe_0_1507649435.html
p12
aVhttps://www.clarin.com/politica/Macri-Davos-inicia-reuniones-empresarios_0_1507649418.html
p13
aVhttps://www.clarin.com/politica/Macri-Davos-inicia-reuniones-empresarios_0_1507649418.html
p14
aVhttps://www.clarin.com/sociedad/Messi-camiseta-nino-iraq-Twitter-foto-viral-pobre-lio_0_1507649420.html
p15
aVhttps://www.clarin.com/sociedad/Messi-camiseta-nino-iraq-Twitter-foto-viral-pobre-lio_0_1507649420.html
p16
a.