(lp0
Vhttps://www.clarin.com/ieco/economia/Braun-UE-Mercosur-Argentina-dispuesta-concesiones_0_1541246169.html
p1
aVhttps://www.clarin.com/ieco/economia/Braun-UE-Mercosur-Argentina-dispuesta-concesiones_0_1541246169.html
p2
aVhttps://www.clarin.com/politica/Futbol-peritaron-camionetas-entregadas-Iveco_0_1541246168.html
p3
aVhttps://www.clarin.com/sociedad/Argentina-paises-felices-mundo_0_1541246135.html
p4
aVhttps://www.clarin.com/sociedad/Argentina-paises-felices-mundo_0_1541246135.html
p5
aVhttps://www.clarin.com/politica/AGN-derogo-plan-auditorias-Echegaray_0_1541246166.html
p6
aVhttps://www.clarin.com/politica/AGN-derogo-plan-auditorias-Echegaray_0_1541246166.html
p7
aVhttps://www.clarin.com/ieco/dolar-pierde-centavos-vende_0_1541246127.html
p8
aVhttps://www.clarin.com/ieco/dolar-pierde-centavos-vende_0_1541246127.html
p9
aVhttps://www.clarin.com/politica/Ruta-dinero-extrano-e-mail-abogado_0_1541246147.html
p10
aVhttps://www.clarin.com/politica/Ruta-dinero-extrano-e-mail-abogado_0_1541246147.html
p11
a.