(lp0
Vhttps://www.clarin.com/politica/Escraches-denuncia-represores-agitacion-grieta_0_1566443442.html
p1
aVhttps://www.clarin.com/politica/Escraches-denuncia-represores-agitacion-grieta_0_1566443442.html
p2
aVhttps://www.clarin.com/sociedad/periodista-paraguayo-Francisco-argentinos-acusados_0_1566443439.html
p3
aVhttps://www.clarin.com/sociedad/periodista-paraguayo-Francisco-argentinos-acusados_0_1566443439.html
p4
aVhttps://www.clarin.com/politica/Imputan-Wado-Pedro-Cristina-exterior_0_1566443440.html
p5
aVhttps://www.clarin.com/politica/Imputan-Wado-Pedro-Cristina-exterior_0_1566443440.html
p6
aVhttps://www.clarin.com/politica/Ahora-Austral-Construcciones-Lazaro-Baez_0_1566443438.html
p7
aVhttps://www.clarin.com/politica/Ahora-Austral-Construcciones-Lazaro-Baez_0_1566443438.html
p8
aVhttps://www.clarin.com/sociedad/Chicos-tucumana-hablaron-astronauta-espacio_0_1566443436.html
p9
aVhttps://www.clarin.com/sociedad/Chicos-tucumana-hablaron-astronauta-espacio_0_1566443436.html
p10
a.