(lp0
Vhttps://www.clarin.com/ieco/economia/jubilen-agosto-podrian-recibir-mayor_0_1603639702.html
p1
aVhttps://www.clarin.com/ieco/economia/jubilen-agosto-podrian-recibir-mayor_0_1603639702.html
p2
aVhttps://www.clarin.com/politica/sincericidio-Moyano-reunion-dirigentes-futbol_0_1603639690.html
p3
aVhttps://www.clarin.com/politica/sincericidio-Moyano-reunion-dirigentes-futbol_0_1603639690.html
p4
aVhttps://www.clarin.com/politica/abogados-Baez-pidieron-suspender-indagatorias_0_1603639700.html
p5
aVhttps://www.clarin.com/politica/abogados-Baez-pidieron-suspender-indagatorias_0_1603639700.html
p6
aVhttps://www.clarin.com/ieco/presion-fiscal-actividad-agricola-menor_0_1603639696.html
p7
aVhttps://www.clarin.com/politica/pronostico-Barrionuevo-Fantino-Doctora-embargar_0_1603639697.html
p8
aVhttps://www.clarin.com/politica/pronostico-Barrionuevo-Fantino-Doctora-embargar_0_1603639697.html
p9
aVhttps://www.clarin.com/politica/funcionaria-Macri-victima-secuestro-virtual_0_1603639692.html
p10
aVhttps://www.clarin.com/politica/funcionaria-Macri-victima-secuestro-virtual_0_1603639692.html
p11
aVhttps://www.clarin.com/sociedad/Revelan-receta-famoso-robada-esclavo_0_1603639694.html
p12
aVhttps://www.clarin.com/sociedad/Revelan-receta-famoso-robada-esclavo_0_1603639694.html
p13
aVhttps://www.clarin.com/ieco/ajuste-Macri-viendo-buenas-noticias_0_1603639688.html
p14
a.