(lp0
Vhttps://www.clarin.com/sociedad/mujer-murio-fiesta-electronica-Cordoba_0_1619838088.html
p1
aVhttps://www.clarin.com/sociedad/mujer-murio-fiesta-electronica-Cordoba_0_1619838088.html
p2
aVhttps://www.clarin.com/politica/primer-semestre-Congreso-sesiones-leyes_0_1619838085.html
p3
aVhttps://www.clarin.com/politica/primer-semestre-Congreso-sesiones-leyes_0_1619838085.html
p4
aVhttps://www.clarin.com/politica/Rechazan-Florencia-Kirchner-seguridad-embargados_0_1619838081.html
p5
aVhttps://www.clarin.com/politica/Rechazan-Florencia-Kirchner-seguridad-embargados_0_1619838081.html
p6
aVhttps://www.clarin.com/sociedad/Chau-DNI-verde-semana-renovarlo_0_1619838078.html
p7
aVhttps://www.clarin.com/sociedad/Chau-DNI-verde-semana-renovarlo_0_1619838078.html
p8
aVhttps://www.clarin.com/ieco/Nintendo-disparan-desploman-Pokemon-Go_0_1619838079.html
p9
aVhttps://www.clarin.com/ieco/Nintendo-disparan-desploman-Pokemon-Go_0_1619838079.html
p10
aVhttps://www.clarin.com/sociedad/mujer-murio-ataque-perro-pitbull_0_1619838076.html
p11
aVhttps://www.clarin.com/sociedad/mujer-murio-ataque-perro-pitbull_0_1619838076.html
p12
aVhttps://www.clarin.com/ieco/Aseguran-bajaran-despacio-segundo-semestre_0_1619838075.html
p13
aVhttps://www.clarin.com/ieco/Aseguran-bajaran-despacio-segundo-semestre_0_1619838075.html
p14
aVhttps://www.clarin.com/ieco/Louis-Vuitton-estadounidense-Donna-Karan_0_1619838074.html
p15
aVhttps://www.clarin.com/ieco/Louis-Vuitton-estadounidense-Donna-Karan_0_1619838074.html
p16
a.