(lp0
S'https://www.clarin.com/sociedad/Detenido-devolver-VHS-hace-anos_0_1547845488.html'
p1
aS'https://www.clarin.com/sociedad/guardiacarcel-hantavirus-denuncian-contagio-trabajaba_0_1547845465.html'
p2
aS'https://www.clarin.com/politica/Hillary-Clinton-Cristina-conductas-infantiles_0_1547845452.html'
p3
aS'https://www.clarin.com/politica/Tierra-Fuego-Gobierno-gremios-conflicto_0_1547845461.html'
p4
a.