(lp0
Vhttps://www.clarin.com/ieco/economia/feriados-Bolsa-portena-trepa_0_1599440192.html
p1
aVhttps://www.clarin.com/ieco/economia/feriados-Bolsa-portena-trepa_0_1599440192.html
p2
aVhttps://www.clarin.com/politica/Escracharon-vuelo-Anibal-rumbo-Londres_0_1599440193.html
p3
aVhttps://www.clarin.com/politica/Escracharon-vuelo-Anibal-rumbo-Londres_0_1599440193.html
p4
aVhttps://www.clarin.com/politica/Parladiputado-Jose-Lopez-Lazaro-Baez_0_1599440184.html
p5
aVhttps://www.clarin.com/politica/Parladiputado-Jose-Lopez-Lazaro-Baez_0_1599440184.html
p6
aVhttps://www.clarin.com/sociedad/Concejo-Deliberante-controles-alcoholemia-Chamical_0_1599440186.html
p7
aVhttps://www.clarin.com/sociedad/Concejo-Deliberante-controles-alcoholemia-Chamical_0_1599440186.html
p8
a.