(lp0
S'https://www.clarin.com/sociedad/dengue-primera-persona-ahora-ventanas_0_1511849214.html'
p1
aS'https://www.clarin.com/sociedad/dengue-primera-persona-ahora-ventanas_0_1511849214.html'
p2
aS'https://www.clarin.com/politica/macri-rosada-climatizacion_energetica_0_1512448742.html'
p3
aS'https://www.clarin.com/politica/macri-rosada-climatizacion_energetica_0_1512448742.html'
p4
aS'https://www.clarin.com/politica/AFA-Futbol_Para_Todos-Macri-Angelici-Lammens-Marin-canales_de_TV-TyC_Sports_0_1511849249.html'
p5
a.