(lp0
S'https://www.clarin.com/politica/Margarita-Barrientos-mencion-Michelle-Obama_0_1545445777.html'
p1
aS'https://www.clarin.com/politica/Farina-seguira-preso-meses_0_1545445792.html'
p2
aS'https://www.clarin.com/sociedad/rebrote-dengue-llego-Cataratas-pleno_0_1545445780.html'
p3
aS'https://www.clarin.com/politica/Obama-homenajeo-victimas-terrorismo-Argentina_0_1545445791.html'
p4
aS'https://www.clarin.com/politica/Macri-Obama-oratorias-diferentes_0_1545445775.html'
p5
aS'https://www.clarin.com/politica/emocion-Obama-respondio-pregunta-Facebook_0_1545445774.html'
p6
aS'https://www.clarin.com/ieco/economia/Urtubey-Criticar-regreso-capitales-idiotez_0_1545445797.html'
p7
aS'https://www.clarin.com/ieco/economia/Aranguren-anticipo-descarta-aumentos-electrica_0_1545445779.html'
p8
aS'https://www.clarin.com/politica/Obama-Argentina-encantan-gestiones-Macri_0_1545445782.html'
p9
aS'https://www.clarin.com/politica/Juliana-Awada-Michelle-Obama-consejos_0_1545445783.html'
p10
a.