(lp0
S'https://www.clarin.com/politica/gobernador-apunto-Cristina-Suenos-Compartidos_0_1628837306.html'
p1
aS'https://www.clarin.com/politica/gobernador-apunto-Cristina-Suenos-Compartidos_0_1628837306.html'
p2
a.