(lp0
S'https://www.clarin.com/sociedad/regimen-compras-puerta-oficial-arranca_0_1621037891.html'
p1
aS'https://www.clarin.com/politica/Multan-LATAM-US-millones-Jaime_0_1620438081.html'
p2
aS'https://www.clarin.com/ieco/economia/Aumento-aceites-acuerdan-aumentos_0_1620438078.html'
p3
aS'https://www.clarin.com/ieco/economia/Caen-exportaciones-achica-saldo-comercial_0_1620438087.html'
p4
aS'https://www.clarin.com/ieco/inflacion-Central-queda-claro-ritmo_0_1620438135.html'
p5
aS'https://www.clarin.com/ieco/Ingenio-Esperanza-capitulo-despilfarro-kirchnerista_0_1620437992.html'
p6
aS'https://www.clarin.com/ieco/Trabajadores-denuncian-agresiones-parte-usuarios_0_1620438105.html'
p7
a.