(lp0
S'https://www.clarin.com/politica/Santa_Fe-comisaria-documentos-dictadura_0_1524447926.html'
p1
aS'https://www.clarin.com/ieco/economia/buitres-inscripcion_0_1524447893.html'
p2
aS'https://www.clarin.com/politica/Jujuy-Detuvieron-militantes-Tupac-Amaru_0_1524447887.html'
p3
aS'https://www.clarin.com/sociedad/Polemica-Misiones-fumigaciones-insecticidas-vencidos_0_1524447895.html'
p4
aS'https://www.clarin.com/sociedad/Mueren-personas-choque-frontal-Tucuman_0_1524447899.html'
p5
aS'https://www.clarin.com/politica/intendentes-PRO-juntan-demostrar-Provincia_0_1524447903.html'
p6
a.