(lp0
S'https://www.clarin.com/ieco/economia/YPF-Petronas-amplian-Vaca-Muerta_0_1681031940.html'
p1
aS'https://www.clarin.com/ieco/economia/YPF-Petronas-amplian-Vaca-Muerta_0_1681031940.html'
p2
aS'https://www.clarin.com/politica/Bonadio-Puerto-Madero-Cristina-Kirchner_0_1681031935.html'
p3
aS'https://www.clarin.com/politica/Bonadio-Puerto-Madero-Cristina-Kirchner_0_1681031935.html'
p4
aS'https://www.clarin.com/sociedad/anonimos-famosos-solo-sexies_0_1681031937.html'
p5
aS'https://www.clarin.com/sociedad/anonimos-famosos-solo-sexies_0_1681031937.html'
p6
a.