(lp0
S'https://www.clarin.com/ieco/economia/dolar-minorista-retrocedio-centavos_0_1573642697.html'
p1
aS'https://www.clarin.com/politica/Massa-convocatoria-Macri-reconocer-problema_0_1573642704.html'
p2
aS'https://www.clarin.com/politica/Massa-convocatoria-Macri-reconocer-problema_0_1573642704.html'
p3
aS'https://www.clarin.com/sociedad/Agencia-Espacial-Europea-personal-vertical_0_1573642690.html'
p4
aS'https://www.clarin.com/sociedad/Agencia-Espacial-Europea-personal-vertical_0_1573642690.html'
p5
aS'https://www.clarin.com/sociedad/podria-resolver-misterio-chicos-desaparecieron_0_1573642688.html'
p6
aS'https://www.clarin.com/sociedad/podria-resolver-misterio-chicos-desaparecieron_0_1573642688.html'
p7
aS'https://www.clarin.com/sociedad/Subastan-millones-escultura-Hitler-rezando_0_1573642665.html'
p8
aS'https://www.clarin.com/sociedad/Subastan-millones-escultura-Hitler-rezando_0_1573642665.html'
p9
aS'https://www.clarin.com/sociedad/Padres-cortan-calle-amenazas-escuelas_0_1573642672.html'
p10
aS'https://www.clarin.com/sociedad/Padres-cortan-calle-amenazas-escuelas_0_1573642672.html'
p11
a.