(lp0
S'https://www.clarin.com/politica/Lavagna-crecimiento-ano-inflacion-cerrara_0_1651035091.html'
p1
aS'https://www.clarin.com/politica/Lavagna-crecimiento-ano-inflacion-cerrara_0_1651035091.html'
p2
aS'https://www.clarin.com/politica/Michetti-empleado-Senado-insultando-Cristina_0_1651035088.html'
p3
aS'https://www.clarin.com/politica/Michetti-empleado-Senado-insultando-Cristina_0_1651035088.html'
p4
aS'https://www.clarin.com/sociedad/Vuelven-Barrick-Gold-despiden-gerente_0_1651035087.html'
p5
aS'https://www.clarin.com/sociedad/Vuelven-Barrick-Gold-despiden-gerente_0_1651035087.html'
p6
aS'https://www.clarin.com/politica/Suma-apoyos-acceso-informacion-publica_0_1651035073.html'
p7
aS'https://www.clarin.com/politica/Suma-apoyos-acceso-informacion-publica_0_1651035073.html'
p8
aS'https://www.clarin.com/politica/Secuestran-documentos-UTN-Rio-Gallegos_0_1651035085.html'
p9
aS'https://www.clarin.com/politica/Secuestran-documentos-UTN-Rio-Gallegos_0_1651035085.html'
p10
aS'https://www.clarin.com/sociedad/podra-cambiar-carrera-repetir-materias_0_1651035081.html'
p11
aS'https://www.clarin.com/sociedad/dolar-adelantan-reservas-veranear-afuera_0_1651035065.html'
p12
aS'https://www.clarin.com/sociedad/dolar-adelantan-reservas-veranear-afuera_0_1651035065.html'
p13
aS'https://www.clarin.com/politica/oposicion-Presupuesto-optimista_0_1651035080.html'
p14
a.