(lp0
S'https://www.clarin.com/sociedad/fuertes-tormentas-Formosa-Neuquen-provincias_0_1675032494.html'
p1
aS'https://www.clarin.com/sociedad/fuertes-tormentas-Formosa-Neuquen-provincias_0_1675032494.html'
p2
aS'https://www.clarin.com/opinion/Randazzo-Julian-cruzada-bonaerense-Cristina_0_1675032491.html'
p3
aS'https://www.clarin.com/politica/Iglesia-revelara-desclasificacion-archivos-dictadura_0_1675032490.html'
p4
aS'https://www.clarin.com/politica/Iglesia-revelara-desclasificacion-archivos-dictadura_0_1675032490.html'
p5
aS'https://www.clarin.com/politica/Tapon-beneficios-blanqueen-confirmen-bienes_0_1674432728.html'
p6
aS'https://www.clarin.com/politica/Tapon-beneficios-blanqueen-confirmen-bienes_0_1674432728.html'
p7
aS'https://www.clarin.com/politica/frustrada-impuestos-juego-grieta-Provincia_0_1674432727.html'
p8
aS'https://www.clarin.com/politica/frustrada-impuestos-juego-grieta-Provincia_0_1674432727.html'
p9
aS'https://www.clarin.com/politica/Macri-justifico-Argentina-suficiente-energia_0_1674432611.html'
p10
aS'https://www.clarin.com/politica/Macri-justifico-Argentina-suficiente-energia_0_1674432611.html'
p11
aS'https://www.clarin.com/ieco/economia/agosto-repunte-leve-empleo-construccion_0_1674432703.html'
p12
aS'https://www.clarin.com/politica/Cristobal-Lopez-transforma-Herald-semanario_0_1674432702.html'
p13
aS'https://www.clarin.com/politica/Cristobal-Lopez-transforma-Herald-semanario_0_1674432702.html'
p14
a.