(lp0
S'https://www.clarin.com/ieco/Argentina-paises-caros-volar_0_1645635480.html'
p1
aS'https://www.clarin.com/ieco/Argentina-paises-caros-volar_0_1645635480.html'
p2
aS'https://www.clarin.com/ieco/economia/Gobierno-financiara-proyectos-eficiencia-energetica_0_1645635477.html'
p3
aS'https://www.clarin.com/ieco/economia/Gobierno-financiara-proyectos-eficiencia-energetica_0_1645635477.html'
p4
aS'https://www.clarin.com/sociedad/Aseguran-particulas-contaminacion-cerebro-podrian_0_1645635478.html'
p5
aS'https://www.clarin.com/sociedad/Aseguran-particulas-contaminacion-cerebro-podrian_0_1645635478.html'
p6
aS'https://www.clarin.com/ieco/economia/Malcorra-Londres-busca-apoyo-candidatura_0_1645635473.html'
p7
aS'https://www.clarin.com/ieco/economia/Malcorra-Londres-busca-apoyo-candidatura_0_1645635473.html'
p8
a.