(lp0
Vhttps://www.clarin.com/politica/DNU-Congreso-Bicameral_de_Tramite_Legislativo-Mauricio_Macri-PJ_disidente_0_1523848028.html
p1
aVhttps://www.clarin.com/politica/DNU-Congreso-Bicameral_de_Tramite_Legislativo-Mauricio_Macri-PJ_disidente_0_1523848028.html
p2
aVhttps://www.clarin.com/sociedad/Polemica-grupo-turistas-fotos-delfin_0_1523848016.html
p3
aVhttps://www.clarin.com/sociedad/Polemica-grupo-turistas-fotos-delfin_0_1523848016.html
p4
aVhttps://www.clarin.com/sociedad/Difunden-Juan-Pablo-II-enamorada_0_1523848004.html
p5
aVhttps://www.clarin.com/sociedad/Difunden-Juan-Pablo-II-enamorada_0_1523848004.html
p6
a.