(lp0
Vhttps://www.clarin.com/politica/encuestas-midieron-impacto-Obama-Argentina_0_1544845626.html
p1
aVhttps://www.clarin.com/politica/encuestas-midieron-impacto-Obama-Argentina_0_1544845626.html
p2
aVhttps://www.clarin.com/ieco/economia/US-mil-millones-sistema_0_1544845625.html
p3
aVhttps://www.clarin.com/politica/Zulema-Cristina-Carlitos-atentado-declarar_0_1544845611.html
p4
aVhttps://www.clarin.com/politica/Zulema-Cristina-Carlitos-atentado-declarar_0_1544845611.html
p5
aVhttps://www.clarin.com/ieco/economia/biotecnologicas-alcanzan-centener-Buenos-Aires_0_1544245839.html
p6
aVhttps://www.clarin.com/ieco/economia/biotecnologicas-alcanzan-centener-Buenos-Aires_0_1544245839.html
p7
aVhttps://www.clarin.com/ieco/tamberos-reclaman-industrias-suban-precios_0_1544245783.html
p8
aVhttps://www.clarin.com/ieco/tamberos-reclaman-industrias-suban-precios_0_1544245783.html
p9
aVhttps://www.clarin.com/politica/Cristina-Rosadita-recaudacion-familia-presidencial_0_1544245944.html
p10
aVhttps://www.clarin.com/politica/Cristina-Rosadita-recaudacion-familia-presidencial_0_1544245944.html
p11
aVhttps://www.clarin.com/ieco/Todas-cajas-ahorro-gratuitas-abril_0_1544245945.html
p12
a.