(lp0
Vhttps://www.clarin.com/ieco/economia/tarjetas-bancarias-criticar-rebaja-aranceles_0_1639036213.html
p1
aVhttps://www.clarin.com/ieco/economia/tarjetas-bancarias-criticar-rebaja-aranceles_0_1639036213.html
p2
aVhttps://www.clarin.com/ieco/economia/podra-abrir-ahorro-presentando-DNI_0_1639036211.html
p3
aVhttps://www.clarin.com/ieco/economia/podra-abrir-ahorro-presentando-DNI_0_1639036211.html
p4
aVhttps://www.clarin.com/ieco/economia/Ultimatum-Isela-Costantini-pilotos-Aerolineas_0_1639036209.html
p5
aVhttps://www.clarin.com/ieco/economia/Ultimatum-Isela-Costantini-pilotos-Aerolineas_0_1639036209.html
p6
aVhttps://www.clarin.com/ieco/economia/Invertiran-millones-logistica_0_1639036207.html
p7
aVhttps://www.clarin.com/ieco/economia/Invertiran-millones-logistica_0_1639036207.html
p8
aVhttps://www.clarin.com/sociedad/Quiso-rescatar-inodoro-publico-atrapado_0_1639036208.html
p9
aVhttps://www.clarin.com/sociedad/Quiso-rescatar-inodoro-publico-atrapado_0_1639036208.html
p10
a.