(lp0
S'https://www.clarin.com/ieco/economia/Definiciones-principal-empresa-alimentos-Argentina_0_1607839371.html'
p1
aS'https://www.clarin.com/ieco/economia/Definiciones-principal-empresa-alimentos-Argentina_0_1607839371.html'
p2
aS'https://www.clarin.com/ieco/economia/Lebacs-Banco-Central-tasas_0_1607839400.html'
p3
aS'https://www.clarin.com/ieco/mitad-portenos-ocupados-gana_0_1607839381.html'
p4
aS'https://www.clarin.com/politica/Millonaria-demanda-Provincia-Nacion_0_1607839433.html'
p5
aS'https://www.clarin.com/politica/Millonaria-demanda-Provincia-Nacion_0_1607839433.html'
p6
aS'https://www.clarin.com/ieco/economia/Santander-optimista-nuevo-economico-Argentina_0_1607839268.html'
p7
aS'https://www.clarin.com/ieco/economia/Santander-optimista-nuevo-economico-Argentina_0_1607839268.html'
p8
aS'https://www.clarin.com/politica/Cristina-postergo-horas-cita-Baez_0_1608439147.html'
p9
aS'https://www.clarin.com/politica/Cristina-postergo-horas-cita-Baez_0_1608439147.html'
p10
aS'https://www.clarin.com/politica/Confirman-Lopez-salio-forma-intempestiva_0_1607839392.html'
p11
aS'https://www.clarin.com/politica/Confirman-Lopez-salio-forma-intempestiva_0_1607839392.html'
p12
aS'https://www.clarin.com/politica/Extraditaron-Perez-Corradi-trafico-efedrina_0_1607839421.html'
p13
aS'https://www.clarin.com/politica/Extraditaron-Perez-Corradi-trafico-efedrina_0_1607839421.html'
p14
aS'https://www.clarin.com/politica/Perez-Corradi-inicia-tribunales-abierto_0_1607839414.html'
p15
aS'https://www.clarin.com/politica/Perez-Corradi-inicia-tribunales-abierto_0_1607839414.html'
p16
aS'https://www.clarin.com/opinion/edades-ideales-nuevo-absurdo-discriminar_0_1607839365.html'
p17
aS'https://www.clarin.com/opinion/edades-ideales-nuevo-absurdo-discriminar_0_1607839365.html'
p18
aS'https://www.clarin.com/opinion/Ituzaingo-control-calles-GBA_0_1607839361.html'
p19
a.