(lp0
S'https://www.clarin.com/opinion/Trump-verdadero-populista_0_1674432666.html'
p1
aS'https://www.clarin.com/opinion/Trump-verdadero-populista_0_1674432666.html'
p2
aS'https://www.clarin.com/sociedad/Debaten-proteccion-ballenas-Japon-ejemplares_0_1674432673.html'
p3
aS'https://www.clarin.com/sociedad/Debaten-proteccion-ballenas-Japon-ejemplares_0_1674432673.html'
p4
aS'https://www.clarin.com/sociedad/Stephen-Wiltshire-sobrevuela-ciudades-dibujarlas_0_1674432675.html'
p5
aS'https://www.clarin.com/sociedad/Stephen-Wiltshire-sobrevuela-ciudades-dibujarlas_0_1674432675.html'
p6
aS'https://www.clarin.com/politica/Vidal-Costantini-acuerdan-Mar-Plata_0_1674432668.html'
p7
aS'https://www.clarin.com/politica/Vidal-Costantini-acuerdan-Mar-Plata_0_1674432668.html'
p8
aS'https://www.clarin.com/opinion/paises-llenos-pobres_0_1674432669.html'
p9
aS'https://www.clarin.com/opinion/paises-llenos-pobres_0_1674432669.html'
p10
aS'https://www.clarin.com/sociedad/disfraces-Halloween-originales-noche-brujas_0_1674432662.html'
p11
aS'https://www.clarin.com/sociedad/disfraces-Halloween-originales-noche-brujas_0_1674432662.html'
p12
aS'https://www.clarin.com/opinion/Dignidad-silencio_0_1674432663.html'
p13
aS'https://www.clarin.com/opinion/Dignidad-silencio_0_1674432663.html'
p14
aS'https://www.clarin.com/sociedad/Chascomus-asesino-mujer-suicido_0_1674432661.html'
p15
a.