(lp0
Vhttps://www.clarin.com/sociedad/Tenes-segundos-ayudar_0_1618038251.html
p1
aVhttps://www.clarin.com/sociedad/Tenes-segundos-ayudar_0_1618038251.html
p2
aVhttps://www.clarin.com/ieco/economia/Energias-renovables-US-beneficios-fiscales_0_1618038248.html
p3
aVhttps://www.clarin.com/ieco/economia/Energias-renovables-US-beneficios-fiscales_0_1618038248.html
p4
aVhttps://www.clarin.com/politica/Reaparecio-Cristina-Milagro-Sala-Skype_0_1618038245.html
p5
aVhttps://www.clarin.com/politica/Reaparecio-Cristina-Milagro-Sala-Skype_0_1618038245.html
p6
aVhttps://www.clarin.com/sociedad/muertos-violento-frontal-Benito-Juarez_0_1618038243.html
p7
aVhttps://www.clarin.com/sociedad/muertos-violento-frontal-Benito-Juarez_0_1618038243.html
p8
aVhttps://www.clarin.com/politica/Macri-Esconder-alfombra-genera-soluciones_0_1618038241.html
p9
aVhttps://www.clarin.com/politica/Macri-Esconder-alfombra-genera-soluciones_0_1618038241.html
p10
a.