(lp0
S'https://www.clarin.com/sociedad/Video-estrello-haciendo-vivio-contarlo_0_1680431989.html'
p1
aS'https://www.clarin.com/sociedad/muerte-Topo-Lopez-reclama-seguro_0_1680431986.html'
p2
aS'https://www.clarin.com/sociedad/SIP-constitucionalista-Gregorio-Badeni-libertad_0_1680431987.html'
p3
aS'https://www.clarin.com/ieco/Gobierno-analiza-ampliar-Ahora_0_1680431975.html'
p4
aS'https://www.clarin.com/politica/Interna-publicos-abogados-familia-Baez_0_1680431982.html'
p5
aS'https://www.clarin.com/politica/Involucran-gremio-CGT-afiliados-SMATA_0_1680431974.html'
p6
aS'https://www.clarin.com/sociedad/Video-homenaje-ensena-salvar-vidas_0_1680431978.html'
p7
aS'https://www.clarin.com/ieco/economia/Viacom-quedarse-Telefe-US-millones_0_1680431992.html'
p8
a.