(lp0
Vhttps://www.clarin.com/ieco/Blanqueo-borrador-proyecto-circula-diciembre_0_1575442529.html
p1
aVhttps://www.clarin.com/ieco/Blanqueo-borrador-proyecto-circula-diciembre_0_1575442529.html
p2
aVhttps://www.clarin.com/politica/massismo-vamos-prestar-especulaciones-FpV_0_1575442527.html
p3
aVhttps://www.clarin.com/politica/massismo-vamos-prestar-especulaciones-FpV_0_1575442527.html
p4
aVhttps://www.clarin.com/sociedad/Podria-saberse-paso-chicos-perdidos_0_1575442499.html
p5
aVhttps://www.clarin.com/sociedad/Podria-saberse-paso-chicos-perdidos_0_1575442499.html
p6
aVhttps://www.clarin.com/sociedad/boliches-incluidos-denuncia-clausura-electronicas_0_1575442519.html
p7
aVhttps://www.clarin.com/sociedad/boliches-incluidos-denuncia-clausura-electronicas_0_1575442519.html
p8
aVhttps://www.clarin.com/politica/Margarita-Barrientos-viajo-Papa-recibio_0_1575442518.html
p9
aVhttps://www.clarin.com/politica/Margarita-Barrientos-viajo-Papa-recibio_0_1575442518.html
p10
a.