(lp0
Vhttps://www.clarin.com/politica/hermana-Ines-encubierto-Lopez-contenido_0_1624037678.html
p1
aVhttps://www.clarin.com/politica/hermana-Ines-encubierto-Lopez-contenido_0_1624037678.html
p2
aVhttps://www.clarin.com/sociedad/Compara-medimos-argentinos-paises-latinoamericanos_0_1624037656.html
p3
aVhttps://www.clarin.com/sociedad/Compara-medimos-argentinos-paises-latinoamericanos_0_1624037656.html
p4
aVhttps://www.clarin.com/sociedad/video-gallina-arrasa-Web_0_1624037674.html
p5
aVhttps://www.clarin.com/sociedad/video-gallina-arrasa-Web_0_1624037674.html
p6
aVhttps://www.clarin.com/ieco/Repunta-venta-autos-julio_0_1624037673.html
p7
aVhttps://www.clarin.com/ieco/Repunta-venta-autos-julio_0_1624037673.html
p8
aVhttps://www.clarin.com/sociedad/Horror-San-Luis-trataban-princesas_0_1624037672.html
p9
aVhttps://www.clarin.com/sociedad/Horror-San-Luis-trataban-princesas_0_1624037672.html
p10
aVhttps://www.clarin.com/sociedad/Trabajo-capacidades-diferentes-asignatura-Argentina_0_1624037669.html
p11
aVhttps://www.clarin.com/sociedad/Trabajo-capacidades-diferentes-asignatura-Argentina_0_1624037669.html
p12
aVhttps://www.clarin.com/sociedad/obra-ingenieria-impresionante-planean-Noruega_0_1624037667.html
p13
aVhttps://www.clarin.com/sociedad/obra-ingenieria-impresionante-planean-Noruega_0_1624037667.html
p14
aVhttps://www.clarin.com/politica/Provincia-Corte-reclamo-millonarios-conurbano_0_1624037666.html
p15
aVhttps://www.clarin.com/politica/Provincia-Corte-reclamo-millonarios-conurbano_0_1624037666.html
p16
aVhttps://www.clarin.com/sociedad/Intervienen-chicos-pobres-realidad-lujoso_0_1624037665.html
p17
aVhttps://www.clarin.com/sociedad/Intervienen-chicos-pobres-realidad-lujoso_0_1624037665.html
p18
aVhttps://www.clarin.com/sociedad/Crean-lastima-humanos-maquinas-asesinas_0_1624037663.html
p19
aVhttps://www.clarin.com/sociedad/Crean-lastima-humanos-maquinas-asesinas_0_1624037663.html
p20
a.