(lp0
Vhttps://www.clarin.com/politica/Celulares-Aguad-admitio-calidad-servicio_0_1649835145.html
p1
aVhttps://www.clarin.com/politica/Celulares-Aguad-admitio-calidad-servicio_0_1649835145.html
p2
aVhttps://www.clarin.com/politica/Preocupacion-CGT-UIA-perdida-empleos_0_1649835140.html
p3
aVhttps://www.clarin.com/politica/Preocupacion-CGT-UIA-perdida-empleos_0_1649835140.html
p4
aVhttps://www.clarin.com/ieco/economia/Levy-Yeyati-inversion-publica-acelerando_0_1649835134.html
p5
aVhttps://www.clarin.com/ieco/economia/Levy-Yeyati-inversion-publica-acelerando_0_1649835134.html
p6
aVhttps://www.clarin.com/politica/Vidal-sumo-campana-mujeres-listas_0_1649835136.html
p7
aVhttps://www.clarin.com/politica/Vidal-sumo-campana-mujeres-listas_0_1649835136.html
p8
aVhttps://www.clarin.com/ieco/Vivo-Foro-Mini-Davos_0_1649835124.html
p9
aVhttps://www.clarin.com/politica/Piden-fundacion-Michetti-Macri-apoyo_0_1649835131.html
p10
aVhttps://www.clarin.com/politica/Piden-fundacion-Michetti-Macri-apoyo_0_1649835131.html
p11
aVhttps://www.clarin.com/sociedad/Mini-Cooper-debera-cursar-educacion_0_1649835130.html
p12
aVhttps://www.clarin.com/sociedad/Mini-Cooper-debera-cursar-educacion_0_1649835130.html
p13
a.