(lp0
S'https://www.clarin.com/sociedad/Alto-riesgo-cuerda-metros-acantilado_0_1662433771.html'
p1
aS'https://www.clarin.com/politica/Encuentran-trataria-empleado-Lazaro-Baez_0_1662433770.html'
p2
aS'https://www.clarin.com/politica/Gustavo-Vera-Papa-maquinas-allanado_0_1662433775.html'
p3
aS'https://www.clarin.com/sociedad/Topologia-cientificos-premiados-Nobel-Fisica_0_1662433764.html'
p4
aS'https://www.clarin.com/politica/Alvaro-Uribe-Macri-apoyando-enganaron_0_1662433761.html'
p5
aS'https://www.clarin.com/politica/Mercosur-Venezuela-agresiones-Argentina-Brasil_0_1662433763.html'
p6
a.