(lp0
S'https://www.clarin.com/ieco/economia/mitos-rol-jovenes-trabajo_0_1501650064.html'
p1
aS'https://www.clarin.com/politica/Carrio-Anibal-Fernandez-Martin-Lanatta_0_1501650117.html'
p2
aS'https://www.clarin.com/ieco/economia/largo-plazo-maquinas-haran-trabajo_0_1501650103.html'
p3
aS'https://www.clarin.com/sociedad/Florianopolis-argentinos-ranking-mejores-playas_0_1501650162.html'
p4
a.