(lp0
S'https://www.clarin.com/sociedad/Alerta-tiburones-record-ataques-personas_0_1523248061.html'
p1
aS'https://www.clarin.com/sociedad/Alerta-tiburones-record-ataques-personas_0_1523248061.html'
p2
aS'https://www.clarin.com/sociedad/Bullrich-gremios-docentes-seguiran-negociaciones_0_1523248040.html'
p3
aS'https://www.clarin.com/sociedad/Bullrich-gremios-docentes-seguiran-negociaciones_0_1523248040.html'
p4
a.