(lp0
S'https://www.clarin.com/politica/Vido-eje-esquema-negocios-redituable_0_1597640402.html'
p1
aS'https://www.clarin.com/politica/espera-Conadep-corrupcion_0_1597640385.html'
p2
aS'https://www.clarin.com/politica/Gobierno-oposicion-firmaron-corrupcion-narcotrafico_0_1597640380.html'
p3
aS'https://www.clarin.com/politica/Macri-firmar-acuerdo-fiscal-gobernadores_0_1597640360.html'
p4
aS'https://www.clarin.com/politica/patas-clave-judicial-impositiva-SIDE_0_1597640398.html'
p5
aS'https://www.clarin.com/opinion/manos-padre_0_1597640376.html'
p6
aS'https://www.clarin.com/opinion/amor-intenso-siempre_0_1597640377.html'
p7
aS'https://www.clarin.com/opinion/nuevos-materiales-todavia-descubrirse_0_1597640365.html'
p8
a.