(lp0
Vhttps://www.clarin.com/politica/Gobierno-empresas-buscan-inversiones-tecnologia_0_1562843945.html
p1
aVhttps://www.clarin.com/politica/Gobierno-empresas-buscan-inversiones-tecnologia_0_1562843945.html
p2
aVhttps://www.clarin.com/politica/Cambiemos-busca-capitalizar-division-massista_0_1562843956.html
p3
aVhttps://www.clarin.com/politica/Cambiemos-busca-capitalizar-division-massista_0_1562843956.html
p4
aVhttps://www.clarin.com/sociedad/festival-doble-gente-dijo-Ciudad_0_1562843949.html
p5
aVhttps://www.clarin.com/sociedad/festival-doble-gente-dijo-Ciudad_0_1562843949.html
p6
aVhttps://www.clarin.com/sociedad/reparos-consumidores-apoyan-boom_0_1562843932.html
p7
aVhttps://www.clarin.com/politica/Malcorra-descarta-candidata-ONU_0_1562843926.html
p8
aVhttps://www.clarin.com/politica/Cristina-bloquear-candidatos-Macri-Corte_0_1562843948.html
p9
aVhttps://www.clarin.com/politica/Cristina-bloquear-candidatos-Macri-Corte_0_1562843948.html
p10
aVhttps://www.clarin.com/sociedad/polemica-Uber-impone-consumo-cotidiano_0_1562843936.html
p11
aVhttps://www.clarin.com/sociedad/polemica-Uber-impone-consumo-cotidiano_0_1562843936.html
p12
a.