(lp0
Vhttps://www.clarin.com/politica/Oficializan-formula-calcular-nuevas-jubilaciones_0_1603639634.html
p1
aVhttps://www.clarin.com/politica/Oficializan-formula-calcular-nuevas-jubilaciones_0_1603639634.html
p2
aVhttps://www.clarin.com/ieco/economia/demora-venta-mayor-transportadora-gas_0_1603039853.html
p3
aVhttps://www.clarin.com/ieco/economia/demora-venta-mayor-transportadora-gas_0_1603039853.html
p4
aVhttps://www.clarin.com/politica/Hector-Mendez-compania-maneja-silencio_0_1603039764.html
p5
aVhttps://www.clarin.com/politica/Hector-Mendez-compania-maneja-silencio_0_1603039764.html
p6
aVhttps://www.clarin.com/politica/Argentina-elegida-sede-G-20_0_1603039808.html
p7
aVhttps://www.clarin.com/politica/medida-rapida-corazon-coartada_0_1603639627.html
p8
aVhttps://www.clarin.com/politica/Justicia-levanto-secreto-familia-Kirchner_0_1603039822.html
p9
aVhttps://www.clarin.com/politica/Justicia-levanto-secreto-familia-Kirchner_0_1603039822.html
p10
a.