(lp0
S'https://www.clarin.com/opinion/Extra-salio-minimanual-militante_0_1504049585.html'
p1
aS'https://www.clarin.com/ieco/plan_fiscal-inflacion-2016_0_1503450123.html'
p2
aS'https://www.clarin.com/politica/Mauricio_Macri-Internacional_Socialista-Gobierno_nacional-socialdemocracia_0_1503450103.html'
p3
aS'https://www.clarin.com/politica/triple_crimen-vidal-perez_corradi_0_1504049586.html'
p4
aS'https://www.clarin.com/politica/Triple_Crimen-triple_fuga-Cristian_Lanatta-Victor_Schillaci_0_1503450109.html'
p5
aS'https://www.clarin.com/ieco/economia/dolar-llego-quedarse_0_1504049588.html'
p6
aS'https://www.clarin.com/ieco/economia/buitres-propuesta_0_1503450104.html'
p7
a.