(lp0
S'https://www.clarin.com/politica/Cristina_Kirchner-sindicalistas-trabajo-video-El_Calafate_0_1506449558.html'
p1
aS'https://www.clarin.com/ieco/economia/ritmo-liquidacion-divisas_0_1506449543.html'
p2
aS'https://www.clarin.com/politica/Confirman-Macri-viajara-Davos-costilla_0_1506449534.html'
p3
aS'https://www.clarin.com/politica/Cristina-justifico-contratos-Aerolineas-ocupacion_0_1506449550.html'
p4
aS'https://www.clarin.com/sociedad/perros-famosos-presidentes_0_1506449552.html'
p5
a.