(lp0
S'https://www.clarin.com/politica/Fideicomiso-Austral-indagatoria-Maximo-Kirchner_0_1645035574.html'
p1
aS'https://www.clarin.com/politica/Pino-Solanas-megabasurero-San-Juan_0_1645035573.html'
p2
a.