(lp0
Vhttps://www.clarin.com/ieco/ultima-Congreso-Aranguren-levanto-polemica_0_1633036716.html
p1
aVhttps://www.clarin.com/ieco/ultima-Congreso-Aranguren-levanto-polemica_0_1633036716.html
p2
aVhttps://www.clarin.com/sociedad/Suben-micros-larga-distancia_0_1633036712.html
p3
aVhttps://www.clarin.com/sociedad/Suben-micros-larga-distancia_0_1633036712.html
p4
aVhttps://www.clarin.com/politica/Nuevo-Milagro-Sala-Plaza-Mayo_0_1633036710.html
p5
aVhttps://www.clarin.com/politica/Nuevo-Milagro-Sala-Plaza-Mayo_0_1633036710.html
p6
a.