(lp0
S'https://www.clarin.com/politica/feedlot-fabrica-quesos-Grupo-Esmeralda_0_1626437390.html'
p1
aS'https://www.clarin.com/ieco/Edenor-Edesur-advierten-tarifazos-continuidad_0_1626437392.html'
p2
aS'https://www.clarin.com/sociedad/Murio-recibir-golpiza-escuela-Corrientes_0_1626437393.html'
p3
aS'https://www.clarin.com/ieco/Blanqueo-preparan-emision-US-millones_0_1626437385.html'
p4
aS'https://www.clarin.com/politica/gobernador-cordobes-metio-polemica-manteca_0_1626437389.html'
p5
a.