(lp0
S'https://www.clarin.com/ieco/Empleados-publicos-Gobierno-aumento-salarial_0_1651034963.html'
p1
aS'https://www.clarin.com/ieco/economia/Ciencia-tecnologia-ingenieria-matematicas-Google_0_1651034965.html'
p2
aS'https://www.clarin.com/sociedad/mujeres-hombres-terminan-secundaria_0_1651034968.html'
p3
aS'https://www.clarin.com/ieco/Frigerio-contradijo-Sturzenegger-inflacion-Argentina_0_1651034971.html'
p4
a.