(lp0
Vhttps://www.clarin.com/politica/Cristina-Ojo-viene-bastones-largos_0_1626437562.html
p1
aVhttps://www.clarin.com/politica/Cristina-Ojo-viene-bastones-largos_0_1626437562.html
p2
aVhttps://www.clarin.com/politica/juez-perdio_0_1626437552.html
p3
aVhttps://www.clarin.com/sociedad/Instagram-Snapchat-guerra-videos-social_0_1626437542.html
p4
aVhttps://www.clarin.com/sociedad/Instagram-Snapchat-guerra-videos-social_0_1626437542.html
p5
a.