(lp0
Vhttps://www.clarin.com/sociedad/blanqueo-Gran-Barrera-Coral-afecta_0_1548445280.html
p1
aVhttps://www.clarin.com/sociedad/blanqueo-Gran-Barrera-Coral-afecta_0_1548445280.html
p2
aVhttps://www.clarin.com/politica/massismo-insiste-Stolbizer-Corte-Suprema_0_1548445274.html
p3
aVhttps://www.clarin.com/politica/massismo-insiste-Stolbizer-Corte-Suprema_0_1548445274.html
p4
aVhttps://www.clarin.com/politica/frases-explosivas-Carrio_0_1548445261.html
p5
aVhttps://www.clarin.com/politica/frases-explosivas-Carrio_0_1548445261.html
p6
aVhttps://www.clarin.com/politica/Argentina-va-cadena-Telesur_0_1547845478.html
p7
aVhttps://www.clarin.com/politica/Argentina-va-cadena-Telesur_0_1547845478.html
p8
a.