(lp0
Vhttps://www.clarin.com/sociedad/cargas-prensa-Ecuador-Buenos-Aires_0_1634236775.html
p1
aVhttps://www.clarin.com/sociedad/cargas-prensa-Ecuador-Buenos-Aires_0_1634236775.html
p2
aVhttps://www.clarin.com/politica/Corte-freno-pararia-Gobierno-audiencia_0_1634236774.html
p3
aVhttps://www.clarin.com/politica/Corte-freno-pararia-Gobierno-audiencia_0_1634236774.html
p4
aVhttps://www.clarin.com/politica/Corte-pararia-suba-luz_0_1634236772.html
p5
aVhttps://www.clarin.com/sociedad/Osteoporosis-droga-podria-prevenir-fracturas_0_1634236769.html
p6
aVhttps://www.clarin.com/sociedad/opinan-padres-darle-plata-chicos_0_1634236765.html
p7
aVhttps://www.clarin.com/sociedad/opinan-padres-darle-plata-chicos_0_1634236765.html
p8
aVhttps://www.clarin.com/ieco/economia/pymes-alerta-fallo-tarifas_0_1634236763.html
p9
aVhttps://www.clarin.com/ieco/economia/pymes-alerta-fallo-tarifas_0_1634236763.html
p10
aVhttps://www.clarin.com/sociedad/Liberaron-Belen-joven-condenada-matar_0_1634236762.html
p11
aVhttps://www.clarin.com/sociedad/Liberaron-Belen-joven-condenada-matar_0_1634236762.html
p12
aVhttps://www.clarin.com/sociedad/Dia-Nino-chicos-recibe-regalos_0_1634236757.html
p13
aVhttps://www.clarin.com/sociedad/Dia-Nino-chicos-recibe-regalos_0_1634236757.html
p14
a.