(lp0
Vhttps://www.clarin.com/politica/Rechazan-cerrar-Scioli-define-Camara_0_1631836936.html
p1
aVhttps://www.clarin.com/politica/Rechazan-cerrar-Scioli-define-Camara_0_1631836936.html
p2
aVhttps://www.clarin.com/sociedad/mira-argentinos-admiten-desconfiados_0_1631836956.html
p3
aVhttps://www.clarin.com/politica/concesiones-Gobierno-salvar-voto-electronico_0_1631836950.html
p4
aVhttps://www.clarin.com/politica/concesiones-Gobierno-salvar-voto-electronico_0_1631836950.html
p5
aVhttps://www.clarin.com/sociedad/Cordoba-analisis-detectar-recien-nacidos_0_1631836949.html
p6
aVhttps://www.clarin.com/sociedad/criminaliza-previene_0_1631836948.html
p7
aVhttps://www.clarin.com/sociedad/deterioro-genera-desigualdad_0_1631836945.html
p8
aVhttps://www.clarin.com/sociedad/confianza-radica-vocacion-servicio_0_1631836943.html
p9
aVhttps://www.clarin.com/sociedad/confianza-radica-vocacion-servicio_0_1631836943.html
p10
aVhttps://www.clarin.com/sociedad/gente-confia-procesos-solidarios_0_1631836942.html
p11
aVhttps://www.clarin.com/sociedad/gente-confia-procesos-solidarios_0_1631836942.html
p12
aVhttps://www.clarin.com/ieco/luz-resuelve-mes-vamos-quiebra_0_1631836889.html
p13
aVhttps://www.clarin.com/ieco/luz-resuelve-mes-vamos-quiebra_0_1631836889.html
p14
a.