(lp0
Vhttps://www.clarin.com/politica/Enarsa-saca-YPF-importacion-gas_0_1675632561.html
p1
aVhttps://www.clarin.com/politica/Enarsa-saca-YPF-importacion-gas_0_1675632561.html
p2
aVhttps://www.clarin.com/ieco/economia/Cresta-Roja-vendio-US-millones_0_1675632548.html
p3
aVhttps://www.clarin.com/ieco/economia/Cresta-Roja-vendio-US-millones_0_1675632548.html
p4
aVhttps://www.clarin.com/ieco/economia/septiembre-desplomo-produccion-industrial-cayo_0_1675632541.html
p5
aVhttps://www.clarin.com/ieco/economia/septiembre-desplomo-produccion-industrial-cayo_0_1675632541.html
p6
aVhttps://www.clarin.com/ieco/economia/Leve-mejora-empleo-agosto-septiembre_0_1675632533.html
p7
aVhttps://www.clarin.com/ieco/economia/Leve-mejora-empleo-agosto-septiembre_0_1675632533.html
p8
aVhttps://www.clarin.com/ieco/EEUU-elimina-trabas-limones-Argentina_0_1675632589.html
p9
aVhttps://www.clarin.com/ieco/EEUU-elimina-trabas-limones-Argentina_0_1675632589.html
p10
aVhttps://www.clarin.com/politica/Macri-ferroviarios-pilotos-Aerolineas-paros_0_1675632493.html
p11
aVhttps://www.clarin.com/politica/Macri-ferroviarios-pilotos-Aerolineas-paros_0_1675632493.html
p12
aVhttps://www.clarin.com/opinion/ocaso-pelados-apocrifos_0_1676232368.html
p13
aVhttps://www.clarin.com/opinion/pelea-bandas-Provincia-dinero-poder_0_1676232367.html
p14
a.