(lp0
S'https://www.clarin.com/sociedad/Confirman-chicas-murieron-ataque-sexual_0_1531647056.html'
p1
aS'https://www.clarin.com/sociedad/Confirman-chicas-murieron-ataque-sexual_0_1531647056.html'
p2
aS'https://www.clarin.com/ieco/economia/litigio-confirman-acuerdo-fondo-buitre_0_1531647068.html'
p3
aS'https://www.clarin.com/ieco/economia/litigio-confirman-acuerdo-fondo-buitre_0_1531647068.html'
p4
aS'https://www.clarin.com/ieco/economia/cerdo-baten-records-produccion-consumo_0_1531647048.html'
p5
aS'https://www.clarin.com/ieco/economia/cerdo-baten-records-produccion-consumo_0_1531647048.html'
p6
a.