(lp0
Vhttps://www.clarin.com/politica/Martin-Baez-critico-fiscal-explicar_0_1571842937.html
p1
aVhttps://www.clarin.com/politica/Martin-Baez-critico-fiscal-explicar_0_1571842937.html
p2
aVhttps://www.clarin.com/sociedad/Afirman-toxico-violar-argentinas-Montanita_0_1571842958.html
p3
aVhttps://www.clarin.com/sociedad/Afirman-toxico-violar-argentinas-Montanita_0_1571842958.html
p4
aVhttps://www.clarin.com/politica/Confirman-construccion-represas-Santa-Cruz_0_1571842962.html
p5
aVhttps://www.clarin.com/politica/Confirman-construccion-represas-Santa-Cruz_0_1571842962.html
p6
aVhttps://www.clarin.com/politica/Jaime-Vido-mantener-subsidios-empresas_0_1571842942.html
p7
aVhttps://www.clarin.com/politica/Jaime-Vido-mantener-subsidios-empresas_0_1571842942.html
p8
a.