(lp0
Vhttps://www.clarin.com/ieco/inflacion-bajara-ritmo-menor-esperado_0_1606039557.html
p1
aVhttps://www.clarin.com/politica/Massa-Stolbizer-caminan-juntos-Provincia_0_1606039555.html
p2
aVhttps://www.clarin.com/politica/Massa-Stolbizer-caminan-juntos-Provincia_0_1606039555.html
p3
a.