(lp0
Vhttps://www.clarin.com/politica/Baranao-podria-dejar-recorte-ciencia_0_1676832498.html
p1
aVhttps://www.clarin.com/ieco/economia/apertura-cuestion_0_1676832497.html
p2
aVhttps://www.clarin.com/ieco/economia/apertura-cuestion_0_1676832497.html
p3
aVhttps://www.clarin.com/sociedad/Argentina-paises-sufren-ciberataques-bancarios_0_1676832496.html
p4
aVhttps://www.clarin.com/sociedad/Argentina-paises-sufren-ciberataques-bancarios_0_1676832496.html
p5
a.