(lp0
Vhttps://www.clarin.com/sociedad/casos-dengue-Provincia-sospechosos-chikungunya_0_1513048927.html
p1
aVhttps://www.clarin.com/sociedad/casos-dengue-Provincia-sospechosos-chikungunya_0_1513048927.html
p2
aVhttps://www.clarin.com/sociedad/vacuna-zika-podria-tardar-llegar_0_1513048918.html
p3
aVhttps://www.clarin.com/sociedad/vacuna-zika-podria-tardar-llegar_0_1513048918.html
p4
aVhttps://www.clarin.com/politica/Cafe-Literario-Marquitos-Pino-Abal_0_1513048908.html
p5
aVhttps://www.clarin.com/politica/Cafe-Literario-Marquitos-Pino-Abal_0_1513048908.html
p6
aVhttps://www.clarin.com/ieco/economia/desencuentro-ministro-Agroindustria-Mesa-Enlace_0_1513048903.html
p7
aVhttps://www.clarin.com/ieco/economia/Central-empleados-incluidos-pareja-Vanoli_0_1513048904.html
p8
aVhttps://www.clarin.com/ieco/economia/Central-empleados-incluidos-pareja-Vanoli_0_1513048904.html
p9
a.