(lp0
S'https://www.clarin.com/politica/reunion-secreta-hizo_0_1596440518.html'
p1
aS'https://www.clarin.com/politica/reunion-secreta-hizo_0_1596440518.html'
p2
aS'https://www.clarin.com/opinion/Comer-chatarra-nubes_0_1596440488.html'
p3
aS'https://www.clarin.com/ieco/plan-Gobierno-trenes-puertos-rutas_0_1596440482.html'
p4
aS'https://www.clarin.com/ieco/plan-Gobierno-trenes-puertos-rutas_0_1596440482.html'
p5
aS'https://www.clarin.com/politica/Gobierno-enfria-debate-ampliacion-Corte_0_1596440560.html'
p6
aS'https://www.clarin.com/sociedad/pasado-futuro-excluyen_0_1596440557.html'
p7
aS'https://www.clarin.com/politica/Macri-triunfos-Congreso-Vamos_0_1596440559.html'
p8
aS'https://www.clarin.com/sociedad/Plataformas-distribucion-desafio-renovado-medios_0_1596440556.html'
p9
aS'https://www.clarin.com/politica/Diccionario-poskirchnerista-exquisito_0_1596440555.html'
p10
aS'https://www.clarin.com/sociedad/obesidad-aprueban-valvula-aspira-estomago_0_1596440550.html'
p11
a.