(lp0
S'https://www.clarin.com/sociedad/tosquera-lujan-muerte-ahogado-hombre_0_1510649057.html'
p1
aS'https://www.clarin.com/sociedad/nuevo-incendio-afecta-turistica-Trevelin_0_1510649086.html'
p2
aS'https://www.clarin.com/politica/Malcorra-Cameron-dispuesto-hablar-Malvinas_0_1510649101.html'
p3
aS'https://www.clarin.com/politica/Casa-Moneda-fundida-deuda-millones_0_1510649074.html'
p4
aS'https://www.clarin.com/politica/Larreta-criticas-gobernadores-movilizar-peronismo_0_1510649083.html'
p5
aS'https://www.clarin.com/ieco/economia/Derogan-restricciones-acceder-archivos-IGJ_0_1510649079.html'
p6
aS'https://www.clarin.com/ieco/economia/Exodo-masivo-ejecutivos-Twitter_0_1510649093.html'
p7
a.