(lp0
S'https://www.clarin.com/politica/Marijuan-considera-esclarecido-dinero-Suiza_0_1601240004.html'
p1
aS'https://www.clarin.com/ieco/economia/Dictan-conciliacion-obligatoria-despidos-supermercados_0_1601240003.html'
p2
aS'https://www.clarin.com/ieco/economia/Dictan-conciliacion-obligatoria-despidos-supermercados_0_1601240003.html'
p3
aS'https://www.clarin.com/politica/Allanan-domicilios-ministro-Julio-Vido_0_1601239997.html'
p4
aS'https://www.clarin.com/politica/Luciana-Martin-Leandro-Melina-Baez_0_1601239988.html'
p5
a.