(lp0
Vhttps://www.clarin.com/sociedad/director-hospital-quiere-combatir-hambre_0_1663633685.html
p1
aVhttps://www.clarin.com/sociedad/director-hospital-quiere-combatir-hambre_0_1663633685.html
p2
aVhttps://www.clarin.com/sociedad/Video-dar-vuelta-tortilla-gigante_0_1663633674.html
p3
aVhttps://www.clarin.com/sociedad/Video-dar-vuelta-tortilla-gigante_0_1663633674.html
p4
aVhttps://www.clarin.com/politica/FAM-quiebre-PJ-Magario-Cambiemos_0_1663633676.html
p5
aVhttps://www.clarin.com/politica/FAM-quiebre-PJ-Magario-Cambiemos_0_1663633676.html
p6
a.