(lp0
Vhttps://www.clarin.com/opinion/odio-verguenza_0_1554444561.html
p1
aVhttps://www.clarin.com/opinion/odio-verguenza_0_1554444561.html
p2
aVhttps://www.clarin.com/opinion/peronismo-objeto-politico-identificado-perdura_0_1553844969.html
p3
aVhttps://www.clarin.com/opinion/corrupcion-sacude-democracias_0_1553844971.html
p4
aVhttps://www.clarin.com/opinion/corrupcion-sacude-democracias_0_1553844971.html
p5
aVhttps://www.clarin.com/opinion/Malvinas-dar-paso-adelante_0_1553844973.html
p6
aVhttps://www.clarin.com/sociedad/llevo-dieron-muerto-sobrevivi-milagro_0_1553845058.html
p7
aVhttps://www.clarin.com/sociedad/llevo-dieron-muerto-sobrevivi-milagro_0_1553845058.html
p8
aVhttps://www.clarin.com/politica/Cristina-Alicia-Kirchner-detencion-Baez_0_1553845015.html
p9
aVhttps://www.clarin.com/politica/Fracaso-intento-oposicion-limitar-deuda_0_1553845097.html
p10
aVhttps://www.clarin.com/politica/Fracaso-intento-oposicion-limitar-deuda_0_1553845097.html
p11
aVhttps://www.clarin.com/politica/Finalmente-kirchnerismo-mantuvo-Forlon-AGN_0_1553845085.html
p12
aVhttps://www.clarin.com/politica/Finalmente-kirchnerismo-mantuvo-Forlon-AGN_0_1553845085.html
p13
aVhttps://www.clarin.com/sociedad/Cromanon-condenados-vuelven-prision-anos_0_1553845082.html
p14
aVhttps://www.clarin.com/politica/juzgado-alterado-Baez-prender-ventilador_0_1553845104.html
p15
aVhttps://www.clarin.com/politica/juzgado-alterado-Baez-prender-ventilador_0_1553845104.html
p16
aVhttps://www.clarin.com/politica/sindicalismo-reclamo-ley-prohibir-despidos_0_1553845076.html
p17
aVhttps://www.clarin.com/politica/sindicalismo-reclamo-ley-prohibir-despidos_0_1553845076.html
p18
a.