(lp0
Vhttps://www.clarin.com/sociedad/NASA-muestra-campos-magneticos-Sol_0_1541246109.html
p1
aVhttps://www.clarin.com/sociedad/NASA-muestra-campos-magneticos-Sol_0_1541246109.html
p2
aVhttps://www.clarin.com/politica/nuevo-folklore-Congreso_0_1541246105.html
p3
aVhttps://www.clarin.com/politica/nuevo-folklore-Congreso_0_1541246105.html
p4
aVhttps://www.clarin.com/ieco/management/Escuelas-samba-leccion-management-brasilena_0_1541246098.html
p5
aVhttps://www.clarin.com/ieco/management/Escuelas-samba-leccion-management-brasilena_0_1541246098.html
p6
aVhttps://www.clarin.com/politica/Claves-pelea-Congreso-tiempos-Griesa_0_1541246097.html
p7
aVhttps://www.clarin.com/politica/diputado-FpV-pedidos-Cristina-justificar_0_1541246092.html
p8
aVhttps://www.clarin.com/politica/diputado-FpV-pedidos-Cristina-justificar_0_1541246092.html
p9
a.