(lp0
Vhttps://www.clarin.com/sociedad/Superacion-extrema-brazos-conquisto-Aconcagua_0_1528647562.html
p1
aVhttps://www.clarin.com/sociedad/Superacion-extrema-brazos-conquisto-Aconcagua_0_1528647562.html
p2
aVhttps://www.clarin.com/sociedad/Twitter-cambio-esencia-sigue-misma_0_1528647555.html
p3
aVhttps://www.clarin.com/sociedad/Twitter-cambio-esencia-sigue-misma_0_1528647555.html
p4
a.