(lp0
S'https://www.clarin.com/politica/Carta-Abierta-sincera-gobierno-Macri_0_1567043296.html'
p1
aS'https://www.clarin.com/politica/Carta-Abierta-sincera-gobierno-Macri_0_1567043296.html'
p2
aS'https://www.clarin.com/ieco/Extienden-devolucion-IVA-compras-debito_0_1567043293.html'
p3
aS'https://www.clarin.com/ieco/Extienden-devolucion-IVA-compras-debito_0_1567043293.html'
p4
aS'https://www.clarin.com/ieco/Deuda-Gobierno-San-Luis-intereses_0_1567043291.html'
p5
aS'https://www.clarin.com/ieco/Deuda-Gobierno-San-Luis-intereses_0_1567043291.html'
p6
aS'https://www.clarin.com/politica/Hadad-recuperar-medios-Lopez-Sousa_0_1566443509.html'
p7
aS'https://www.clarin.com/politica/Hadad-recuperar-medios-Lopez-Sousa_0_1566443509.html'
p8
aS'https://www.clarin.com/politica/Justicia-topo-muestrario-derroche-excentricidad_0_1566443552.html'
p9
aS'https://www.clarin.com/politica/Justicia-topo-muestrario-derroche-excentricidad_0_1566443552.html'
p10
aS'https://www.clarin.com/ieco/Podrian-subir-lacteos-industria-comprension_0_1566443402.html'
p11
aS'https://www.clarin.com/ieco/Podrian-subir-lacteos-industria-comprension_0_1566443402.html'
p12
aS'https://www.clarin.com/ieco/economia/Gonzalez-Fraga-confia-dias-antiinflacionario_0_1566443433.html'
p13
aS'https://www.clarin.com/ieco/economia/Gonzalez-Fraga-confia-dias-antiinflacionario_0_1566443433.html'
p14
a.