(lp0
S'https://www.clarin.com/politica/gobernadores-marcan-tiempos-PJ_0_1605439462.html'
p1
aS'https://www.clarin.com/politica/Procesaron-Lopez-dolares-esconder-convento_0_1604839680.html'
p2
aS'https://www.clarin.com/politica/Procesaron-Lopez-dolares-esconder-convento_0_1604839680.html'
p3
aS'https://www.clarin.com/ieco/economia/Dolar-Central-millones-contratos-heredados_0_1604839682.html'
p4
aS'https://www.clarin.com/ieco/economia/Dolar-Central-millones-contratos-heredados_0_1604839682.html'
p5
aS'https://www.clarin.com/ieco/economia/Autos-lujo-Gobierno-tocara-impuesto_0_1604839653.html'
p6
aS'https://www.clarin.com/ieco/Debate-pago-tenedores-bonos_0_1604839712.html'
p7
aS'https://www.clarin.com/politica/Macri-defiende-Mercosur-Alianza-Pacifico_0_1604839705.html'
p8
a.