(lp0
Vhttps://www.clarin.com/politica/Roberto-Navarro-levantaron-programa-C5N_0_1543645947.html
p1
aVhttps://www.clarin.com/politica/Roberto-Navarro-levantaron-programa-C5N_0_1543645947.html
p2
aVhttps://www.clarin.com/politica/Macri-cadena-nacional-juzgar-personas_0_1543645938.html
p3
aVhttps://www.clarin.com/ieco/Cientificos-datos-perfil-ciencia-negocio_0_1543645902.html
p4
aVhttps://www.clarin.com/ieco/Cientificos-datos-perfil-ciencia-negocio_0_1543645902.html
p5
a.