(lp0
Vhttps://www.clarin.com/sociedad/Polemica-Noruega-Facebook-censuro-napalm_0_1647435267.html
p1
aVhttps://www.clarin.com/sociedad/Polemica-Noruega-Facebook-censuro-napalm_0_1647435267.html
p2
aVhttps://www.clarin.com/politica/CGT-consenso-endurecerse-frente-Macri_0_1646835486.html
p3
aVhttps://www.clarin.com/politica/CGT-consenso-endurecerse-frente-Macri_0_1646835486.html
p4
aVhttps://www.clarin.com/ieco/Rogelio-Frigerio-apertura-indiscriminada-importaciones_0_1646835470.html
p5
aVhttps://www.clarin.com/ieco/Rogelio-Frigerio-apertura-indiscriminada-importaciones_0_1646835470.html
p6
aVhttps://www.clarin.com/ieco/economia/Importaciones-trasfondo-economia-recesion_0_1646835481.html
p7
aVhttps://www.clarin.com/politica/Macri-China-relanzan-Santa-Cruz_0_1646835394.html
p8
aVhttps://www.clarin.com/politica/Macri-China-relanzan-Santa-Cruz_0_1646835394.html
p9
aVhttps://www.clarin.com/ieco/economia/Crisis-OCA-sueldos-empresa-paralizada_0_1646835452.html
p10
aVhttps://www.clarin.com/ieco/economia/Crisis-OCA-sueldos-empresa-paralizada_0_1646835452.html
p11
a.