(lp0
Vhttps://www.clarin.com/sociedad/empresa-Space-enviara-Marte-anos_0_1567043420.html
p1
aVhttps://www.clarin.com/sociedad/empresa-Space-enviara-Marte-anos_0_1567043420.html
p2
aVhttps://www.clarin.com/sociedad/Video-susto-llevo-montana-rusa_0_1567043398.html
p3
aVhttps://www.clarin.com/politica/Carrio-sindicalistas-empresarios-publiquen-declaraciones_0_1567043412.html
p4
aVhttps://www.clarin.com/politica/Carrio-sindicalistas-empresarios-publiquen-declaraciones_0_1567043412.html
p5
aVhttps://www.clarin.com/politica/Marcha-CGT-verian-afectados-servicios_0_1567043391.html
p6
aVhttps://www.clarin.com/politica/Marcha-CGT-verian-afectados-servicios_0_1567043391.html
p7
aVhttps://www.clarin.com/politica/justicia-prision-preventiva-Milagro-Sala_0_1567043401.html
p8
aVhttps://www.clarin.com/politica/justicia-prision-preventiva-Milagro-Sala_0_1567043401.html
p9
a.