(lp0
S'https://www.clarin.com/politica/Ahora-tema-dolar-vaya-abajo_0_1546045413.html'
p1
aS'https://www.clarin.com/politica/hombre-amenazo-periodistas-Radio-Nacional_0_1545445957.html'
p2
aS'https://www.clarin.com/politica/hombre-amenazo-periodistas-Radio-Nacional_0_1545445957.html'
p3
aS'https://www.clarin.com/politica/alicate-Timerman-coooperacion-plena-EEUU_0_1545445946.html'
p4
aS'https://www.clarin.com/politica/alicate-Timerman-coooperacion-plena-EEUU_0_1545445946.html'
p5
aS'https://www.clarin.com/sociedad/paro-deja-chicos-clases-dias_0_1545445942.html'
p6
aS'https://www.clarin.com/sociedad/paro-deja-chicos-clases-dias_0_1545445942.html'
p7
aS'https://www.clarin.com/sociedad/escuela-va-recibirse-fisico_0_1545445938.html'
p8
aS'https://www.clarin.com/sociedad/escuela-va-recibirse-fisico_0_1545445938.html'
p9
aS'https://www.clarin.com/politica/Bariloche-fortificada-recibe-hoy-Obama_0_1546045409.html'
p10
aS'https://www.clarin.com/politica/Bariloche-fortificada-recibe-hoy-Obama_0_1546045409.html'
p11
a.