(lp0
S'https://www.clarin.com/opinion/Piedad-llanto-publico_0_1570043149.html'
p1
aS'https://www.clarin.com/politica/Massa-baja-tono-Gobierno-antidespidos_0_1570043208.html'
p2
aS'https://www.clarin.com/politica/Massa-baja-tono-Gobierno-antidespidos_0_1570043208.html'
p3
aS'https://www.clarin.com/sociedad/implantes-PIP-deberan-indeminizar-argentinas_0_1570043178.html'
p4
aS'https://www.clarin.com/politica/Macri-manana-Mario-Vargas-Llosa_0_1570043164.html'
p5
a.