(lp0
Vhttps://www.clarin.com/politica/Casanello-rechazo-recusacion-hijos-Baez_0_1583841808.html
p1
aVhttps://www.clarin.com/politica/Francisco-Hebe-Bonafini-usa-problema_0_1583841806.html
p2
aVhttps://www.clarin.com/politica/Francisco-Hebe-Bonafini-usa-problema_0_1583841806.html
p3
aVhttps://www.clarin.com/politica/CGT-Moyano-nacional-protesta-populares_0_1583841803.html
p4
aVhttps://www.clarin.com/politica/CGT-Moyano-nacional-protesta-populares_0_1583841803.html
p5
aVhttps://www.clarin.com/sociedad/gente-subte-coches-calle_0_1583841802.html
p6
aVhttps://www.clarin.com/sociedad/gente-subte-coches-calle_0_1583841802.html
p7
aVhttps://www.clarin.com/politica/abogado-Cristina-denuncio-Marcos-Pena_0_1583841740.html
p8
aVhttps://www.clarin.com/politica/Sorpresa-Rosada-difusion-patrimonio-Macri_0_1583841797.html
p9
aVhttps://www.clarin.com/politica/pagarles-jubilados-descartan-acciones-ANSeS_0_1583841789.html
p10
aVhttps://www.clarin.com/politica/pagarles-jubilados-descartan-acciones-ANSeS_0_1583841789.html
p11
a.