(lp0
Vhttps://www.clarin.com/sociedad/celular-Crecen-propuestas-aliviar-online_0_1601240042.html
p1
aVhttps://www.clarin.com/sociedad/celular-Crecen-propuestas-aliviar-online_0_1601240042.html
p2
aVhttps://www.clarin.com/sociedad/Liberan-funcionario-bonaerense-detenido-Grooming_0_1601240033.html
p3
a.