(lp0
S'https://www.clarin.com/politica/Fracaso-intento-expulsar-Lopez-Parlasur_0_1599440180.html'
p1
aS'https://www.clarin.com/sociedad/Mato-condenaron-carcel-quiere-volver_0_1599440177.html'
p2
aS'https://www.clarin.com/sociedad/Justicia-paternidad-pareja-reproduccion-asistida_0_1599440152.html'
p3
a.