(lp0
Vhttps://www.clarin.com/sociedad/Sirio-Sur-gente-olvidar-drama_0_1643835731.html
p1
aVhttps://www.clarin.com/sociedad/Sirio-Sur-gente-olvidar-drama_0_1643835731.html
p2
aVhttps://www.clarin.com/politica/Macri-China-empresarios-bilateral-Putin_0_1643835730.html
p3
aVhttps://www.clarin.com/politica/Macri-China-empresarios-bilateral-Putin_0_1643835730.html
p4
aVhttps://www.clarin.com/sociedad/Nogoya-privacion-ilegitima-superiora-convento_0_1643835722.html
p5
aVhttps://www.clarin.com/sociedad/Nogoya-privacion-ilegitima-superiora-convento_0_1643835722.html
p6
aVhttps://www.clarin.com/sociedad/intervencion-Obelisco-organizacion-TECHO-colecta_0_1643835723.html
p7
aVhttps://www.clarin.com/sociedad/intervencion-Obelisco-organizacion-TECHO-colecta_0_1643835723.html
p8
aVhttps://www.clarin.com/ieco/economia/Pelea-ingreso-mercado-satelites-extranjeros_0_1643835720.html
p9
aVhttps://www.clarin.com/ieco/economia/Pelea-ingreso-mercado-satelites-extranjeros_0_1643835720.html
p10
aVhttps://www.clarin.com/sociedad/Liberan-detenido-acusado-violar-menor_0_1643835717.html
p11
aVhttps://www.clarin.com/sociedad/Liberan-detenido-acusado-violar-menor_0_1643835717.html
p12
aVhttps://www.clarin.com/ieco/economia/Alerta-monotributistas-viene-recategorizacion_0_1643835715.html
p13
aVhttps://www.clarin.com/ieco/economia/Alerta-monotributistas-viene-recategorizacion_0_1643835715.html
p14
aVhttps://www.clarin.com/ieco/economia/Bulgheroni-historia-detras-foto_0_1643835714.html
p15
aVhttps://www.clarin.com/ieco/economia/Bulgheroni-historia-detras-foto_0_1643835714.html
p16
aVhttps://www.clarin.com/sociedad/Juegos-revive-semana-rincones-Ciudad_0_1643835711.html
p17
aVhttps://www.clarin.com/sociedad/Juegos-revive-semana-rincones-Ciudad_0_1643835711.html
p18
a.