(lp0
S'https://www.clarin.com/politica/Jubilados-ANSeS-informara-toca-reajuste_0_1619838005.html'
p1
aS'https://www.clarin.com/politica/Jubilados-ANSeS-informara-toca-reajuste_0_1619838005.html'
p2
aS'https://www.clarin.com/politica/Cristina-reflejo-temor-Baez_0_1619838004.html'
p3
aS'https://www.clarin.com/ieco/economia/Alerta-gremial-consumo-ingreso-importados_0_1619838003.html'
p4
aS'https://www.clarin.com/politica/Justicia-cierran-numeros-Cristina_0_1619838002.html'
p5
aS'https://www.clarin.com/politica/Reparacion-historica-limitaciones_0_1619238170.html'
p6
aS'https://www.clarin.com/ieco/economia/Juegos-Bolivia-envia-Brasil-Argentina_0_1619238172.html'
p7
aS'https://www.clarin.com/ieco/economia/Juegos-Bolivia-envia-Brasil-Argentina_0_1619238172.html'
p8
aS'https://www.clarin.com/politica/Pena-aclaro-agenda-subir-jubilatoria_0_1619238165.html'
p9
aS'https://www.clarin.com/politica/Pena-aclaro-agenda-subir-jubilatoria_0_1619238165.html'
p10
aS'https://www.clarin.com/politica/Denuncian-hijo-Vido-Venezuela_0_1619238161.html'
p11
aS'https://www.clarin.com/politica/Denuncian-hijo-Vido-Venezuela_0_1619238161.html'
p12
aS'https://www.clarin.com/politica/va-presa_0_1619838001.html'
p13
aS'https://www.clarin.com/politica/Buscan-evitar-Tinelli-imagen-Macri_0_1619238169.html'
p14
aS'https://www.clarin.com/politica/Buscan-evitar-Tinelli-imagen-Macri_0_1619238169.html'
p15
aS'https://www.clarin.com/politica/Pese-ley-jubilados-indiferentes-Gobierno_0_1619238125.html'
p16
aS'https://www.clarin.com/politica/Pese-ley-jubilados-indiferentes-Gobierno_0_1619238125.html'
p17
a.