(lp0
S'https://www.clarin.com/politica/Kicillof-evito-respaldar-Echegaray_0_1589241106.html'
p1
aS'https://www.clarin.com/politica/escandalos-herencia-encontro-Macri_0_1589241097.html'
p2
aS'https://www.clarin.com/sociedad/Discutieron-puerta-respuesta-apunalo-espalda_0_1589241100.html'
p3
aS'https://www.clarin.com/politica/lado-informe-politicas-gustaron-Macri_0_1589241108.html'
p4
aS'https://www.clarin.com/politica/informe-completo-Gobierno-herencia_0_1589241104.html'
p5
a.