(lp0
Vhttps://www.clarin.com/politica/conto-abogado-comprado-Rosadita_0_1559244347.html
p1
aVhttps://www.clarin.com/politica/conto-abogado-comprado-Rosadita_0_1559244347.html
p2
aVhttps://www.clarin.com/politica/Chuevo-indagatoria-fiscal-Marijuan-Baez_0_1559244421.html
p3
aVhttps://www.clarin.com/politica/Chuevo-indagatoria-fiscal-Marijuan-Baez_0_1559244421.html
p4
aVhttps://www.clarin.com/sociedad/Bahia-Blanca-abierta-solucion-afectan_0_1559244375.html
p5
aVhttps://www.clarin.com/sociedad/Bahia-Blanca-abierta-solucion-afectan_0_1559244375.html
p6
aVhttps://www.clarin.com/ieco/economia/Pollack-Corte-acercaron-bonistas-acordar_0_1559244411.html
p7
aVhttps://www.clarin.com/ieco/economia/Pollack-Corte-acercaron-bonistas-acordar_0_1559244411.html
p8
aVhttps://www.clarin.com/politica/Suben-YouTube-tutorial-bailar-Cristina_0_1559244408.html
p9
aVhttps://www.clarin.com/politica/Suben-YouTube-tutorial-bailar-Cristina_0_1559244408.html
p10
a.