(lp0
S'https://www.clarin.com/ieco/economia/provincia-Buenos-Aires-US-millones_0_1537046671.html'
p1
aS'https://www.clarin.com/sociedad/perito-moreno-antes-despues_0_1537046675.html'
p2
aS'https://www.clarin.com/politica/Crean-comision-redactar-Ley-Comunicaciones_0_1537046674.html'
p3
aS'https://www.clarin.com/ieco/YPF-definio-reemplazara-Galuccio_0_1537046681.html'
p4
aS'https://www.clarin.com/ieco/Holdouts-Pollack-acuerdos-US-millones_0_1537046655.html'
p5
aS'https://www.clarin.com/politica/Liberaron-Turismo-Mar-Plata-corrupcion_0_1537046661.html'
p6
aS'https://www.clarin.com/ieco/economia/Afirman-perdieron-empleos-construccion-diciembre_0_1537046641.html'
p7
aS'https://www.clarin.com/ieco/economia/Sociedad-Rural-Macri-gobierna-ricos_0_1537046663.html'
p8
a.