(lp0
S'https://www.clarin.com/politica/Schoklender-fundacion-Madres-Boudou-Lopez_0_1611438957.html'
p1
aS'https://www.clarin.com/sociedad/Video-publicidad-asusta-gente-subte_0_1611438959.html'
p2
aS'https://www.clarin.com/sociedad/Salieron-Cordoba-America-casamiento-Alaska_0_1611438930.html'
p3
aS'https://www.clarin.com/ieco/economia/dolar-minorista-gano-centavos-cerro_0_1611438949.html'
p4
aS'https://www.clarin.com/sociedad/frio-llegara-jueves-Buenos-Aires_0_1611438969.html'
p5
a.