(lp0
Vhttps://www.clarin.com/sociedad/Provincia-Buenos-Aires-protocolo-punible_0_1670832932.html
p1
aVhttps://www.clarin.com/sociedad/Misiones-fuerte-temporal-muerto-multiples_0_1670832929.html
p2
aVhttps://www.clarin.com/sociedad/Misiones-fuerte-temporal-muerto-multiples_0_1670832929.html
p3
aVhttps://www.clarin.com/politica/Andrea-ladrona-actriz-video-parodia_0_1670832930.html
p4
aVhttps://www.clarin.com/politica/Andrea-ladrona-actriz-video-parodia_0_1670832930.html
p5
aVhttps://www.clarin.com/politica/Internan-intendente-Bahia-Blanca-calculo_0_1670832925.html
p6
aVhttps://www.clarin.com/politica/Internan-intendente-Bahia-Blanca-calculo_0_1670832925.html
p7
aVhttps://www.clarin.com/sociedad/Hacen-cosas-increibles-paleta-pelotita_0_1670832923.html
p8
aVhttps://www.clarin.com/sociedad/Hacen-cosas-increibles-paleta-pelotita_0_1670832923.html
p9
aVhttps://www.clarin.com/sociedad/Macri-salio-defender-evaluacion-alumnos_0_1670832922.html
p10
aVhttps://www.clarin.com/sociedad/Macri-salio-defender-evaluacion-alumnos_0_1670832922.html
p11
a.