(lp0
S'https://www.clarin.com/politica/Lazaro-Baez-Ezeiza-demasiada-extrana_0_1606639329.html'
p1
aS'https://www.clarin.com/politica/Papa-Francisco-problema-Macri-persona_0_1606639327.html'
p2
aS'https://www.clarin.com/politica/Perez-Corradi-campana-Cristina-contando_0_1606639336.html'
p3
aS'https://www.clarin.com/politica/ambulancia-Matias-Terron_0_1606639325.html'
p4
aS'https://www.clarin.com/sociedad/increible-historia-Basilica-Lujan-silencio_0_1606039505.html'
p5
aS'https://www.clarin.com/politica/Norberto-Oyarbide-Cristina-investigar-cosas_0_1606639330.html'
p6
aS'https://www.clarin.com/politica/Macri-considera-grande-jubilados-estafa_0_1606639331.html'
p7
a.