(lp0
S'https://www.clarin.com/politica/Carlotto-Obama-quiere-reunirse-supuesto_0_1528047600.html'
p1
aS'https://www.clarin.com/politica/Michetti-Brasil-preguntaron-despidos_0_1528047586.html'
p2
aS'https://www.clarin.com/politica/Carrio-Bevacqua-pedira-Macri-restituya_0_1528047614.html'
p3
a.