(lp0
Vhttps://www.clarin.com/politica/Massa-Pichetto-Romero-acercamiento-peronismo_0_1613238733.html
p1
aVhttps://www.clarin.com/politica/Massa-Pichetto-Romero-acercamiento-peronismo_0_1613238733.html
p2
aVhttps://www.clarin.com/politica/Cancilleria-intercede-cordobes-condenado-Texas_0_1613238732.html
p3
aVhttps://www.clarin.com/politica/Cancilleria-intercede-cordobes-condenado-Texas_0_1613238732.html
p4
aVhttps://www.clarin.com/sociedad/Exhiben-primera-papiros-antiguos-Egipto_0_1613238728.html
p5
aVhttps://www.clarin.com/sociedad/Exhiben-primera-papiros-antiguos-Egipto_0_1613238728.html
p6
aVhttps://www.clarin.com/ieco/Toyota-Fiat-Chevrolet-marcas-vendidas_0_1613238726.html
p7
aVhttps://www.clarin.com/ieco/Toyota-Fiat-Chevrolet-marcas-vendidas_0_1613238726.html
p8
aVhttps://www.clarin.com/sociedad/Gastaron-millones-parque-acuatico-inunda_0_1613238721.html
p9
aVhttps://www.clarin.com/sociedad/Gastaron-millones-parque-acuatico-inunda_0_1613238721.html
p10
aVhttps://www.clarin.com/ieco/empresa-quiere-agregar-trabajo-gremio_0_1613238714.html
p11
aVhttps://www.clarin.com/ieco/empresa-quiere-agregar-trabajo-gremio_0_1613238714.html
p12
aVhttps://www.clarin.com/politica/Dinero-inmuebles-empresas-Florencia-Kirchner_0_1613238705.html
p13
aVhttps://www.clarin.com/politica/Dinero-inmuebles-empresas-Florencia-Kirchner_0_1613238705.html
p14
a.