(lp0
S'https://www.clarin.com/ieco/empresas-y-negocios/Yahoo-cierra-oficinas-Argentina_0_1511249154.html'
p1
aS'https://www.clarin.com/ieco/empresas-y-negocios/Yahoo-cierra-oficinas-Argentina_0_1511249154.html'
p2
aS'https://www.clarin.com/sociedad/farmacias-portenas-suspendieron-jubilados-PAMI_0_1511249150.html'
p3
aS'https://www.clarin.com/sociedad/Conmovedor-reacciona-despertarse-trasplante-corazon_0_1511249153.html'
p4
aS'https://www.clarin.com/sociedad/Conmovedor-reacciona-despertarse-trasplante-corazon_0_1511249153.html'
p5
aS'https://www.clarin.com/politica/Carlos_Verna-Jose_Manuel_de_la_Sota-PJ_0_1511249146.html'
p6
aS'https://www.clarin.com/politica/Carlos_Verna-Jose_Manuel_de_la_Sota-PJ_0_1511249146.html'
p7
aS'https://www.clarin.com/sociedad/tren-viajara-podria-funcionando-solo_0_1511249143.html'
p8
aS'https://www.clarin.com/sociedad/tren-viajara-podria-funcionando-solo_0_1511249143.html'
p9
aS'https://www.clarin.com/sociedad/carpintero-encontro-millon-devolvio-dueno_0_1511249136.html'
p10
aS'https://www.clarin.com/sociedad/carpintero-encontro-millon-devolvio-dueno_0_1511249136.html'
p11
a.