(lp0
Vhttps://www.clarin.com/opinion/ciencia-aca-alla_0_1681032024.html
p1
aVhttps://www.clarin.com/opinion/ciencia-aca-alla_0_1681032024.html
p2
aVhttps://www.clarin.com/politica/Facundo-Moyano-Democracia-sindical-mandatos_0_1680432135.html
p3
aVhttps://www.clarin.com/politica/Facundo-Moyano-Democracia-sindical-mandatos_0_1680432135.html
p4
aVhttps://www.clarin.com/politica/Boudou-patas-fuente-Plaza-Mayo_0_1681032019.html
p5
aVhttps://www.clarin.com/politica/Boudou-patas-fuente-Plaza-Mayo_0_1681032019.html
p6
aVhttps://www.clarin.com/ieco/economia/Solo-sectores-economicos-creceran_0_1681031994.html
p7
aVhttps://www.clarin.com/ieco/economia/Solo-sectores-economicos-creceran_0_1681031994.html
p8
aVhttps://www.clarin.com/ieco/economia/grupo-italiano-instala-bodega-Mendoza_0_1681032011.html
p9
aVhttps://www.clarin.com/ieco/economia/grupo-italiano-instala-bodega-Mendoza_0_1681032011.html
p10
aVhttps://www.clarin.com/politica/CTA-kirchnerismo-Gobierno-Plaza-Mayo_0_1681032009.html
p11
aVhttps://www.clarin.com/politica/CTA-kirchnerismo-Gobierno-Plaza-Mayo_0_1681032009.html
p12
aVhttps://www.clarin.com/sociedad/Marcharan-justicia-argentino-asesinado-Brasil_0_1681032004.html
p13
aVhttps://www.clarin.com/sociedad/Marcharan-justicia-argentino-asesinado-Brasil_0_1681032004.html
p14
aVhttps://www.clarin.com/politica/Nuevo-Timerman-investiga-traicion-Patria_0_1681032005.html
p15
aVhttps://www.clarin.com/politica/Nuevo-Timerman-investiga-traicion-Patria_0_1681032005.html
p16
a.