(lp0
S'https://www.clarin.com/politica/Ricardo-Saenz-Alberto-Nisman-asesinado_0_1529247274.html'
p1
aS'https://www.clarin.com/sociedad/Buscan-herrero-violo-hijastra-anos_0_1529247296.html'
p2
aS'https://www.clarin.com/politica/PO-aviso-apertura-sesiones-Macri_0_1529247294.html'
p3
aS'https://www.clarin.com/politica/cruces-fuertes-Congreso-PJ_0_1529247279.html'
p4
aS'https://www.clarin.com/politica/Inversiones-UE-Michetti-Tabare-Vazquez_0_1529247300.html'
p5
aS'https://www.clarin.com/politica/Modificaron-decreto-irrito-gobernadores_0_1529247284.html'
p6
a.