(lp0
S'https://www.clarin.com/politica/militante-Campora-Cannes-dinero-publico_0_1526247547.html'
p1
aS'https://www.clarin.com/politica/militante-Campora-Cannes-dinero-publico_0_1526247547.html'
p2
aS'https://www.clarin.com/politica/Denuncia-gremios-Gobierno-riesgo-inicio_0_1526247530.html'
p3
aS'https://www.clarin.com/politica/Denuncia-gremios-Gobierno-riesgo-inicio_0_1526247530.html'
p4
aS'https://www.clarin.com/sociedad/niego-robot-culto-gusta_0_1526247524.html'
p5
aS'https://www.clarin.com/sociedad/niego-robot-culto-gusta_0_1526247524.html'
p6
aS'https://www.clarin.com/sociedad/Mundos_intimos-literatura_y_medicina-Daniel_Ulanovsky_0_1526247496.html'
p7
aS'https://www.clarin.com/sociedad/Mundos_intimos-medicina_y_literatura-Juan_Zorraquin_0_1526247495.html'
p8
aS'https://www.clarin.com/sociedad/Mundos_intimos-medicina_y_literatura-Juan_Zorraquin_0_1526247495.html'
p9
a.