(lp0
S'https://www.clarin.com/sociedad/Superman-droga-moda-altamente-toxica_0_1559844284.html'
p1
aS'https://www.clarin.com/ieco/FMI-Argentina-Alguna-dificil-digerir_0_1559844290.html'
p2
aS'https://www.clarin.com/ieco/Prat-Gay-creimos-ibamos-mejor-altura_0_1559844294.html'
p3
aS'https://www.clarin.com/sociedad/Jugado-tuit-mujer-Lanata_0_1559844287.html'
p4
a.