(lp0
Vhttps://www.clarin.com/politica/Fernando-Chino-Navarro-Jaime-FPV_0_1553244976.html
p1
aVhttps://www.clarin.com/politica/Fernando-Chino-Navarro-Jaime-FPV_0_1553244976.html
p2
aVhttps://www.clarin.com/politica/Allanan-estudio-Dromi-causa-Vido_0_1553244967.html
p3
aVhttps://www.clarin.com/politica/Allanan-estudio-Dromi-causa-Vido_0_1553244967.html
p4
aVhttps://www.clarin.com/sociedad/Absuelven-empleado-acusado-tocarle-companera_0_1553244968.html
p5
aVhttps://www.clarin.com/sociedad/Absuelven-empleado-acusado-tocarle-companera_0_1553244968.html
p6
aVhttps://www.clarin.com/politica/juez-rechazo-excarcelacion-Jaime-Vazquez_0_1553244945.html
p7
aVhttps://www.clarin.com/politica/juez-rechazo-excarcelacion-Jaime-Vazquez_0_1553244945.html
p8
aVhttps://www.clarin.com/ieco/economia/inversiones-vienen-energia-renovables-represas_0_1553244957.html
p9
aVhttps://www.clarin.com/ieco/economia/inversiones-vienen-energia-renovables-represas_0_1553244957.html
p10
a.