(lp0
Vhttps://www.clarin.com/ieco/economia/rueda-menor-volumen-mantuvo-estable_0_1574242677.html
p1
aVhttps://www.clarin.com/politica/Educacion-Macri-error-prohibido-aplazos_0_1574242680.html
p2
aVhttps://www.clarin.com/politica/Educacion-Macri-error-prohibido-aplazos_0_1574242680.html
p3
aVhttps://www.clarin.com/politica/oposicion-antidespidos-votarla-sesion-especial_0_1574242682.html
p4
aVhttps://www.clarin.com/politica/oposicion-antidespidos-votarla-sesion-especial_0_1574242682.html
p5
a.