(lp0
Vhttps://www.clarin.com/sociedad/Apuntan-Comuna-Matanza-muerte-policias_0_1572442798.html
p1
aVhttps://www.clarin.com/sociedad/Mundos-intimos-Crecer-catolica-intento_0_1571842960.html
p2
aVhttps://www.clarin.com/sociedad/Mundos-intimos-Crecer-catolica-intento_0_1571842960.html
p3
aVhttps://www.clarin.com/sociedad/forma-mestizos_0_1571842965.html
p4
a.