(lp0
Vhttps://www.clarin.com/sociedad/Descomunal-comio-panchos-minutos_0_1607839304.html
p1
aVhttps://www.clarin.com/sociedad/Descomunal-comio-panchos-minutos_0_1607839304.html
p2
aVhttps://www.clarin.com/ieco/economia/grieta-portena-hogares-Norte-Sur_0_1607839299.html
p3
aVhttps://www.clarin.com/ieco/economia/grieta-portena-hogares-Norte-Sur_0_1607839299.html
p4
aVhttps://www.clarin.com/sociedad/primer-festival-porno-virtual-termino_0_1607839297.html
p5
aVhttps://www.clarin.com/sociedad/primer-festival-porno-virtual-termino_0_1607839297.html
p6
aVhttps://www.clarin.com/sociedad/Recuperan-anos-intentaban-cruzarla-Bolivia_0_1607839296.html
p7
aVhttps://www.clarin.com/sociedad/Recuperan-anos-intentaban-cruzarla-Bolivia_0_1607839296.html
p8
aVhttps://www.clarin.com/sociedad/jueces-liberaron-organizadores-Time-Warp_0_1607839292.html
p9
aVhttps://www.clarin.com/sociedad/jueces-liberaron-organizadores-Time-Warp_0_1607839292.html
p10
aVhttps://www.clarin.com/politica/Barenboim-Macri-Argentina-recibir-refugiados_0_1607839290.html
p11
aVhttps://www.clarin.com/sociedad/video-recorre-anos-bikini_0_1607839287.html
p12
aVhttps://www.clarin.com/sociedad/video-recorre-anos-bikini_0_1607839287.html
p13
a.