(lp0
S'https://www.clarin.com/politica/Merlo-abuchean-tiran-huevos-Macri_0_1537646646.html'
p1
aS'https://www.clarin.com/politica/Ottavis-creo-defenderse-acusacion-maltrato_0_1537646622.html'
p2
aS'https://www.clarin.com/politica/Ottavis-creo-defenderse-acusacion-maltrato_0_1537646622.html'
p3
aS'https://www.clarin.com/politica/inflacion-febrero-trepo-IPC-Congreso_0_1537646610.html'
p4
aS'https://www.clarin.com/politica/inflacion-febrero-trepo-IPC-Congreso_0_1537646610.html'
p5
a.