(lp0
Vhttps://www.clarin.com/ieco/economia/minera-australiana-queda-proyecto-Andacollo_0_1642635830.html
p1
aVhttps://www.clarin.com/politica/Lazaro-Baez-cambia-abogado-Rusconi_0_1642635805.html
p2
aVhttps://www.clarin.com/politica/Lazaro-Baez-cambia-abogado-Rusconi_0_1642635805.html
p3
aVhttps://www.clarin.com/sociedad/solidario-mellizas-ayudar-pacientes-cancer_0_1642635827.html
p4
aVhttps://www.clarin.com/sociedad/solidario-mellizas-ayudar-pacientes-cancer_0_1642635827.html
p5
aVhttps://www.clarin.com/politica/Polemica-Diputados-destitucion-Dilma_0_1642635828.html
p6
aVhttps://www.clarin.com/politica/Polemica-Diputados-destitucion-Dilma_0_1642635828.html
p7
aVhttps://www.clarin.com/politica/Congreso-escuchas-telefonicas-Corte-Suprema_0_1642635826.html
p8
aVhttps://www.clarin.com/politica/Congreso-escuchas-telefonicas-Corte-Suprema_0_1642635826.html
p9
aVhttps://www.clarin.com/sociedad/numero-llamar-emergencia_0_1642635823.html
p10
aVhttps://www.clarin.com/sociedad/numero-llamar-emergencia_0_1642635823.html
p11
a.