(lp0
Vhttps://www.clarin.com/politica/Road-show-Diputados-combo-alternativo_0_1565243654.html
p1
aVhttps://www.clarin.com/politica/Road-show-Diputados-combo-alternativo_0_1565243654.html
p2
aVhttps://www.clarin.com/ieco/Jubilados-ANSeS-analiza-pagarles-retroactivos_0_1565243617.html
p3
aVhttps://www.clarin.com/ieco/Jubilados-ANSeS-analiza-pagarles-retroactivos_0_1565243617.html
p4
aVhttps://www.clarin.com/politica/Negociaciones-Senado-frenar-ley-antidespidos_0_1565243652.html
p5
aVhttps://www.clarin.com/politica/Negociaciones-Senado-frenar-ley-antidespidos_0_1565243652.html
p6
aVhttps://www.clarin.com/politica/Ahora-Grindetti-aclarar-pedido-captura_0_1565243621.html
p7
aVhttps://www.clarin.com/politica/Ahora-Grindetti-aclarar-pedido-captura_0_1565243621.html
p8
aVhttps://www.clarin.com/politica/Macri-anuncio-primer-empleo-jovenes_0_1565243651.html
p9
aVhttps://www.clarin.com/politica/Macri-anuncio-primer-empleo-jovenes_0_1565243651.html
p10
aVhttps://www.clarin.com/opinion/compania-naranja_0_1565243647.html
p11
aVhttps://www.clarin.com/politica/fiscal-investigar-subjefa-SIDE-lavado_0_1565243609.html
p12
aVhttps://www.clarin.com/politica/fiscal-investigar-subjefa-SIDE-lavado_0_1565243609.html
p13
aVhttps://www.clarin.com/sociedad/perro-mato-nene-dieron-prision_0_1565243639.html
p14
aVhttps://www.clarin.com/politica/Moyano-movilizacion-viernes-acto-multitudinario_0_1565243655.html
p15
aVhttps://www.clarin.com/politica/Moyano-movilizacion-viernes-acto-multitudinario_0_1565243655.html
p16
a.