(lp0
Vhttps://www.clarin.com/politica/Fondos_buitre-Pollack-Caputo-Prat-Gay-Macri-Singer-Oferta_0_1514848522.html
p1
aVhttps://www.clarin.com/politica/Fondos_buitre-Pollack-Caputo-Prat-Gay-Macri-Singer-Oferta_0_1514848522.html
p2
aVhttps://www.clarin.com/ieco/Coparticipacion-Decreto_15-Rogelio_Frigerio-gobernadores_0_1514848521.html
p3
aVhttps://www.clarin.com/ieco/Arsat-Comunicaciones-Rodrigo_de_Loredo_0_1514848520.html
p4
aVhttps://www.clarin.com/ieco/Arsat-Comunicaciones-Rodrigo_de_Loredo_0_1514848520.html
p5
aVhttps://www.clarin.com/ieco/Fondos_buitre-Pollack-Caputo-Etchebarne_0_1514848519.html
p6
aVhttps://www.clarin.com/sociedad/Misiones-mil-casos-dengue-asueto_0_1514248941.html
p7
aVhttps://www.clarin.com/sociedad/Misiones-mil-casos-dengue-asueto_0_1514248941.html
p8
aVhttps://www.clarin.com/sociedad/Preocupacion-zika-pleno-inicio-carnavales_0_1514248944.html
p9
aVhttps://www.clarin.com/politica/Diputados-bloque-PRO-FpV-ruptura_0_1514848515.html
p10
aVhttps://www.clarin.com/politica/Triple_Crimen-interna-FpV-Anibal_Fernandez-Julian_Dominguez-caja_0_1514848514.html
p11
aVhttps://www.clarin.com/sociedad/Mar-Plata-precios-adelantan-febrero_0_1514248965.html
p12
aVhttps://www.clarin.com/sociedad/Mar-Plata-precios-adelantan-febrero_0_1514248965.html
p13
aVhttps://www.clarin.com/sociedad/estatura-altura-influye-busqueda-pareja_0_1514248976.html
p14
aVhttps://www.clarin.com/sociedad/estatura-altura-influye-busqueda-pareja_0_1514248976.html
p15
a.