(lp0
Vhttps://www.clarin.com/ieco/economia/Banco-Central-volvio-bajar-tasas_0_1591041039.html
p1
aVhttps://www.clarin.com/ieco/economia/laboratorio-GSK-invertira-millones-investigacion_0_1591041005.html
p2
aVhttps://www.clarin.com/politica/Senado-proyecto-reintegro-IVA-jubilados_0_1591041065.html
p3
aVhttps://www.clarin.com/politica/Senado-proyecto-reintegro-IVA-jubilados_0_1591041065.html
p4
aVhttps://www.clarin.com/politica/Corte-dictamino-sindicatos-declarar-huelgas_0_1591041046.html
p5
aVhttps://www.clarin.com/politica/Corte-dictamino-sindicatos-declarar-huelgas_0_1591041046.html
p6
aVhttps://www.clarin.com/politica/Retocan-ley-jubilados-asegurar-votacion_0_1591041076.html
p7
aVhttps://www.clarin.com/politica/Retocan-ley-jubilados-asegurar-votacion_0_1591041076.html
p8
aVhttps://www.clarin.com/ieco/Banco-Mundial-Argentina-fuerte-recuperacion_0_1591041003.html
p9
aVhttps://www.clarin.com/politica/herencia-Transporte-aseguran-Cristina-paradas_0_1591041017.html
p10
aVhttps://www.clarin.com/politica/herencia-Transporte-aseguran-Cristina-paradas_0_1591041017.html
p11
aVhttps://www.clarin.com/politica/Tarifazo-Aranguren-unificar-amparos-subas_0_1591041035.html
p12
aVhttps://www.clarin.com/opinion/mejor-momento-peor_0_1591640828.html
p13
a.