(lp0
Vhttps://www.clarin.com/ieco/kirchnerismo-denuncia-Macri-emision-titulos_0_1688831261.html
p1
aVhttps://www.clarin.com/ieco/economia/Grobo-venden-grupo-Victoria-Capital_0_1688831275.html
p2
aVhttps://www.clarin.com/ieco/economia/Grobo-venden-grupo-Victoria-Capital_0_1688831275.html
p3
aVhttps://www.clarin.com/sociedad/Comenzo-regional-digitales-Buenos-Aires_0_1688831266.html
p4
aVhttps://www.clarin.com/sociedad/Comenzo-regional-digitales-Buenos-Aires_0_1688831266.html
p5
aVhttps://www.clarin.com/ieco/economia/Salen-termotanques-Macri-instalo-Olivos_0_1688831225.html
p6
aVhttps://www.clarin.com/ieco/economia/Salen-termotanques-Macri-instalo-Olivos_0_1688831225.html
p7
aVhttps://www.clarin.com/politica/Embargaron-millones-directivos-Cristobal-Lopez_0_1688831245.html
p8
aVhttps://www.clarin.com/politica/Embargaron-millones-directivos-Cristobal-Lopez_0_1688831245.html
p9
aVhttps://www.clarin.com/politica/CGT-movimientos-sociales-desafian-Macri_0_1688831280.html
p10
aVhttps://www.clarin.com/politica/CGT-movimientos-sociales-desafian-Macri_0_1688831280.html
p11
aVhttps://www.clarin.com/politica/Insolito-gobernadora-Provincia-comiendo-rapidas_0_1689431048.html
p12
aVhttps://www.clarin.com/politica/Insolito-gobernadora-Provincia-comiendo-rapidas_0_1689431048.html
p13
aVhttps://www.clarin.com/politica/retiros-cupulas-militares-implicaran-millones_0_1689431046.html
p14
aVhttps://www.clarin.com/politica/retiros-cupulas-militares-implicaran-millones_0_1689431046.html
p15
aVhttps://www.clarin.com/opinion/Macri-pelea-Economia-Banco-Central_0_1689431045.html
p16
aVhttps://www.clarin.com/opinion/Atardecer-democratica_0_1689431044.html
p17
a.