(lp0
Vhttps://www.clarin.com/politica/Baez-pidio-proteccion-hijos-amenazados_0_1567643234.html
p1
aVhttps://www.clarin.com/politica/Baez-pidio-proteccion-hijos-amenazados_0_1567643234.html
p2
aVhttps://www.clarin.com/politica/Contraofensiva-arrepentidos-Baez_0_1567043528.html
p3
aVhttps://www.clarin.com/politica/Contraofensiva-arrepentidos-Baez_0_1567043528.html
p4
aVhttps://www.clarin.com/ieco/Gobierno-Santa-Cruz-redefinicion-represas_0_1567043477.html
p5
aVhttps://www.clarin.com/politica/dolares-Gobierno-busca-pasar-invierno_0_1567043521.html
p6
aVhttps://www.clarin.com/politica/sindicalismo-marcha-politica-economica-Macri_0_1567043520.html
p7
aVhttps://www.clarin.com/politica/sindicalismo-marcha-politica-economica-Macri_0_1567043520.html
p8
aVhttps://www.clarin.com/opinion/boliche-baila-pasado_0_1567043522.html
p9
aVhttps://www.clarin.com/ieco/invertir-negocio-transporte-terrestre-EEUU_0_1567043320.html
p10
aVhttps://www.clarin.com/ieco/invertir-negocio-transporte-terrestre-EEUU_0_1567043320.html
p11
aVhttps://www.clarin.com/ieco/economia/Banco-Central-inflacion-cierre-posible_0_1567043476.html
p12
aVhttps://www.clarin.com/ieco/economia/Banco-Central-inflacion-cierre-posible_0_1567043476.html
p13
aVhttps://www.clarin.com/sociedad/argentinas-enviaron-historias-Yoko-Ono_0_1567043512.html
p14
aVhttps://www.clarin.com/sociedad/argentinas-enviaron-historias-Yoko-Ono_0_1567043512.html
p15
a.