(lp0
Vhttps://www.clarin.com/politica/retroceso-Gils-Carbo-decisiones-entorno_0_1688831213.html
p1
aVhttps://www.clarin.com/politica/Cristina-quedo-imputada-cooperativa-Plata_0_1688831209.html
p2
aVhttps://www.clarin.com/politica/Cristina-quedo-imputada-cooperativa-Plata_0_1688831209.html
p3
a.