(lp0
Vhttps://www.clarin.com/politica/Echegaray-ring-pelea-Carrio-Michetti_0_1588041366.html
p1
aVhttps://www.clarin.com/politica/Baez-audiencia-Camara-publico-abogados_0_1588041345.html
p2
aVhttps://www.clarin.com/politica/Baez-audiencia-Camara-publico-abogados_0_1588041345.html
p3
aVhttps://www.clarin.com/politica/edificio-polemico-Kirchner-Baez-propio_0_1588041352.html
p4
aVhttps://www.clarin.com/politica/edificio-polemico-Kirchner-Baez-propio_0_1588041352.html
p5
aVhttps://www.clarin.com/politica/fiscal-avanza-vinculos-Lazaro-presidenta_0_1588041350.html
p6
aVhttps://www.clarin.com/politica/fiscal-avanza-vinculos-Lazaro-presidenta_0_1588041350.html
p7
a.