(lp0
Vhttps://www.clarin.com/ieco/Presupuesto-preven-subsidios-ano-viene_0_1663633756.html
p1
aVhttps://www.clarin.com/politica/Macri-impulsara-candidatura-nuclear-ONU_0_1663633741.html
p2
aVhttps://www.clarin.com/politica/Macri-impulsara-candidatura-nuclear-ONU_0_1663633741.html
p3
aVhttps://www.clarin.com/politica/Imputaron-Sabbatella-malversacion-millones_0_1663633751.html
p4
aVhttps://www.clarin.com/politica/Imputaron-Sabbatella-malversacion-millones_0_1663633751.html
p5
aVhttps://www.clarin.com/sociedad/Piden-Lotocki-juicio-praxis-cirugias_0_1663633736.html
p6
aVhttps://www.clarin.com/sociedad/Piden-Lotocki-juicio-praxis-cirugias_0_1663633736.html
p7
a.