(lp0
Vhttps://www.clarin.com/ieco/economia/Gobierno-designo-autoridades-UIF_0_1601239896.html
p1
aVhttps://www.clarin.com/politica/Ercolini-Cristobal-Lopez-Ricardo-Echegaray_0_1601239891.html
p2
aVhttps://www.clarin.com/politica/Ercolini-Cristobal-Lopez-Ricardo-Echegaray_0_1601239891.html
p3
aVhttps://www.clarin.com/politica/Lazaro-Baez-Tribunales-supuesta-Cristina-Casanello_0_1601239889.html
p4
aVhttps://www.clarin.com/politica/Lazaro-Baez-Tribunales-supuesta-Cristina-Casanello_0_1601239889.html
p5
a.