(lp0
Vhttps://www.clarin.com/politica/embargan-millones-empresario-vinculado-Vido_0_1621638031.html
p1
aVhttps://www.clarin.com/politica/embargan-millones-empresario-vinculado-Vido_0_1621638031.html
p2
aVhttps://www.clarin.com/opinion/vuelta-mundo-suenos-pilares-inversiones_0_1621637997.html
p3
aVhttps://www.clarin.com/opinion/vuelta-mundo-suenos-pilares-inversiones_0_1621637997.html
p4
aVhttps://www.clarin.com/politica/muchacho-Vido_0_1622237773.html
p5
aVhttps://www.clarin.com/sociedad/Aprendio-peleara-coronarse-reina-triatlon_0_1621637977.html
p6
aVhttps://www.clarin.com/sociedad/Aprendio-peleara-coronarse-reina-triatlon_0_1621637977.html
p7
a.