(lp0
Vhttps://www.clarin.com/sociedad/Reabren-Gran-Hotel-Potrerillos-historico_0_1571242880.html
p1
aVhttps://www.clarin.com/sociedad/Reabren-Gran-Hotel-Potrerillos-historico_0_1571242880.html
p2
aVhttps://www.clarin.com/ieco/economia/Moodys_0_1570643066.html
p3
aVhttps://www.clarin.com/ieco/Aumento-numero-locales-vacios-Ciudad_0_1571242882.html
p4
aVhttps://www.clarin.com/politica/juez-Casanello-indagara-Lazaro-Baez_0_1571242873.html
p5
aVhttps://www.clarin.com/politica/juez-Casanello-indagara-Lazaro-Baez_0_1571242873.html
p6
a.