(lp0
S'https://www.clarin.com/sociedad/quemo-cuerpo-mujer-pasara-preso_0_1565243541.html'
p1
aS'https://www.clarin.com/politica/costado-cholulo-Macri-famosos-Twitter_0_1565243524.html'
p2
aS'https://www.clarin.com/ieco/Reconocimiento-Gobierno-alcauciles-Plata_0_1565243543.html'
p3
aS'https://www.clarin.com/politica/Macri-Mandamos-Congreso-primer-empleo_0_1565243527.html'
p4
aS'https://www.clarin.com/ieco/Cabrera-reune-Brasil-desbalance-comercial_0_1565243545.html'
p5
aS'https://www.clarin.com/sociedad/organizador-Time-Warp-presentarse-Justicia_0_1565243511.html'
p6
a.