(lp0
Vhttps://www.clarin.com/sociedad/Fuerte-explosion-laboratorio-Rosario_0_1603039743.html
p1
aVhttps://www.clarin.com/sociedad/Fuerte-explosion-laboratorio-Rosario_0_1603039743.html
p2
aVhttps://www.clarin.com/sociedad/Sweepee-Rambo-perro-feo-mundo_0_1603039723.html
p3
aVhttps://www.clarin.com/sociedad/Sweepee-Rambo-perro-feo-mundo_0_1603039723.html
p4
aVhttps://www.clarin.com/ieco/economia/Gobierno-nuevas-Letras-US-millones_0_1603039735.html
p5
aVhttps://www.clarin.com/ieco/economia/Gobierno-nuevas-Letras-US-millones_0_1603039735.html
p6
a.