(lp0
S'https://www.clarin.com/politica/Barrionuevo-pego-piedad-Van-cana_0_1567643304.html'
p1
aS'https://www.clarin.com/politica/Barrionuevo-pego-piedad-Van-cana_0_1567643304.html'
p2
aS'https://www.clarin.com/sociedad/Trasladaran-recuperacion-elefante-aparecio-Gualeguaychu_0_1567643299.html'
p3
aS'https://www.clarin.com/sociedad/Trasladaran-recuperacion-elefante-aparecio-Gualeguaychu_0_1567643299.html'
p4
aS'https://www.clarin.com/politica/peronismo-muestra-marcha-futuro-Cristina_0_1567643297.html'
p5
aS'https://www.clarin.com/politica/peronismo-muestra-marcha-futuro-Cristina_0_1567643297.html'
p6
aS'https://www.clarin.com/ieco/economia/Banco-Nacion-beneficios-afectados-inundaciones_0_1567643295.html'
p7
aS'https://www.clarin.com/ieco/economia/Banco-Nacion-beneficios-afectados-inundaciones_0_1567643295.html'
p8
a.