(lp0
S'https://www.clarin.com/politica/Milagro-Sala-Causas-Judiciales-Enriquecimiento-Corte-Ruta_0_1509449110.html'
p1
aS'https://www.clarin.com/ieco/Szpolski-Garfunkel-Grupo_23-Radio_America-Venta-Grupo_M_0_1509449109.html'
p2
aS'https://www.clarin.com/politica/Foro_Economico_Mundial-Mauricio_Macri-Davos-fondos_buitre_0_1509449107.html'
p3
aS'https://www.clarin.com/ieco/Bancarios-Paritaria-32-7-Aumento_0_1509449108.html'
p4
aS'https://www.clarin.com/sociedad/conquistar-cambiaba-malla-pasaba-carpa_0_1508849524.html'
p5
aS'https://www.clarin.com/sociedad/limites-Diana_Baccaro-opinion_0_1509449105.html'
p6
aS'https://www.clarin.com/opinion/Codigo_Civil_y_Comercial-Restriccion_migratoria-Derechos_de_los_ninos_0_1509449119.html'
p7
aS'https://www.clarin.com/opinion/Paritarias-Impuesto_a_las_Ganancias-Inflacion-Obras_Sociales_0_1509449120.html'
p8
aS'https://www.clarin.com/politica/Foro_Economico_Mundial-Mauricio_Macri-Gobierno-deuda-fondos_buitre_0_1509449106.html'
p9
aS'https://www.clarin.com/sociedad/dengue-avanza-Iguazu-confirman-casos_0_1508849547.html'
p10
aS'https://www.clarin.com/sociedad/limites-chicos-vacaciones-pautas_0_1509449104.html'
p11
a.