(lp0
S'https://www.clarin.com/sociedad/Familares-despidieron-Tomas-Salvagni-Pilar_0_1688831233.html'
p1
aS'https://www.clarin.com/sociedad/Familares-despidieron-Tomas-Salvagni-Pilar_0_1688831233.html'
p2
aS'https://www.clarin.com/politica/Primera-grieta-Campora-votacion-PRO_0_1688831274.html'
p3
aS'https://www.clarin.com/politica/senadores-acordaron-dejar-pie-dietazo_0_1688831273.html'
p4
aS'https://www.clarin.com/politica/senadores-acordaron-dejar-pie-dietazo_0_1688831273.html'
p5
aS'https://www.clarin.com/sociedad/disparo-cabeza-encontrar-auto-papa_0_1688831271.html'
p6
aS'https://www.clarin.com/sociedad/disparo-cabeza-encontrar-auto-papa_0_1688831271.html'
p7
aS'https://www.clarin.com/politica/Senado-FpV-reforma-electoral-BCRA_0_1688831270.html'
p8
aS'https://www.clarin.com/sociedad/Arranca-compra-juguetes-atraen-baratos_0_1688831269.html'
p9
aS'https://www.clarin.com/sociedad/Arranca-compra-juguetes-atraen-baratos_0_1688831269.html'
p10
aS'https://www.clarin.com/sociedad/Argentina-eleva-reducir-calentamiento-global_0_1688831268.html'
p11
aS'https://www.clarin.com/sociedad/Cultura-copy-paste-alumnos-deberes_0_1688831265.html'
p12
a.