(lp0
Vhttps://www.clarin.com/sociedad/Salva-serpiente-morir-cerveza-leccion_0_1525047821.html
p1
aVhttps://www.clarin.com/sociedad/Salva-serpiente-morir-cerveza-leccion_0_1525047821.html
p2
aVhttps://www.clarin.com/sociedad/Difunden-errores-medicos-Reino-Unido_0_1525047820.html
p3
aVhttps://www.clarin.com/sociedad/Difunden-errores-medicos-Reino-Unido_0_1525047820.html
p4
aVhttps://www.clarin.com/ieco/economia/holdout-califican-danina-propuesta-argentina_0_1525047817.html
p5
aVhttps://www.clarin.com/ieco/economia/holdout-califican-danina-propuesta-argentina_0_1525047817.html
p6
aVhttps://www.clarin.com/sociedad/Recomiendan-abstinencia-seguro-vuelvan-zonas_0_1525047816.html
p7
aVhttps://www.clarin.com/sociedad/Recomiendan-abstinencia-seguro-vuelvan-zonas_0_1525047816.html
p8
a.