(lp0
S'https://www.clarin.com/opinion/municipios-problemas_0_1649235206.html'
p1
aS'https://www.clarin.com/opinion/China-relacion-pragmatica_0_1649235207.html'
p2
aS'https://www.clarin.com/politica/Concesiones-ferroviarias-ratifican-proceso-Vido_0_1649235190.html'
p3
aS'https://www.clarin.com/politica/CGT-intendentes-PJ-alertaron-economica_0_1649235197.html'
p4
aS'https://www.clarin.com/opinion/Competitividad-volver-mundo_0_1649235209.html'
p5
a.