(lp0
S'https://www.clarin.com/sociedad/Rosario-cementerio-adopcion-municipal-animales_0_1689431118.html'
p1
aS'https://www.clarin.com/ieco/Volkswagen-recortara-empleos-Argentina-afectados_0_1689431116.html'
p2
aS'https://www.clarin.com/ieco/Volkswagen-recortara-empleos-Argentina-afectados_0_1689431116.html'
p3
aS'https://www.clarin.com/politica/Unidad-gigantografias-Peron-Evita-Congreso_0_1689431109.html'
p4
aS'https://www.clarin.com/politica/Unidad-gigantografias-Peron-Evita-Congreso_0_1689431109.html'
p5
aS'https://www.clarin.com/ieco/economia/Temor-planta-computadoras-BGH-Sur_0_1689431108.html'
p6
aS'https://www.clarin.com/ieco/economia/Temor-planta-computadoras-BGH-Sur_0_1689431108.html'
p7
aS'https://www.clarin.com/sociedad/perros-hacen-Mannequin-Challenge_0_1689431103.html'
p8
aS'https://www.clarin.com/sociedad/perros-hacen-Mannequin-Challenge_0_1689431103.html'
p9
aS'https://www.clarin.com/sociedad/iglesia-Santos-Lugares-recibirse-exorcista_0_1689431105.html'
p10
aS'https://www.clarin.com/sociedad/iglesia-Santos-Lugares-recibirse-exorcista_0_1689431105.html'
p11
aS'https://www.clarin.com/sociedad/Golpeo-agente-transito-quiso-multar_0_1689431098.html'
p12
aS'https://www.clarin.com/sociedad/Golpeo-agente-transito-quiso-multar_0_1689431098.html'
p13
a.