(lp0
Vhttps://www.clarin.com/ieco/errores-forzados-economia-Macri_0_1614438650.html
p1
aVhttps://www.clarin.com/sociedad/Despues-odisea-pelicula-refugiada-llegar_0_1614438644.html
p2
aVhttps://www.clarin.com/sociedad/Despues-odisea-pelicula-refugiada-llegar_0_1614438644.html
p3
aVhttps://www.clarin.com/sociedad/Permitidos-parejas-abiertas-puerta-infidelidad_0_1614438642.html
p4
aVhttps://www.clarin.com/sociedad/Permitidos-parejas-abiertas-puerta-infidelidad_0_1614438642.html
p5
aVhttps://www.clarin.com/sociedad/abogado-anos-charla-Justicia-Corte_0_1614438638.html
p6
aVhttps://www.clarin.com/sociedad/abogado-anos-charla-Justicia-Corte_0_1614438638.html
p7
a.