(lp0
S'https://www.clarin.com/sociedad/Mundos-intimos-Perdi-aprendi-vivir_0_1550845298.html'
p1
aS'https://www.clarin.com/sociedad/Mundos-intimos-Perdi-aprendi-vivir_0_1550845298.html'
p2
aS'https://www.clarin.com/sociedad/peso-silencio_0_1550845306.html'
p3
aS'https://www.clarin.com/politica/Macri-preside-hoy-acto-Malvinas_0_1550845372.html'
p4
aS'https://www.clarin.com/politica/Macri-preside-hoy-acto-Malvinas_0_1550845372.html'
p5
aS'https://www.clarin.com/politica/peso-herencia-vino-diciembre_0_1551444921.html'
p6
aS'https://www.clarin.com/politica/Lazos-Cristobal-Lopez-concurso-acreedores_0_1551444916.html'
p7
aS'https://www.clarin.com/opinion/costos-ceguera-politica_0_1550845345.html'
p8
a.