(lp0
Vhttps://www.clarin.com/politica/Guino-Carrio-valido-operativo-Stolbizer_0_1660634039.html
p1
aVhttps://www.clarin.com/politica/Guino-Carrio-valido-operativo-Stolbizer_0_1660634039.html
p2
aVhttps://www.clarin.com/sociedad/amistad-personas-ponen-alquiler-compania_0_1660634020.html
p3
aVhttps://www.clarin.com/sociedad/amistad-personas-ponen-alquiler-compania_0_1660634020.html
p4
aVhttps://www.clarin.com/sociedad/Presentan-primer-informe-transparencia-medios_0_1660634035.html
p5
aVhttps://www.clarin.com/politica/Macri-Gomez-Centurion-Aduana-Justicia_0_1660634033.html
p6
aVhttps://www.clarin.com/politica/Macri-Gomez-Centurion-Aduana-Justicia_0_1660634033.html
p7
aVhttps://www.clarin.com/opinion/Correpi-conciencia-pura_0_1660634031.html
p8
aVhttps://www.clarin.com/sociedad/Despues-video-escandaloso-familia-tiempo_0_1660634029.html
p9
aVhttps://www.clarin.com/sociedad/Despues-video-escandaloso-familia-tiempo_0_1660634029.html
p10
aVhttps://www.clarin.com/politica/Andrea-Celeste-oficialista-cueste_0_1660634028.html
p11
aVhttps://www.clarin.com/politica/Andrea-Celeste-oficialista-cueste_0_1660634028.html
p12
a.