(lp0
S'https://www.clarin.com/politica/Denunciaron-Julio-Vido-Milagro-Sala_0_1528647425.html'
p1
aS'https://www.clarin.com/politica/Denunciaron-Julio-Vido-Milagro-Sala_0_1528647425.html'
p2
aS'https://www.clarin.com/ieco/abogado-buitre-principio-acuerdo-Argentina_0_1528647410.html'
p3
aS'https://www.clarin.com/politica/Interna-PRO-Nacion-responsabiliza-Ciudad_0_1528647411.html'
p4
aS'https://www.clarin.com/politica/Interna-PRO-Nacion-responsabiliza-Ciudad_0_1528647411.html'
p5
aS'https://www.clarin.com/politica/Confirmaron-procesamiento-ex-jefe-PAMI_0_1528647406.html'
p6
aS'https://www.clarin.com/politica/Confirmaron-procesamiento-ex-jefe-PAMI_0_1528647406.html'
p7
aS'https://www.clarin.com/politica/Baradel-denuncio-Justicia-amenazado_0_1528647391.html'
p8
aS'https://www.clarin.com/politica/Baradel-denuncio-Justicia-amenazado_0_1528647391.html'
p9
aS'https://www.clarin.com/politica/Macri-completo-manana-chequeo-Favaloro_0_1528647403.html'
p10
aS'https://www.clarin.com/politica/Macri-completo-manana-chequeo-Favaloro_0_1528647403.html'
p11
a.