(lp0
Vhttps://www.clarin.com/opinion/escribania-toqueteo_0_1592840710.html
p1
aVhttps://www.clarin.com/opinion/Vido-Kicillof-costos-exorbitantes-gas_0_1592840709.html
p2
aVhttps://www.clarin.com/opinion/Macri-igual-malabarista-chino_0_1592840708.html
p3
aVhttps://www.clarin.com/opinion/Bergoglio-interposita-persona_0_1592840707.html
p4
aVhttps://www.clarin.com/opinion/Vido-Kicillof-costos-exorbitantes-gas_0_1592840706.html
p5
aVhttps://www.clarin.com/opinion/Vido-Kicillof-costos-exorbitantes-gas_0_1592840706.html
p6
aVhttps://www.clarin.com/opinion/Suicidio-inducido-inverosimil-hipotesis_0_1592240896.html
p7
aVhttps://www.clarin.com/ieco/empresarios-EEUU-preguntan-estabilidad-mediano_0_1592240960.html
p8
aVhttps://www.clarin.com/politica/Devolucion-IVA-jubilados-beneficio-millones_0_1592240956.html
p9
a.