(lp0
S'https://www.clarin.com/sociedad/Nadie-mujer-denuncio-companero-tocarle_0_1554444765.html'
p1
aS'https://www.clarin.com/sociedad/Nadie-mujer-denuncio-companero-tocarle_0_1554444765.html'
p2
aS'https://www.clarin.com/ieco/economia/Dolar-maniobra-llevara-Cristina-Tribunales_0_1554444752.html'
p3
aS'https://www.clarin.com/ieco/economia/Dolar-maniobra-llevara-Cristina-Tribunales_0_1554444752.html'
p4
aS'https://www.clarin.com/politica/Delgado-investigue-Macri-Panama-Papers_0_1554444748.html'
p5
aS'https://www.clarin.com/politica/Delgado-investigue-Macri-Panama-Papers_0_1554444748.html'
p6
a.