(lp0
Vhttps://www.clarin.com/ieco/Banco-Central-repitio-formula-tasas_0_1549045597.html
p1
aVhttps://www.clarin.com/politica/Macri-Washington-Cumbre-Seguridad-Nuclear_0_1549645098.html
p2
aVhttps://www.clarin.com/politica/Macri-Washington-Cumbre-Seguridad-Nuclear_0_1549645098.html
p3
aVhttps://www.clarin.com/ieco/economia/Gobierno-apuesta-buitres-acuerdo-acepten_0_1549645056.html
p4
aVhttps://www.clarin.com/politica/Gobierno-detalles-default-pagarle-buitres_0_1549645054.html
p5
aVhttps://www.clarin.com/sociedad/paro-chicos-solo-dias-clases_0_1549045560.html
p6
aVhttps://www.clarin.com/sociedad/paro-chicos-solo-dias-clases_0_1549045560.html
p7
aVhttps://www.clarin.com/politica/Entregan-Justicia-US-vinculados-Baez_0_1549045575.html
p8
aVhttps://www.clarin.com/politica/Entregan-Justicia-US-vinculados-Baez_0_1549045575.html
p9
aVhttps://www.clarin.com/politica/Garavano-presento-plan-jueces-Corte_0_1549045516.html
p10
aVhttps://www.clarin.com/sociedad/Percheros-solidarios-movida-Plaza-Mayo_0_1549045563.html
p11
aVhttps://www.clarin.com/opinion/Argentina-pais-millones-armas_0_1549645041.html
p12
aVhttps://www.clarin.com/opinion/Corrupcion-arrepentidos_0_1549645039.html
p13
aVhttps://www.clarin.com/opinion/Malvinas-historia-derecho_0_1549045494.html
p14
aVhttps://www.clarin.com/opinion/Malvinas-historia-derecho_0_1549045494.html
p15
a.