(lp0
S'https://www.clarin.com/politica/Blanqueo-exluidos-familiares-directos-funcionarios_0_1596440472.html'
p1
aS'https://www.clarin.com/politica/Blanqueo-exluidos-familiares-directos-funcionarios_0_1596440472.html'
p2
aS'https://www.clarin.com/politica/camioneros-dejaron-Moyano-decision-nacional_0_1596440471.html'
p3
aS'https://www.clarin.com/politica/camioneros-dejaron-Moyano-decision-nacional_0_1596440471.html'
p4
aS'https://www.clarin.com/politica/Elevaron-juicio-Jaime-enriquecimiento-ilicito_0_1596440470.html'
p5
aS'https://www.clarin.com/politica/Elevaron-juicio-Jaime-enriquecimiento-ilicito_0_1596440470.html'
p6
aS'https://www.clarin.com/ieco/economia/compras-Central-dolar-subio-centavos_0_1596440468.html'
p7
aS'https://www.clarin.com/politica/Lopez-Ezeiza-Chueco-Jaime-Lazaro_0_1596440465.html'
p8
aS'https://www.clarin.com/politica/Lopez-Ezeiza-Chueco-Jaime-Lazaro_0_1596440465.html'
p9
aS'https://www.clarin.com/sociedad/aventura-mujer-vivio-meses-Antartida_0_1594040710.html'
p10
aS'https://www.clarin.com/sociedad/aventura-mujer-vivio-meses-Antartida_0_1594040710.html'
p11
a.