(lp0
S'https://www.clarin.com/politica/dijo-Obama-Bariloche-Facebook_0_1546645640.html'
p1
aS'https://www.clarin.com/politica/Senado-ven-cambio-sustancial_0_1546645684.html'
p2
aS'https://www.clarin.com/sociedad/argentina-secuestrada-marido-Brasil-salvo_0_1546645648.html'
p3
aS'https://www.clarin.com/ieco/sector-creen-suba-anunciara-abril_0_1546645697.html'
p4
a.