(lp0
Vhttps://www.clarin.com/sociedad/fiesta_electronica-Costa_Salguero_0_1559844273.html
p1
aVhttps://www.clarin.com/sociedad/fiesta_electronica-Costa_Salguero_0_1559844273.html
p2
aVhttps://www.clarin.com/sociedad/Combinacion-fatal-calor-amontonamiento-falta_0_1559844281.html
p3
aVhttps://www.clarin.com/sociedad/Combinacion-fatal-calor-amontonamiento-falta_0_1559844281.html
p4
aVhttps://www.clarin.com/politica/increible-reto-diputado-plena-sesion_0_1559844242.html
p5
aVhttps://www.clarin.com/politica/increible-reto-diputado-plena-sesion_0_1559844242.html
p6
aVhttps://www.clarin.com/sociedad/Descubren-extasis-muertos-fiesta-electronica_0_1559844266.html
p7
aVhttps://www.clarin.com/sociedad/Descubren-extasis-muertos-fiesta-electronica_0_1559844266.html
p8
aVhttps://www.clarin.com/sociedad/medicos-consumio-algun-metanfetamina-grave_0_1559844260.html
p9
aVhttps://www.clarin.com/sociedad/medicos-consumio-algun-metanfetamina-grave_0_1559844260.html
p10
a.