(lp0
Vhttps://www.clarin.com/politica/Perez-Corradi-profugo-morir-secretos_0_1598240216.html
p1
aVhttps://www.clarin.com/politica/Perez-Corradi-profugo-morir-secretos_0_1598240216.html
p2
aVhttps://www.clarin.com/politica/financista-apoyo-politico-policial-SIDE_0_1598240201.html
p3
aVhttps://www.clarin.com/politica/financista-apoyo-politico-policial-SIDE_0_1598240201.html
p4
aVhttps://www.clarin.com/sociedad/queridas_0_1597040419.html
p5
aVhttps://www.clarin.com/sociedad/conmovedora-historia-elefante-recibir-disparo_0_1598240188.html
p6
aVhttps://www.clarin.com/sociedad/conmovedora-historia-elefante-recibir-disparo_0_1598240188.html
p7
aVhttps://www.clarin.com/sociedad/Protestas-mundo-festival-carne-perro_0_1598240192.html
p8
aVhttps://www.clarin.com/sociedad/Protestas-mundo-festival-carne-perro_0_1598240192.html
p9
aVhttps://www.clarin.com/sociedad/bendicion-tener-Papa-argentino-peronista_0_1597640390.html
p10
a.