(lp0
Vhttps://www.clarin.com/sociedad/condenan-anos-carcel-embarazar-hija_0_1600040058.html
p1
aVhttps://www.clarin.com/politica/empresa-emblema-Baez-empleados-problemas_0_1600040031.html
p2
aVhttps://www.clarin.com/politica/empresa-emblema-Baez-empleados-problemas_0_1600040031.html
p3
aVhttps://www.clarin.com/ieco/economia/Aprueban-plan-mejorar-telefonia-movil_0_1600040050.html
p4
aVhttps://www.clarin.com/ieco/economia/Aprueban-plan-mejorar-telefonia-movil_0_1600040050.html
p5
aVhttps://www.clarin.com/ieco/economia/Miles-emprendedores-buscan-vender-ideas_0_1600040045.html
p6
aVhttps://www.clarin.com/ieco/economia/Miles-emprendedores-buscan-vender-ideas_0_1600040045.html
p7
a.