(lp0
S'https://www.clarin.com/politica/Cristileaks-Helvetic-millones-dolares-pais_0_1639036290.html'
p1
aS'https://www.clarin.com/politica/Cristileaks-Helvetic-millones-dolares-pais_0_1639036290.html'
p2
aS'https://www.clarin.com/politica/Arranca-bicameral-auditara-Gils-Carbo_0_1639036289.html'
p3
aS'https://www.clarin.com/politica/guerra-televisores-finalmente-bajaran-precios_0_1639036287.html'
p4
aS'https://www.clarin.com/sociedad/pais-abre-monasterio-clausura-ano_0_1639036284.html'
p5
aS'https://www.clarin.com/sociedad/pais-abre-monasterio-clausura-ano_0_1639036284.html'
p6
aS'https://www.clarin.com/politica/Suspenden-Banco-Patricios-Szpolski-Piletones_0_1639036273.html'
p7
aS'https://www.clarin.com/politica/Suspenden-Banco-Patricios-Szpolski-Piletones_0_1639036273.html'
p8
a.