(lp0
S'https://www.clarin.com/sociedad/canguro-tiro-encima-explotar-siliconas_0_1586841419.html'
p1
aS'https://www.clarin.com/sociedad/canguro-tiro-encima-explotar-siliconas_0_1586841419.html'
p2
aS'https://www.clarin.com/politica/Pichetto-jubilados-inconsistente-incoherente-oponerse_0_1586841415.html'
p3
aS'https://www.clarin.com/politica/Pichetto-jubilados-inconsistente-incoherente-oponerse_0_1586841415.html'
p4
aS'https://www.clarin.com/ieco/finanzas/Sube-dolar-espera-baja-tasas_0_1586841407.html'
p5
aS'https://www.clarin.com/ieco/finanzas/Sube-dolar-espera-baja-tasas_0_1586841407.html'
p6
aS'https://www.clarin.com/sociedad/casualidad-Descubren-nuevo-anillo-Einstein_0_1586841405.html'
p7
aS'https://www.clarin.com/sociedad/casualidad-Descubren-nuevo-anillo-Einstein_0_1586841405.html'
p8
aS'https://www.clarin.com/politica/meses-Elaskar-hablo-Barrionuevo-dinero_0_1586841400.html'
p9
aS'https://www.clarin.com/politica/meses-Elaskar-hablo-Barrionuevo-dinero_0_1586841400.html'
p10
aS'https://www.clarin.com/sociedad/mejores-heladerias-mundo_0_1586841404.html'
p11
aS'https://www.clarin.com/sociedad/mejores-heladerias-mundo_0_1586841404.html'
p12
a.