(lp0
S'https://www.clarin.com/politica/interna-Papa-Scholas-Macri-medio_0_1596440536.html'
p1
aS'https://www.clarin.com/politica/interna-Papa-Scholas-Macri-medio_0_1596440536.html'
p2
aS'https://www.clarin.com/politica/Vido-Twitter-acusaciones-defendio-Cristina_0_1596440528.html'
p3
aS'https://www.clarin.com/politica/Vido-Twitter-acusaciones-defendio-Cristina_0_1596440528.html'
p4
aS'https://www.clarin.com/politica/Gioja-Lopez-hacer-arbol-caido_0_1596440527.html'
p5
aS'https://www.clarin.com/politica/macrismo-avanza-ley-arrepentido-corrupcion_0_1596440504.html'
p6
a.