(lp0
S'https://www.clarin.com/politica/Macri-encabezo-Vidal-visitaron-Suipacha_0_1685831474.html'
p1
aS'https://www.clarin.com/politica/Macri-encabezo-Vidal-visitaron-Suipacha_0_1685831474.html'
p2
aS'https://www.clarin.com/sociedad/Alejandro-Sanz-poso-maquillado-violencia_0_1685831472.html'
p3
aS'https://www.clarin.com/sociedad/Alejandro-Sanz-poso-maquillado-violencia_0_1685831472.html'
p4
aS'https://www.clarin.com/sociedad/leccion-Susanna_0_1685831471.html'
p5
aS'https://www.clarin.com/sociedad/denunciaban-pegarle-profugo-acusado-matarla_0_1685831469.html'
p6
aS'https://www.clarin.com/sociedad/denunciaban-pegarle-profugo-acusado-matarla_0_1685831469.html'
p7
aS'https://www.clarin.com/sociedad/increible-Claudio-Pizzini-escuadras-reglas_0_1684631633.html'
p8
aS'https://www.clarin.com/sociedad/increible-Claudio-Pizzini-escuadras-reglas_0_1684631633.html'
p9
aS'https://www.clarin.com/sociedad/Llegaron-iglesia-casarse-autobomba-guardia_0_1685831467.html'
p10
aS'https://www.clarin.com/sociedad/Llegaron-iglesia-casarse-autobomba-guardia_0_1685831467.html'
p11
aS'https://www.clarin.com/sociedad/moda-miran-Islam_0_1685231626.html'
p12
aS'https://www.clarin.com/sociedad/moda-miran-Islam_0_1685231626.html'
p13
a.