(lp0
Vhttps://www.clarin.com/sociedad/Mendoza-vuelos-falta-autobomba_0_1537046413.html
p1
aVhttps://www.clarin.com/sociedad/Mendoza-vuelos-falta-autobomba_0_1537046413.html
p2
aVhttps://www.clarin.com/politica/Hugo_Moyano-CGT-inflacion-febrero-Jorge_Sola_0_1537046404.html
p3
aVhttps://www.clarin.com/politica/Hugo_Moyano-CGT-inflacion-febrero-Jorge_Sola_0_1537046404.html
p4
aVhttps://www.clarin.com/politica/Kicillof-show-macrismo_0_1537046400.html
p5
aVhttps://www.clarin.com/politica/Kicillof-show-macrismo_0_1537046400.html
p6
aVhttps://www.clarin.com/politica/ayuda_escolar-Emilio_Basavilbaso-Mauricio_Macri-Anses_0_1537046402.html
p7
aVhttps://www.clarin.com/politica/ayuda_escolar-Emilio_Basavilbaso-Mauricio_Macri-Anses_0_1537046402.html
p8
aVhttps://www.clarin.com/ieco/economia/Central-convalido-lebacs-interes-quedo_0_1536446807.html
p9
a.