(lp0
S'https://www.clarin.com/sociedad/Dengue-ministro-admite-situacion-preocupante_0_1507649433.html'
p1
aS'https://www.clarin.com/sociedad/Dengue-ministro-admite-situacion-preocupante_0_1507649433.html'
p2
aS'https://www.clarin.com/politica/Burzaco-defendio-derribo-aviones-ultimos_0_1507649432.html'
p3
aS'https://www.clarin.com/politica/Burzaco-defendio-derribo-aviones-ultimos_0_1507649432.html'
p4
aS'https://www.clarin.com/sociedad/Sale-nueva-coleccion-literatura-romantica_0_1507649419.html'
p5
aS'https://www.clarin.com/sociedad/Sale-nueva-coleccion-literatura-romantica_0_1507649419.html'
p6
aS'https://www.clarin.com/ieco/economia/Pizza-Hut-pizza-necesita-innovar_0_1507649429.html'
p7
aS'https://www.clarin.com/ieco/empresas-y-negocios/Petrobras-negocia-venta-filia-argentina_0_1507649406.html'
p8
a.