(lp0
Vhttps://www.clarin.com/sociedad/Carnaval-comunidad-nudista_0_1522047976.html
p1
aVhttps://www.clarin.com/sociedad/Carnaval-comunidad-nudista_0_1522047976.html
p2
aVhttps://www.clarin.com/sociedad/Mundos_intimos-los_anos_70-Maria_Rosa_Lojo_0_1522047957.html
p3
aVhttps://www.clarin.com/sociedad/Mundos_intimos-los_anos_70-Daniel_Ulanovsky_0_1522047955.html
p4
aVhttps://www.clarin.com/politica/Provincia-rechazo-docente-oferta-salarial_0_1522047889.html
p5
aVhttps://www.clarin.com/politica/Provincia-rechazo-docente-oferta-salarial_0_1522047889.html
p6
aVhttps://www.clarin.com/politica/Unifican-causas-efedrina-versiones-detencion_0_1522047883.html
p7
aVhttps://www.clarin.com/politica/Unifican-causas-efedrina-versiones-detencion_0_1522047883.html
p8
aVhttps://www.clarin.com/sociedad/chica-impidio-papa-mate-mama_0_1521448325.html
p9
aVhttps://www.clarin.com/sociedad/chica-impidio-papa-mate-mama_0_1521448325.html
p10
aVhttps://www.clarin.com/politica/show-corbatas_0_1522047854.html
p11
aVhttps://www.clarin.com/politica/Triple-crimen-Justicia-federal_0_1522047849.html
p12
a.