(lp0
Vhttps://www.clarin.com/ieco/subas-gas-prepagas-inflacion-octubre_0_1673232805.html
p1
aVhttps://www.clarin.com/sociedad/Amores-prohibidosLa-solidaridad-limite-infidelidades_0_1673232804.html
p2
aVhttps://www.clarin.com/sociedad/Amores-prohibidosLa-solidaridad-limite-infidelidades_0_1673232804.html
p3
aVhttps://www.clarin.com/sociedad/Faltan-medicos-interior-pueblos-buscan_0_1673232802.html
p4
aVhttps://www.clarin.com/opinion/Bob-Dylan-Donald-Trump_0_1673232799.html
p5
aVhttps://www.clarin.com/opinion/Bob-Dylan-Donald-Trump_0_1673232799.html
p6
aVhttps://www.clarin.com/ieco/economia/city-discurso-desnudo_0_1673232798.html
p7
aVhttps://www.clarin.com/opinion/Humberto-Maturana-arte-soltar-certidumbres_0_1673232795.html
p8
aVhttps://www.clarin.com/opinion/Humberto-Maturana-arte-soltar-certidumbres_0_1673232795.html
p9
aVhttps://www.clarin.com/opinion/Don-Quijote-Peron-regalarle-Evita_0_1673232793.html
p10
aVhttps://www.clarin.com/opinion/Don-Quijote-Peron-regalarle-Evita_0_1673232793.html
p11
aVhttps://www.clarin.com/ieco/economia/impuestos-gastos-honorarios-puede-costar_0_1673232791.html
p12
aVhttps://www.clarin.com/ieco/economia/impuestos-gastos-honorarios-puede-costar_0_1673232791.html
p13
aVhttps://www.clarin.com/opinion/proceso-estandarizacion-masiva-trabajo-docente_0_1673232788.html
p14
aVhttps://www.clarin.com/opinion/proceso-estandarizacion-masiva-trabajo-docente_0_1673232788.html
p15
a.