(lp0
S'https://www.clarin.com/politica/Gobierno-CIDH-ONU-informarlos-Sala_0_1688831175.html'
p1
aS'https://www.clarin.com/politica/Cristina-Kirchner-declaro-Carlitos-junior_0_1688831181.html'
p2
aS'https://www.clarin.com/politica/kirchnerismo-insiste-nueva-ley-antidespidos_0_1688831177.html'
p3
aS'https://www.clarin.com/sociedad/Descubren-piramide-escondida-dentro-maya_0_1688831179.html'
p4
a.