(lp0
Vhttps://www.clarin.com/sociedad/moneda-conmemorativa-Bicentenario-Independencia_0_1609039215.html
p1
aVhttps://www.clarin.com/sociedad/moneda-conmemorativa-Bicentenario-Independencia_0_1609039215.html
p2
a.