(lp0
S'https://www.clarin.com/sociedad/laboratorio-pasarela-calle_0_1679232169.html'
p1
aS'https://www.clarin.com/politica/Mafia-Aduana-profugo-buscando-Vido_0_1679232165.html'
p2
aS'https://www.clarin.com/ieco/economia/Aumentan-partir-hoy-cigarrillos_0_1679232173.html'
p3
a.