(lp0
S'https://www.clarin.com/politica/Milagro-Sala-deeclaro-huelga-incomunicaron_0_1630637045.html'
p1
aS'https://www.clarin.com/politica/Milagro-Sala-deeclaro-huelga-incomunicaron_0_1630637045.html'
p2
aS'https://www.clarin.com/politica/jubilaciones-aumentaran-septiembre_0_1630637042.html'
p3
aS'https://www.clarin.com/politica/jubilaciones-aumentaran-septiembre_0_1630637042.html'
p4
aS'https://www.clarin.com/politica/Macri-descansar-Angostura_0_1630637040.html'
p5
aS'https://www.clarin.com/politica/Macri-descansar-Angostura_0_1630637040.html'
p6
aS'https://www.clarin.com/politica/Camara-rechazo-recusacion-Casanello-Baez_0_1630637037.html'
p7
aS'https://www.clarin.com/politica/Camara-rechazo-recusacion-Casanello-Baez_0_1630637037.html'
p8
aS'https://www.clarin.com/politica/Expulsaron-Jose-Lopez-Parlasur-decoro_0_1630637036.html'
p9
aS'https://www.clarin.com/politica/Expulsaron-Jose-Lopez-Parlasur-decoro_0_1630637036.html'
p10
a.