(lp0
S'https://www.clarin.com/ieco/economia/companias-talento-desafian-alumnos-graduados_0_1564643565.html'
p1
aS'https://www.clarin.com/opinion/dulce-tristeza-domingos_0_1564043742.html'
p2
aS'https://www.clarin.com/ieco/economia/pais-mundo_0_1564643592.html'
p3
aS'https://www.clarin.com/politica/Vidal-Carrio-secretos-cena-solas_0_1564043754.html'
p4
aS'https://www.clarin.com/ieco/economia/Empresas-ONG-capacitan-conseguir-empleo_0_1564643561.html'
p5
aS'https://www.clarin.com/politica/inflacion-principal-preocupacion-argentinos_0_1564043749.html'
p6
aS'https://www.clarin.com/ieco/economia/Convocan-pasantes-jovenes-profesionales_0_1564643562.html'
p7
aS'https://www.clarin.com/ieco/economia/Reacomodarse-nueva-emision-bonos_0_1564643590.html'
p8
aS'https://www.clarin.com/ieco/economia/tasas-altas-pesos-durar-meses_0_1564643588.html'
p9
aS'https://www.clarin.com/politica/conflictos-puntuales-crisis-generalizada-empleo_0_1564043744.html'
p10
aS'https://www.clarin.com/politica/Quieren-Cristina-investigada_0_1564043748.html'
p11
aS'https://www.clarin.com/ieco/economia/Beer-Academy-propuesta-gourmet-cerveza_0_1564643591.html'
p12
aS'https://www.clarin.com/ieco/economia/tecnologia-legal_0_1564643567.html'
p13
aS'https://www.clarin.com/politica/Vidal-lidera-ranking-imagen_0_1564043746.html'
p14
aS'https://www.clarin.com/ieco/economia/Creditos-UVI-accesibles-baratos-inflacion_0_1564043714.html'
p15
a.