(lp0
S'https://www.clarin.com/sociedad/Aparecio-delfin-Costa-vez-salvaron_0_1529847403.html'
p1
aS'https://www.clarin.com/sociedad/Aparecio-delfin-Costa-vez-salvaron_0_1529847403.html'
p2
aS'https://www.clarin.com/politica/Bonadio-Cristina-relacion-zigzagueante-picantes_0_1529847378.html'
p3
a.