(lp0
Vhttps://www.clarin.com/politica/asesor-Scioli-favor-acuerdo-holdouts_0_1535846636.html
p1
aVhttps://www.clarin.com/politica/asesor-Scioli-favor-acuerdo-holdouts_0_1535846636.html
p2
aVhttps://www.clarin.com/sociedad/acusado-mujer-Castelar-acosaba-marido_0_1535846632.html
p3
aVhttps://www.clarin.com/sociedad/acusado-mujer-Castelar-acosaba-marido_0_1535846632.html
p4
aVhttps://www.clarin.com/sociedad/unico-eclipse-total-podra-Internet_0_1535846624.html
p5
aVhttps://www.clarin.com/sociedad/unico-eclipse-total-podra-Internet_0_1535846624.html
p6
aVhttps://www.clarin.com/politica/Macri-recibe-intendentes-Capitanich-Rosada_0_1535846622.html
p7
aVhttps://www.clarin.com/politica/Macri-recibe-intendentes-Capitanich-Rosada_0_1535846622.html
p8
aVhttps://www.clarin.com/politica/seguira-causa-muerte-Nisman_0_1535846620.html
p9
aVhttps://www.clarin.com/politica/seguira-causa-muerte-Nisman_0_1535846620.html
p10
aVhttps://www.clarin.com/sociedad/Descubren-funciona-interruptor-hambre_0_1535846619.html
p11
aVhttps://www.clarin.com/sociedad/Descubren-funciona-interruptor-hambre_0_1535846619.html
p12
aVhttps://www.clarin.com/sociedad/Rioja-marcha-carcel-conductores-borrachos_0_1535846617.html
p13
aVhttps://www.clarin.com/sociedad/Rioja-marcha-carcel-conductores-borrachos_0_1535846617.html
p14
a.