(lp0
Vhttps://www.clarin.com/politica/Imputaron-Martinez-Rojas-Tiempo-Argentino_0_1607239340.html
p1
aVhttps://www.clarin.com/politica/Imputaron-Martinez-Rojas-Tiempo-Argentino_0_1607239340.html
p2
aVhttps://www.clarin.com/sociedad/revolucionaria-bikini-cumple-anos_0_1607239338.html
p3
aVhttps://www.clarin.com/sociedad/revolucionaria-bikini-cumple-anos_0_1607239338.html
p4
aVhttps://www.clarin.com/politica/Caballo-Suarez-delitos-plata-gremio_0_1607239336.html
p5
aVhttps://www.clarin.com/politica/Caballo-Suarez-delitos-plata-gremio_0_1607239336.html
p6
a.