(lp0
S'https://www.clarin.com/politica/Obama-haria-referencia-EEUU-dictadura_0_1542446217.html'
p1
aS'https://www.clarin.com/politica/Bolsas-plata-llamo-indagatoria-Baez_0_1542446234.html'
p2
aS'https://www.clarin.com/opinion/Boletin-primeros-dias_0_1543045764.html'
p3
aS'https://www.clarin.com/opinion/Aeropuertos-controles-barreras_0_1543045768.html'
p4
aS'https://www.clarin.com/politica/portenos-quieren-FFAA-activo-antinarco_0_1542446179.html'
p5
aS'https://www.clarin.com/opinion/distribucion-riqueza-amigos_0_1543045760.html'
p6
aS'https://www.clarin.com/politica/Martin-Elaskar-lavadora-numero-Cristina_0_1543045748.html'
p7
aS'https://www.clarin.com/politica/Justicia-varias-empresas-Cristobal-Lopez_0_1542446188.html'
p8
aS'https://www.clarin.com/opinion/tecnologia-incluye-democratiza_0_1542446163.html'
p9
a.