(lp0
Vhttps://www.clarin.com/politica/procuradora-Falbo-presento-renuncia-Vidal_0_1687631336.html
p1
aVhttps://www.clarin.com/politica/procuradora-Falbo-presento-renuncia-Vidal_0_1687631336.html
p2
aVhttps://www.clarin.com/sociedad/victoria-Trump-Google-Facebook-noticias_0_1687631332.html
p3
aVhttps://www.clarin.com/sociedad/victoria-Trump-Google-Facebook-noticias_0_1687631332.html
p4
aVhttps://www.clarin.com/politica/durisima-Cristina-Kirchner-Macri-denuncia_0_1687631330.html
p5
aVhttps://www.clarin.com/politica/durisima-Cristina-Kirchner-Macri-denuncia_0_1687631330.html
p6
a.