(lp0
S'https://www.clarin.com/ieco/liquidacion-agro-dolares-alta_0_1552644910.html'
p1
aS'https://www.clarin.com/ieco/liquidacion-agro-dolares-alta_0_1552644910.html'
p2
aS'https://www.clarin.com/politica/Panama-Papers-millonarios-Cristobal-Lopez_0_1552644918.html'
p3
aS'https://www.clarin.com/politica/Panama-Papers-millonarios-Cristobal-Lopez_0_1552644918.html'
p4
aS'https://www.clarin.com/politica/Juga-crear-propio-paraiso-fiscal_0_1552644904.html'
p5
aS'https://www.clarin.com/politica/Juga-crear-propio-paraiso-fiscal_0_1552644904.html'
p6
aS'https://www.clarin.com/sociedad/Video-crucero-choco-muelle-tragedia_0_1552644893.html'
p7
aS'https://www.clarin.com/sociedad/Video-crucero-choco-muelle-tragedia_0_1552644893.html'
p8
aS'https://www.clarin.com/ieco/claves-papeles-Panama_0_1552644896.html'
p9
aS'https://www.clarin.com/ieco/claves-papeles-Panama_0_1552644896.html'
p10
aS'https://www.clarin.com/ieco/Aprueban-nuevo-maiz-transgenico_0_1552644895.html'
p11
a.