(lp0
S'https://www.clarin.com/ieco/economia/Bolsa-impulso-acciones-financieras-dolares_0_1498650499.html'
p1
aS'https://www.clarin.com/sociedad/hogares-cortes_de_luz-apagones-calor_0_1498650479.html'
p2
aS'https://www.clarin.com/ieco/dolar-banco_central-mayorista-minorista_0_1498650496.html'
p3
aS'https://www.clarin.com/politica/Vidal-intendente-peronismo-destrabar-presupuesto_0_1498650476.html'
p4
a.