(lp0
S'https://www.clarin.com/sociedad/Highton-Nolasco-Quiero-exhortar-perspectiva_0_1671432929.html'
p1
aS'https://www.clarin.com/politica/figura-arrepentido-casos-corrupcion-convirtio_0_1671432930.html'
p2
aS'https://www.clarin.com/politica/diputados-dejaron-sesion-cortaron-femicidios_0_1671432923.html'
p3
aS'https://www.clarin.com/politica/Cordoba-cayo-escenario-protesta-estatales_0_1671432925.html'
p4
aS'https://www.clarin.com/politica/Gobierno-confirmo-bono-pesos-ano_0_1671432926.html'
p5
a.