(lp0
Vhttps://www.clarin.com/sociedad/Problemas-pasajeros-Aerolineas-Punta-Cana_0_1662433829.html
p1
aVhttps://www.clarin.com/sociedad/Problemas-pasajeros-Aerolineas-Punta-Cana_0_1662433829.html
p2
aVhttps://www.clarin.com/politica/juez-Canicoba-proceso-ministro-Timerman_0_1662433836.html
p3
aVhttps://www.clarin.com/politica/juez-Canicoba-proceso-ministro-Timerman_0_1662433836.html
p4
aVhttps://www.clarin.com/ieco/Melconian-aseguro-credito-hipotecario-masivo_0_1662433831.html
p5
aVhttps://www.clarin.com/ieco/Melconian-aseguro-credito-hipotecario-masivo_0_1662433831.html
p6
aVhttps://www.clarin.com/sociedad/Aguer-ahora-operaciones-cambio-sexo_0_1662433828.html
p7
aVhttps://www.clarin.com/sociedad/Aguer-ahora-operaciones-cambio-sexo_0_1662433828.html
p8
aVhttps://www.clarin.com/sociedad/Denuncio-patota-brutal-paliza-salida_0_1662433815.html
p9
aVhttps://www.clarin.com/sociedad/Denuncio-patota-brutal-paliza-salida_0_1662433815.html
p10
aVhttps://www.clarin.com/politica/Bullrich-Personalmente-preocupa-ano-dia_0_1662433813.html
p11
aVhttps://www.clarin.com/politica/Bullrich-Personalmente-preocupa-ano-dia_0_1662433813.html
p12
aVhttps://www.clarin.com/sociedad/despues-repitieron-viaje-egresadas-Bariloche_0_1662433823.html
p13
aVhttps://www.clarin.com/sociedad/despues-repitieron-viaje-egresadas-Bariloche_0_1662433823.html
p14
a.