(lp0
S'https://www.clarin.com/ieco/management/Claves-CEO-exitoso_0_1643235833.html'
p1
aS'https://www.clarin.com/politica/Encontraron-mansiones-Lazaro-Baez-Pinamar_0_1643835773.html'
p2
aS'https://www.clarin.com/opinion/cosas-hacen-llorar_0_1643835721.html'
p3
aS'https://www.clarin.com/politica/efedrina-Justicia-complico-Anibal-Fernandez_0_1643835765.html'
p4
aS'https://www.clarin.com/sociedad/secretarias-alma-oficina-app-reemplace_0_1643835738.html'
p5
aS'https://www.clarin.com/opinion/Dilma-Lula-Cristina-Scioli-Macri_0_1643835752.html'
p6
aS'https://www.clarin.com/sociedad/manifestaciones-Aerolineas-Argentinas-volara-Caracas_0_1643835775.html'
p7
aS'https://www.clarin.com/opinion/piropo-puede-violento_0_1643835751.html'
p8
aS'https://www.clarin.com/politica/Pases-factura-amenazas-retoques-Gobierno_0_1643835771.html'
p9
aS'https://www.clarin.com/ieco/economia/salida-Dilma-Brasil-busca-mercados_0_1643235805.html'
p10
aS'https://www.clarin.com/opinion/Vendo-Plaza-Mayo-ideal-torre_0_1643835747.html'
p11
a.