(lp0
Vhttps://www.clarin.com/politica/Vialidad-denuncio-contratos-Baez-millones_0_1634236722.html
p1
aVhttps://www.clarin.com/politica/Vialidad-denuncio-contratos-Baez-millones_0_1634236722.html
p2
aVhttps://www.clarin.com/politica/Gobierno-buscara-rehacer-cuadro-tarifario_0_1634236764.html
p3
aVhttps://www.clarin.com/politica/boletas-vendran-igual-subas-importantes_0_1634236751.html
p4
aVhttps://www.clarin.com/politica/boletas-vendran-igual-subas-importantes_0_1634236751.html
p5
aVhttps://www.clarin.com/politica/Corte-fallo-intereses-Gobierno_0_1634236767.html
p6
aVhttps://www.clarin.com/politica/Corte-fallo-intereses-Gobierno_0_1634236767.html
p7
aVhttps://www.clarin.com/politica/cimbronazo-inicial-repensar_0_1634236773.html
p8
aVhttps://www.clarin.com/opinion/alegorias-tiempo-pasa_0_1634236732.html
p9
aVhttps://www.clarin.com/politica/Massa-sancion-Corte-Suprema-ejemplar_0_1634236780.html
p10
aVhttps://www.clarin.com/politica/Massa-sancion-Corte-Suprema-ejemplar_0_1634236780.html
p11
aVhttps://www.clarin.com/ieco/fallo-Justicia-dagas-caen-economia_0_1634236779.html
p12
aVhttps://www.clarin.com/politica/gobernadores-alejarse-Cristina-renovar-peronismo_0_1634236777.html
p13
aVhttps://www.clarin.com/politica/gobernadores-alejarse-Cristina-renovar-peronismo_0_1634236777.html
p14
aVhttps://www.clarin.com/politica/unanime-autoriza-ajuste-comercios-industrias_0_1634236728.html
p15
aVhttps://www.clarin.com/politica/unanime-autoriza-ajuste-comercios-industrias_0_1634236728.html
p16
a.