(lp0
S'https://www.clarin.com/ieco/economia/Techint-anuncio-rebaja-precio-chapa_0_1515448588.html'
p1
aS'https://www.clarin.com/sociedad/Encontraron-beba-prematura-abandonada-basural_0_1515448575.html'
p2
aS'https://www.clarin.com/ieco/economia/Confirman-analizan-ajuste-precios-gas_0_1515448593.html'
p3
aS'https://www.clarin.com/ieco/economia/Techint-anuncio-rebaja-precio-chapa_0_1515448589.html'
p4
aS'https://www.clarin.com/politica/Gobierno-techo-paritarias-margen-discusion_0_1515448567.html'
p5
a.