(lp0
S'https://www.clarin.com/politica/intendente-millones-denuncio-corrupcion-Siento_0_1571243015.html'
p1
aS'https://www.clarin.com/politica/intendente-millones-denuncio-corrupcion-Siento_0_1571243015.html'
p2
aS'https://www.clarin.com/ieco/economia/colombiana-Sura-RSA-invierte-US_0_1571243009.html'
p3
aS'https://www.clarin.com/politica/Avanza-amparo-Carrio-Echegaray-AGN_0_1571242997.html'
p4
aS'https://www.clarin.com/politica/Avanza-amparo-Carrio-Echegaray-AGN_0_1571242997.html'
p5
aS'https://www.clarin.com/politica/intendente-devuelve-millones-denuncia-sobreprecios_0_1571242987.html'
p6
aS'https://www.clarin.com/politica/intendente-devuelve-millones-denuncia-sobreprecios_0_1571242987.html'
p7
a.