(lp0
S'https://www.clarin.com/ieco/BCRA-Argentina-mirada-confianza-mundo_0_1682831750.html'
p1
aS'https://www.clarin.com/ieco/BCRA-Argentina-mirada-confianza-mundo_0_1682831750.html'
p2
aS'https://www.clarin.com/sociedad/Tinelli-Estefania-Bernal-Universo-Argentina_0_1682831746.html'
p3
aS'https://www.clarin.com/sociedad/Tinelli-Estefania-Bernal-Universo-Argentina_0_1682831746.html'
p4
aS'https://www.clarin.com/politica/Marcos-Pena-cambio-politicas-equivocadas_0_1682831740.html'
p5
aS'https://www.clarin.com/politica/Marcos-Pena-cambio-politicas-equivocadas_0_1682831740.html'
p6
aS'https://www.clarin.com/politica/UADE-cruce-acusacion-titulo-Scioli_0_1682831738.html'
p7
aS'https://www.clarin.com/politica/UADE-cruce-acusacion-titulo-Scioli_0_1682831738.html'
p8
aS'https://www.clarin.com/politica/Gobierno-Congreso-proyecto-Libertad-Religiosa_0_1682831736.html'
p9
aS'https://www.clarin.com/politica/Gobierno-Congreso-proyecto-Libertad-Religiosa_0_1682831736.html'
p10
a.