(lp0
Vhttps://www.clarin.com/politica/kirchnerismo-acusa-Stiuso-psicopata-mentiroso_0_1532846938.html
p1
aVhttps://www.clarin.com/politica/kirchnerismo-acusa-Stiuso-psicopata-mentiroso_0_1532846938.html
p2
aVhttps://www.clarin.com/sociedad/Termino-mision-espacial-viajar-planetas_0_1532846937.html
p3
aVhttps://www.clarin.com/sociedad/Termino-mision-espacial-viajar-planetas_0_1532846937.html
p4
aVhttps://www.clarin.com/sociedad/Correa-insiste-oficial-jovenes-mendocinas_0_1532846918.html
p5
aVhttps://www.clarin.com/sociedad/Correa-insiste-oficial-jovenes-mendocinas_0_1532846918.html
p6
aVhttps://www.clarin.com/politica/desconfia-custodios-funcionarios-fiscal-Fein_0_1532846921.html
p7
aVhttps://www.clarin.com/politica/desconfia-custodios-funcionarios-fiscal-Fein_0_1532846921.html
p8
aVhttps://www.clarin.com/politica/Stiuso-Nisman-Cristina-Anibal-Zannini_0_1532846912.html
p9
aVhttps://www.clarin.com/politica/Stiuso-Nisman-Cristina-Anibal-Zannini_0_1532846912.html
p10
aVhttps://www.clarin.com/sociedad/relato-intendente-acusado-matar-esposa_0_1532846910.html
p11
aVhttps://www.clarin.com/sociedad/relato-intendente-acusado-matar-esposa_0_1532846910.html
p12
a.