(lp0
Vhttps://www.clarin.com/sociedad/Cumplieron-sueno-viaje-egresados-despues_0_1681031999.html
p1
aVhttps://www.clarin.com/sociedad/Cumplieron-sueno-viaje-egresados-despues_0_1681031999.html
p2
aVhttps://www.clarin.com/politica/Sola-reconciliacion-Randazzo-Massa-PJ_0_1680432063.html
p3
aVhttps://www.clarin.com/politica/Sola-reconciliacion-Randazzo-Massa-PJ_0_1680432063.html
p4
aVhttps://www.clarin.com/politica/Facundo-Manes-candidatura-responsabilidad-comprometerme_0_1682231832.html
p5
aVhttps://www.clarin.com/politica/Facundo-Manes-candidatura-responsabilidad-comprometerme_0_1682231832.html
p6
aVhttps://www.clarin.com/sociedad/Derrumbe-Bahia-Blanca-resultaron-heridos_0_1682231828.html
p7
aVhttps://www.clarin.com/sociedad/Derrumbe-Bahia-Blanca-resultaron-heridos_0_1682231828.html
p8
aVhttps://www.clarin.com/politica/Facundo-Moyano-anuncio-actividad-sindical_0_1682231824.html
p9
aVhttps://www.clarin.com/politica/Facundo-Moyano-anuncio-actividad-sindical_0_1682231824.html
p10
aVhttps://www.clarin.com/politica/Angelici-Carrio-River-aburrio-denuncias_0_1682231823.html
p11
aVhttps://www.clarin.com/politica/Angelici-Carrio-River-aburrio-denuncias_0_1682231823.html
p12
a.