(lp0
S'https://www.clarin.com/ieco/AFIP-pone-presion-millon-contribuyentes_0_1553244674.html'
p1
aS'https://www.clarin.com/ieco/AFIP-pone-presion-millon-contribuyentes_0_1553244674.html'
p2
aS'https://www.clarin.com/politica/Jaime-actuo-orden-Kirchner-Vido_0_1552645089.html'
p3
aS'https://www.clarin.com/politica/Jaime-actuo-orden-Kirchner-Vido_0_1552645089.html'
p4
aS'https://www.clarin.com/politica/Bonadio-indagatoria-Vido-tragedia-Once_0_1552645108.html'
p5
aS'https://www.clarin.com/politica/Bonadio-indagatoria-Vido-tragedia-Once_0_1552645108.html'
p6
aS'https://www.clarin.com/politica/auditoria-Vialidad-detallo-maniobras-Baez_0_1552645088.html'
p7
aS'https://www.clarin.com/politica/auditoria-Vialidad-detallo-maniobras-Baez_0_1552645088.html'
p8
aS'https://www.clarin.com/opinion/envidia-malvada_0_1552645189.html'
p9
aS'https://www.clarin.com/politica/Buscan-transmitir-Macri-tranquilidad-revelaciones_0_1552645191.html'
p10
aS'https://www.clarin.com/politica/Buscan-transmitir-Macri-tranquilidad-revelaciones_0_1552645191.html'
p11
aS'https://www.clarin.com/sociedad/fiscal-apunta-padrastro-Manuel-Storani_0_1552645187.html'
p12
aS'https://www.clarin.com/sociedad/fiscal-apunta-padrastro-Manuel-Storani_0_1552645187.html'
p13
a.