(lp0
Vhttps://www.clarin.com/politica/Martin-Baez-incremento-patrimonial-Cristina_0_1541245981.html
p1
aVhttps://www.clarin.com/politica/Martin-Baez-incremento-patrimonial-Cristina_0_1541245981.html
p2
aVhttps://www.clarin.com/ieco/senal-Washington-favor-negociacion-deuda_0_1541246221.html
p3
aVhttps://www.clarin.com/sociedad/Zentangle-crece-Argentina_0_1541246216.html
p4
aVhttps://www.clarin.com/sociedad/Zentangle-crece-Argentina_0_1541246216.html
p5
aVhttps://www.clarin.com/politica/Horacio-Verbitsky-desaparecidos-numero-instalado_0_1541246209.html
p6
aVhttps://www.clarin.com/politica/Horacio-Verbitsky-desaparecidos-numero-instalado_0_1541246209.html
p7
aVhttps://www.clarin.com/sociedad/declaro-culpable-intimas-famosas-Hollywood_0_1541246203.html
p8
aVhttps://www.clarin.com/sociedad/declaro-culpable-intimas-famosas-Hollywood_0_1541246203.html
p9
a.