(lp0
Vhttps://www.clarin.com/sociedad/ejercicio-necesita-compensar-horas-sentado_0_1621637849.html
p1
aVhttps://www.clarin.com/sociedad/ejercicio-necesita-compensar-horas-sentado_0_1621637849.html
p2
aVhttps://www.clarin.com/politica/Vidal-Puan-Pigue-reclamo-inundados_0_1621637848.html
p3
aVhttps://www.clarin.com/politica/Vidal-Puan-Pigue-reclamo-inundados_0_1621637848.html
p4
aVhttps://www.clarin.com/politica/jueces-fiscales-atormentan-macrismo_0_1621637847.html
p5
aVhttps://www.clarin.com/politica/jueces-fiscales-atormentan-macrismo_0_1621637847.html
p6
aVhttps://www.clarin.com/politica/Macri-cardiologo-unidad-medica-presidencial_0_1621637845.html
p7
aVhttps://www.clarin.com/politica/Macri-cardiologo-unidad-medica-presidencial_0_1621637845.html
p8
aVhttps://www.clarin.com/sociedad/Condenaron-prision-perpetua-hombres-femicidio_0_1621637841.html
p9
aVhttps://www.clarin.com/politica/Stolbizer-Jorge-Macri-Tecnopolis-electoral_0_1621637840.html
p10
aVhttps://www.clarin.com/politica/Stolbizer-Jorge-Macri-Tecnopolis-electoral_0_1621637840.html
p11
aVhttps://www.clarin.com/sociedad/Aparecieron-imagenes-vistas-privada-Hitler_0_1621637838.html
p12
aVhttps://www.clarin.com/sociedad/Aparecieron-imagenes-vistas-privada-Hitler_0_1621637838.html
p13
a.