(lp0
S'https://www.clarin.com/ieco/economia/Llegan-pais-bicicletas-electricas_0_1610838957.html'
p1
aS'https://www.clarin.com/sociedad/guardiacarcel-ataque-cardiaco-salvaron-presos_0_1610838969.html'
p2
aS'https://www.clarin.com/politica/Indice-optimismo-aparecio-Cristina-mantuvieron_0_1610838968.html'
p3
aS'https://www.clarin.com/politica/Rodriguez-Saa-Tucuman-pronunciamiento-lavadito_0_1610838970.html'
p4
aS'https://www.clarin.com/sociedad/Bicentenario-vez-combatientes-Malvinas-ovacionados_0_1610838973.html'
p5
aS'https://www.clarin.com/ieco/economia/llego-hora-diversificar-carteras_0_1610838956.html'
p6
aS'https://www.clarin.com/sociedad/Conmovedor-video-llora-llevan-matadero_0_1610838965.html'
p7
aS'https://www.clarin.com/politica/Primer-Ministro-Benjamin-Netanyahu-Bicentenario_0_1610838976.html'
p8
aS'https://www.clarin.com/politica/Macri-final-decidio-ir-acto_0_1610838974.html'
p9
a.