(lp0
S'https://www.clarin.com/politica/legislador-diputado-jubilado-Congreso-chorros_0_1681631947.html'
p1
aS'https://www.clarin.com/politica/legislador-diputado-jubilado-Congreso-chorros_0_1681631947.html'
p2
aS'https://www.clarin.com/sociedad/Murio-adolescentes-apunalaron-plaza-Boca_0_1681631948.html'
p3
aS'https://www.clarin.com/sociedad/Murio-adolescentes-apunalaron-plaza-Boca_0_1681631948.html'
p4
aS'https://www.clarin.com/ieco/economia/YPF-vender-Metrogas-ordene-sector_0_1681032013.html'
p5
aS'https://www.clarin.com/ieco/economia/YPF-vender-Metrogas-ordene-sector_0_1681032013.html'
p6
aS'https://www.clarin.com/sociedad/pocos-dias-llega-superluna-daba_0_1681631942.html'
p7
aS'https://www.clarin.com/sociedad/pocos-dias-llega-superluna-daba_0_1681631942.html'
p8
aS'https://www.clarin.com/sociedad/argentinos-daran-vuelta-Gran-Manzana_0_1681631938.html'
p9
aS'https://www.clarin.com/sociedad/argentinos-daran-vuelta-Gran-Manzana_0_1681631938.html'
p10
aS'https://www.clarin.com/politica/Ritondo-Boudou-patas-traje-rayas_0_1681631936.html'
p11
aS'https://www.clarin.com/politica/Ritondo-Boudou-patas-traje-rayas_0_1681631936.html'
p12
a.