(lp0
Vhttps://www.clarin.com/politica/Macri-Rosario-operativo-seguridad-protestas_0_1540046163.html
p1
aVhttps://www.clarin.com/politica/Macri-Rosario-operativo-seguridad-protestas_0_1540046163.html
p2
aVhttps://www.clarin.com/politica/Urtubey-resolver-holdouts-advertencia-Macri_0_1540046160.html
p3
aVhttps://www.clarin.com/politica/Urtubey-resolver-holdouts-advertencia-Macri_0_1540046160.html
p4
aVhttps://www.clarin.com/politica/Echegaray-intocable-justicia_0_1540046124.html
p5
aVhttps://www.clarin.com/politica/Echegaray-intocable-justicia_0_1540046124.html
p6
aVhttps://www.clarin.com/ieco/subsecretario-Tesoro-EEUU-Buenos-Aires_0_1540046150.html
p7
aVhttps://www.clarin.com/ieco/subsecretario-Tesoro-EEUU-Buenos-Aires_0_1540046150.html
p8
aVhttps://www.clarin.com/politica/Cobos-AFIP-impositiva-Cristobal-Lopez_0_1540046147.html
p9
aVhttps://www.clarin.com/politica/Cobos-AFIP-impositiva-Cristobal-Lopez_0_1540046147.html
p10
a.