(lp0
S'https://www.clarin.com/politica/Rechazan-pedido-Anibal-investigacion-Qunita_0_1528047473.html'
p1
aS'https://www.clarin.com/politica/Rechazan-pedido-Anibal-investigacion-Qunita_0_1528047473.html'
p2
aS'https://www.clarin.com/politica/Carlos-Menem-sostienen-Nestor-Kirchner_0_1528047467.html'
p3
aS'https://www.clarin.com/politica/Carlos-Menem-sostienen-Nestor-Kirchner_0_1528047467.html'
p4
aS'https://www.clarin.com/politica/Shakira-fugado-jueves-desague_0_1528047464.html'
p5
aS'https://www.clarin.com/politica/Gobierno-debera-compensar-politica-economico_0_1528047555.html'
p6
aS'https://www.clarin.com/politica/Gobierno-debera-compensar-politica-economico_0_1528047555.html'
p7
aS'https://www.clarin.com/sociedad/publicidad-acertijo-abusos-Photoshop_0_1528047447.html'
p8
aS'https://www.clarin.com/sociedad/publicidad-acertijo-abusos-Photoshop_0_1528047447.html'
p9
aS'https://www.clarin.com/ieco/economia/Sube-expectativa-inflacion-llega_0_1528047445.html'
p10
a.