(lp0
Vhttps://www.clarin.com/politica/Fideicomiso-Austral-indagatoria-Maximo-Kirchner_0_1645035574.html
p1
aVhttps://www.clarin.com/politica/Fideicomiso-Austral-indagatoria-Maximo-Kirchner_0_1645035574.html
p2
aVhttps://www.clarin.com/politica/Pino-Solanas-megabasurero-San-Juan_0_1645035573.html
p3
aVhttps://www.clarin.com/politica/Pino-Solanas-megabasurero-San-Juan_0_1645035573.html
p4
a.