(lp0
S'https://www.clarin.com/sociedad/mision-aguas-profundas-verificar-oceanos_0_1620438054.html'
p1
aS'https://www.clarin.com/sociedad/mision-aguas-profundas-verificar-oceanos_0_1620438054.html'
p2
aS'https://www.clarin.com/sociedad/Puma-cerraron-Parque-Nacional-Iguazu_0_1620438053.html'
p3
aS'https://www.clarin.com/sociedad/Puma-cerraron-Parque-Nacional-Iguazu_0_1620438053.html'
p4
a.