(lp0
Vhttps://www.clarin.com/sociedad/Captan-primera-fabuloso-fenomeno-cosmico_0_1591640941.html
p1
aVhttps://www.clarin.com/sociedad/Captan-primera-fabuloso-fenomeno-cosmico_0_1591640941.html
p2
aVhttps://www.clarin.com/politica/ex-funcionarios-negaron-declarar-Justicia_0_1591640940.html
p3
aVhttps://www.clarin.com/politica/ex-funcionarios-negaron-declarar-Justicia_0_1591640940.html
p4
aVhttps://www.clarin.com/politica/Suiza-condiciones-Casanello-extraditar-financista_0_1591640938.html
p5
aVhttps://www.clarin.com/politica/Suiza-condiciones-Casanello-extraditar-financista_0_1591640938.html
p6
aVhttps://www.clarin.com/sociedad/Usaran-pulseras-electronicas-violencia-genero_0_1591640937.html
p7
aVhttps://www.clarin.com/sociedad/Usaran-pulseras-electronicas-violencia-genero_0_1591640937.html
p8
a.