(lp0
Vhttps://www.clarin.com/sociedad/Separaron-profesor-secundario-actor-porno_0_1562243844.html
p1
aVhttps://www.clarin.com/sociedad/Separaron-profesor-secundario-actor-porno_0_1562243844.html
p2
aVhttps://www.clarin.com/politica/Ahora-Capaccioli-dice-recaudador-Cristina_0_1562243841.html
p3
aVhttps://www.clarin.com/politica/Ahora-Capaccioli-dice-recaudador-Cristina_0_1562243841.html
p4
aVhttps://www.clarin.com/sociedad/lugar-sacan-selfies-arriesgadas-Rio_0_1562243839.html
p5
aVhttps://www.clarin.com/sociedad/lugar-sacan-selfies-arriesgadas-Rio_0_1562243839.html
p6
aVhttps://www.clarin.com/politica/Trimarco-polemica-predios-Gobierno-Cristina_0_1562243831.html
p7
aVhttps://www.clarin.com/politica/Trimarco-polemica-predios-Gobierno-Cristina_0_1562243831.html
p8
aVhttps://www.clarin.com/politica/complica-continuidad-Echegaray-AGN_0_1562243827.html
p9
aVhttps://www.clarin.com/politica/complica-continuidad-Echegaray-AGN_0_1562243827.html
p10
aVhttps://www.clarin.com/politica/Avanza-Diputados-proyecto-prohibir-despidos_0_1562243824.html
p11
aVhttps://www.clarin.com/politica/Avanza-Diputados-proyecto-prohibir-despidos_0_1562243824.html
p12
aVhttps://www.clarin.com/sociedad/Tragedia-Costa-Salguero-desafectaron-prefectos_0_1562243821.html
p13
aVhttps://www.clarin.com/sociedad/Tragedia-Costa-Salguero-desafectaron-prefectos_0_1562243821.html
p14
aVhttps://www.clarin.com/sociedad/Escalofriante-hallazgo-hundimiento-Titanic_0_1562243819.html
p15
aVhttps://www.clarin.com/sociedad/Escalofriante-hallazgo-hundimiento-Titanic_0_1562243819.html
p16
a.