(lp0
Vhttps://www.clarin.com/ieco/economia/Lecciones-boom-Obama_0_1505849537.html
p1
aVhttps://www.clarin.com/ieco/economia/Lecciones-boom-Obama_0_1505849537.html
p2
aVhttps://www.clarin.com/ieco/economia/commodities-baja-proyectan-sombras_0_1505849536.html
p3
aVhttps://www.clarin.com/ieco/economia/Gobierno-empieza-tantear-mercado-financiarse_0_1505849535.html
p4
aVhttps://www.clarin.com/ieco/economia/Gobierno-empieza-tantear-mercado-financiarse_0_1505849535.html
p5
aVhttps://www.clarin.com/politica/Milagro_Sala-Jujuy_0_1505249890.html
p6
aVhttps://www.clarin.com/politica/Milagro_Sala-Jujuy_0_1505249890.html
p7
aVhttps://www.clarin.com/politica/milagros_sala-jujuy-gerardo_morales_0_1505249858.html
p8
aVhttps://www.clarin.com/ieco/impuestos-ganancias-aguinaldo_0_1505249844.html
p9
aVhttps://www.clarin.com/ieco/impuestos-ganancias-aguinaldo_0_1505249844.html
p10
a.