(lp0
Vhttps://www.clarin.com/politica/Futbol-Anibal-Capitanich-designen-abogado_0_1540646288.html
p1
aVhttps://www.clarin.com/politica/Futbol-Anibal-Capitanich-designen-abogado_0_1540646288.html
p2
aVhttps://www.clarin.com/sociedad/familias-argentinas-asesinadas-Ecuador-justicia_0_1540646287.html
p3
aVhttps://www.clarin.com/sociedad/familias-argentinas-asesinadas-Ecuador-justicia_0_1540646287.html
p4
aVhttps://www.clarin.com/politica/Prefectura-pescaba-ilegalmente-Mar-Argentino_0_1540646284.html
p5
aVhttps://www.clarin.com/politica/Prefectura-pescaba-ilegalmente-Mar-Argentino_0_1540646284.html
p6
aVhttps://www.clarin.com/sociedad/Crimen-Calera-testigo-complico-causa_0_1540646273.html
p7
aVhttps://www.clarin.com/sociedad/Crimen-Calera-testigo-complico-causa_0_1540646273.html
p8
aVhttps://www.clarin.com/sociedad/Eligieron-perro-lindo-mundo_0_1540646267.html
p9
aVhttps://www.clarin.com/sociedad/Eligieron-perro-lindo-mundo_0_1540646267.html
p10
aVhttps://www.clarin.com/sociedad/Video-zoo-chino-enjaulados-humanos_0_1540646258.html
p11
aVhttps://www.clarin.com/sociedad/Video-zoo-chino-enjaulados-humanos_0_1540646258.html
p12
aVhttps://www.clarin.com/sociedad/burlo-Facebook-censurar-foto-amamantaba_0_1540646212.html
p13
aVhttps://www.clarin.com/sociedad/burlo-Facebook-censurar-foto-amamantaba_0_1540646212.html
p14
a.