(lp0
Vhttps://www.clarin.com/ieco/provincia-Buenos-Aires-adhirio-blanqueo_0_1667833257.html
p1
aVhttps://www.clarin.com/ieco/provincia-Buenos-Aires-adhirio-blanqueo_0_1667833257.html
p2
aVhttps://www.clarin.com/ieco/economia/Paritaria-Comercio-meses-bono_0_1667833255.html
p3
aVhttps://www.clarin.com/ieco/economia/Paritaria-Comercio-meses-bono_0_1667833255.html
p4
aVhttps://www.clarin.com/politica/Gomez-Centurion-Aduana-operacion-separarme_0_1667833254.html
p5
aVhttps://www.clarin.com/politica/Gomez-Centurion-Aduana-operacion-separarme_0_1667833254.html
p6
aVhttps://www.clarin.com/politica/bajaron-Baez-Santa-Cruz-Gobierno_0_1667833250.html
p7
aVhttps://www.clarin.com/politica/bajaron-Baez-Santa-Cruz-Gobierno_0_1667833250.html
p8
aVhttps://www.clarin.com/ieco/Triaca-aclaro-exencion-Ganancias-aguinaldo_0_1667833246.html
p9
aVhttps://www.clarin.com/ieco/Triaca-aclaro-exencion-Ganancias-aguinaldo_0_1667833246.html
p10
a.