(lp0
Vhttps://www.clarin.com/sociedad/Subastaron-pueblo-pudieron-vender-precio_0_1548445514.html
p1
aVhttps://www.clarin.com/sociedad/Subastaron-pueblo-pudieron-vender-precio_0_1548445514.html
p2
aVhttps://www.clarin.com/politica/Gobierno-impulsa-indagatoria-Echegaray-Ciccone_0_1548445502.html
p3
aVhttps://www.clarin.com/politica/Gobierno-impulsa-indagatoria-Echegaray-Ciccone_0_1548445502.html
p4
aVhttps://www.clarin.com/ieco/economia/desafio-actual-mantener-aumentar-empleo_0_1548445503.html
p5
aVhttps://www.clarin.com/ieco/economia/desafio-actual-mantener-aumentar-empleo_0_1548445503.html
p6
a.