(lp0
S'https://www.clarin.com/sociedad/Imputan-docentes-Derecho-irregularidades-concurso_0_1669633174.html'
p1
aS'https://www.clarin.com/politica/Jorge-Lanata-editorial-insultos-Cristina_0_1669633172.html'
p2
aS'https://www.clarin.com/politica/Jorge-Lanata-editorial-insultos-Cristina_0_1669633172.html'
p3
aS'https://www.clarin.com/sociedad/perdio-brazo-volcar-micro-recital_0_1669633173.html'
p4
aS'https://www.clarin.com/sociedad/perdio-brazo-volcar-micro-recital_0_1669633173.html'
p5
aS'https://www.clarin.com/sociedad/hablado-busco-unir-ricos-pobres_0_1669633170.html'
p6
aS'https://www.clarin.com/sociedad/cura-Brochero-santo-fiesta-argentina_0_1669633140.html'
p7
aS'https://www.clarin.com/sociedad/cura-Brochero-santo-fiesta-argentina_0_1669633140.html'
p8
aS'https://www.clarin.com/politica/Stolbizer-maniobra-Kirchner-Lazaro-Baez_0_1669633157.html'
p9
aS'https://www.clarin.com/politica/Stolbizer-maniobra-Kirchner-Lazaro-Baez_0_1669633157.html'
p10
aS'https://www.clarin.com/politica/Acusan-bonaerense-millonaria-partidos-futbol_0_1669633160.html'
p11
aS'https://www.clarin.com/politica/Acusan-bonaerense-millonaria-partidos-futbol_0_1669633160.html'
p12
aS'https://www.clarin.com/politica/mausoleo-Nestor-Kirchner-costo-millones_0_1669633143.html'
p13
aS'https://www.clarin.com/politica/mausoleo-Nestor-Kirchner-costo-millones_0_1669633143.html'
p14
aS'https://www.clarin.com/politica/peronismo-dividido-celebra-hoy-octubre_0_1669633158.html'
p15
aS'https://www.clarin.com/politica/peronismo-dividido-celebra-hoy-octubre_0_1669633158.html'
p16
a.