(lp0
Vhttps://www.clarin.com/sociedad/Encuentran-antigua-villancico-Noche-Paz_0_1687031403.html
p1
aVhttps://www.clarin.com/sociedad/Encuentran-antigua-villancico-Noche-Paz_0_1687031403.html
p2
aVhttps://www.clarin.com/politica/titular-Loteria-construyo-mansion-Calafate_0_1687631297.html
p3
aVhttps://www.clarin.com/politica/titular-Loteria-construyo-mansion-Calafate_0_1687631297.html
p4
aVhttps://www.clarin.com/sociedad/bombero-spiderman-trepo-pisos-segundos_0_1687631279.html
p5
aVhttps://www.clarin.com/sociedad/bombero-spiderman-trepo-pisos-segundos_0_1687631279.html
p6
aVhttps://www.clarin.com/ieco/Bolsa-sigue-subiendo-trepa_0_1687631286.html
p7
aVhttps://www.clarin.com/ieco/Bolsa-sigue-subiendo-trepa_0_1687631286.html
p8
aVhttps://www.clarin.com/ieco/economia/Pescarmona-suspendan-pedidos-quiebra-marzo_0_1687631285.html
p9
aVhttps://www.clarin.com/ieco/economia/Pescarmona-suspendan-pedidos-quiebra-marzo_0_1687631285.html
p10
a.