(lp0
Vhttps://www.clarin.com/opinion/informacion-PAMI-pertenece_0_1579042219.html
p1
aVhttps://www.clarin.com/opinion/Asentamientos-usos-marginacion_0_1579042224.html
p2
aVhttps://www.clarin.com/politica/Piden-procesar-Vido-coimas-trenes_0_1579042303.html
p3
aVhttps://www.clarin.com/politica/Piden-procesar-Vido-coimas-trenes_0_1579042303.html
p4
aVhttps://www.clarin.com/sociedad/despeinada-maestra-hermanos-rogaban-auxilio_0_1579042290.html
p5
a.