(lp0
S'https://www.clarin.com/ieco/Proyectan-hotel-torre-alta-ciudad_0_1649835161.html'
p1
aS'https://www.clarin.com/politica/seguridad-laxa-esfera-sorpresas-Foro_0_1649835158.html'
p2
aS'https://www.clarin.com/politica/Gils-Carbo-Nisman-Cristobal-Lopez_0_1649835172.html'
p3
aS'https://www.clarin.com/politica/mayo-comienza-primer-juicio-Boudou_0_1649835166.html'
p4
aS'https://www.clarin.com/ieco/economia/caidas-agosto-faena-carne-vacuna_0_1649835170.html'
p5
a.