(lp0
S'https://www.clarin.com/politica/Chino-Navarro-discusion-acalorada-Ottavis_0_1537646350.html'
p1
aS'https://www.clarin.com/politica/Chino-Navarro-discusion-acalorada-Ottavis_0_1537646350.html'
p2
aS'https://www.clarin.com/ieco/economia/Pampa-vendera-TGS-emitira-afuera_0_1537646343.html'
p3
aS'https://www.clarin.com/politica/Ganancias-Negri-advirtio-podria-Cristina_0_1537646340.html'
p4
aS'https://www.clarin.com/politica/Ganancias-Negri-advirtio-podria-Cristina_0_1537646340.html'
p5
aS'https://www.clarin.com/politica/Ganancias-massismo-asegura-pacto-Gobierno_0_1537646332.html'
p6
aS'https://www.clarin.com/politica/Ganancias-massismo-asegura-pacto-Gobierno_0_1537646332.html'
p7
aS'https://www.clarin.com/politica/Vidal-paritaria-estatales-cerro_0_1537046775.html'
p8
aS'https://www.clarin.com/ieco/Vialidad-busca-presupuesto-millones_0_1537046771.html'
p9
a.