(lp0
Vhttps://www.clarin.com/politica/Ocana-Perez-Corradi-Morsa-Cristina_0_1598240260.html
p1
aVhttps://www.clarin.com/politica/Ocana-Perez-Corradi-Morsa-Cristina_0_1598240260.html
p2
aVhttps://www.clarin.com/politica/Bina-recompensa-detencion-Perez-Corradi_0_1598240259.html
p3
aVhttps://www.clarin.com/politica/Bina-recompensa-detencion-Perez-Corradi_0_1598240259.html
p4
aVhttps://www.clarin.com/politica/Familiares-victimas-expresaron-Perez-Corradi_0_1598240258.html
p5
aVhttps://www.clarin.com/politica/Familiares-victimas-expresaron-Perez-Corradi_0_1598240258.html
p6
aVhttps://www.clarin.com/politica/Paraguay-quieren-extradicion-Perez-Corradi_0_1598240254.html
p7
aVhttps://www.clarin.com/politica/Paraguay-quieren-extradicion-Perez-Corradi_0_1598240254.html
p8
aVhttps://www.clarin.com/politica/Indice-optimismo-repunte-politico-economico_0_1598240251.html
p9
aVhttps://www.clarin.com/politica/Perez-Corradi-huellas-dactilares-dedos_0_1598240250.html
p10
aVhttps://www.clarin.com/politica/Perez-Corradi-huellas-dactilares-dedos_0_1598240250.html
p11
a.