(lp0
S'https://www.clarin.com/politica/visita-Obama-nuevo-relacion-oscilante_0_1543645993.html'
p1
aS'https://www.clarin.com/sociedad/Alquiler-vientres-falta-regulacion-avala_0_1543645994.html'
p2
aS'https://www.clarin.com/politica/gremialista-derrotar-gobernadora-fueguina-abusada_0_1543645959.html'
p3
aS'https://www.clarin.com/politica/leyes-aprobadas-Ejecutivo-batieron-record_0_1543645998.html'
p4
aS'https://www.clarin.com/sociedad/alquiler-vientre-fallo-otorgo-maternidad_0_1543645990.html'
p5
aS'https://www.clarin.com/politica/Dudas-apertura-archivos-Vaticano_0_1543645995.html'
p6
a.