(lp0
S'https://www.clarin.com/sociedad/Cronologia-horror-muertes-ultimos-dias_0_1527447695.html'
p1
aS'https://www.clarin.com/ieco/economia/indec-nuevo_indice_0_1527447719.html'
p2
aS'https://www.clarin.com/politica/Vidal-reforma-servicio_penitenciario_0_1528047183.html'
p3
aS'https://www.clarin.com/sociedad/nuevo-celulares-conectara-personas-cosas_0_1527447689.html'
p4
aS'https://www.clarin.com/ieco/economia/buitres-acuerdo_0_1527447720.html'
p5
aS'https://www.clarin.com/sociedad/restriccion-sola-alcanza-aplicarla-bien_0_1527447699.html'
p6
aS'https://www.clarin.com/politica/Expectativas-Francia-visita-Hollande-pais_0_1528047181.html'
p7
aS'https://www.clarin.com/sociedad/Haran-ADN-abuelo-asesino-abusaba_0_1527447693.html'
p8
a.