(lp0
S'https://www.clarin.com/politica/gremialismo-prepara-protesta-nacional-octubre_0_1670833067.html'
p1
aS'https://www.clarin.com/politica/gremialismo-prepara-protesta-nacional-octubre_0_1670833067.html'
p2
aS'https://www.clarin.com/politica/Denuncian-desvios-fondos-manejo-Maximo_0_1670833048.html'
p3
aS'https://www.clarin.com/politica/Denuncian-desvios-fondos-manejo-Maximo_0_1670833048.html'
p4
a.