(lp0
S'https://www.clarin.com/sociedad/Video-Luna-rodo-calle_0_1651034922.html'
p1
aS'https://www.clarin.com/ieco/Mauricio-Macri-Hoy-nadie-precio_0_1651034914.html'
p2
aS'https://www.clarin.com/politica/asesor-Scioli-fuerte-dragon-jardin_0_1651034926.html'
p3
aS'https://www.clarin.com/ieco/economia/evaluando-ampliar-presencia-SAP-Argentina_0_1651034919.html'
p4
aS'https://www.clarin.com/sociedad/Fiscal-San-Juan-Barrick-cansados_0_1651034916.html'
p5
aS'https://www.clarin.com/ieco/economia/Drones-aviones-privados-guardaespaldas-ven_0_1650435150.html'
p6
a.