(lp0
S'https://www.clarin.com/opinion/caida-Illia-heroismo-constitucional_0_1598240264.html'
p1
aS'https://www.clarin.com/opinion/Argentina-Alianza-Pacifico-ocasion-ahora_0_1598240263.html'
p2
aS'https://www.clarin.com/opinion/Personalismos-politica-hecha-persona_0_1598240262.html'
p3
aS'https://www.clarin.com/opinion/Personalismos-politica-hecha-persona_0_1598240262.html'
p4
aS'https://www.clarin.com/politica/Recalde-Iglesia-resistio-pedofilos-corruptos_0_1598240287.html'
p5
aS'https://www.clarin.com/politica/Recalde-Iglesia-resistio-pedofilos-corruptos_0_1598240287.html'
p6
aS'https://www.clarin.com/politica/trama-une-narcotrafico-financiacion-campanas_0_1598240310.html'
p7
aS'https://www.clarin.com/politica/abogada-Lopez-estable-podria-declarar_0_1598240293.html'
p8
aS'https://www.clarin.com/opinion/Cristina-Anibal_0_1598840104.html'
p9
aS'https://www.clarin.com/politica/PJ-sacudido-corrupcion-explicita_0_1598840103.html'
p10
aS'https://www.clarin.com/sociedad/personas-visitaron-Mar-Plata-semana_0_1598240288.html'
p11
aS'https://www.clarin.com/sociedad/personas-visitaron-Mar-Plata-semana_0_1598240288.html'
p12
a.