(lp0
Vhttps://www.clarin.com/politica/Presionado-Cristobal-Lopez-negocio-socio_0_1592840873.html
p1
aVhttps://www.clarin.com/politica/Presionado-Cristobal-Lopez-negocio-socio_0_1592840873.html
p2
aVhttps://www.clarin.com/politica/Afirman-Perez-Corradi-hijos-Paraguay_0_1592840869.html
p3
aVhttps://www.clarin.com/politica/Afirman-Perez-Corradi-hijos-Paraguay_0_1592840869.html
p4
aVhttps://www.clarin.com/sociedad/Video-increibles-choques-Santa-Cruz_0_1592840811.html
p5
aVhttps://www.clarin.com/sociedad/Video-increibles-choques-Santa-Cruz_0_1592840811.html
p6
aVhttps://www.clarin.com/ieco/Miguel-Kiguel-crecimiento-vera_0_1592840850.html
p7
a.