(lp0
S'https://www.clarin.com/sociedad/padre-Cromanon-diferencia-solo-cronologica_0_1563443739.html'
p1
aS'https://www.clarin.com/sociedad/padre-Cromanon-diferencia-solo-cronologica_0_1563443739.html'
p2
aS'https://www.clarin.com/sociedad/Descontrol-Time-Warp-totalmente-desnudo_0_1563443738.html'
p3
aS'https://www.clarin.com/sociedad/Descontrol-Time-Warp-totalmente-desnudo_0_1563443738.html'
p4
aS'https://www.clarin.com/ieco/Macri-volvio-insistir-ley-antidespidos_0_1563443736.html'
p5
aS'https://www.clarin.com/ieco/economia/Argentina-fondos-buitre-termino-default_0_1563443734.html'
p6
aS'https://www.clarin.com/ieco/economia/Argentina-fondos-buitre-termino-default_0_1563443734.html'
p7
aS'https://www.clarin.com/ieco/economia/importacion-importaciones-dolar-mayorista-centavos_0_1563443733.html'
p8
aS'https://www.clarin.com/ieco/economia/importacion-importaciones-dolar-mayorista-centavos_0_1563443733.html'
p9
a.