(lp0
Vhttps://www.clarin.com/ieco/economia/ofensiva-Johnson_0_1564643557.html
p1
aVhttps://www.clarin.com/ieco/economia/ofensiva-Johnson_0_1564643557.html
p2
aVhttps://www.clarin.com/ieco/economia/bodegas-apuestan-espirituosas_0_1564643556.html
p3
aVhttps://www.clarin.com/ieco/economia/marcas-NewSan-buscan-propia-identidad_0_1564643555.html
p4
aVhttps://www.clarin.com/ieco/economia/marcas-NewSan-buscan-propia-identidad_0_1564643555.html
p5
aVhttps://www.clarin.com/ieco/economia/ofertas-clientes-escurridizos_0_1564643553.html
p6
aVhttps://www.clarin.com/ieco/economia/oportunidades-ganaderia_0_1564643551.html
p7
aVhttps://www.clarin.com/ieco/economia/futuro-tecnologia-campo_0_1564643550.html
p8
aVhttps://www.clarin.com/ieco/economia/cambios-futuro-mirada-lideres-clave_0_1564643549.html
p9
aVhttps://www.clarin.com/ieco/economia/cambios-futuro-mirada-lideres-clave_0_1564643549.html
p10
aVhttps://www.clarin.com/ieco/economia/grandes-software-mostraron-Nueva-York_0_1564643546.html
p11
aVhttps://www.clarin.com/ieco/economia/grandes-software-mostraron-Nueva-York_0_1564643546.html
p12
aVhttps://www.clarin.com/ieco/economia/ultima-emision-deuda-prueba-buitres_0_1564643545.html
p13
aVhttps://www.clarin.com/ieco/economia/ultima-emision-deuda-prueba-buitres_0_1564643545.html
p14
aVhttps://www.clarin.com/ieco/economia/deuda-rojo-interminable_0_1564643544.html
p15
aVhttps://www.clarin.com/ieco/economia/deuda-rojo-interminable_0_1564643544.html
p16
aVhttps://www.clarin.com/ieco/economia/oferta-frena-economia-mundial_0_1564643543.html
p17
aVhttps://www.clarin.com/ieco/economia/Aseguran-efimera-mejora-emergentes_0_1564643542.html
p18
aVhttps://www.clarin.com/ieco/economia/Aseguran-efimera-mejora-emergentes_0_1564643542.html
p19
a.