(lp0
S'https://www.clarin.com/ieco/economia/significan-Clinton-Trump-mercados-mundiales_0_1681032027.html'
p1
aS'https://www.clarin.com/ieco/economia/significan-Clinton-Trump-mercados-mundiales_0_1681032027.html'
p2
aS'https://www.clarin.com/ieco/emprendedores/autopsia-computadora_0_1681032017.html'
p3
aS'https://www.clarin.com/ieco/emprendedores/autopsia-computadora_0_1681032017.html'
p4
aS'https://www.clarin.com/ieco/economia/Unidos-vuelca-adentro_0_1681032014.html'
p5
aS'https://www.clarin.com/sociedad/altamar-angustia-distancia-abrazos-whatsapp_0_1681631937.html'
p6
aS'https://www.clarin.com/sociedad/altamar-angustia-distancia-abrazos-whatsapp_0_1681631937.html'
p7
aS'https://www.clarin.com/politica/Gobierno-diferenciarse-Pichetto-declaraciones-inmigracion_0_1681632002.html'
p8
aS'https://www.clarin.com/politica/Gobierno-diferenciarse-Pichetto-declaraciones-inmigracion_0_1681632002.html'
p9
aS'https://www.clarin.com/politica/Corte-derogaria-deberian-jubilarse-jueces_0_1681631971.html'
p10
aS'https://www.clarin.com/politica/Corte-derogaria-deberian-jubilarse-jueces_0_1681631971.html'
p11
a.