(lp0
S'https://www.clarin.com/politica/Macri-actividad-oficial-Gracias-mensajes_0_1590440986.html'
p1
aS'https://www.clarin.com/ieco/economia/Advierten-tarifazo-peligran-puestos-frigorificos_0_1590440981.html'
p2
aS'https://www.clarin.com/politica/escrito-Baez-volvio-saquen-Casanello_0_1590440985.html'
p3
aS'https://www.clarin.com/politica/Ruta-Marijuan-explico-motivos-Suiza_0_1590440983.html'
p4
aS'https://www.clarin.com/politica/Ingrid-Grudke-defendio-Cristobal-Lopez_0_1590440998.html'
p5
aS'https://www.clarin.com/ieco/economia/Mindlin-Vamos-inversiones-Petrobras-US_0_1590440988.html'
p6
aS'https://www.clarin.com/sociedad/nuevo-semana-extra-large-junio_0_1590440990.html'
p7
aS'https://www.clarin.com/ieco/economia/supermercado-mayorista-Vital-invirtio-sucursales_0_1590440991.html'
p8
aS'https://www.clarin.com/politica/Macri-reaparecio-Lomas-Zamora-arritmia_0_1590440987.html'
p9
a.