(lp0
S'https://www.clarin.com/sociedad/Van-juicio-acusados-argentinas-Ecuador_0_1600639952.html'
p1
aS'https://www.clarin.com/politica/Despues-procesan-funcionarios-empresarios-Cristina_0_1600639937.html'
p2
aS'https://www.clarin.com/sociedad/desierto-Atacama-primera-Via-Lactea_0_1600639949.html'
p3
aS'https://www.clarin.com/sociedad/San-Juan-joven-asesinada-novio_0_1600639943.html'
p4
aS'https://www.clarin.com/politica/maniobra-campana-Fernandez-Kirchner-Cobos_0_1600639945.html'
p5
a.