(lp0
S'https://www.clarin.com/politica/Rosada-visitar-Casa-Gobierno-Facebook_0_1688231177.html'
p1
aS'https://www.clarin.com/sociedad/drone-busco-comprobar-mujer-infiel_0_1688231186.html'
p2
aS'https://www.clarin.com/politica/Adelanto-allanamientos-mansiones-Baez-Pinamar_0_1688231173.html'
p3
aS'https://www.clarin.com/politica/Premiaron-Rosatti-dedico-veteranos-Malvinas_0_1688231178.html'
p4
a.