(lp0
S'https://www.clarin.com/ieco/economia/dijo-Galuccio-empleados-YPF-partida_0_1537046562.html'
p1
aS'https://www.clarin.com/sociedad/choque-avionetas_0_1537046550.html'
p2
aS'https://www.clarin.com/sociedad/choque-avionetas_0_1537046550.html'
p3
aS'https://www.clarin.com/ieco/economia/Galuccio-confirmo-va-YPF_0_1537046547.html'
p4
aS'https://www.clarin.com/ieco/economia/Galuccio-confirmo-va-YPF_0_1537046547.html'
p5
aS'https://www.clarin.com/sociedad/despues-fraude-detras-populares-Instagram_0_1537046544.html'
p6
aS'https://www.clarin.com/sociedad/despues-fraude-detras-populares-Instagram_0_1537046544.html'
p7
a.