(lp0
S'https://www.clarin.com/sociedad/alumnos-dislexia-avanza-tratarlos-gratis_0_1633636841.html'
p1
aS'https://www.clarin.com/sociedad/alumnos-dislexia-avanza-tratarlos-gratis_0_1633636841.html'
p2
aS'https://www.clarin.com/politica/Estrategia-varias-puntas-salida-Procuradora_0_1633636837.html'
p3
aS'https://www.clarin.com/politica/Estrategia-varias-puntas-salida-Procuradora_0_1633636837.html'
p4
aS'https://www.clarin.com/sociedad/sanjuanino-gano-millones-Quini_0_1633636836.html'
p5
aS'https://www.clarin.com/politica/Podrian-complicaciones-vuelos_0_1633636831.html'
p6
aS'https://www.clarin.com/politica/Horas-tension-negociaciones-Corte-tarifas_0_1633636830.html'
p7
aS'https://www.clarin.com/politica/Horas-tension-negociaciones-Corte-tarifas_0_1633636830.html'
p8
aS'https://www.clarin.com/politica/Cumbre-Gioja-Scioli-caciques-peronistas-Cristina_0_1633636815.html'
p9
aS'https://www.clarin.com/politica/Cumbre-Gioja-Scioli-caciques-peronistas-Cristina_0_1633636815.html'
p10
a.