(lp0
S'https://www.clarin.com/sociedad/Habilidades-siglo-XXI-camino-empieza_0_1658834278.html'
p1
aS'https://www.clarin.com/sociedad/Habilidades-siglo-XXI-camino-empieza_0_1658834278.html'
p2
aS'https://www.clarin.com/sociedad/Cuidar-capital-mental-clave-desarrollo_0_1658834277.html'
p3
aS'https://www.clarin.com/sociedad/escuela-debe-tender-puentes-futuro_0_1658834276.html'
p4
aS'https://www.clarin.com/politica/Macri-punto-partida-acepto-evaluado_0_1658834275.html'
p5
aS'https://www.clarin.com/politica/Reflexiones-pobreza-Argentina_0_1658834274.html'
p6
aS'https://www.clarin.com/politica/Reflexiones-pobreza-Argentina_0_1658834274.html'
p7
aS'https://www.clarin.com/politica/Vidal-policias-quieran-convivir-seguir_0_1658834268.html'
p8
aS'https://www.clarin.com/politica/Vidal-policias-quieran-convivir-seguir_0_1658834268.html'
p9
aS'https://www.clarin.com/sociedad/Illaraz-juicio-acusado-sexual-seminaristas_0_1658834267.html'
p10
aS'https://www.clarin.com/sociedad/Illaraz-juicio-acusado-sexual-seminaristas_0_1658834267.html'
p11
aS'https://www.clarin.com/politica/Vidal-asumio-presidencia-PRO-bonaerense_0_1658834262.html'
p12
a.