(lp0
S'https://www.clarin.com/ieco/economia/Buryaile-campo-poniendo-hombro-Gobierno_0_1672632843.html'
p1
aS'https://www.clarin.com/ieco/economia/Buryaile-campo-poniendo-hombro-Gobierno_0_1672632843.html'
p2
a.