(lp0
Vhttps://www.clarin.com/sociedad/frio-duplicaron-ventas-calefactores-pais_0_1616238490.html
p1
aVhttps://www.clarin.com/sociedad/frio-duplicaron-ventas-calefactores-pais_0_1616238490.html
p2
aVhttps://www.clarin.com/ieco/transportistas-granos-amenazan-frenar-alimentos_0_1616238489.html
p3
aVhttps://www.clarin.com/sociedad/docente-transexual-obtuvo-adopcion-anos_0_1616238488.html
p4
aVhttps://www.clarin.com/sociedad/docente-transexual-obtuvo-adopcion-anos_0_1616238488.html
p5
aVhttps://www.clarin.com/ieco/economia/dolar-mayorista-cayo-venta-exportadores_0_1616238478.html
p6
aVhttps://www.clarin.com/ieco/economia/dolar-mayorista-cayo-venta-exportadores_0_1616238478.html
p7
aVhttps://www.clarin.com/politica/Stolbizer-adelantar-mediacion-Cristina-CFK_0_1616238476.html
p8
aVhttps://www.clarin.com/politica/Stolbizer-adelantar-mediacion-Cristina-CFK_0_1616238476.html
p9
a.