(lp0
S'https://www.clarin.com/sociedad/top-nuevas-especies-raras-mundo_0_1582041823.html'
p1
aS'https://www.clarin.com/sociedad/Detienen-pareja-Guernica-golpear-meses_0_1582041830.html'
p2
aS'https://www.clarin.com/sociedad/Denuncio-mordieron-jardin-maestras-juicio_0_1582041813.html'
p3
aS'https://www.clarin.com/politica/Lazaro-Baez-momento-abandonado-custodio_0_1581441970.html'
p4
aS'https://www.clarin.com/sociedad/Insisten-epidemia-gripe_0_1582041817.html'
p5
aS'https://www.clarin.com/ieco/Gobierno-admiten-pais-peor-momento_0_1582041824.html'
p6
aS'https://www.clarin.com/politica/arzobispo-cercano-Papa-Elisa-Carrio_0_1582041816.html'
p7
a.