(lp0
S'https://www.clarin.com/sociedad/hogares-cambia-habitos-aliviar-suba_0_1533447137.html'
p1
aS'https://www.clarin.com/sociedad/hogares-cambia-habitos-aliviar-suba_0_1533447137.html'
p2
aS'https://www.clarin.com/sociedad/Buscan-mochilera-argentina-desaparecida-Bolivia_0_1534046608.html'
p3
aS'https://www.clarin.com/sociedad/Buscan-mochilera-argentina-desaparecida-Bolivia_0_1534046608.html'
p4
aS'https://www.clarin.com/sociedad/aires-eficientes-cuestan-nadie-compra_0_1533447142.html'
p5
aS'https://www.clarin.com/sociedad/aires-eficientes-cuestan-nadie-compra_0_1533447142.html'
p6
aS'https://www.clarin.com/ieco/economia/Grobo-alian-INVAP-meter-tecnologia_0_1533447060.html'
p7
aS'https://www.clarin.com/ieco/economia/Grobo-alian-INVAP-meter-tecnologia_0_1533447060.html'
p8
aS'https://www.clarin.com/opinion/diario-Rocky-Balboa_0_1533447072.html'
p9
aS'https://www.clarin.com/politica/Macri-pide-celeridad-rechaza-trueque_0_1533447139.html'
p10
aS'https://www.clarin.com/politica/FpV-halcones-palomas_0_1533447153.html'
p11
aS'https://www.clarin.com/sociedad/Calera-dividido-incredulidad-pedido-justicia_0_1533447164.html'
p12
aS'https://www.clarin.com/sociedad/Calera-dividido-incredulidad-pedido-justicia_0_1533447164.html'
p13
a.