(lp0
Vhttps://www.clarin.com/politica/Activan-blanqueo-plan-emitir-deuda_0_1618038382.html
p1
aVhttps://www.clarin.com/ieco/jubilados-cerca-cobrar-reajuste_0_1618038381.html
p2
aVhttps://www.clarin.com/politica/Szpolski-transfirio-facturas-ANSeS-intiman_0_1618038380.html
p3
aVhttps://www.clarin.com/politica/Szpolski-transfirio-facturas-ANSeS-intiman_0_1618038380.html
p4
aVhttps://www.clarin.com/ieco/juez-rechazo-pedido-anular-tope_0_1618038376.html
p5
aVhttps://www.clarin.com/ieco/juez-rechazo-pedido-anular-tope_0_1618038376.html
p6
a.