(lp0
Vhttps://www.clarin.com/politica/Procesaron-Di-Cesare-PAMI-defraudacion_0_1592240914.html
p1
aVhttps://www.clarin.com/politica/Procesaron-Di-Cesare-PAMI-defraudacion_0_1592240914.html
p2
aVhttps://www.clarin.com/politica/Rechazan-unificar-causas-Hotesur-Sauces_0_1592240904.html
p3
aVhttps://www.clarin.com/politica/Adepa-pide-criminalizar-trabajo-prensa_0_1592240912.html
p4
aVhttps://www.clarin.com/politica/Adepa-pide-criminalizar-trabajo-prensa_0_1592240912.html
p5
aVhttps://www.clarin.com/politica/devolucion-IVA-jubilados-regira-partir_0_1592240909.html
p6
aVhttps://www.clarin.com/politica/devolucion-IVA-jubilados-regira-partir_0_1592240909.html
p7
aVhttps://www.clarin.com/politica/AFI-presiona-escuchas-Rosada-bajan_0_1592240906.html
p8
aVhttps://www.clarin.com/politica/Macri-Tinelli-falto-apertura-Showmatch_0_1592240898.html
p9
aVhttps://www.clarin.com/politica/Macri-Tinelli-falto-apertura-Showmatch_0_1592240898.html
p10
aVhttps://www.clarin.com/politica/AMIA-II-Detuvieron-comisario-testimonio_0_1592240873.html
p11
aVhttps://www.clarin.com/politica/Chueco-Comodoro-Py-pidio-libertad_0_1592240880.html
p12
a.