(lp0
Vhttps://www.clarin.com/sociedad/Seguridad-hospitales-diagnostico-demoro-protocolo_0_1640836075.html
p1
aVhttps://www.clarin.com/sociedad/Seguridad-hospitales-diagnostico-demoro-protocolo_0_1640836075.html
p2
aVhttps://www.clarin.com/sociedad/Agreden-medicos-Fernandez-denuncian-tierra_0_1640836072.html
p3
aVhttps://www.clarin.com/sociedad/Agreden-medicos-Fernandez-denuncian-tierra_0_1640836072.html
p4
aVhttps://www.clarin.com/politica/Casanello-techo-investigacion-causa-dinero_0_1640836070.html
p5
aVhttps://www.clarin.com/politica/Casanello-techo-investigacion-causa-dinero_0_1640836070.html
p6
aVhttps://www.clarin.com/sociedad/funcionario-mira-antisemitismo_0_1640836071.html
p7
a.