(lp0
S'https://www.clarin.com/sociedad/Mundos-intimos-Desventuras-aprendizajes-celiaca_0_1538246578.html'
p1
aS'https://www.clarin.com/sociedad/Mundos-intimos-Desventuras-aprendizajes-celiaca_0_1538246578.html'
p2
aS'https://www.clarin.com/sociedad/minoria_0_1538246581.html'
p3
a.