(lp0
Vhttps://www.clarin.com/sociedad/Hablo-argentina-retenida-Egipto-propiedad_0_1660633975.html
p1
aVhttps://www.clarin.com/sociedad/Hablo-argentina-retenida-Egipto-propiedad_0_1660633975.html
p2
aVhttps://www.clarin.com/sociedad/historias-peregrinos-recorren-kilometros-pausa_0_1660633964.html
p3
aVhttps://www.clarin.com/sociedad/historias-peregrinos-recorren-kilometros-pausa_0_1660633964.html
p4
aVhttps://www.clarin.com/politica/Macri-bailo-canto-cumbia-Tecnopolis_0_1660633963.html
p5
aVhttps://www.clarin.com/politica/Macri-bailo-canto-cumbia-Tecnopolis_0_1660633963.html
p6
a.