(lp0
Vhttps://www.clarin.com/sociedad/Subastan-Marilyn-Monroe-cumpleanos-Kennedy_0_1646835351.html
p1
aVhttps://www.clarin.com/sociedad/Subastan-Marilyn-Monroe-cumpleanos-Kennedy_0_1646835351.html
p2
aVhttps://www.clarin.com/sociedad/historia-detras-colectivero-hizo-viral_0_1646835353.html
p3
aVhttps://www.clarin.com/sociedad/historia-detras-colectivero-hizo-viral_0_1646835353.html
p4
aVhttps://www.clarin.com/sociedad/temblor-esencial-condicion-Rodriguez-Larreta_0_1646835356.html
p5
aVhttps://www.clarin.com/sociedad/temblor-esencial-condicion-Rodriguez-Larreta_0_1646835356.html
p6
aVhttps://www.clarin.com/ieco/economia/Facebook-busca-ayudar-pymes-exportar_0_1646835348.html
p7
aVhttps://www.clarin.com/ieco/economia/Facebook-busca-ayudar-pymes-exportar_0_1646835348.html
p8
aVhttps://www.clarin.com/politica/Rosatti-entrego-declaracion-Oficina-Anticorrupcion_0_1646835350.html
p9
aVhttps://www.clarin.com/politica/Rosatti-entrego-declaracion-Oficina-Anticorrupcion_0_1646835350.html
p10
a.