(lp0
S'https://www.clarin.com/opinion/dulce-oficio-abuela_0_1550245343.html'
p1
aS'https://www.clarin.com/ieco/economia/Nicolas-Catena-inversion-nacional-extranjera_0_1550245417.html'
p2
aS'https://www.clarin.com/ieco/economia/Nicolas-Catena-inversion-nacional-extranjera_0_1550245417.html'
p3
aS'https://www.clarin.com/ieco/economia/Crean-financiar-energias-renovables-millones_0_1550245414.html'
p4
aS'https://www.clarin.com/ieco/economia/Crean-financiar-energias-renovables-millones_0_1550245414.html'
p5
aS'https://www.clarin.com/ieco/economia/chances-adelantar-audiencia-Nueva-York_0_1550245347.html'
p6
aS'https://www.clarin.com/ieco/economia/chances-adelantar-audiencia-Nueva-York_0_1550245347.html'
p7
aS'https://www.clarin.com/politica/Garcia-Moritan-Argentina-programa-nuclear_0_1550245424.html'
p8
aS'https://www.clarin.com/politica/Sigue-bloque-FPV-salir-default_0_1550245419.html'
p9
a.