(lp0
Vhttps://www.clarin.com/ieco/BCRA-flexibiliza-funcionamiento-casas-cambio_0_1681031911.html
p1
aVhttps://www.clarin.com/ieco/BCRA-flexibiliza-funcionamiento-casas-cambio_0_1681031911.html
p2
aVhttps://www.clarin.com/ieco/Santander-estima-duplicara-volumen-creditos_0_1681031908.html
p3
aVhttps://www.clarin.com/ieco/Santander-estima-duplicara-volumen-creditos_0_1681031908.html
p4
aVhttps://www.clarin.com/politica/jardin-Vidal-Randazzo-decision-Cristina_0_1681031906.html
p5
aVhttps://www.clarin.com/politica/jardin-Vidal-Randazzo-decision-Cristina_0_1681031906.html
p6
a.