(lp0
S'https://www.clarin.com/ieco/economia/billetes-proceres_0_1504649923.html'
p1
aS'https://www.clarin.com/ieco/economia/billetes-proceres_0_1504649923.html'
p2
aS'https://www.clarin.com/ieco/branding-performance-marketing_0_1504649928.html'
p3
aS'https://www.clarin.com/ieco/branding-performance-marketing_0_1504649928.html'
p4
aS'https://www.clarin.com/ieco/economia/dolar-sigue-escalando-fuerte-Bolsa_0_1504649764.html'
p5
aS'https://www.clarin.com/sociedad/Educacion-financiera-ensena-rendir-cuentas_0_1504649898.html'
p6
aS'https://www.clarin.com/sociedad/Educacion-financiera-ensena-rendir-cuentas_0_1504649898.html'
p7
a.