(lp0
Vhttps://www.clarin.com/politica/Macri-Defensioria-Pueblo-Graciela-Ocana_0_1634836660.html
p1
aVhttps://www.clarin.com/politica/Macri-Defensioria-Pueblo-Graciela-Ocana_0_1634836660.html
p2
aVhttps://www.clarin.com/ieco/emprendedores/Convocan-pymes-tecnologicas-ronda-exportadores_0_1634836653.html
p3
aVhttps://www.clarin.com/ieco/economia/inversiones-empezarian-reaccionar-recien-ano_0_1634836646.html
p4
aVhttps://www.clarin.com/ieco/economia/empresas-buscan-congelen-tarifa-gas_0_1634836642.html
p5
a.