(lp0
Vhttps://www.clarin.com/ieco/Trump-medida-partido_0_1540646064.html
p1
aVhttps://www.clarin.com/politica/Fondos-massismo-certeza-absoluta-litigios_0_1540646063.html
p2
aVhttps://www.clarin.com/politica/Fondos-massismo-certeza-absoluta-litigios_0_1540646063.html
p3
aVhttps://www.clarin.com/sociedad/Madre-Teresa-Calcuta-canonizada-septiembre_0_1540646054.html
p4
aVhttps://www.clarin.com/sociedad/Madre-Teresa-Calcuta-canonizada-septiembre_0_1540646054.html
p5
aVhttps://www.clarin.com/politica/Fondos-buitre-marcha-Izquierda-Congreso_0_1540646042.html
p6
aVhttps://www.clarin.com/politica/Fondos-buitre-marcha-Izquierda-Congreso_0_1540646042.html
p7
a.