(lp0
S'https://www.clarin.com/opinion/Sabiduria-ignorancia_0_1625837563.html'
p1
aS'https://www.clarin.com/ieco/economia/Galicia-buscando-comprador-red-Efectivo_0_1625837557.html'
p2
aS'https://www.clarin.com/politica/Michetti-Bonafini-Justicia-mismo-problema_0_1625837609.html'
p3
aS'https://www.clarin.com/politica/Michetti-Bonafini-Justicia-mismo-problema_0_1625837609.html'
p4
aS'https://www.clarin.com/politica/Hebe-Bonafini-apunto-Macri-mandato_0_1625837605.html'
p5
aS'https://www.clarin.com/politica/Hebe-Bonafini-apunto-Macri-mandato_0_1625837605.html'
p6
aS'https://www.clarin.com/politica/Gobierno-evito-cumplir-detencion-inmediato_0_1625837600.html'
p7
aS'https://www.clarin.com/sociedad/mujeres-mayores-anos-mamografia-anual_0_1625837580.html'
p8
aS'https://www.clarin.com/sociedad/mujeres-mayores-anos-mamografia-anual_0_1625837580.html'
p9
a.