(lp0
S'https://www.clarin.com/politica/Cansado-productor-fotocopio-escrachar-funcionario_0_1645035509.html'
p1
aS'https://www.clarin.com/politica/Cansado-productor-fotocopio-escrachar-funcionario_0_1645035509.html'
p2
aS'https://www.clarin.com/politica/Marcha-Federal-Micheli-vaticina-CGT_0_1645035514.html'
p3
aS'https://www.clarin.com/politica/Marcha-Federal-Micheli-vaticina-CGT_0_1645035514.html'
p4
aS'https://www.clarin.com/politica/Putin-Macri-acuerdos-YPF-Gazprom_0_1645035519.html'
p5
aS'https://www.clarin.com/politica/Putin-Macri-acuerdos-YPF-Gazprom_0_1645035519.html'
p6
aS'https://www.clarin.com/sociedad/Choclos-naranjas-solidaria-raciones-comida_0_1645035518.html'
p7
aS'https://www.clarin.com/sociedad/Choclos-naranjas-solidaria-raciones-comida_0_1645035518.html'
p8
aS'https://www.clarin.com/politica/obras-escandalosas-cito-fiscal-Cristina_0_1645035513.html'
p9
aS'https://www.clarin.com/politica/obras-escandalosas-cito-fiscal-Cristina_0_1645035513.html'
p10
aS'https://www.clarin.com/politica/decadencia-imperio-estancias-Lazaro-Baez_0_1644435687.html'
p11
aS'https://www.clarin.com/politica/decadencia-imperio-estancias-Lazaro-Baez_0_1644435687.html'
p12
aS'https://www.clarin.com/politica/Juliana-Awada-China-agenda-actividades_0_1645035512.html'
p13
aS'https://www.clarin.com/politica/Juliana-Awada-China-agenda-actividades_0_1645035512.html'
p14
aS'https://www.clarin.com/ieco/Macri-Massa-proyecto-restringir-importaciones_0_1645035511.html'
p15
aS'https://www.clarin.com/ieco/Macri-Massa-proyecto-restringir-importaciones_0_1645035511.html'
p16
aS'https://www.clarin.com/sociedad/Queen-banda-rock-adictiva_0_1645035510.html'
p17
aS'https://www.clarin.com/sociedad/Queen-banda-rock-adictiva_0_1645035510.html'
p18
a.