(lp0
Vhttps://www.clarin.com/sociedad/Sol-Chicos-festeja-anos-solidaridad_0_1626437472.html
p1
aVhttps://www.clarin.com/sociedad/Sol-Chicos-festeja-anos-solidaridad_0_1626437472.html
p2
aVhttps://www.clarin.com/politica/Rafecas-DAIA-investigacion-denuncia-Nisman_0_1626437463.html
p3
aVhttps://www.clarin.com/politica/Rafecas-DAIA-investigacion-denuncia-Nisman_0_1626437463.html
p4
aVhttps://www.clarin.com/sociedad/Pinto-pasto-obra-biodegradable-metros_0_1626437443.html
p5
aVhttps://www.clarin.com/sociedad/Pinto-pasto-obra-biodegradable-metros_0_1626437443.html
p6
aVhttps://www.clarin.com/politica/Malcorra-tercera-votacion-titularidad-ONU_0_1626437462.html
p7
aVhttps://www.clarin.com/politica/Malcorra-tercera-votacion-titularidad-ONU_0_1626437462.html
p8
aVhttps://www.clarin.com/politica/Gobierno-define-estrategia-espera-Corte_0_1626437461.html
p9
aVhttps://www.clarin.com/politica/Gobierno-define-estrategia-espera-Corte_0_1626437461.html
p10
aVhttps://www.clarin.com/politica/gobierno-Maduro-solidariza-Bonafini_0_1626437460.html
p11
aVhttps://www.clarin.com/politica/gobierno-Maduro-solidariza-Bonafini_0_1626437460.html
p12
aVhttps://www.clarin.com/politica/Alfonsin-Carrio-honesta-buena-persona_0_1626437456.html
p13
aVhttps://www.clarin.com/politica/Alfonsin-Carrio-honesta-buena-persona_0_1626437456.html
p14
aVhttps://www.clarin.com/politica/Presentaron-eximicion-prision-Hebe-Bonafini_0_1626437455.html
p15
aVhttps://www.clarin.com/politica/Presentaron-eximicion-prision-Hebe-Bonafini_0_1626437455.html
p16
a.