(lp0
S'https://www.clarin.com/sociedad/Declaran-libre-sarampion-toda-America_0_1658234257.html'
p1
aS'https://www.clarin.com/sociedad/organizo-fiesta-descontrolo-quiso-poner_0_1658234244.html'
p2
aS'https://www.clarin.com/politica/Luis-Juez-Correa-chasco-Cristina_0_1658234254.html'
p3
aS'https://www.clarin.com/ieco/economia/federal-Cordoba-freno-suba-Pyme_0_1658234259.html'
p4
aS'https://www.clarin.com/politica/Cristobal-Lopez-supuesta-evasion-politica_0_1658234252.html'
p5
aS'https://www.clarin.com/politica/Boudou-clase-magistral-dominacion-imperial_0_1658234251.html'
p6
a.