(lp0
Vhttps://www.clarin.com/ieco/economia/sectores-atractivos-invertir-Argentina_0_1522647922.html
p1
aVhttps://www.clarin.com/ieco/economia/sectores-atractivos-invertir-Argentina_0_1522647922.html
p2
aVhttps://www.clarin.com/ieco/economia/Buscamos-aulas-innovadoras-integracion-disciplinas_0_1522647932.html
p3
aVhttps://www.clarin.com/ieco/economia/Buscamos-aulas-innovadoras-integracion-disciplinas_0_1522647932.html
p4
aVhttps://www.clarin.com/politica/Urtubey-Cristina-Kirchner-conduccion-terminado_0_1522647978.html
p5
aVhttps://www.clarin.com/politica/Urtubey-Cristina-Kirchner-conduccion-terminado_0_1522647978.html
p6
aVhttps://www.clarin.com/politica/Gabriela-Mcihetti-hacemos-ajuste-sufriria_0_1522647972.html
p7
aVhttps://www.clarin.com/politica/Gabriela-Mcihetti-hacemos-ajuste-sufriria_0_1522647972.html
p8
aVhttps://www.clarin.com/politica/Marcos-Pena-pobre-Gabinete_0_1522647962.html
p9
aVhttps://www.clarin.com/politica/Marcos-Pena-pobre-Gabinete_0_1522647962.html
p10
aVhttps://www.clarin.com/sociedad/Rolling-Stones-recuerdan-video-pais_0_1522647904.html
p11
aVhttps://www.clarin.com/sociedad/Rolling-Stones-recuerdan-video-pais_0_1522647904.html
p12
a.