(lp0
Vhttps://www.clarin.com/sociedad/Buscan-hombre-traves-vestir-munecas_0_1675632487.html
p1
aVhttps://www.clarin.com/sociedad/Buscan-hombre-traves-vestir-munecas_0_1675632487.html
p2
aVhttps://www.clarin.com/ieco/economia/Mejora-confianza-consumidor-octubre_0_1675632484.html
p3
aVhttps://www.clarin.com/ieco/economia/Mejora-confianza-consumidor-octubre_0_1675632484.html
p4
aVhttps://www.clarin.com/sociedad/Detectan-falla-estrellarse-europea-Marte_0_1675632479.html
p5
aVhttps://www.clarin.com/sociedad/Detectan-falla-estrellarse-europea-Marte_0_1675632479.html
p6
aVhttps://www.clarin.com/politica/Aduana-detenidos-profugos_0_1675632482.html
p7
aVhttps://www.clarin.com/politica/Aduana-detenidos-profugos_0_1675632482.html
p8
aVhttps://www.clarin.com/politica/Macri-manda-millones-Schiaretti-ANSeS_0_1675632480.html
p9
aVhttps://www.clarin.com/politica/Macri-manda-millones-Schiaretti-ANSeS_0_1675632480.html
p10
aVhttps://www.clarin.com/politica/Stolbizer-Carrio-proyecto-Ministerio-Publico_0_1675632473.html
p11
aVhttps://www.clarin.com/politica/Stolbizer-Carrio-proyecto-Ministerio-Publico_0_1675632473.html
p12
aVhttps://www.clarin.com/ieco/inflacion-San-Luis-septiembre-acumula_0_1675632472.html
p13
aVhttps://www.clarin.com/ieco/inflacion-San-Luis-septiembre-acumula_0_1675632472.html
p14
a.