(lp0
S'https://www.clarin.com/sociedad/Atendido-propios-abrieron-restaurante-carcel_0_1533446946.html'
p1
aS'https://www.clarin.com/sociedad/Confirman-relacion-zika-microcefalia-bebes_0_1533446933.html'
p2
aS'https://www.clarin.com/sociedad/fiscal-pruebas-intendente-Lorenzetti-contundentes_0_1533446929.html'
p3
aS'https://www.clarin.com/politica/Gobierno-llama-gobernadores-busca-negociar_0_1533446945.html'
p4
aS'https://www.clarin.com/sociedad/perro-gigante-sensacion-Instagram_0_1533446935.html'
p5
aS'https://www.clarin.com/sociedad/gustos-argentinos-revelados-insolita-encuestadora_0_1533446924.html'
p6
a.