(lp0
S'https://www.clarin.com/opinion/Volve-Stiuso-perdonamos_0_1643835654.html'
p1
aS'https://www.clarin.com/opinion/muertos-Loma-Hermosa_0_1643835653.html'
p2
aS'https://www.clarin.com/opinion/Arropar-recuerdos-bellos_0_1643235781.html'
p3
aS'https://www.clarin.com/sociedad/actuamos-realidad-supera_0_1643235825.html'
p4
a.