(lp0
S'https://www.clarin.com/politica/Perla-fiscales-investigar-Isabel-Peron_0_1640835957.html'
p1
aS'https://www.clarin.com/sociedad/Advierten-calentamiento-global-reducira-cultivo_0_1640835962.html'
p2
aS'https://www.clarin.com/sociedad/Agredieron-medico-enfermero-Fernandez_0_1640835946.html'
p3
aS'https://www.clarin.com/politica/Nuevos-polemica-peronismo-fracaso-marcha_0_1640835960.html'
p4
aS'https://www.clarin.com/politica/Triunfo-consuelo-Campora-Universidad-Plata_0_1640835944.html'
p5
aS'https://www.clarin.com/sociedad/Volvieron-fiestas-mansion-Playboy-despues_0_1640835945.html'
p6
a.