(lp0
S'https://www.clarin.com/sociedad/Susto-Republica-Ninos-volco-trencito_0_1522648133.html'
p1
aS'https://www.clarin.com/sociedad/Salame-record-metros-largo-America_0_1522648129.html'
p2
aS'https://www.clarin.com/sociedad/Salame-record-metros-largo-America_0_1522648129.html'
p3
aS'https://www.clarin.com/sociedad/termico-permite-detectar-persona-enamorada_0_1522648124.html'
p4
a.