(lp0
S'https://www.clarin.com/politica/Gobierno-acuerdo-devolverles-fondos-provincias_0_1624637731.html'
p1
aS'https://www.clarin.com/politica/Enojados-Cristina-PJ-Frente-Victoria_0_1624637717.html'
p2
aS'https://www.clarin.com/politica/Enojados-Cristina-PJ-Frente-Victoria_0_1624637717.html'
p3
aS'https://www.clarin.com/opinion/tentacion-hacer-click_0_1624637700.html'
p4
aS'https://www.clarin.com/politica/Reunion-gobernadores-aliado-contrariado-opositores_0_1624637729.html'
p5
aS'https://www.clarin.com/sociedad/noticia-asusto_0_1624637728.html'
p6
aS'https://www.clarin.com/sociedad/depresion-problema-origen-heterogeneo_0_1624637727.html'
p7
aS'https://www.clarin.com/sociedad/Hallan-variaciones-geneticas-vinculadas-depresion_0_1624637726.html'
p8
aS'https://www.clarin.com/sociedad/Hallan-variaciones-geneticas-vinculadas-depresion_0_1624637726.html'
p9
aS'https://www.clarin.com/politica/sindicalistas-elogiaron-medida-Casa-Rosada_0_1624637724.html'
p10
a.