(lp0
Vhttps://www.clarin.com/sociedad/Encuesta-nacional-mujeres-maltrato-psicologico_0_1624637684.html
p1
aVhttps://www.clarin.com/sociedad/Encuesta-nacional-mujeres-maltrato-psicologico_0_1624637684.html
p2
aVhttps://www.clarin.com/politica/Giraran-millones-provincias-reintegro-Coparticipacion_0_1624637680.html
p3
aVhttps://www.clarin.com/politica/Giraran-millones-provincias-reintegro-Coparticipacion_0_1624637680.html
p4
aVhttps://www.clarin.com/politica/Macri-Declaracion-expresion-libertad-prensa_0_1624637678.html
p5
aVhttps://www.clarin.com/politica/Macri-Declaracion-expresion-libertad-prensa_0_1624637678.html
p6
aVhttps://www.clarin.com/politica/Hablo-Lazaro-Baez-Cristina-forro_0_1624637676.html
p7
aVhttps://www.clarin.com/politica/Hablo-Lazaro-Baez-Cristina-forro_0_1624637676.html
p8
aVhttps://www.clarin.com/ieco/economia/Expectativas-mercado-esperan-inflacion-actividad_0_1624637672.html
p9
aVhttps://www.clarin.com/ieco/economia/Expectativas-mercado-esperan-inflacion-actividad_0_1624637672.html
p10
aVhttps://www.clarin.com/ieco/Neuquen-inflacion-primer-semestre-llego_0_1624637673.html
p11
aVhttps://www.clarin.com/sociedad/Crimen-fisioterapeuta-detuvieron-ultima-pareja_0_1624637664.html
p12
aVhttps://www.clarin.com/sociedad/Crimen-fisioterapeuta-detuvieron-ultima-pareja_0_1624637664.html
p13
a.