(lp0
Vhttps://www.clarin.com/politica/cadete-Nestor-termino-recibiendo-millones_0_1569443076.html
p1
aVhttps://www.clarin.com/politica/cadete-Nestor-termino-recibiendo-millones_0_1569443076.html
p2
aVhttps://www.clarin.com/politica/Macri-admitio-sinceramiento-economia-problemas_0_1569443075.html
p3
aVhttps://www.clarin.com/politica/Macri-admitio-sinceramiento-economia-problemas_0_1569443075.html
p4
aVhttps://www.clarin.com/politica/Moyano-Macri-entiende-politica-monos_0_1569443062.html
p5
aVhttps://www.clarin.com/politica/Moyano-Macri-entiende-politica-monos_0_1569443062.html
p6
aVhttps://www.clarin.com/ieco/tecnologia/empresario-australiano-confiesa-padre-bitcoin_0_1569443067.html
p7
aVhttps://www.clarin.com/ieco/tecnologia/empresario-australiano-confiesa-padre-bitcoin_0_1569443067.html
p8
a.