(lp0
S'https://www.clarin.com/politica/intendente-Grindetti-hablo-empresa-shore_0_1558044544.html'
p1
aS'https://www.clarin.com/politica/intendente-Grindetti-hablo-empresa-shore_0_1558044544.html'
p2
aS'https://www.clarin.com/politica/Impactante-denuncia-funcionario-intendente-Campora_0_1557444745.html'
p3
aS'https://www.clarin.com/politica/Impactante-denuncia-funcionario-intendente-Campora_0_1557444745.html'
p4
aS'https://www.clarin.com/ieco/economia/Central-publicara-comparativas-comisiones-bancos_0_1558044552.html'
p5
aS'https://www.clarin.com/ieco/economia/Central-publicara-comparativas-comisiones-bancos_0_1558044552.html'
p6
a.