(lp0
S'https://www.clarin.com/sociedad/conocidos-barrios-Miami-nueva-zika_0_1625237499.html'
p1
aS'https://www.clarin.com/sociedad/conocidos-barrios-Miami-nueva-zika_0_1625237499.html'
p2
aS'https://www.clarin.com/ieco/Arias-insiste-pagar-subas-provincia_0_1625237498.html'
p3
aS'https://www.clarin.com/ieco/Arias-insiste-pagar-subas-provincia_0_1625237498.html'
p4
aS'https://www.clarin.com/politica/Das-Neves-licencia-delego-mando_0_1625237492.html'
p5
aS'https://www.clarin.com/politica/Das-Neves-licencia-delego-mando_0_1625237492.html'
p6
aS'https://www.clarin.com/sociedad/Juegos-Olimpicos-estudiantes-prostituyen-Rio_0_1625237485.html'
p7
aS'https://www.clarin.com/sociedad/Juegos-Olimpicos-estudiantes-prostituyen-Rio_0_1625237485.html'
p8
a.