(lp0
S'https://www.clarin.com/ieco/economia/Banco-Central-tasas-tercera-consecutiva_0_1586841486.html'
p1
aS'https://www.clarin.com/sociedad/Time-Warp-juez-inspectores-complices_0_1586841487.html'
p2
aS'https://www.clarin.com/politica/presion-aliados-quitan-blanqueo-funcionarios_0_1586841512.html'
p3
aS'https://www.clarin.com/politica/Frenan-ajuste-luz-bonaerense_0_1586841505.html'
p4
aS'https://www.clarin.com/ieco/INDEC-industria-construccion-caen-fuerte_0_1586841498.html'
p5
aS'https://www.clarin.com/ieco/economia/Rattazzi-inflacion-corregir-distorsiones-impositivas_0_1586841465.html'
p6
aS'https://www.clarin.com/politica/Diputados-proyecto-incentivos-fiscales-pymes_0_1604839713.html'
p7
aS'https://www.clarin.com/politica/Senado-avanzo-reintegro-IVA-aprobacion_0_1587441245.html'
p8
aS'https://www.clarin.com/politica/gremios-suspenden-manana-cortes-GNC_0_1586841483.html'
p9
a.