(lp0
Vhttps://www.clarin.com/sociedad/Mundos-intimos-relacion-Dios-devocion_0_1597040404.html
p1
aVhttps://www.clarin.com/sociedad/Mundos-intimos-relacion-Dios-devocion_0_1597040404.html
p2
aVhttps://www.clarin.com/sociedad/Mensajeros-nuevo-desafio-periodismo_0_1597040396.html
p3
aVhttps://www.clarin.com/sociedad/Mensajeros-nuevo-desafio-periodismo_0_1597040396.html
p4
aVhttps://www.clarin.com/politica/Rastrean-ultimos-pasos-Lopez-celulares_0_1597040452.html
p5
aVhttps://www.clarin.com/politica/Rastrean-ultimos-pasos-Lopez-celulares_0_1597040452.html
p6
aVhttps://www.clarin.com/opinion/Cristina-Kirchner-Presidenta_0_1597040416.html
p7
aVhttps://www.clarin.com/opinion/humor-politico-chiste_0_1597040409.html
p8
a.