(lp0
S'https://www.clarin.com/sociedad/Ponen-semaforos-peatones-mirar-celular_0_1566443449.html'
p1
aS'https://www.clarin.com/politica/Macri-resolver-problema-apelar-arbitrariedad_0_1566443444.html'
p2
aS'https://www.clarin.com/sociedad/maneja-redes-sociales-persona-ciega_0_1566443441.html'
p3
a.