(lp0
S'https://www.clarin.com/politica/Malcorra-felicito-Trump-Hillary-Clinton_0_1684031604.html'
p1
aS'https://www.clarin.com/politica/Malcorra-felicito-Trump-Hillary-Clinton_0_1684031604.html'
p2
aS'https://www.clarin.com/politica/ex-funcionario-rompio-silencio-Justicia_0_1684031600.html'
p3
aS'https://www.clarin.com/politica/ex-funcionario-rompio-silencio-Justicia_0_1684031600.html'
p4
aS'https://www.clarin.com/ieco/Despues-semanas-Banco-Central-tasas_0_1683431789.html'
p5
aS'https://www.clarin.com/ieco/economia/precio-petroleo-YPF-perdio-millones_0_1683431803.html'
p6
aS'https://www.clarin.com/ieco/economia/precio-petroleo-YPF-perdio-millones_0_1683431803.html'
p7
aS'https://www.clarin.com/politica/intendentes-PJ-exigen-Vidal-endeudamiento_0_1683431768.html'
p8
aS'https://www.clarin.com/politica/intendentes-PJ-exigen-Vidal-endeudamiento_0_1683431768.html'
p9
aS'https://www.clarin.com/ieco/economia/tarifas-inflacion-consultoras-llego-octubre_0_1683431708.html'
p10
aS'https://www.clarin.com/ieco/economia/tarifas-inflacion-consultoras-llego-octubre_0_1683431708.html'
p11
aS'https://www.clarin.com/ieco/Prat-Gay-recesion-queda-economistas-dudan_0_1683431839.html'
p12
a.