(lp0
Vhttps://www.clarin.com/politica/bovedas-monasterio-enterrar-monjas_0_1599440073.html
p1
aVhttps://www.clarin.com/politica/bovedas-monasterio-enterrar-monjas_0_1599440073.html
p2
aVhttps://www.clarin.com/sociedad/China-protestas-realiza-fiesta-consume_0_1599440071.html
p3
aVhttps://www.clarin.com/sociedad/China-protestas-realiza-fiesta-consume_0_1599440071.html
p4
aVhttps://www.clarin.com/politica/Interna-desnudo-DElia-Ottavis-Lopez_0_1599440066.html
p5
aVhttps://www.clarin.com/politica/Interna-desnudo-DElia-Ottavis-Lopez_0_1599440066.html
p6
aVhttps://www.clarin.com/politica/testigo-Perez-Corradi-mandaba-advertencia_0_1599440063.html
p7
aVhttps://www.clarin.com/politica/testigo-Perez-Corradi-mandaba-advertencia_0_1599440063.html
p8
aVhttps://www.clarin.com/ieco/economia/Vicentin-sube-oferta-SanCor_0_1599440062.html
p9
aVhttps://www.clarin.com/sociedad/perdio-cerro-soporto-temperaturas-cero_0_1599440057.html
p10
aVhttps://www.clarin.com/sociedad/perdio-cerro-soporto-temperaturas-cero_0_1599440057.html
p11
a.