(lp0
Vhttps://www.clarin.com/ieco/economia/YPF-quedo_0_1652234931.html
p1
aVhttps://www.clarin.com/ieco/derrumbe-ventas-ceden-precios-usados_0_1651635002.html
p2
aVhttps://www.clarin.com/ieco/derrumbe-ventas-ceden-precios-usados_0_1651635002.html
p3
aVhttps://www.clarin.com/ieco/economia/dificil-busqueda-rendimientos_0_1652834753.html
p4
aVhttps://www.clarin.com/ieco/economia/dificil-busqueda-rendimientos_0_1652834753.html
p5
aVhttps://www.clarin.com/ieco/economia/bancos-modelo-Uber_0_1651035039.html
p6
aVhttps://www.clarin.com/politica/AMIA-Kirchner-mismo-juzgado_0_1652234888.html
p7
aVhttps://www.clarin.com/politica/US-millones-quedaron-apenas_0_1652234878.html
p8
aVhttps://www.clarin.com/politica/US-millones-quedaron-apenas_0_1652234878.html
p9
aVhttps://www.clarin.com/ieco/economia/septiembre-esperan-suba-precios-supere_0_1651635025.html
p10
aVhttps://www.clarin.com/politica/operacion-Baez-Austral-Abu-Dhabi_0_1651635021.html
p11
aVhttps://www.clarin.com/politica/operacion-Baez-Austral-Abu-Dhabi_0_1651635021.html
p12
aVhttps://www.clarin.com/politica/Documentos-muestran-Kirchner-Santa-Cruz_0_1652834705.html
p13
aVhttps://www.clarin.com/politica/Documentos-muestran-Kirchner-Santa-Cruz_0_1652834705.html
p14
aVhttps://www.clarin.com/opinion/Perseverar-alud-claves_0_1652234903.html
p15
a.