(lp0
S'https://www.clarin.com/politica/Parece-problema-Baez-apenas-aterrizaron_0_1553844785.html'
p1
aS'https://www.clarin.com/sociedad/fundadora-Huffington-Post-ensena-dormir_0_1553844786.html'
p2
aS'https://www.clarin.com/sociedad/PAMI-redujo-lista-remedios-cobertura_0_1553844798.html'
p3
aS'https://www.clarin.com/politica/abogado-denunciara-Macri-sociedad-shore_0_1553844815.html'
p4
aS'https://www.clarin.com/sociedad/pesar-riesgos-jovenes-fuman-tabaco_0_1553844820.html'
p5
aS'https://www.clarin.com/ieco/economia/Alibaba-Walmart-principal-ventas-minoristas_0_1553844814.html'
p6
a.