(lp0
Vhttps://www.clarin.com/politica/La_Manana_de_Cordoba-medios_K-despidos-Eduardo_Accastello_0_1549045245.html
p1
aVhttps://www.clarin.com/politica/La_Manana_de_Cordoba-medios_K-despidos-Eduardo_Accastello_0_1549045245.html
p2
aVhttps://www.clarin.com/politica/Pichetto-Nestor-Kirchner-pagado-buitres_0_1549045262.html
p3
aVhttps://www.clarin.com/politica/Pichetto-Nestor-Kirchner-pagado-buitres_0_1549045262.html
p4
aVhttps://www.clarin.com/politica/Jorge-Lanata-Elaskar-dolares-desmentirse_0_1549045260.html
p5
aVhttps://www.clarin.com/politica/Jorge-Lanata-Elaskar-dolares-desmentirse_0_1549045260.html
p6
aVhttps://www.clarin.com/politica/relacion-Lazaro-Baez-Nestor-Cristina_0_1549045252.html
p7
aVhttps://www.clarin.com/politica/relacion-Lazaro-Baez-Nestor-Cristina_0_1549045252.html
p8
aVhttps://www.clarin.com/sociedad/satelite-japones-tamano-recorre-control_0_1549045242.html
p9
aVhttps://www.clarin.com/sociedad/satelite-japones-tamano-recorre-control_0_1549045242.html
p10
a.