(lp0
Vhttps://www.clarin.com/ieco/Retiran-toneladas-bidones-plasticos-campo_0_1541845990.html
p1
aVhttps://www.clarin.com/ieco/Retiran-toneladas-bidones-plasticos-campo_0_1541845990.html
p2
aVhttps://www.clarin.com/ieco/anuncio-Reserva-Federal-Bolsas-Europa_0_1541845996.html
p3
aVhttps://www.clarin.com/ieco/anuncio-Reserva-Federal-Bolsas-Europa_0_1541845996.html
p4
aVhttps://www.clarin.com/sociedad/Lucha-Justicia-conservar-cocodrilo-mascota_0_1541845995.html
p5
aVhttps://www.clarin.com/sociedad/Lucha-Justicia-conservar-cocodrilo-mascota_0_1541845995.html
p6
aVhttps://www.clarin.com/politica/New-York-Times-Obama-desclasifique_0_1541845991.html
p7
aVhttps://www.clarin.com/politica/New-York-Times-Obama-desclasifique_0_1541845991.html
p8
a.