(lp0
S'https://www.clarin.com/sociedad/inminente-aumento-disparo-demanda-aceite_0_1619838048.html'
p1
aS'https://www.clarin.com/sociedad/empleado-Turismo-Cordoba-practicaba-tirolesa_0_1619838043.html'
p2
aS'https://www.clarin.com/politica/Anibal-Cristina-Macri-Carrio-encuesta_0_1619838049.html'
p3
aS'https://www.clarin.com/ieco/Advierten-exterior-afectaran-comercio-industria_0_1619838046.html'
p4
a.