(lp0
S'https://www.clarin.com/sociedad/Hizo-necesidades-provoco-incendio-forestal_0_1625837462.html'
p1
aS'https://www.clarin.com/politica/Hebe-Bonafini-meter-presa-metan_0_1625837453.html'
p2
aS'https://www.clarin.com/politica/peor-esposa-Baez-reactivo-divorcio_0_1625837441.html'
p3
aS'https://www.clarin.com/ieco/jubilados-abogados-registrar-digital-ANSES_0_1625837458.html'
p4
aS'https://www.clarin.com/sociedad/testimonio-Camara-Gesell-complico-acusado_0_1625837448.html'
p5
aS'https://www.clarin.com/sociedad/Abriran-polemico-cafe-haran-oral_0_1625837455.html'
p6
a.