(lp0
Vhttps://www.clarin.com/sociedad/Video-ciudad-acantilado-efecto-Nino_0_1513049075.html
p1
aVhttps://www.clarin.com/sociedad/Video-ciudad-acantilado-efecto-Nino_0_1513049075.html
p2
aVhttps://www.clarin.com/ieco/tarifas-ajustes-Aranguren_0_1513049061.html
p3
aVhttps://www.clarin.com/ieco/tarifas-ajustes-Aranguren_0_1513049061.html
p4
aVhttps://www.clarin.com/ieco/tarifas-ajustes-Aranguren_0_1513049050.html
p5
aVhttps://www.clarin.com/sociedad/Rutas-tragicas-argentino-volvia-Brasil_0_1513049043.html
p6
a.