(lp0
S'https://www.clarin.com/ieco/Buscan-afinar-estrategia-Buenos-Aires_0_1622237928.html'
p1
aS'https://www.clarin.com/ieco/Buscan-afinar-estrategia-Buenos-Aires_0_1622237928.html'
p2
aS'https://www.clarin.com/ieco/quieren-contagiarse-espiritu-Juegos-Olimpicos_0_1622237925.html'
p3
aS'https://www.clarin.com/ieco/quieren-contagiarse-espiritu-Juegos-Olimpicos_0_1622237925.html'
p4
aS'https://www.clarin.com/politica/Macri-teme-Tinelli-Cristina_0_1623437644.html'
p5
aS'https://www.clarin.com/politica/Macri-teme-Tinelli-Cristina_0_1623437644.html'
p6
aS'https://www.clarin.com/ieco/economia/Llego-tiempo-revisar-receta_0_1623437643.html'
p7
aS'https://www.clarin.com/politica/Terminaron-Olivos-Macri-Casa-Rosada_0_1622837815.html'
p8
aS'https://www.clarin.com/politica/Terminaron-Olivos-Macri-Casa-Rosada_0_1622837815.html'
p9
aS'https://www.clarin.com/politica/vayas-kirchnerismo_0_1623437642.html'
p10
aS'https://www.clarin.com/politica/Dialogo-EEUU-Hillary-propuesta-Cuba_0_1623437641.html'
p11
a.