(lp0
S'https://www.clarin.com/opinion/Modas-incomodan_0_1538246616.html'
p1
aS'https://www.clarin.com/politica/gobierno-apuesta-acordar-buitres-desierto_0_1538246620.html'
p2
aS'https://www.clarin.com/politica/Coparticipacion-Gobierno-negocia-provincia_0_1538246648.html'
p3
aS'https://www.clarin.com/ieco/economia/Quintana-desplazo-Lopetegui-coordinador-Transporte_0_1538246579.html'
p4
aS'https://www.clarin.com/politica/Cristobal-Lopez-distancia-medios-despejar_0_1538246704.html'
p5
aS'https://www.clarin.com/politica/Nestor-Roncaglia-Federal-asumiria-martes_0_1538246635.html'
p6
aS'https://www.clarin.com/politica/Escandalo-AGN-revisaran-anuncio-Echegaray_0_1538246701.html'
p7
aS'https://www.clarin.com/politica/Denuncias-negociados-sombra-Jaime-Stiuso_0_1538246641.html'
p8
aS'https://www.clarin.com/ieco/economia/Whirlpool-espera-repunte-consumo_0_1538246598.html'
p9
a.