(lp0
Vhttps://www.clarin.com/sociedad/yates-grandes-lujosos-mundo_0_1508249512.html
p1
aVhttps://www.clarin.com/sociedad/yates-grandes-lujosos-mundo_0_1508249512.html
p2
aVhttps://www.clarin.com/sociedad/Incendio-Parque-Nacional-Alerces-hectareas_0_1508849297.html
p3
aVhttps://www.clarin.com/sociedad/Incendio-Parque-Nacional-Alerces-hectareas_0_1508849297.html
p4
aVhttps://www.clarin.com/politica/Davos-Marcos_Pena-balance-Mauricio_Macri_0_1508849302.html
p5
aVhttps://www.clarin.com/politica/Davos-Marcos_Pena-balance-Mauricio_Macri_0_1508849302.html
p6
aVhttps://www.clarin.com/politica/Macri-Massa-Scioli-Peronismo-DNU_0_1508849291.html
p7
aVhttps://www.clarin.com/politica/Macri-Massa-Scioli-Peronismo-DNU_0_1508849291.html
p8
aVhttps://www.clarin.com/ieco/economia/Macri-estimo-inflacion-ano-cerca_0_1508849298.html
p9
a.