(lp0
Vhttps://www.clarin.com/politica/Monsenor-Casaretto-Bonafini-Papa-Argentina_0_1585641500.html
p1
aVhttps://www.clarin.com/politica/Monsenor-Casaretto-Bonafini-Papa-Argentina_0_1585641500.html
p2
aVhttps://www.clarin.com/politica/Rebelion-CTA-Micheli_0_1585641499.html
p3
aVhttps://www.clarin.com/politica/Rebelion-CTA-Micheli_0_1585641499.html
p4
aVhttps://www.clarin.com/ieco/economia/Lanzan-oficial-MBA-modalidad-distancia_0_1585641463.html
p5
aVhttps://www.clarin.com/ieco/economia/Lanzan-oficial-MBA-modalidad-distancia_0_1585641463.html
p6
aVhttps://www.clarin.com/politica/Indice-expectativas-economicas-mantienen-politicas_0_1585641496.html
p7
aVhttps://www.clarin.com/politica/Indice-expectativas-economicas-mantienen-politicas_0_1585641496.html
p8
aVhttps://www.clarin.com/politica/Mirtha-perlitas-almuerzo-Macri-Rosada_0_1585641495.html
p9
aVhttps://www.clarin.com/politica/Mirtha-perlitas-almuerzo-Macri-Rosada_0_1585641495.html
p10
aVhttps://www.clarin.com/sociedad/Quemaron-casa-acusado-crimen-Micaela_0_1585641493.html
p11
aVhttps://www.clarin.com/sociedad/Quemaron-casa-acusado-crimen-Micaela_0_1585641493.html
p12
aVhttps://www.clarin.com/politica/Duran-Barba-funcionario-Gobierno-vocero_0_1585641450.html
p13
aVhttps://www.clarin.com/politica/Duran-Barba-funcionario-Gobierno-vocero_0_1585641450.html
p14
aVhttps://www.clarin.com/sociedad/Detuvieron-automovilista-atropello-mujer-huyo_0_1585641449.html
p15
aVhttps://www.clarin.com/sociedad/Detuvieron-automovilista-atropello-mujer-huyo_0_1585641449.html
p16
aVhttps://www.clarin.com/politica/intendente-Avellaneda-edificio-Cristina-millones_0_1585641448.html
p17
aVhttps://www.clarin.com/politica/intendente-Avellaneda-edificio-Cristina-millones_0_1585641448.html
p18
a.