(lp0
Vhttps://www.clarin.com/politica/Unidad-Medica-Presidencial-incorporo-Antonia_0_1645035536.html
p1
aVhttps://www.clarin.com/sociedad/Cordoba-detienen-futbolista-paliza-pareja_0_1645035534.html
p2
aVhttps://www.clarin.com/sociedad/Cordoba-detienen-futbolista-paliza-pareja_0_1645035534.html
p3
aVhttps://www.clarin.com/sociedad/Quiso-quemarle-auto-equivoco-coche_0_1645035531.html
p4
aVhttps://www.clarin.com/sociedad/Quiso-quemarle-auto-equivoco-coche_0_1645035531.html
p5
aVhttps://www.clarin.com/ieco/Santa-Cruz-recibe-adelanto-millones_0_1645035525.html
p6
aVhttps://www.clarin.com/ieco/Santa-Cruz-recibe-adelanto-millones_0_1645035525.html
p7
a.