(lp0
S'https://www.clarin.com/sociedad/Piden-embarazadas-viajen-lugares-circulacion_0_1687631243.html'
p1
aS'https://www.clarin.com/politica/Justicia-investiga-millones-entraron-Flor_0_1686431420.html'
p2
a.