(lp0
Vhttps://www.clarin.com/politica/embajador-Estados_Unidos-Obama-24_de_marzo_0_1525647825.html
p1
aVhttps://www.clarin.com/sociedad/Tecnologia-aconsejan-mismos-pongan-limites_0_1525647811.html
p2
a.