(lp0
S'https://www.clarin.com/ieco/economia/mercado-local-llego-punto-inflexion_0_1602439793.html'
p1
aS'https://www.clarin.com/ieco/economia/mercado-local-llego-punto-inflexion_0_1602439793.html'
p2
aS'https://www.clarin.com/ieco/economia/identidad-pymes_0_1602439774.html'
p3
aS'https://www.clarin.com/ieco/economia/identidad-pymes_0_1602439774.html'
p4
aS'https://www.clarin.com/ieco/economia/Pensamiento-conectado-red_0_1602439771.html'
p5
aS'https://www.clarin.com/ieco/economia/Pensamiento-conectado-red_0_1602439771.html'
p6
aS'https://www.clarin.com/ieco/economia/evaluaciones-desempeno-vigentes-definen-ascensos_0_1602439770.html'
p7
aS'https://www.clarin.com/ieco/economia/Argentina-lupa-KKR_0_1602439764.html'
p8
aS'https://www.clarin.com/ieco/economia/Argentina-lupa-KKR_0_1602439764.html'
p9
aS'https://www.clarin.com/ieco/economia/pais-aspectos-buenos-queda-hacer_0_1602439763.html'
p10
aS'https://www.clarin.com/ieco/economia/pais-aspectos-buenos-queda-hacer_0_1602439763.html'
p11
aS'https://www.clarin.com/ieco/economia/minutos-vender-proyecto_0_1602439761.html'
p12
aS'https://www.clarin.com/ieco/economia/minutos-vender-proyecto_0_1602439761.html'
p13
aS'https://www.clarin.com/ieco/economia/potencial-emprendedor-mira-fondos-inversion_0_1602439760.html'
p14
aS'https://www.clarin.com/ieco/economia/potencial-emprendedor-mira-fondos-inversion_0_1602439760.html'
p15
aS'https://www.clarin.com/ieco/economia/escenario-mundial-amenaza-complicar-recuperacion_0_1602439758.html'
p16
aS'https://www.clarin.com/ieco/economia/Arranca-segundo-semestre-senales-recuperacion_0_1602439756.html'
p17
aS'https://www.clarin.com/ieco/economia/Arranca-segundo-semestre-senales-recuperacion_0_1602439756.html'
p18
aS'https://www.clarin.com/ieco/economia/sistema-Riesgos-Trabajo-busca-soluciones_0_1602439755.html'
p19
aS'https://www.clarin.com/ieco/economia/sistema-Riesgos-Trabajo-busca-soluciones_0_1602439755.html'
p20
aS'https://www.clarin.com/ieco/economia/Dudas-crecimiento-economico-decada_0_1602439753.html'
p21
aS'https://www.clarin.com/ieco/economia/debilita-comercio-internacional_0_1602439752.html'
p22
aS'https://www.clarin.com/ieco/economia/debilita-comercio-internacional_0_1602439752.html'
p23
a.