(lp0
Vhttps://www.clarin.com/ieco/dolar-cae-centavos_0_1540046239.html
p1
aVhttps://www.clarin.com/sociedad/chico-vendio-figuritas-ayudar-cancer_0_1540046277.html
p2
aVhttps://www.clarin.com/sociedad/chico-vendio-figuritas-ayudar-cancer_0_1540046277.html
p3
aVhttps://www.clarin.com/sociedad/mejores-vinos-argentinos_0_1540046280.html
p4
aVhttps://www.clarin.com/sociedad/mejores-vinos-argentinos_0_1540046280.html
p5
aVhttps://www.clarin.com/sociedad/VIDEO-heridos-cartel-gigante-Mexico_0_1540046278.html
p6
aVhttps://www.clarin.com/sociedad/VIDEO-heridos-cartel-gigante-Mexico_0_1540046278.html
p7
aVhttps://www.clarin.com/politica/volvamos-artistas-oponen-acordar-buitres_0_1540046275.html
p8
aVhttps://www.clarin.com/politica/volvamos-artistas-oponen-acordar-buitres_0_1540046275.html
p9
aVhttps://www.clarin.com/politica/Macri-Scioli-millones-gastaron-campana_0_1540046256.html
p10
aVhttps://www.clarin.com/politica/Macri-Scioli-millones-gastaron-campana_0_1540046256.html
p11
a.