(lp0
S'https://www.clarin.com/politica/Santa-Cruz-inauguraron-Nestor-Kirchner_0_1546045548.html'
p1
aS'https://www.clarin.com/politica/Santa-Cruz-inauguraron-Nestor-Kirchner_0_1546045548.html'
p2
aS'https://www.clarin.com/politica/AMIA-Obama-rescatado-escombros-atentado_0_1546045664.html'
p3
aS'https://www.clarin.com/politica/AMIA-Obama-rescatado-escombros-atentado_0_1546045664.html'
p4
aS'https://www.clarin.com/politica/Abrir-archivos-Unidos_0_1546045659.html'
p5
aS'https://www.clarin.com/politica/Abrir-archivos-Unidos_0_1546045659.html'
p6
aS'https://www.clarin.com/sociedad/Brasil-Polinesia-Copa-Confederaciones-futbol_0_1546045646.html'
p7
aS'https://www.clarin.com/sociedad/Brasil-Polinesia-Copa-Confederaciones-futbol_0_1546045646.html'
p8
a.