(lp0
S'https://www.clarin.com/ieco/ventas-minoristas-cayeron-julio_0_1625837468.html'
p1
aS'https://www.clarin.com/politica/Stiuso-Justicia-Milani-inteligencia-Cristina_0_1625837469.html'
p2
aS'https://www.clarin.com/sociedad/Pese-consumo-hogares-argentinos-habitualmente_0_1625837463.html'
p3
aS'https://www.clarin.com/sociedad/Pikachu-Boca-Pokemon-Lali-Moria_0_1625837461.html'
p4
aS'https://www.clarin.com/politica/EEUU-Argentina-documentos-desclasificados-dictadura_0_1625837472.html'
p5
a.