(lp0
S'https://www.clarin.com/sociedad/madonna-justicia-hijo-rocco_0_1535846670.html'
p1
aS'https://www.clarin.com/sociedad/comadreja-dejo-medio-Bragado-luz_0_1535846659.html'
p2
aS'https://www.clarin.com/sociedad/Pediran-perpetua-joven-mato-ladrillazo_0_1535846642.html'
p3
aS'https://www.clarin.com/sociedad/Transformo-canchas-grandes-metegoles-escala_0_1535846640.html'
p4
aS'https://www.clarin.com/politica/Intelectuales-artistas-piden-CONADEP-AMIA_0_1535846643.html'
p5
aS'https://www.clarin.com/sociedad/como-primera-vez-hija-igualdad-genero_0_1535846664.html'
p6
a.