(lp0
Vhttps://www.clarin.com/politica/Lazaro-Baez-primera-obra-publica_0_1529247401.html
p1
aVhttps://www.clarin.com/politica/Lazaro-Baez-primera-obra-publica_0_1529247401.html
p2
aVhttps://www.clarin.com/ieco/economia/familia-necesita-minimo-vivir_0_1529247407.html
p3
aVhttps://www.clarin.com/ieco/economia/familia-necesita-minimo-vivir_0_1529247407.html
p4
aVhttps://www.clarin.com/ieco/finanzas/Sube-Bolsa-avance-buitres_0_1529247251.html
p5
aVhttps://www.clarin.com/sociedad/condena-millonaria-Johnson-muerte-Argentina_0_1529247385.html
p6
aVhttps://www.clarin.com/sociedad/condena-millonaria-Johnson-muerte-Argentina_0_1529247385.html
p7
aVhttps://www.clarin.com/sociedad/primera-vez-haran-olimpiadas-bionicos_0_1529247384.html
p8
aVhttps://www.clarin.com/sociedad/primera-vez-haran-olimpiadas-bionicos_0_1529247384.html
p9
aVhttps://www.clarin.com/politica/conferencia-prensa-Macri-Hollande-Rosada_0_1529247377.html
p10
aVhttps://www.clarin.com/politica/conferencia-prensa-Macri-Hollande-Rosada_0_1529247377.html
p11
aVhttps://www.clarin.com/sociedad/registran-casos-dengue-hora-Misiones_0_1529247373.html
p12
aVhttps://www.clarin.com/sociedad/registran-casos-dengue-hora-Misiones_0_1529247373.html
p13
aVhttps://www.clarin.com/politica/Carlotto-Pensar-distinto-enemigo-delante_0_1529247358.html
p14
a.