(lp0
Vhttps://www.clarin.com/sociedad/chicos-internados-mordidos-perros-Pitbull_0_1604839561.html
p1
aVhttps://www.clarin.com/sociedad/chicos-internados-mordidos-perros-Pitbull_0_1604839561.html
p2
aVhttps://www.clarin.com/politica/Reunion-Rosada-futbol-funcionarios-dirigentes_0_1604839558.html
p3
aVhttps://www.clarin.com/politica/Reunion-Rosada-futbol-funcionarios-dirigentes_0_1604839558.html
p4
aVhttps://www.clarin.com/politica/Allanan-inmobiliaria-Maximo-Kirchner_0_1604839555.html
p5
aVhttps://www.clarin.com/politica/Allanan-inmobiliaria-Maximo-Kirchner_0_1604839555.html
p6
aVhttps://www.clarin.com/sociedad/aleman-muere-Machu-Picchu-sacarse_0_1604839553.html
p7
aVhttps://www.clarin.com/sociedad/aleman-muere-Machu-Picchu-sacarse_0_1604839553.html
p8
aVhttps://www.clarin.com/politica/Marjiuan-Baez-dinero-pedira-detencion_0_1604839551.html
p9
aVhttps://www.clarin.com/politica/Marjiuan-Baez-dinero-pedira-detencion_0_1604839551.html
p10
aVhttps://www.clarin.com/ieco/economia/dolar-sube-centavos_0_1604839550.html
p11
aVhttps://www.clarin.com/ieco/economia/dolar-sube-centavos_0_1604839550.html
p12
aVhttps://www.clarin.com/politica/abogado-Baez-adelanto-postergacion-indagatoria_0_1604839549.html
p13
aVhttps://www.clarin.com/politica/abogado-Baez-adelanto-postergacion-indagatoria_0_1604839549.html
p14
a.