(lp0
Vhttps://www.clarin.com/politica/Macri-balance-gestion-discurso-Bicentenario_0_1610239047.html
p1
aVhttps://www.clarin.com/politica/Macri-balance-gestion-discurso-Bicentenario_0_1610239047.html
p2
aVhttps://www.clarin.com/politica/Bicentenario-Paris-ceremonia-Notre-Dame_0_1610239041.html
p3
aVhttps://www.clarin.com/politica/Bicentenario-Paris-ceremonia-Notre-Dame_0_1610239041.html
p4
aVhttps://www.clarin.com/politica/Iglesia-lamento-Argentina-gran-familia_0_1610239038.html
p5
aVhttps://www.clarin.com/politica/Iglesia-lamento-Argentina-gran-familia_0_1610239038.html
p6
a.