(lp0
S'https://www.clarin.com/politica/Vidal-peleando-mafias-costos_0_1501050277.html'
p1
aS'https://www.clarin.com/politica/Vidal-peleando-mafias-costos_0_1501050277.html'
p2
aS'https://www.clarin.com/ieco/economia/Foro_Economico_de_Davos-Mauricio_Macri-gira_0_1501050264.html'
p3
aS'https://www.clarin.com/ieco/economia/Foro_Economico_de_Davos-Mauricio_Macri-gira_0_1501050263.html'
p4
aS'https://www.clarin.com/politica/profugos-Martin_lanatta-Patricia_Bullrich-informacion_falsa_0_1501050252.html'
p5
aS'https://www.clarin.com/politica/profugos-Martin_lanatta-Patricia_Bullrich-informacion_falsa_0_1501050252.html'
p6
aS'https://www.clarin.com/politica/Triple_Crimen-Frente_Renovador-Sergio_Massa-Congreso-Camara_de_Diputados-Patricia_Bullrich_0_1501050248.html'
p7
aS'https://www.clarin.com/politica/Triple_Crimen-Frente_Renovador-Sergio_Massa-Congreso-Camara_de_Diputados-Patricia_Bullrich_0_1501050248.html'
p8
a.