(lp0
S'https://www.clarin.com/ieco/economia/Varoufakis-Union-Europea-desintegrando_0_1519648186.html'
p1
aS'https://www.clarin.com/ieco/economia/carniceros-preven-nuevas-subas-marzo_0_1519648196.html'
p2
aS'https://www.clarin.com/sociedad/record-ataques-tiburones_0_1519648200.html'
p3
aS'https://www.clarin.com/sociedad/rayo-punto-matar-novia_0_1519648179.html'
p4
aS'https://www.clarin.com/sociedad/Investigan-meteorito-mato-hombre-India_0_1519648189.html'
p5
aS'https://www.clarin.com/politica/irregularidades-Boudou-empleado-Australia_0_1519648198.html'
p6
a.