(lp0
Vhttps://www.clarin.com/politica/Casacion-denuncio-recibio-regalos-Vido_0_1622237945.html
p1
aVhttps://www.clarin.com/politica/Casacion-denuncio-recibio-regalos-Vido_0_1622237945.html
p2
aVhttps://www.clarin.com/politica/Encontraron-muerto-Washington-ministro-Scioli_0_1622237931.html
p3
aVhttps://www.clarin.com/politica/Encontraron-muerto-Washington-ministro-Scioli_0_1622237931.html
p4
a.