(lp0
Vhttps://www.clarin.com/politica/Baez-preocupado-Leandro-Va-terminar_0_1591041007.html
p1
aVhttps://www.clarin.com/politica/Baez-preocupado-Leandro-Va-terminar_0_1591041007.html
p2
aVhttps://www.clarin.com/politica/carta-Cristina-Baez-existe-guardada_0_1591040994.html
p3
aVhttps://www.clarin.com/politica/carta-Cristina-Baez-existe-guardada_0_1591040994.html
p4
aVhttps://www.clarin.com/opinion/Rondas-mate-redaccion_0_1591040989.html
p5
aVhttps://www.clarin.com/sociedad/Negocian-lista-Precios-Cuidados-medicamentos_0_1591041073.html
p6
aVhttps://www.clarin.com/sociedad/Negocian-lista-Precios-Cuidados-medicamentos_0_1591041073.html
p7
aVhttps://www.clarin.com/sociedad/Avanzan-biopsias-liquidas-monitorear-cancer_0_1591041062.html
p8
aVhttps://www.clarin.com/politica/Corte-fallo-facturas-juicios-previsionales_0_1591041079.html
p9
aVhttps://www.clarin.com/politica/Corte-fallo-facturas-juicios-previsionales_0_1591041079.html
p10
aVhttps://www.clarin.com/politica/Blanqueo-Macri-acepto-eliminen-prensa_0_1591041077.html
p11
aVhttps://www.clarin.com/politica/Blanqueo-Macri-acepto-eliminen-prensa_0_1591041077.html
p12
a.