(lp0
Vhttps://www.clarin.com/politica/Macri-cambio-planes-Mayo-protestas_0_1582641807.html
p1
aVhttps://www.clarin.com/politica/Macri-cambio-planes-Mayo-protestas_0_1582641807.html
p2
aVhttps://www.clarin.com/sociedad/Facebook-censuro-modelo-XL-demasiado_0_1582641782.html
p3
aVhttps://www.clarin.com/sociedad/Facebook-censuro-modelo-XL-demasiado_0_1582641782.html
p4
aVhttps://www.clarin.com/politica/amparo-frena-aumento-ahora-Bariloche_0_1582641804.html
p5
aVhttps://www.clarin.com/politica/amparo-frena-aumento-ahora-Bariloche_0_1582641804.html
p6
aVhttps://www.clarin.com/politica/Imputaron-exministro-Vido-sobreprecios_0_1582641802.html
p7
aVhttps://www.clarin.com/politica/Imputaron-exministro-Vido-sobreprecios_0_1582641802.html
p8
aVhttps://www.clarin.com/ieco/economia/Pampa-eliminar-barrera-carne-hueso_0_1582641801.html
p9
aVhttps://www.clarin.com/ieco/economia/Pampa-eliminar-barrera-carne-hueso_0_1582641801.html
p10
aVhttps://www.clarin.com/politica/Citan-indagatoria-Boudou-vehiculos-sobreprecios_0_1582641800.html
p11
aVhttps://www.clarin.com/politica/Citan-indagatoria-Boudou-vehiculos-sobreprecios_0_1582641800.html
p12
aVhttps://www.clarin.com/ieco/devaluacion-alcanza-reactivar-exportaciones-agro_0_1582641789.html
p13
aVhttps://www.clarin.com/ieco/devaluacion-alcanza-reactivar-exportaciones-agro_0_1582641789.html
p14
a.