(lp0
S'https://www.clarin.com/sociedad/Pintan-Cataratas-medio-ambiente_0_1589241174.html'
p1
aS'https://www.clarin.com/politica/Vera-escuche-Papa-comparar-pasa_0_1589241177.html'
p2
aS'https://www.clarin.com/politica/Tarifazos-gobernador-aliado-opositor-apoyaron_0_1589241161.html'
p3
aS'https://www.clarin.com/ieco/Dolar-vez-barato_0_1589241175.html'
p4
aS'https://www.clarin.com/politica/pedido-bienes-crimen-vuelvan-sociedad_0_1589241178.html'
p5
a.