(lp0
S'https://www.clarin.com/ieco/Declaran-emergencia-agropecuaria-municipios-bonaerense_0_1681031959.html'
p1
aS'https://www.clarin.com/ieco/Declaran-emergencia-agropecuaria-municipios-bonaerense_0_1681031959.html'
p2
aS'https://www.clarin.com/sociedad/cancer-infantil-infrecuente-buen-pronostico_0_1681031958.html'
p3
aS'https://www.clarin.com/sociedad/cancer-infantil-infrecuente-buen-pronostico_0_1681031958.html'
p4
aS'https://www.clarin.com/ieco/economia/estatizacion-fondo-demanda-Argentina-YPF_0_1681031957.html'
p5
aS'https://www.clarin.com/ieco/economia/estatizacion-fondo-demanda-Argentina-YPF_0_1681031957.html'
p6
aS'https://www.clarin.com/sociedad/Difunden-Marte-estrello-modulo-Schiaparelli_0_1681031951.html'
p7
aS'https://www.clarin.com/sociedad/Difunden-Marte-estrello-modulo-Schiaparelli_0_1681031951.html'
p8
aS'https://www.clarin.com/politica/ministro-Scioli-despegarse-acusaciones-corrupcion_0_1681031948.html'
p9
aS'https://www.clarin.com/politica/ministro-Scioli-despegarse-acusaciones-corrupcion_0_1681031948.html'
p10
a.