(lp0
Vhttps://www.clarin.com/politica/Avanza-proyecto-viviendas-Cobos_0_1579042262.html
p1
aVhttps://www.clarin.com/politica/Avanza-proyecto-viviendas-Cobos_0_1579042262.html
p2
aVhttps://www.clarin.com/ieco/economia/derrumba-confianza-consumidor_0_1579042258.html
p3
aVhttps://www.clarin.com/ieco/economia/derrumba-confianza-consumidor_0_1579042258.html
p4
aVhttps://www.clarin.com/politica/Gobierno-devolvera-fondos-millonarios-provincias_0_1579042299.html
p5
aVhttps://www.clarin.com/politica/Macri-concentrarse-inversiones-credito-internacional_0_1579042296.html
p6
aVhttps://www.clarin.com/ieco/economia/Sturzenegger-defendio-reconocio-preocupa-golondrina_0_1579042214.html
p7
aVhttps://www.clarin.com/ieco/economia/Sturzenegger-defendio-reconocio-preocupa-golondrina_0_1579042214.html
p8
aVhttps://www.clarin.com/politica/millonarios-negocios-Lazaro-Baez-Chaco_0_1578442319.html
p9
aVhttps://www.clarin.com/politica/millonarios-negocios-Lazaro-Baez-Chaco_0_1578442319.html
p10
aVhttps://www.clarin.com/sociedad/alumnos-dicen-fuman-creen-docentes_0_1579042307.html
p11
aVhttps://www.clarin.com/sociedad/lanchas-dejo-clases-chicos-Delta_0_1579042305.html
p12
aVhttps://www.clarin.com/sociedad/lanchas-dejo-clases-chicos-Delta_0_1579042305.html
p13
aVhttps://www.clarin.com/opinion/tuteo-complicidad_0_1579642030.html
p14
aVhttps://www.clarin.com/opinion/leon-leona_0_1579642029.html
p15
aVhttps://www.clarin.com/politica/Olivos-Cristina-gasto-millones-arreglos_0_1579042278.html
p16
aVhttps://www.clarin.com/politica/Olivos-Cristina-gasto-millones-arreglos_0_1579042278.html
p17
aVhttps://www.clarin.com/opinion/politicos-sociedad-logran-suturar-grieta_0_1579042221.html
p18
a.