(lp0
S'https://www.clarin.com/sociedad/blanca-atraveso-cielo-Ovni-NASA_0_1585041570.html'
p1
aS'https://www.clarin.com/sociedad/blanca-atraveso-cielo-Ovni-NASA_0_1585041570.html'
p2
aS'https://www.clarin.com/politica/Ocana-pedira-investigue-Casanello_0_1585041568.html'
p3
a.