(lp0
Vhttps://www.clarin.com/ieco/economia/inflacion-indec-precios-ipc_0_1523848052.html
p1
aVhttps://www.clarin.com/ieco/campus-ieco/universidades-argentinas-top-ranking-internacional_0_1523847959.html
p2
aVhttps://www.clarin.com/ieco/campus-ieco/universidades-argentinas-top-ranking-internacional_0_1523847959.html
p3
aVhttps://www.clarin.com/sociedad/Twitter-crisis-prueba-Facebook-salvarse_0_1523848029.html
p4
aVhttps://www.clarin.com/sociedad/Twitter-crisis-prueba-Facebook-salvarse_0_1523848029.html
p5
aVhttps://www.clarin.com/sociedad/Apple-lanzaria-nuevo-iPhone-viene_0_1523848023.html
p6
aVhttps://www.clarin.com/sociedad/Apple-lanzaria-nuevo-iPhone-viene_0_1523848023.html
p7
aVhttps://www.clarin.com/politica/Cristina-hablando-Qunita_0_1524447576.html
p8
aVhttps://www.clarin.com/politica/Moreno-ayuda-cuenta_0_1524447574.html
p9
aVhttps://www.clarin.com/politica/Moreno-ayuda-cuenta_0_1524447574.html
p10
aVhttps://www.clarin.com/politica/peor-INDEC-sospechado_0_1524447569.html
p11
aVhttps://www.clarin.com/opinion/Papa_Francisco-ecumenismo-dialogo_inter-religioso_0_1524447568.html
p12
aVhttps://www.clarin.com/opinion/seguridad_ciudadana-estado_de_derecho-poder_punitivo-protesta_social_0_1524447567.html
p13
aVhttps://www.clarin.com/opinion/seguridad_ciudadana-estado_de_derecho-poder_punitivo-protesta_social_0_1524447567.html
p14
aVhttps://www.clarin.com/sociedad/Depilacion-genital-crece-pesar-riesgos_0_1523848026.html
p15
aVhttps://www.clarin.com/sociedad/Depilacion-genital-crece-pesar-riesgos_0_1523848026.html
p16
aVhttps://www.clarin.com/sociedad/Afirman-perdiendo-emociones-sexualidad_0_1523848021.html
p17
aVhttps://www.clarin.com/sociedad/Afirman-perdiendo-emociones-sexualidad_0_1523848021.html
p18
aVhttps://www.clarin.com/politica/Congreso-DNU-Mauricio_Macri-PJ_disidente_0_1524447559.html
p19
a.