(lp0
S'https://www.clarin.com/sociedad/Doble-Montanita-Mina-Ponce-Rodriguez_0_1633636769.html'
p1
aS'https://www.clarin.com/sociedad/Increible-Hospital-Clinicas-fuselaje-funciona_0_1633636795.html'
p2
aS'https://www.clarin.com/sociedad/Caso-Belen-recien-recuperara-libertad_0_1633636763.html'
p3
aS'https://www.clarin.com/sociedad/Increible-Hospital-Clinicas-fuselaje-funciona_0_1633636791.html'
p4
aS'https://www.clarin.com/politica/Pena-volvera-Diputados-informe-gestion_0_1633636772.html'
p5
a.