(lp0
S'https://www.clarin.com/sociedad/Denuncian-fuertes-aumentos-medicamentos-libre_0_1582641742.html'
p1
aS'https://www.clarin.com/politica/Visita-Serra-apoyo-gestion-Brasil_0_1582641730.html'
p2
aS'https://www.clarin.com/politica/Mayo-Papa-mostrara-intendentes-peronistas_0_1582641736.html'
p3
aS'https://www.clarin.com/politica/Pinedo-Duran-Barba-Deberia-salteno_0_1582641735.html'
p4
a.