(lp0
S'https://www.clarin.com/sociedad/argentino-atacado-tiburon-Hawai_0_1674432631.html'
p1
aS'https://www.clarin.com/sociedad/argentino-atacado-tiburon-Hawai_0_1674432631.html'
p2
aS'https://www.clarin.com/politica/Insolita-Argentina-Paraguay-presencia-estadounidense_0_1674432629.html'
p3
aS'https://www.clarin.com/politica/Insolita-Argentina-Paraguay-presencia-estadounidense_0_1674432629.html'
p4
aS'https://www.clarin.com/politica/Fuerte-oposicion-peronista-Navarro-C5N_0_1674432627.html'
p5
aS'https://www.clarin.com/politica/Fuerte-oposicion-peronista-Navarro-C5N_0_1674432627.html'
p6
a.