(lp0
Vhttps://www.clarin.com/sociedad/Hallazgo-espacial-NASA-detecto-Jupiter_0_1657634327.html
p1
aVhttps://www.clarin.com/sociedad/Hallazgo-espacial-NASA-detecto-Jupiter_0_1657634327.html
p2
aVhttps://www.clarin.com/politica/Gobierno-Martin-Sabbatella-supuesto-malversacion_0_1657634320.html
p3
aVhttps://www.clarin.com/politica/Gobierno-Martin-Sabbatella-supuesto-malversacion_0_1657634320.html
p4
a.