(lp0
S'https://www.clarin.com/politica/Miguel_Pichetto-Marcos_Pena-reunion-pliegos_Corte-ley_cerrojo_0_1504649825.html'
p1
aS'https://www.clarin.com/politica/Miguel_Pichetto-Marcos_Pena-reunion-pliegos_Corte-ley_cerrojo_0_1504649825.html'
p2
aS'https://www.clarin.com/sociedad/Visitar-Breaking-Bad-turistico-fanaticos_0_1504649800.html'
p3
aS'https://www.clarin.com/sociedad/Visitar-Breaking-Bad-turistico-fanaticos_0_1504649800.html'
p4
aS'https://www.clarin.com/politica/Jorge_Capitanich-Jose_Luis_Gioja-Sergio_Unac-Diego_Bossio-PJ-FpV_0_1504649818.html'
p5
aS'https://www.clarin.com/politica/Jorge_Capitanich-Jose_Luis_Gioja-Sergio_Unac-Diego_Bossio-PJ-FpV_0_1504649818.html'
p6
aS'https://www.clarin.com/sociedad/china-escalera_mecanica-accidente-nene-nino_0_1504649788.html'
p7
aS'https://www.clarin.com/sociedad/china-escalera_mecanica-accidente-nene-nino_0_1504649788.html'
p8
aS'https://www.clarin.com/sociedad/Clausuran-salon-fiestas-infantiles-noche_0_1504649803.html'
p9
aS'https://www.clarin.com/sociedad/Clausuran-salon-fiestas-infantiles-noche_0_1504649803.html'
p10
aS'https://www.clarin.com/sociedad/muerte_cerebral-hospitalizados-ensayos_clinicos-Francia-Rennes_0_1504649677.html'
p11
aS'https://www.clarin.com/sociedad/muerte_cerebral-hospitalizados-ensayos_clinicos-Francia-Rennes_0_1504649677.html'
p12
a.