(lp0
Vhttps://www.clarin.com/sociedad/FuerzaEdu-mensaje-famosos-alentar-apunalado_0_1583841729.html
p1
aVhttps://www.clarin.com/sociedad/FuerzaEdu-mensaje-famosos-alentar-apunalado_0_1583841729.html
p2
aVhttps://www.clarin.com/sociedad/ciclo-cultural-AcercArte-parada-Lanus_0_1583841727.html
p3
aVhttps://www.clarin.com/sociedad/ciclo-cultural-AcercArte-parada-Lanus_0_1583841727.html
p4
aVhttps://www.clarin.com/sociedad/gripe-aconsejan-besarse_0_1583841725.html
p5
aVhttps://www.clarin.com/sociedad/gripe-aconsejan-besarse_0_1583841725.html
p6
aVhttps://www.clarin.com/politica/Despouy-representante-Derechos-Humanos_0_1583841711.html
p7
a.