(lp0
Vhttps://www.clarin.com/ieco/economia/Fuerte-contraccion-consumo-marzo-llego_0_1562843720.html
p1
aVhttps://www.clarin.com/ieco/tarifazo-cayo-demanda-energia_0_1562843719.html
p2
aVhttps://www.clarin.com/politica/verdad-fuga-Chueco-relato-espia_0_1562843714.html
p3
aVhttps://www.clarin.com/politica/verdad-fuga-Chueco-relato-espia_0_1562843714.html
p4
aVhttps://www.clarin.com/sociedad/detenidos-acusados-proveer-Time-Warp_0_1562843711.html
p5
aVhttps://www.clarin.com/sociedad/detenidos-acusados-proveer-Time-Warp_0_1562843711.html
p6
aVhttps://www.clarin.com/ieco/economia/Gobierno-amplia-millones-gasto-FMI_0_1562843710.html
p7
aVhttps://www.clarin.com/ieco/economia/Gobierno-amplia-millones-gasto-FMI_0_1562843710.html
p8
aVhttps://www.clarin.com/ieco/economia/canasta-portena-aumento-marzo_0_1562243909.html
p9
aVhttps://www.clarin.com/politica/Dolar-futuro-fiscal-Sturzenegger-Bonadio_0_1562243887.html
p10
aVhttps://www.clarin.com/politica/Dolar-futuro-fiscal-Sturzenegger-Bonadio_0_1562243887.html
p11
a.