(lp0
S'https://www.clarin.com/politica/Coco_Sily-destrozo-Jose_Ottavis-da-verguenza_0_1590441035.html'
p1
aS'https://www.clarin.com/politica/entraba-Grupo-Halcon-Lopez-Tigre_0_1596440358.html'
p2
aS'https://www.clarin.com/politica/Encuesta-kirchneristas-detencion-Jose-Lopez_0_1596440360.html'
p3
aS'https://www.clarin.com/sociedad/fuerte-PAMI-farmacias-atienden-abuelos_0_1596440357.html'
p4
a.