(lp0
S'https://www.clarin.com/politica/Diputados-dictamen-antidespidos-proyecto-Senado_0_1574842619.html'
p1
aS'https://www.clarin.com/ieco/economia/Molinos-US-millones-entrar-bodega_0_1574842620.html'
p2
aS'https://www.clarin.com/politica/mujer-usurpo-Baez-delito-perjudico_0_1574842613.html'
p3
a.