(lp0
Vhttps://www.clarin.com/ieco/economia/caidas-agosto-faena-carne-vacuna_0_1649835170.html
p1
aVhttps://www.clarin.com/ieco/economia/caidas-agosto-faena-carne-vacuna_0_1649835170.html
p2
aVhttps://www.clarin.com/politica/Gils-Carbo-Nisman-Cristobal-Lopez_0_1649835172.html
p3
aVhttps://www.clarin.com/politica/Gils-Carbo-Nisman-Cristobal-Lopez_0_1649835172.html
p4
aVhttps://www.clarin.com/politica/mayo-comienza-primer-juicio-Boudou_0_1649835166.html
p5
aVhttps://www.clarin.com/politica/mayo-comienza-primer-juicio-Boudou_0_1649835166.html
p6
aVhttps://www.clarin.com/ieco/Proyectan-hotel-torre-alta-ciudad_0_1649835161.html
p7
aVhttps://www.clarin.com/ieco/Proyectan-hotel-torre-alta-ciudad_0_1649835161.html
p8
aVhttps://www.clarin.com/politica/seguridad-laxa-esfera-sorpresas-Foro_0_1649835158.html
p9
aVhttps://www.clarin.com/politica/seguridad-laxa-esfera-sorpresas-Foro_0_1649835158.html
p10
a.