(lp0
Vhttps://www.clarin.com/politica/Florencia-Camara-levanten-embargo-seguridad_0_1633036840.html
p1
aVhttps://www.clarin.com/politica/Florencia-Camara-levanten-embargo-seguridad_0_1633036840.html
p2
aVhttps://www.clarin.com/politica/Amenazaron-muerte-Michetti_0_1633036842.html
p3
aVhttps://www.clarin.com/politica/Amenazaron-muerte-Michetti_0_1633036842.html
p4
aVhttps://www.clarin.com/ieco/economia/Massalin-Particulares-suspendera-produccion-plantas_0_1633036839.html
p5
aVhttps://www.clarin.com/politica/Negri-Kicillof-Sigan-gritando-desastres_0_1633036838.html
p6
aVhttps://www.clarin.com/politica/Negri-Kicillof-Sigan-gritando-desastres_0_1633036838.html
p7
aVhttps://www.clarin.com/politica/Aparecieron-padrones-votar-unificacion-CGT_0_1633036835.html
p8
aVhttps://www.clarin.com/politica/Aparecieron-padrones-votar-unificacion-CGT_0_1633036835.html
p9
aVhttps://www.clarin.com/politica/Denunciaron-intendente-Merlo-enriquecimiento-ilicito_0_1633036829.html
p10
aVhttps://www.clarin.com/politica/Denunciaron-intendente-Merlo-enriquecimiento-ilicito_0_1633036829.html
p11
a.