(lp0
S'https://www.clarin.com/politica/Cristina-Kirchner-arremetio-Justicia-macrista_0_1633036861.html'
p1
aS'https://www.clarin.com/politica/Cristina-Kirchner-arremetio-Justicia-macrista_0_1633036861.html'
p2
aS'https://www.clarin.com/sociedad/Corte-Suprema-tucumana-liberacion-Belen_0_1633036855.html'
p3
aS'https://www.clarin.com/sociedad/Corte-Suprema-tucumana-liberacion-Belen_0_1633036855.html'
p4
aS'https://www.clarin.com/ieco/economia/Central-inflacion-caida-recorte-tasas_0_1633036850.html'
p5
aS'https://www.clarin.com/ieco/economia/Central-inflacion-caida-recorte-tasas_0_1633036850.html'
p6
aS'https://www.clarin.com/ieco/economia/Cayo-exportacion-autopartes_0_1633036852.html'
p7
a.