(lp0
S'https://www.clarin.com/opinion/seguridad_ciudadana-estado_de_derecho-poder_punitivo-protesta_social_0_1524447567.html'
p1
aS'https://www.clarin.com/sociedad/Afirman-perdiendo-emociones-sexualidad_0_1523848021.html'
p2
aS'https://www.clarin.com/sociedad/Apple-lanzaria-nuevo-iPhone-viene_0_1523848023.html'
p3
aS'https://www.clarin.com/politica/Moreno-ayuda-cuenta_0_1524447574.html'
p4
aS'https://www.clarin.com/ieco/economia/inflacion-indec-precios-ipc_0_1523848052.html'
p5
aS'https://www.clarin.com/politica/Congreso-DNU-Mauricio_Macri-PJ_disidente_0_1524447559.html'
p6
aS'https://www.clarin.com/ieco/campus-ieco/universidades-argentinas-top-ranking-internacional_0_1523847959.html'
p7
aS'https://www.clarin.com/sociedad/Depilacion-genital-crece-pesar-riesgos_0_1523848026.html'
p8
aS'https://www.clarin.com/politica/peor-INDEC-sospechado_0_1524447569.html'
p9
aS'https://www.clarin.com/politica/Cristina-hablando-Qunita_0_1524447576.html'
p10
aS'https://www.clarin.com/opinion/Papa_Francisco-ecumenismo-dialogo_inter-religioso_0_1524447568.html'
p11
aS'https://www.clarin.com/sociedad/Twitter-crisis-prueba-Facebook-salvarse_0_1523848029.html'
p12
a.