(lp0
S'https://www.clarin.com/politica/Sergio-Massa-Sota-presidir-PJ_0_1509449246.html'
p1
aS'https://www.clarin.com/politica/Sergio-Massa-Sota-presidir-PJ_0_1509449246.html'
p2
aS'https://www.clarin.com/sociedad/Mundos_intimos-Daniel_Ulanovsky-hija_adolescente_0_1509449183.html'
p3
aS'https://www.clarin.com/sociedad/Mundos_intimos-Luciano_Olivera-hija_adolescente_0_1509449181.html'
p4
aS'https://www.clarin.com/sociedad/Mundos_intimos-Luciano_Olivera-hija_adolescente_0_1509449181.html'
p5
a.