(lp0
S'https://www.clarin.com/ieco/economia/YPF-firma-acuerdo-buscar-Bolivia_0_1612638822.html'
p1
aS'https://www.clarin.com/ieco/economia/Hipotecarios-cuota-inicial-tipo-credito_0_1612638764.html'
p2
aS'https://www.clarin.com/ieco/economia/Hipotecarios-cuota-inicial-tipo-credito_0_1612638764.html'
p3
aS'https://www.clarin.com/ieco/economia/Shell-Vaca-Muerta-participacion-yacimiento_0_1612638819.html'
p4
aS'https://www.clarin.com/ieco/economia/Shell-Vaca-Muerta-participacion-yacimiento_0_1612638819.html'
p5
aS'https://www.clarin.com/ieco/economia/Latam-cancela-Ezeiza-Punta-Cana_0_1612638812.html'
p6
aS'https://www.clarin.com/ieco/economia/Latam-cancela-Ezeiza-Punta-Cana_0_1612638812.html'
p7
aS'https://www.clarin.com/politica/Jose-Lopez-desnudo-camaras-Alperovich_0_1612638811.html'
p8
aS'https://www.clarin.com/politica/Jose-Lopez-desnudo-camaras-Alperovich_0_1612638811.html'
p9
a.