(lp0
S'https://www.clarin.com/politica/Marijuan-bolso-US-restos-tierra_0_1566443517.html'
p1
aS'https://www.clarin.com/politica/Marijuan-bolso-US-restos-tierra_0_1566443517.html'
p2
aS'https://www.clarin.com/politica/Carrio-celebro-embargo-Baez-Uruguay_0_1566443516.html'
p3
aS'https://www.clarin.com/politica/Carrio-celebro-embargo-Baez-Uruguay_0_1566443516.html'
p4
aS'https://www.clarin.com/politica/Vidal-comisaria-denunciar-punto-droga_0_1566443453.html'
p5
aS'https://www.clarin.com/politica/Vidal-comisaria-denunciar-punto-droga_0_1566443453.html'
p6
a.