(lp0
S'https://www.clarin.com/ieco/economia/Banco-Central-Europeo-estimulo-monetario_0_1508249454.html'
p1
aS'https://www.clarin.com/sociedad/ninos-cabo_verde-africa-metebol-futbolin-crean-inventan-furor-facebook-viral_0_1508249431.html'
p2
aS'https://www.clarin.com/sociedad/ninos-cabo_verde-africa-metebol-futbolin-crean-inventan-furor-facebook-viral_0_1508249431.html'
p3
aS'https://www.clarin.com/sociedad/Insolita-campana-prohibir-pochoclos-cine_0_1508249419.html'
p4
aS'https://www.clarin.com/sociedad/Insolita-campana-prohibir-pochoclos-cine_0_1508249419.html'
p5
aS'https://www.clarin.com/sociedad/Lanzan-nueva-edicion-campana-solidaria_0_1508249451.html'
p6
aS'https://www.clarin.com/sociedad/Lanzan-nueva-edicion-campana-solidaria_0_1508249451.html'
p7
aS'https://www.clarin.com/sociedad/Prueban-activa-oxitocina-hormona-placer_0_1508249448.html'
p8
aS'https://www.clarin.com/sociedad/Prueban-activa-oxitocina-hormona-placer_0_1508249448.html'
p9
aS'https://www.clarin.com/ieco/empresas-y-negocios/General-Motors-quiere-competir-Uber_0_1508249441.html'
p10
aS'https://www.clarin.com/sociedad/casos-dengue-confirmados-Capital_0_1508249435.html'
p11
aS'https://www.clarin.com/sociedad/casos-dengue-confirmados-Capital_0_1508249435.html'
p12
aS'https://www.clarin.com/sociedad/embarazadas-brasilenas-panico-zika_0_1508249429.html'
p13
aS'https://www.clarin.com/sociedad/embarazadas-brasilenas-panico-zika_0_1508249429.html'
p14
a.