(lp0
S'https://www.clarin.com/politica/Cristina-ahorros-perdio-millon-dolares_0_1608439217.html'
p1
aS'https://www.clarin.com/politica/Cristina-ahorros-perdio-millon-dolares_0_1608439217.html'
p2
aS'https://www.clarin.com/ieco/dolar-baja-centavos_0_1608439209.html'
p3
a.