(lp0
S'https://www.clarin.com/politica/sciolista-reconoce-Daniel-hecho-distintas_0_1523247804.html'
p1
aS'https://www.clarin.com/ieco/Globant-Plata-caso-estudio-Harvard_0_1523247800.html'
p2
aS'https://www.clarin.com/politica/Papa-Francisco-rosario-Milagro-Sala_0_1523247786.html'
p3
aS'https://www.clarin.com/politica/Mauricio_Macri-Brasil-Aecio_Neves_0_1523247790.html'
p4
aS'https://www.clarin.com/ieco/economia/Lanzan-sistema-control-precios-online_0_1523247814.html'
p5
aS'https://www.clarin.com/politica/Ottavis-mensaje-Vicky-DElia-comegato_0_1523247809.html'
p6
a.