(lp0
Vhttps://www.clarin.com/politica/DElia-Lanata-San-Martin-Belgrano_0_1556844568.html
p1
aVhttps://www.clarin.com/politica/DElia-Lanata-San-Martin-Belgrano_0_1556844568.html
p2
aVhttps://www.clarin.com/sociedad/mollejas-cordobes-quiere-bicampeon-mundial_0_1556844563.html
p3
aVhttps://www.clarin.com/sociedad/fuegos-cocineros-fronteras_0_1556844558.html
p4
aVhttps://www.clarin.com/sociedad/fuegos-cocineros-fronteras_0_1556844558.html
p5
aVhttps://www.clarin.com/politica/Vidal-anuncio-obras-Bahia-Blanca_0_1556844551.html
p6
aVhttps://www.clarin.com/politica/Vidal-anuncio-obras-Bahia-Blanca_0_1556844551.html
p7
aVhttps://www.clarin.com/sociedad/carceles-Lima-vidrieras-mundo_0_1556844547.html
p8
aVhttps://www.clarin.com/sociedad/carceles-Lima-vidrieras-mundo_0_1556844547.html
p9
a.