(lp0
Vhttps://www.clarin.com/sociedad/plata-gane-juicio-voy-donar_0_1649235247.html
p1
aVhttps://www.clarin.com/sociedad/plata-gane-juicio-voy-donar_0_1649235247.html
p2
aVhttps://www.clarin.com/sociedad/Educar-jovenes-tarea-toda-sociedad_0_1649235246.html
p3
aVhttps://www.clarin.com/sociedad/escuela-abierta-mejor-lugar-aprender_0_1649235245.html
p4
aVhttps://www.clarin.com/sociedad/Consumidores-defraudados-denuncian-casos-Ciudad_0_1649235243.html
p5
aVhttps://www.clarin.com/sociedad/Consumidores-defraudados-denuncian-casos-Ciudad_0_1649235243.html
p6
aVhttps://www.clarin.com/politica/Cristina-Capital-cruzada-noticias-judiciales_0_1649235237.html
p7
aVhttps://www.clarin.com/politica/Cristina-Capital-cruzada-noticias-judiciales_0_1649235237.html
p8
aVhttps://www.clarin.com/politica/Acuerdo-Macri-Lifschitz-luchar-narcos_0_1649235242.html
p9
aVhttps://www.clarin.com/politica/Acuerdo-Macri-Lifschitz-luchar-narcos_0_1649235242.html
p10
aVhttps://www.clarin.com/sociedad/artesano-sabia-ortopedia-protesis-hijo_0_1649235241.html
p11
aVhttps://www.clarin.com/sociedad/artesano-sabia-ortopedia-protesis-hijo_0_1649235241.html
p12
aVhttps://www.clarin.com/politica/Indagaran-Cristina-corrupcion-obra-publica_0_1649235223.html
p13
aVhttps://www.clarin.com/politica/Indagaran-Cristina-corrupcion-obra-publica_0_1649235223.html
p14
aVhttps://www.clarin.com/politica/primera-vez-dar-explicaciones-Baez_0_1649235240.html
p15
aVhttps://www.clarin.com/politica/primera-vez-dar-explicaciones-Baez_0_1649235240.html
p16
aVhttps://www.clarin.com/politica/informe-rego-expediente-pruebas_0_1649235222.html
p17
aVhttps://www.clarin.com/politica/informe-rego-expediente-pruebas_0_1649235222.html
p18
a.