(lp0
Vhttps://www.clarin.com/politica/Militantes-policias-Cristina-Comdoro-Py_0_1678632200.html
p1
aVhttps://www.clarin.com/politica/Militantes-policias-Cristina-Comdoro-Py_0_1678632200.html
p2
aVhttps://www.clarin.com/politica/Cristina-Kirchner-fiscales-Gobierno-asociacion_0_1678632197.html
p3
aVhttps://www.clarin.com/politica/Cristina-Kirchner-fiscales-Gobierno-asociacion_0_1678632197.html
p4
aVhttps://www.clarin.com/politica/Vidal-dias-bueno-contar-cena_0_1678632195.html
p5
aVhttps://www.clarin.com/politica/Vidal-dias-bueno-contar-cena_0_1678632195.html
p6
aVhttps://www.clarin.com/ieco/Suben-alquileres-oficinas-ano_0_1678632191.html
p7
aVhttps://www.clarin.com/ieco/Suben-alquileres-oficinas-ano_0_1678632191.html
p8
aVhttps://www.clarin.com/politica/acompanaron-Cristina-Kirchner-Comodoro-Py_0_1678632185.html
p9
aVhttps://www.clarin.com/politica/acompanaron-Cristina-Kirchner-Comodoro-Py_0_1678632185.html
p10
aVhttps://www.clarin.com/sociedad/Halloween-aterrorizado-payasos-ganaron-zombies_0_1678632182.html
p11
aVhttps://www.clarin.com/sociedad/Halloween-aterrorizado-payasos-ganaron-zombies_0_1678632182.html
p12
aVhttps://www.clarin.com/politica/Recalde-Cristina-quilombo-bastante-claro_0_1678632183.html
p13
aVhttps://www.clarin.com/politica/Recalde-Cristina-quilombo-bastante-claro_0_1678632183.html
p14
a.