(lp0
Vhttps://www.clarin.com/politica/malo-Alicia-Kirchner-aumento-patrimonio_0_1583841659.html
p1
aVhttps://www.clarin.com/politica/malo-Alicia-Kirchner-aumento-patrimonio_0_1583841659.html
p2
aVhttps://www.clarin.com/politica/Citan-Menem-declarar-atentado-AMIA_0_1583841657.html
p3
aVhttps://www.clarin.com/politica/Citan-Menem-declarar-atentado-AMIA_0_1583841657.html
p4
aVhttps://www.clarin.com/sociedad/Video-abejas-persiguieron-quedado-atrapada_0_1583841654.html
p5
aVhttps://www.clarin.com/sociedad/Video-abejas-persiguieron-quedado-atrapada_0_1583841654.html
p6
aVhttps://www.clarin.com/sociedad/Bicentenario-Macri-presento-oficial-celebraciones_0_1583841649.html
p7
aVhttps://www.clarin.com/sociedad/Bicentenario-Macri-presento-oficial-celebraciones_0_1583841649.html
p8
aVhttps://www.clarin.com/sociedad/Gripe-Provincia-buscar-embarazadas-vacunen_0_1583841638.html
p9
aVhttps://www.clarin.com/sociedad/Gripe-Provincia-buscar-embarazadas-vacunen_0_1583841638.html
p10
aVhttps://www.clarin.com/sociedad/Ahora-Victor-Hugo-denuncia-Paenza_0_1583841644.html
p11
aVhttps://www.clarin.com/sociedad/Ahora-Victor-Hugo-denuncia-Paenza_0_1583841644.html
p12
a.