(lp0
S'https://www.clarin.com/ieco/economia/YPF-ajusta-yacimientos-Rio-Negro_0_1583241761.html'
p1
aS'https://www.clarin.com/ieco/economia/YPF-ajusta-yacimientos-Rio-Negro_0_1583241761.html'
p2
aS'https://www.clarin.com/ieco/economia/cierran-contratos-proveer-energia-eolica_0_1583241823.html'
p3
aS'https://www.clarin.com/ieco/economia/cierran-contratos-proveer-energia-eolica_0_1583241823.html'
p4
aS'https://www.clarin.com/ieco/economia/Gobierno-empresas-productividad-negociacion-salarios_0_1583241819.html'
p5
aS'https://www.clarin.com/ieco/economia/Gobierno-empresas-productividad-negociacion-salarios_0_1583241819.html'
p6
aS'https://www.clarin.com/sociedad/Miles-chicos-sufrieron-docente-conflicto_0_1583241839.html'
p7
aS'https://www.clarin.com/sociedad/Miles-chicos-sufrieron-docente-conflicto_0_1583241839.html'
p8
aS'https://www.clarin.com/opinion/Adultos-mayores-volante-peligro_0_1583241770.html'
p9
aS'https://www.clarin.com/opinion/Adultos-mayores-volante-peligro_0_1583241770.html'
p10
aS'https://www.clarin.com/opinion/Comunicacion-latiguillo-oficialismos_0_1583241767.html'
p11
aS'https://www.clarin.com/opinion/America-Latina-agenda-desarrollo-sostenible_0_1583241768.html'
p12
aS'https://www.clarin.com/politica/dolares-gasto-nuevo-Macri_0_1583841604.html'
p13
a.