(lp0
Vhttps://www.clarin.com/ieco/campus-ieco/Pocas-mujeres-dedican-informatica-numero_0_1609039231.html
p1
aVhttps://www.clarin.com/ieco/campus-ieco/Pocas-mujeres-dedican-informatica-numero_0_1609039231.html
p2
aVhttps://www.clarin.com/ieco/campus-ieco/Premian-proyectos-investigacion-Enfermedad-Huntington_0_1609039238.html
p3
aVhttps://www.clarin.com/ieco/campus-ieco/Premian-proyectos-investigacion-Enfermedad-Huntington_0_1609039238.html
p4
aVhttps://www.clarin.com/politica/Justicia-Martin-Baez-Rio-Gallegos_0_1610838960.html
p5
aVhttps://www.clarin.com/politica/Justicia-Martin-Baez-Rio-Gallegos_0_1610838960.html
p6
aVhttps://www.clarin.com/politica/Cansado-extenuante-Macri-desfile-Palermo_0_1610838921.html
p7
aVhttps://www.clarin.com/politica/Cansado-extenuante-Macri-desfile-Palermo_0_1610838921.html
p8
aVhttps://www.clarin.com/politica/Comenzaron-festejos-Bicentenario-desfile-Palermo_0_1610838919.html
p9
aVhttps://www.clarin.com/politica/Comenzaron-festejos-Bicentenario-desfile-Palermo_0_1610838919.html
p10
aVhttps://www.clarin.com/politica/Bicentenario-presencia-Macri-Palermo-festejos_0_1610838918.html
p11
aVhttps://www.clarin.com/politica/Bicentenario-presencia-Macri-Palermo-festejos_0_1610838918.html
p12
aVhttps://www.clarin.com/politica/Marcos-Pena-admitio-judicial-complicado_0_1610838916.html
p13
aVhttps://www.clarin.com/politica/Marcos-Pena-admitio-judicial-complicado_0_1610838916.html
p14
a.