(lp0
Vhttps://www.clarin.com/ieco/foco-siembra-abre-edicion-Expoagro_0_1535846843.html
p1
aVhttps://www.clarin.com/politica/Buscan-acuerdos-apurar-pago-holdouts_0_1535846873.html
p2
aVhttps://www.clarin.com/politica/Buscan-acuerdos-apurar-pago-holdouts_0_1535846873.html
p3
aVhttps://www.clarin.com/politica/asesor-Scioli-proyecto-salir-default_0_1535846875.html
p4
aVhttps://www.clarin.com/politica/asesor-Scioli-proyecto-salir-default_0_1535846875.html
p5
aVhttps://www.clarin.com/sociedad/cura-Brochero-recta-final-santo_0_1535846836.html
p6
aVhttps://www.clarin.com/sociedad/Ciudad-mujeres-denuncian-amenazas-hostigamiento_0_1535846857.html
p7
aVhttps://www.clarin.com/ieco/tamberos-impulsan-paro-crisis-sector_0_1535246815.html
p8
aVhttps://www.clarin.com/ieco/tamberos-impulsan-paro-crisis-sector_0_1535246815.html
p9
aVhttps://www.clarin.com/sociedad/Despues-estudiar-calle-secundaria-facil_0_1535846828.html
p10
aVhttps://www.clarin.com/sociedad/Despues-estudiar-calle-secundaria-facil_0_1535846828.html
p11
aVhttps://www.clarin.com/ieco/IRSA-coloca-deuda-millones-dolares_0_1535846834.html
p12
aVhttps://www.clarin.com/sociedad/Sobrevivieron-violencia-genero-quieren-rehacer_0_1535846853.html
p13
aVhttps://www.clarin.com/sociedad/Sobrevivieron-violencia-genero-quieren-rehacer_0_1535846853.html
p14
aVhttps://www.clarin.com/sociedad/Muchas-proteccion-mujer-letra-muerta_0_1535846846.html
p15
a.