(lp0
S'https://www.clarin.com/ieco/Fondos-buitres-acuerdos-US-millones_0_1556244686.html'
p1
aS'https://www.clarin.com/sociedad/Siguen-lluvias-Litoral-evacuados_0_1556244671.html'
p2
aS'https://www.clarin.com/politica/Stolbizer-unifiquen-Hotesur-Ruta-dinero_0_1556244676.html'
p3
aS'https://www.clarin.com/sociedad/telescopio-espacial-Kepler-entro-emergencia_0_1556244681.html'
p4
aS'https://www.clarin.com/sociedad/Sigue-desesperada-busqueda-Rio-Arrecifes_0_1556244672.html'
p5
a.