(lp0
S'https://www.clarin.com/sociedad/moneda-conmemorativa-Bicentenario-Independencia_0_1609039215.html'
p1
aS'https://www.clarin.com/sociedad/moneda-conmemorativa-Bicentenario-Independencia_0_1609039215.html'
p2
a.