(lp0
Vhttps://www.clarin.com/politica/paso-escapar-mancha-venenosa_0_1641436039.html
p1
aVhttps://www.clarin.com/opinion/catarsis-saber-decir_0_1641435982.html
p2
aVhttps://www.clarin.com/politica/Vidal-miro-lado-complice-narcotrafico_0_1641436044.html
p3
aVhttps://www.clarin.com/politica/Vidal-miro-lado-complice-narcotrafico_0_1641436044.html
p4
aVhttps://www.clarin.com/politica/pacto-guerra-narcos_0_1641436043.html
p5
aVhttps://www.clarin.com/politica/Ordenan-detener-jueces-Santiago-Estero_0_1641436042.html
p6
aVhttps://www.clarin.com/politica/politica-bajar-realidad-drama-narco_0_1641436041.html
p7
aVhttps://www.clarin.com/politica/politica-bajar-realidad-drama-narco_0_1641436041.html
p8
aVhttps://www.clarin.com/politica/Gobernadores-intendentes-arman-paralelo-PJ_0_1641436035.html
p9
aVhttps://www.clarin.com/politica/Gobernadores-intendentes-arman-paralelo-PJ_0_1641436035.html
p10
aVhttps://www.clarin.com/sociedad/Emociones-virales-prueban-sociales-alteran_0_1641436034.html
p11
aVhttps://www.clarin.com/sociedad/Emociones-virales-prueban-sociales-alteran_0_1641436034.html
p12
a.