(lp0
S'https://www.clarin.com/sociedad/conocio-Internet-caso-saber-nieta_0_1661833864.html'
p1
aS'https://www.clarin.com/ieco/Dietrich-Vidal-US-Puerto-Quequen_0_1661833866.html'
p2
aS'https://www.clarin.com/politica/diputados-senadores-admitieron-titulo-universitario_0_1660033994.html'
p3
aS'https://www.clarin.com/sociedad/Facebook-compra-online-plataforma-propia_0_1661833851.html'
p4
aS'https://www.clarin.com/ieco/bancarios-reclaman-siguen-medidas-fuerza_0_1661833857.html'
p5
a.