(lp0
Vhttps://www.clarin.com/politica/curioso-argumento-Palmaghini-traslado-causa_0_1532247197.html
p1
aVhttps://www.clarin.com/politica/curioso-argumento-Palmaghini-traslado-causa_0_1532247197.html
p2
aVhttps://www.clarin.com/ieco/economia/Central-convalido-fuerte-suba-lebacs_0_1532247199.html
p3
aVhttps://www.clarin.com/ieco/economia/Central-convalido-fuerte-suba-lebacs_0_1532247199.html
p4
aVhttps://www.clarin.com/politica/disguto-FpV-discurso-Macri_0_1532247194.html
p5
aVhttps://www.clarin.com/politica/Stiuso-Nisman-relacionado-Gobierno-Cristina_0_1532247191.html
p6
aVhttps://www.clarin.com/politica/Stiuso-Nisman-relacionado-Gobierno-Cristina_0_1532247191.html
p7
aVhttps://www.clarin.com/sociedad/Febrero-record-calido-historia-Ciudad_0_1532247150.html
p8
aVhttps://www.clarin.com/sociedad/Febrero-record-calido-historia-Ciudad_0_1532247150.html
p9
aVhttps://www.clarin.com/politica/Mauricio-Cristina-juego-diferencias_0_1532247164.html
p10
aVhttps://www.clarin.com/politica/Mauricio-Cristina-juego-diferencias_0_1532247164.html
p11
aVhttps://www.clarin.com/politica/Provincia-funcionarios-deberan-publicar-declaracion_0_1532247166.html
p12
aVhttps://www.clarin.com/politica/Vidal-aca-hacerme-rica_0_1532247153.html
p13
aVhttps://www.clarin.com/politica/Vidal-aca-hacerme-rica_0_1532247153.html
p14
a.