(lp0
S'https://www.clarin.com/politica/Macri-balance-gestion-discurso-Bicentenario_0_1610239047.html'
p1
aS'https://www.clarin.com/politica/Iglesia-lamento-Argentina-gran-familia_0_1610239038.html'
p2
aS'https://www.clarin.com/politica/Bicentenario-Paris-ceremonia-Notre-Dame_0_1610239041.html'
p3
a.