(lp0
S'https://www.clarin.com/politica/Gobierno-millonario-acuerdo-provincias-coparticipacion_0_1579042194.html'
p1
aS'https://www.clarin.com/sociedad/Complicada-fabrica-bolitas-Sudamerica-seguira_0_1579042193.html'
p2
aS'https://www.clarin.com/ieco/economia/Pymes-industriales-caen-ventas-rentabilidad_0_1579042195.html'
p3
aS'https://www.clarin.com/ieco/economia/ANSES-vendera-acciones-sentencias-jubilados_0_1579042179.html'
p4
aS'https://www.clarin.com/politica/muerte-Menem-Jr-juez-Presidentes_0_1579042182.html'
p5
a.