(lp0
Vhttps://www.clarin.com/ieco/economia/valor-bonos-verdes-circulacion-duplicara_0_1514248770.html
p1
aVhttps://www.clarin.com/ieco/economia/valor-bonos-verdes-circulacion-duplicara_0_1514248770.html
p2
aVhttps://www.clarin.com/ieco/economia/motivos-detras-creditos-organismos_0_1514248769.html
p3
aVhttps://www.clarin.com/ieco/economia/motivos-detras-creditos-organismos_0_1514248769.html
p4
aVhttps://www.clarin.com/ieco/economia/dificil-arte-lograr-equilibrio-inestable_0_1514248803.html
p5
aVhttps://www.clarin.com/ieco/economia/dificil-arte-lograr-equilibrio-inestable_0_1514248803.html
p6
aVhttps://www.clarin.com/ieco/economia/universidades-presentan-nuevas-maestrias-diplomaturas_0_1514248783.html
p7
aVhttps://www.clarin.com/ieco/economia/universidades-presentan-nuevas-maestrias-diplomaturas_0_1514248783.html
p8
aVhttps://www.clarin.com/ieco/economia/Fed-debilita-suba-tasas_0_1514248771.html
p9
aVhttps://www.clarin.com/ieco/economia/Fed-debilita-suba-tasas_0_1514248771.html
p10
aVhttps://www.clarin.com/ieco/economia/agroindustria-_balance_2015-_perspectivas_2016-_soja-_trigo-_maiz-girasol-_ganaderia-_maquinaria_agricola-_avicultura-_dolar-_devaluacion-_retenciones_0_1514248814.html
p11
aVhttps://www.clarin.com/ieco/economia/agroindustria-_balance_2015-_perspectivas_2016-_soja-_trigo-_maiz-girasol-_ganaderia-_maquinaria_agricola-_avicultura-_dolar-_devaluacion-_retenciones_0_1514248814.html
p12
aVhttps://www.clarin.com/politica/Moreno-lanzarse-disputar-interna-PJ_0_1514248748.html
p13
aVhttps://www.clarin.com/politica/Moreno-lanzarse-disputar-interna-PJ_0_1514248748.html
p14
aVhttps://www.clarin.com/sociedad/Belgica-Noruega-aprender-respetar-mujeres_0_1514248764.html
p15
aVhttps://www.clarin.com/sociedad/Belgica-Noruega-aprender-respetar-mujeres_0_1514248764.html
p16
aVhttps://www.clarin.com/ieco/economia/Pese-Aranguren-considero-necesario-electricas_0_1514248739.html
p17
aVhttps://www.clarin.com/ieco/economia/Pese-Aranguren-considero-necesario-electricas_0_1514248739.html
p18
aVhttps://www.clarin.com/politica/secretario-Trabajo-acordada-bancarios-modelo_0_1514248732.html
p19
aVhttps://www.clarin.com/politica/secretario-Trabajo-acordada-bancarios-modelo_0_1514248732.html
p20
a.