(lp0
S'https://www.clarin.com/politica/escondido-denunciado-empresario-Carlos-Tomeo_0_1655234617.html'
p1
aS'https://www.clarin.com/politica/Gobierno-Iglesia-apuestan-mantener-dialogo_0_1655234623.html'
p2
aS'https://www.clarin.com/politica/Chaco-polemica-ciudad-golpeada-desnutricion_0_1655234613.html'
p3
a.