(lp0
Vhttps://www.clarin.com/sociedad/Escandalo-Misiones-intendente-conduciendo-borracho_0_1632436813.html
p1
aVhttps://www.clarin.com/sociedad/Escandalo-Misiones-intendente-conduciendo-borracho_0_1632436813.html
p2
aVhttps://www.clarin.com/sociedad/saltador-olimpico-pidio-matrimonio-premiaban_0_1632436811.html
p3
aVhttps://www.clarin.com/sociedad/saltador-olimpico-pidio-matrimonio-premiaban_0_1632436811.html
p4
aVhttps://www.clarin.com/sociedad/crucero-rescataron-despues-flotar-horas_0_1632436807.html
p5
aVhttps://www.clarin.com/sociedad/crucero-rescataron-despues-flotar-horas_0_1632436807.html
p6
aVhttps://www.clarin.com/sociedad/David-sometera-operacion-corazon-EEUU_0_1632436804.html
p7
aVhttps://www.clarin.com/sociedad/David-sometera-operacion-corazon-EEUU_0_1632436804.html
p8
a.