(lp0
S'https://www.clarin.com/politica/sistema-recaudacion-probado-sur_0_1633036871.html'
p1
aS'https://www.clarin.com/sociedad/organizadores-fiesta-quedaron-juicio-oral_0_1633036884.html'
p2
aS'https://www.clarin.com/politica/Tarifas-Congreso-Aranguren-necesidad-audiencias_0_1633036910.html'
p3
aS'https://www.clarin.com/sociedad/Sobrevivir-Time-Warp-extasis-liquido_0_1633036881.html'
p4
aS'https://www.clarin.com/politica/Milagro-Sala-protesta-Plaza-Mayo_0_1633036898.html'
p5
aS'https://www.clarin.com/sociedad/Premian-idea-estudiantes-argentinos_0_1633036904.html'
p6
aS'https://www.clarin.com/opinion/San-Martin-liderazgo-soberbias_0_1633036847.html'
p7
a.