(lp0
Vhttps://www.clarin.com/politica/Ponen-Roberto-Navarro-arbitrariedad-publicidad_0_1642035966.html
p1
aVhttps://www.clarin.com/politica/Ponen-Roberto-Navarro-arbitrariedad-publicidad_0_1642035966.html
p2
aVhttps://www.clarin.com/sociedad/Condenan-policia-multas-truchas-bronca_0_1642035965.html
p3
aVhttps://www.clarin.com/sociedad/normal-actuado-defendio-encargado-Biela_0_1642035960.html
p4
aVhttps://www.clarin.com/sociedad/normal-actuado-defendio-encargado-Biela_0_1642035960.html
p5
a.