(lp0
S'https://www.clarin.com/politica/Duran-Barba-hambre-culpa-kirchnerismo_0_1583241843.html'
p1
aS'https://www.clarin.com/politica/Duran-Barba-hambre-culpa-kirchnerismo_0_1583241843.html'
p2
aS'https://www.clarin.com/politica/Macri-festejo-Olivos-dirigentes-sociales_0_1583241833.html'
p3
a.