(lp0
Vhttps://www.clarin.com/sociedad/nuevas-promesas-medicas-siglo-XXI_0_1577242415.html
p1
aVhttps://www.clarin.com/sociedad/ciencia-apura-camino-juventud-eterna_0_1577242403.html
p2
aVhttps://www.clarin.com/politica/kirchnerismo-conversa-massismo-ley-antidespidos_0_1577242410.html
p3
aVhttps://www.clarin.com/politica/kirchnerismo-conversa-massismo-ley-antidespidos_0_1577242410.html
p4
aVhttps://www.clarin.com/sociedad/gurues-invierten-fuerte-esperanza-vivir_0_1577242409.html
p5
aVhttps://www.clarin.com/sociedad/gurues-invierten-fuerte-esperanza-vivir_0_1577242409.html
p6
aVhttps://www.clarin.com/politica/Denuncian-Alicia-Kirchner-desvio-millones_0_1577242399.html
p7
aVhttps://www.clarin.com/politica/Denuncian-Alicia-Kirchner-desvio-millones_0_1577242399.html
p8
aVhttps://www.clarin.com/politica/Vidal-apuesta-video-mostrar-gestion_0_1577242397.html
p9
aVhttps://www.clarin.com/politica/Vidal-apuesta-video-mostrar-gestion_0_1577242397.html
p10
a.