(lp0
S'https://www.clarin.com/politica/Camara-Federal-Plata-Corte-Suprema_0_1625837417.html'
p1
aS'https://www.clarin.com/politica/Camara-Federal-Plata-Corte-Suprema_0_1625837417.html'
p2
aS'https://www.clarin.com/sociedad/aumento-manteca-docena-medialunas-pesos_0_1625837413.html'
p3
aS'https://www.clarin.com/sociedad/aumento-manteca-docena-medialunas-pesos_0_1625837413.html'
p4
aS'https://www.clarin.com/politica/apretando-calle-hablando-Baez-carcel_0_1625837412.html'
p5
aS'https://www.clarin.com/politica/apretando-calle-hablando-Baez-carcel_0_1625837412.html'
p6
aS'https://www.clarin.com/ieco/Virgin-Mobile-Gobierno-servicios-telefonia_0_1625237497.html'
p7
aS'https://www.clarin.com/ieco/Virgin-Mobile-Gobierno-servicios-telefonia_0_1625237497.html'
p8
aS'https://www.clarin.com/ieco/economia/Citi-anuncio-credito-US-millones_0_1625237667.html'
p9
aS'https://www.clarin.com/ieco/economia/Citi-anuncio-credito-US-millones_0_1625237667.html'
p10
a.