(lp0
S'https://www.clarin.com/sociedad/Portabilidad-numerica-rapida-ampliaria-lineas_0_1627037459.html'
p1
aS'https://www.clarin.com/ieco/septiembre-paritarias-FMI-inflacion-Presupuesto_0_1627037465.html'
p2
aS'https://www.clarin.com/ieco/Suben-jubilaciones-asignacion-hijo_0_1627037464.html'
p3
a.