(lp0
S'https://www.clarin.com/politica/Campora-embiste-Marijuan-detencion-Cristina_0_1638436211.html'
p1
aS'https://www.clarin.com/politica/Marijuan-Cristina-Kirchner-borde-detencion_0_1638436217.html'
p2
aS'https://www.clarin.com/ieco/economia/provincia-peronista-cuestiona-empleo-INDEC_0_1638436207.html'
p3
aS'https://www.clarin.com/politica/Maximo-Kirchner-Larroque-Bonafini-Resistencia_0_1638436215.html'
p4
aS'https://www.clarin.com/politica/perpetua-Menendez-ahora-crimenes-Perla_0_1638436218.html'
p5
aS'https://www.clarin.com/ieco/Council-Americas-industriales-incluidos-tarifario_0_1638436221.html'
p6
aS'https://www.clarin.com/sociedad/conmovedora-bombero-atender-choque-victima_0_1638436206.html'
p7
aS'https://www.clarin.com/sociedad/Hablo-ORT-colegio-provocando-anterior_0_1638436209.html'
p8
aS'https://www.clarin.com/sociedad/demanda-Facebook-Zuckerberg-US-millones_0_1638436212.html'
p9
a.