(lp0
Vhttps://www.clarin.com/ieco/economia/Central-habilito-ofrecer-resumenes-electronicos_0_1504649737.html
p1
aVhttps://www.clarin.com/ieco/economia/Central-habilito-ofrecer-resumenes-electronicos_0_1504649737.html
p2
aVhttps://www.clarin.com/ieco/empresas-y-negocios/Fusion-aseguradoras_0_1504649733.html
p3
aVhttps://www.clarin.com/ieco/economia/aerolinea-Sol-confirmo-cese-actividades_0_1504649728.html
p4
aVhttps://www.clarin.com/ieco/economia/petroleo-China-sigue-arrastrando-mercados_0_1504649725.html
p5
aVhttps://www.clarin.com/ieco/economia/petroleo-China-sigue-arrastrando-mercados_0_1504649725.html
p6
aVhttps://www.clarin.com/politica/profugos-Lanatta-Shillaci-triple_crimen_0_1504649723.html
p7
aVhttps://www.clarin.com/politica/profugos-Lanatta-Shillaci-triple_crimen_0_1504649723.html
p8
aVhttps://www.clarin.com/ieco/economia/funcionario-contrato-hijos_0_1504649719.html
p9
aVhttps://www.clarin.com/politica/Lanatta-llamados_0_1504649720.html
p10
aVhttps://www.clarin.com/sociedad/Victor_Hugo_Morales-echan-Medios_estatales-Radio_Continental-programas_0_1504649705.html
p11
aVhttps://www.clarin.com/sociedad/Victor_Hugo_Morales-echan-Medios_estatales-Radio_Continental-programas_0_1504649705.html
p12
a.