(lp0
S'https://www.clarin.com/ieco/economia/economistas-falta-Central-baje-tasas_0_1565843555.html'
p1
aS'https://www.clarin.com/politica/gobierno-Lazaro-Baez-directivos-Vialidad_0_1565843563.html'
p2
aS'https://www.clarin.com/politica/Macri-prometio-puestos-trabajo-Turismo_0_1565843562.html'
p3
aS'https://www.clarin.com/politica/clausuraron-estudio-contable-Lazaro-Baez_0_1565843586.html'
p4
aS'https://www.clarin.com/politica/Escrache-Zannini-explicacion-instructor-marciales_0_1565843589.html'
p5
a.