(lp0
Vhttps://www.clarin.com/sociedad/preguntas-respuestas-virus-alerta-mundo_0_1512449014.html
p1
aVhttps://www.clarin.com/sociedad/preguntas-respuestas-virus-alerta-mundo_0_1512449014.html
p2
aVhttps://www.clarin.com/ieco/carne-precios-Ricardo_Buryaile-supermercados_0_1512449009.html
p3
aVhttps://www.clarin.com/ieco/carne-precios-Ricardo_Buryaile-supermercados_0_1512449009.html
p4
aVhttps://www.clarin.com/sociedad/conmovedora-fiesta-chica-anos_0_1512449003.html
p5
aVhttps://www.clarin.com/sociedad/conmovedora-fiesta-chica-anos_0_1512449003.html
p6
aVhttps://www.clarin.com/sociedad/Video-pasa-disparan-agua_0_1512449002.html
p7
aVhttps://www.clarin.com/sociedad/Video-pasa-disparan-agua_0_1512449002.html
p8
aVhttps://www.clarin.com/sociedad/cosas-debes-saber-zika_0_1512448993.html
p9
aVhttps://www.clarin.com/sociedad/cosas-debes-saber-zika_0_1512448993.html
p10
a.