(lp0
S'https://www.clarin.com/opinion/miren-solamente-Pichetto_0_1684031709.html'
p1
aS'https://www.clarin.com/politica/Poder-Ciudadano-informes-legisladores-Unidos_0_1684031711.html'
p2
aS'https://www.clarin.com/politica/decide-revoca-libertad-condicional-Esteche_0_1684031702.html'
p3
a.