(lp0
S'https://www.clarin.com/politica/Elisa_Carrio-Mauricio_Macri-retenciones_mineras_0_1522048182.html'
p1
aS'https://www.clarin.com/politica/Elisa_Carrio-Mauricio_Macri-retenciones_mineras_0_1522048182.html'
p2
a.