(lp0
S'https://www.clarin.com/sociedad/impactante-confirmaria-amenazas-Juan-Viroche_0_1664833567.html'
p1
aS'https://www.clarin.com/sociedad/impactante-confirmaria-amenazas-Juan-Viroche_0_1664833567.html'
p2
aS'https://www.clarin.com/sociedad/Francis-Mallmann-David-Beckham-inolvidable_0_1664833565.html'
p3
aS'https://www.clarin.com/sociedad/Francis-Mallmann-David-Beckham-inolvidable_0_1664833565.html'
p4
aS'https://www.clarin.com/politica/escritor-consagrado-comparo-kirchnerismo-nazismo_0_1664833562.html'
p5
aS'https://www.clarin.com/politica/escritor-consagrado-comparo-kirchnerismo-nazismo_0_1664833562.html'
p6
aS'https://www.clarin.com/politica/escritor-consagrado-comparo-kirchnerismo-nazismo_0_1664833563.html'
p7
aS'https://www.clarin.com/politica/escritor-consagrado-comparo-kirchnerismo-nazismo_0_1664833563.html'
p8
aS'https://www.clarin.com/sociedad/Revelan-autobiografia-desconocida-Hitler-Lucha_0_1664833561.html'
p9
aS'https://www.clarin.com/sociedad/Revelan-autobiografia-desconocida-Hitler-Lucha_0_1664833561.html'
p10
aS'https://www.clarin.com/sociedad/choque-venia-festejar-meses-noviazgo_0_1664833557.html'
p11
aS'https://www.clarin.com/sociedad/choque-venia-festejar-meses-noviazgo_0_1664833557.html'
p12
a.