(lp0
Vhttps://www.clarin.com/politica/hijos-Lazaro-Baez-contestaran-preguntas_0_1607839204.html
p1
aVhttps://www.clarin.com/politica/hijos-Lazaro-Baez-contestaran-preguntas_0_1607839204.html
p2
aVhttps://www.clarin.com/sociedad/Fallo-radar-volar-caos_0_1607239438.html
p3
aVhttps://www.clarin.com/sociedad/Fallo-radar-volar-caos_0_1607239438.html
p4
aVhttps://www.clarin.com/politica/Perez-Corradi-declarar-jueza-Servini_0_1607239415.html
p5
aVhttps://www.clarin.com/politica/Perez-Corradi-declarar-jueza-Servini_0_1607239415.html
p6
aVhttps://www.clarin.com/politica/Podria-convertirse-principal-imputado-privilegiado_0_1607239409.html
p7
aVhttps://www.clarin.com/politica/Podria-convertirse-principal-imputado-privilegiado_0_1607239409.html
p8
aVhttps://www.clarin.com/opinion/universidad-inclusiva-rigida_0_1607239387.html
p9
aVhttps://www.clarin.com/opinion/universidad-inclusiva-rigida_0_1607239387.html
p10
aVhttps://www.clarin.com/opinion/Resignificar-independencia_0_1607239400.html
p11
aVhttps://www.clarin.com/opinion/Extincion-dominio-reciclaje-propuestas_0_1607239391.html
p12
aVhttps://www.clarin.com/sociedad/hijo-operado-veces-casa-rehabilitarlo_0_1607239444.html
p13
aVhttps://www.clarin.com/sociedad/hijo-operado-veces-casa-rehabilitarlo_0_1607239444.html
p14
aVhttps://www.clarin.com/sociedad/libres-Time-Warp-acusan-delito_0_1607239428.html
p15
aVhttps://www.clarin.com/sociedad/libres-Time-Warp-acusan-delito_0_1607239428.html
p16
aVhttps://www.clarin.com/ieco/economia/Cordoba-sumo-provincias-amparos-tarifas_0_1607239407.html
p17
aVhttps://www.clarin.com/politica/embajador-Mamet-elogio-positivo-Argentina_0_1607239464.html
p18
aVhttps://www.clarin.com/politica/embajador-Mamet-elogio-positivo-Argentina_0_1607239464.html
p19
a.