(lp0
Vhttps://www.clarin.com/sociedad/baldazos-virales-consiguen-avance-cientifico_0_1621638015.html
p1
aVhttps://www.clarin.com/sociedad/baldazos-virales-consiguen-avance-cientifico_0_1621638015.html
p2
aVhttps://www.clarin.com/politica/Macri-Tinelli-Twitter-peleando-robots_0_1621638008.html
p3
aVhttps://www.clarin.com/politica/Macri-Tinelli-Twitter-peleando-robots_0_1621638008.html
p4
aVhttps://www.clarin.com/politica/Despues-polemica-Lousteau-posibilidad-Massa_0_1621638005.html
p5
aVhttps://www.clarin.com/politica/Despues-polemica-Lousteau-posibilidad-Massa_0_1621638005.html
p6
aVhttps://www.clarin.com/politica/Denuncian-Camara-Federal-Casacion-Penal_0_1621637967.html
p7
aVhttps://www.clarin.com/politica/Denuncian-Camara-Federal-Casacion-Penal_0_1621637967.html
p8
aVhttps://www.clarin.com/ieco/Manana-arranca-blanqueo_0_1621637994.html
p9
aVhttps://www.clarin.com/sociedad/culito-audios-Farre-llevarlo-juicio_0_1621637993.html
p10
aVhttps://www.clarin.com/sociedad/culito-audios-Farre-llevarlo-juicio_0_1621637993.html
p11
aVhttps://www.clarin.com/politica/Insolito-actoral-Guillermo-Moreno-Cambiemos_0_1621637990.html
p12
aVhttps://www.clarin.com/politica/Insolito-actoral-Guillermo-Moreno-Cambiemos_0_1621637990.html
p13
a.