(lp0
S'https://www.clarin.com/politica/Malvinas-Massa-Pinedo-Carrio-Cristina_0_1652834867.html'
p1
aS'https://www.clarin.com/politica/Mariana-Zuvic-plata-Kirchner-rindio_0_1652834866.html'
p2
aS'https://www.clarin.com/politica/Nueva-York-maxima-prevenir-atentados_0_1652834855.html'
p3
aS'https://www.clarin.com/politica/Peralta-Santa-Cruz-Priorizamos-salarios_0_1652834828.html'
p4
aS'https://www.clarin.com/sociedad/Neofilia-tecnologia-crece-obsesion-ultimo_0_1652834860.html'
p5
aS'https://www.clarin.com/politica/delegacion-argentina-preocupacion-Nueva-York_0_1652834854.html'
p6
a.