(lp0
S'https://www.clarin.com/sociedad/historias-peregrinos-recorren-kilometros-pausa_0_1660633964.html'
p1
aS'https://www.clarin.com/politica/Macri-bailo-canto-cumbia-Tecnopolis_0_1660633963.html'
p2
aS'https://www.clarin.com/sociedad/Hablo-argentina-retenida-Egipto-propiedad_0_1660633975.html'
p3
a.