(lp0
S'https://www.clarin.com/politica/cruces-fuertes-comision-Relaciones-Exteriores_0_1658834188.html'
p1
aS'https://www.clarin.com/politica/cruces-fuertes-comision-Relaciones-Exteriores_0_1658834188.html'
p2
aS'https://www.clarin.com/politica/Reunion-urgente-Gobierno-destrabar-electoral_0_1658834187.html'
p3
aS'https://www.clarin.com/politica/Reunion-urgente-Gobierno-destrabar-electoral_0_1658834187.html'
p4
aS'https://www.clarin.com/sociedad/echaron-colegio-difundir-video-companera_0_1658834178.html'
p5
aS'https://www.clarin.com/sociedad/echaron-colegio-difundir-video-companera_0_1658834178.html'
p6
aS'https://www.clarin.com/sociedad/atraviesa-rotonda-peatones-salvan-milimetros_0_1658834179.html'
p7
aS'https://www.clarin.com/sociedad/atraviesa-rotonda-peatones-salvan-milimetros_0_1658834179.html'
p8
a.