(lp0
S'https://www.clarin.com/sociedad/Historia-argentina-llego-Nueva-York_0_1677432324.html'
p1
aS'https://www.clarin.com/sociedad/Historia-argentina-llego-Nueva-York_0_1677432324.html'
p2
aS'https://www.clarin.com/opinion/Tropitango-Damas-Gratis-Tevez-Riquelme_0_1677432322.html'
p3
aS'https://www.clarin.com/opinion/Tropitango-Damas-Gratis-Tevez-Riquelme_0_1677432322.html'
p4
aS'https://www.clarin.com/opinion/profesores-serios-formales-funcionan-divertidos_0_1677432317.html'
p5
aS'https://www.clarin.com/opinion/profesores-serios-formales-funcionan-divertidos_0_1677432317.html'
p6
aS'https://www.clarin.com/sociedad/Lograron-pesquero-encallado-Playa-Grande_0_1677432313.html'
p7
aS'https://www.clarin.com/sociedad/Lograron-pesquero-encallado-Playa-Grande_0_1677432313.html'
p8
aS'https://www.clarin.com/politica/Mafia-Aduana-Barreiro-Laborda-arrepentido_0_1677432310.html'
p9
aS'https://www.clarin.com/politica/Mafia-Aduana-Barreiro-Laborda-arrepentido_0_1677432310.html'
p10
aS'https://www.clarin.com/sociedad/ciencia-ricos-prestan-atencion-rodean_0_1677432309.html'
p11
aS'https://www.clarin.com/sociedad/ciencia-ricos-prestan-atencion-rodean_0_1677432309.html'
p12
aS'https://www.clarin.com/sociedad/festival-terror-monstruos-peatonal-Lavalle_0_1677432308.html'
p13
aS'https://www.clarin.com/sociedad/festival-terror-monstruos-peatonal-Lavalle_0_1677432308.html'
p14
a.