(lp0
Vhttps://www.clarin.com/sociedad/Piden-perpetua-madre-quemada-acuchillada_0_1586241472.html
p1
aVhttps://www.clarin.com/sociedad/Piden-perpetua-madre-quemada-acuchillada_0_1586241472.html
p2
aVhttps://www.clarin.com/politica/Ordenan-seguir-investigando-Echegaray-autoridad_0_1586241470.html
p3
aVhttps://www.clarin.com/politica/Ordenan-seguir-investigando-Echegaray-autoridad_0_1586241470.html
p4
aVhttps://www.clarin.com/ieco/marketing-y-publicidad/Campana-Carlos-Dario-Lapiz-Platino_0_1586241467.html
p5
aVhttps://www.clarin.com/politica/Camara-Federal-declarar-Lazaro-Baez_0_1586241463.html
p6
aVhttps://www.clarin.com/politica/Camara-Federal-declarar-Lazaro-Baez_0_1586241463.html
p7
aVhttps://www.clarin.com/politica/fuertes-escrito-Baez-delitos-involucro_0_1586241462.html
p8
aVhttps://www.clarin.com/politica/fuertes-escrito-Baez-delitos-involucro_0_1586241462.html
p9
a.