(lp0
S'https://www.clarin.com/politica/intendentes-PJ-unieron-presupuesto-Vidal_0_1675032677.html'
p1
aS'https://www.clarin.com/politica/intendentes-PJ-unieron-presupuesto-Vidal_0_1675032677.html'
p2
aS'https://www.clarin.com/sociedad/Costa-aberracion-quitar-semana-XL_0_1675032674.html'
p3
aS'https://www.clarin.com/sociedad/Costa-aberracion-quitar-semana-XL_0_1675032674.html'
p4
aS'https://www.clarin.com/sociedad/destino-cenizas-cancha-equipo-amado_0_1675032675.html'
p5
aS'https://www.clarin.com/politica/Buscan-camporista-Wado-Pedro-PJ_0_1675032673.html'
p6
aS'https://www.clarin.com/politica/Buscan-camporista-Wado-Pedro-PJ_0_1675032673.html'
p7
aS'https://www.clarin.com/sociedad/Iglesia-posicion-concreta-practicas-oculten_0_1675032672.html'
p8
aS'https://www.clarin.com/sociedad/Iglesia-posicion-concreta-practicas-oculten_0_1675032672.html'
p9
a.