(lp0
S'https://www.clarin.com/politica/sindicalistas-dichos-Presidente-provocacion_0_1645035602.html'
p1
aS'https://www.clarin.com/ieco/economia/Carne-argentina-hamburguesas-chilenas_0_1645035607.html'
p2
aS'https://www.clarin.com/ieco/economia/mes-suben-asignaciones-familiares_0_1645035605.html'
p3
aS'https://www.clarin.com/sociedad/animan-nueva-vida-despues-jubilacion_0_1645035615.html'
p4
aS'https://www.clarin.com/ieco/Neuquen-apuesta-petroleo-ganar-habitantes_0_1645035612.html'
p5
a.