(lp0
Vhttps://www.clarin.com/ieco/Entra-vigencia-ley-fomento-autopartistas_0_1624037627.html
p1
aVhttps://www.clarin.com/ieco/Entra-vigencia-ley-fomento-autopartistas_0_1624037627.html
p2
aVhttps://www.clarin.com/politica/Plasmas-computadoras-denuncio-Vido-dadivas_0_1624037624.html
p3
aVhttps://www.clarin.com/politica/Plasmas-computadoras-denuncio-Vido-dadivas_0_1624037624.html
p4
aVhttps://www.clarin.com/ieco/semestre-subsidios-equivalieron-deficit-fiscal_0_1624037619.html
p5
aVhttps://www.clarin.com/ieco/semestre-subsidios-equivalieron-deficit-fiscal_0_1624037619.html
p6
aVhttps://www.clarin.com/politica/Tribunales-jovenes-amenazaron-Presidente-Twitter_0_1624037617.html
p7
aVhttps://www.clarin.com/politica/Tribunales-jovenes-amenazaron-Presidente-Twitter_0_1624037617.html
p8
aVhttps://www.clarin.com/politica/Cristina-midio-primer-reportaje-telefono_0_1624037615.html
p9
aVhttps://www.clarin.com/politica/Cristina-midio-primer-reportaje-telefono_0_1624037615.html
p10
aVhttps://www.clarin.com/ieco/siderurgica-Acindar-reduce-turnos-Rosario_0_1624037614.html
p11
aVhttps://www.clarin.com/ieco/siderurgica-Acindar-reduce-turnos-Rosario_0_1624037614.html
p12
aVhttps://www.clarin.com/sociedad/sindrome-Down-huerfano-maestra-adopto_0_1624037610.html
p13
aVhttps://www.clarin.com/sociedad/sindrome-Down-huerfano-maestra-adopto_0_1624037610.html
p14
aVhttps://www.clarin.com/sociedad/Descubren-orgasmo-femenino-clitoris-cambio_0_1624037606.html
p15
aVhttps://www.clarin.com/sociedad/Descubren-orgasmo-femenino-clitoris-cambio_0_1624037606.html
p16
a.