(lp0
S'https://www.clarin.com/sociedad/Segui-vivo-celebracion-Bicentenario-Tucuman_0_1610239022.html'
p1
aS'https://www.clarin.com/politica/Alicia-Kirchner-ausente-festejos-Bicentenario_0_1610239028.html'
p2
aS'https://www.clarin.com/politica/Sergio-Szpolski-dedica-seguridad-privada_0_1610239021.html'
p3
aS'https://www.clarin.com/politica/Cristina-coincidencia-mensaje-Papa_0_1610239025.html'
p4
a.