(lp0
S'https://www.clarin.com/politica/Allanaron-funcionario-Scioli-encontraron-escondida_0_1650435043.html'
p1
aS'https://www.clarin.com/politica/Allanaron-funcionario-Scioli-encontraron-escondida_0_1650435043.html'
p2
aS'https://www.clarin.com/sociedad/Quilmes-echaron-funcionarios-fumar-marihuana_0_1650435042.html'
p3
aS'https://www.clarin.com/sociedad/Quilmes-echaron-funcionarios-fumar-marihuana_0_1650435042.html'
p4
aS'https://www.clarin.com/politica/fiscal-Pollicita-Caballo-Suarez-excarcelado_0_1650435039.html'
p5
aS'https://www.clarin.com/politica/fiscal-Pollicita-Caballo-Suarez-excarcelado_0_1650435039.html'
p6
aS'https://www.clarin.com/sociedad/rugbier-San-Cirano-defiende-WhatsApp_0_1650435027.html'
p7
aS'https://www.clarin.com/sociedad/rugbier-San-Cirano-defiende-WhatsApp_0_1650435027.html'
p8
aS'https://www.clarin.com/ieco/economia/Dante-Sica-economia-mejora-finales_0_1650435038.html'
p9
aS'https://www.clarin.com/ieco/economia/Dante-Sica-economia-mejora-finales_0_1650435038.html'
p10
aS'https://www.clarin.com/politica/Rafecas-actuacion-denuncia-Nisman-irreprochable_0_1650435037.html'
p11
aS'https://www.clarin.com/politica/Rafecas-actuacion-denuncia-Nisman-irreprochable_0_1650435037.html'
p12
aS'https://www.clarin.com/sociedad/Insolito-aseguradora-incendiado-mansion-distancia_0_1650435034.html'
p13
aS'https://www.clarin.com/sociedad/Insolito-aseguradora-incendiado-mansion-distancia_0_1650435034.html'
p14
aS'https://www.clarin.com/politica/Ahora-verdura-Plaza-Mayo-larguisimas_0_1650435033.html'
p15
aS'https://www.clarin.com/politica/Ahora-verdura-Plaza-Mayo-larguisimas_0_1650435033.html'
p16
aS'https://www.clarin.com/politica/Bullrich-documentos-oficiales-Justicia-efedrina_0_1650435031.html'
p17
aS'https://www.clarin.com/politica/Bullrich-documentos-oficiales-Justicia-efedrina_0_1650435031.html'
p18
a.