(lp0
Vhttps://www.clarin.com/sociedad/chica-usar-bano-hombres_0_1567043305.html
p1
aVhttps://www.clarin.com/sociedad/chica-usar-bano-hombres_0_1567043305.html
p2
aVhttps://www.clarin.com/politica/Chueco-fiscal-recibir-dinero-desdijo_0_1567043323.html
p3
aVhttps://www.clarin.com/politica/Chueco-fiscal-recibir-dinero-desdijo_0_1567043323.html
p4
aVhttps://www.clarin.com/politica/Justicia-concentra-propiedades-Baez-Calafate_0_1567043294.html
p5
aVhttps://www.clarin.com/politica/Justicia-concentra-propiedades-Baez-Calafate_0_1567043294.html
p6
aVhttps://www.clarin.com/ieco/Ajuste-AFIP-idiomas-helicoptero-Echegaray_0_1567043313.html
p7
aVhttps://www.clarin.com/ieco/Ajuste-AFIP-idiomas-helicoptero-Echegaray_0_1567043313.html
p8
aVhttps://www.clarin.com/sociedad/argentino-rescates-Ecuador_0_1567043321.html
p9
aVhttps://www.clarin.com/sociedad/argentino-rescates-Ecuador_0_1567043321.html
p10
aVhttps://www.clarin.com/ieco/estacioneros-rechazan-nueva-suba-naftas_0_1567043322.html
p11
aVhttps://www.clarin.com/ieco/estacioneros-rechazan-nueva-suba-naftas_0_1567043322.html
p12
aVhttps://www.clarin.com/politica/proyecto-anti-despidos-preocupa-Macri_0_1567043316.html
p13
aVhttps://www.clarin.com/politica/proyecto-anti-despidos-preocupa-Macri_0_1567043316.html
p14
a.