(lp0
S'https://www.clarin.com/sociedad/Habilitaran-vacunatorios-fin-semana-Ciudad_0_1588041288.html'
p1
aS'https://www.clarin.com/ieco/economia/Tesoro-capto-US-millones-Letes_0_1588041325.html'
p2
aS'https://www.clarin.com/politica/Lazaro-Baez-quedo-Canicoba-Corral_0_1588041308.html'
p3
aS'https://www.clarin.com/politica/Michetti-confirmo-destitucion-Echegaray-AGN_0_1588041317.html'
p4
aS'https://www.clarin.com/politica/Carrio-denuncio-Scioli-fraude-bonaerense_0_1588041307.html'
p5
aS'https://www.clarin.com/politica/Termino-marcha-CTA-llamado-nacional_0_1588041310.html'
p6
a.