(lp0
Vhttps://www.clarin.com/politica/Media-sancion-Diputados-ley-arrepentido_0_1600640090.html
p1
aVhttps://www.clarin.com/politica/Media-sancion-Diputados-ley-arrepentido_0_1600640090.html
p2
aVhttps://www.clarin.com/sociedad/Relatos-victimas-violencia-Yoko-Ono_0_1600640086.html
p3
aVhttps://www.clarin.com/sociedad/Relatos-victimas-violencia-Yoko-Ono_0_1600640086.html
p4
aVhttps://www.clarin.com/politica/Malcorra-Reino-Unido-negociaciones-Malvinas_0_1600640089.html
p5
aVhttps://www.clarin.com/politica/Malcorra-Reino-Unido-negociaciones-Malvinas_0_1600640089.html
p6
aVhttps://www.clarin.com/sociedad/Desesperada-busqueda-chica-desaparecio-colegio_0_1600640084.html
p7
aVhttps://www.clarin.com/sociedad/Desesperada-busqueda-chica-desaparecio-colegio_0_1600640084.html
p8
aVhttps://www.clarin.com/sociedad/General-Belgrano-Reina-Nacional-Cerveza_0_1600640080.html
p9
aVhttps://www.clarin.com/sociedad/General-Belgrano-Reina-Nacional-Cerveza_0_1600640080.html
p10
aVhttps://www.clarin.com/politica/Sanchez-Conti-FpV-defender-delincuentes_0_1600640078.html
p11
aVhttps://www.clarin.com/politica/Sanchez-Conti-FpV-defender-delincuentes_0_1600640078.html
p12
aVhttps://www.clarin.com/ieco/economia/Copal-pidio-reformas-mejorar-competitividad_0_1600640075.html
p13
aVhttps://www.clarin.com/ieco/economia/Copal-pidio-reformas-mejorar-competitividad_0_1600640075.html
p14
a.