(lp0
S'https://www.clarin.com/opinion/cartera-abuela_0_1540645951.html'
p1
aS'https://www.clarin.com/politica/Giustiniani-Pino-juntos-contrato-YPF-Chevron_0_1540046410.html'
p2
aS'https://www.clarin.com/politica/fondos-buitre-hiper-Macri_0_1540645950.html'
p3
aS'https://www.clarin.com/sociedad/cura-Brochero-declarado-santo-octubre_0_1540646037.html'
p4
aS'https://www.clarin.com/politica/momentos-intensos-Moreno-Fantino_0_1540646003.html'
p5
aS'https://www.clarin.com/politica/Obama-haria-homenaje-victimas-dictadura_0_1540046440.html'
p6
aS'https://www.clarin.com/ieco/economia/Continua-efecto-tasas-dolar-centavos_0_1540046402.html'
p7
aS'https://www.clarin.com/ieco/economia/Gobierno-preparan-oficial-Macri-Cuba_0_1540046415.html'
p8
a.