(lp0
S'https://www.clarin.com/sociedad/marcha-inseguridad-justicia-organizada-victimas_0_1666633325.html'
p1
aS'https://www.clarin.com/sociedad/Personalidades-deportistas-unidos-inseguridad-injusticia_0_1666633326.html'
p2
aS'https://www.clarin.com/politica/boina-blanca-niega-nadie_0_1666633323.html'
p3
aS'https://www.clarin.com/politica/Plata-politica-cumbre-PRO-PJ_0_1666633324.html'
p4
aS'https://www.clarin.com/politica/Maria-Eugenia-Vidal-bonaerense-entrega_0_1666033538.html'
p5
a.