(lp0
Vhttps://www.clarin.com/politica/Oficializan-designacion-Rodolfo-Terragno-Unesco_0_1516648447.html
p1
aVhttps://www.clarin.com/politica/Oficializan-designacion-Rodolfo-Terragno-Unesco_0_1516648447.html
p2
aVhttps://www.clarin.com/ieco/economia/compraventa-propiedades-Capital-sigue-recuperandose_0_1516048600.html
p3
aVhttps://www.clarin.com/politica/sergio_massa-elisa_carrio-mauricio_macri-paritarias-impuesto_a_las_ganancias_0_1516048620.html
p4
aVhttps://www.clarin.com/politica/sergio_massa-elisa_carrio-mauricio_macri-paritarias-impuesto_a_las_ganancias_0_1516048620.html
p5
aVhttps://www.clarin.com/politica/ATE-paro-medida-fuerza-Estado_0_1516048706.html
p6
aVhttps://www.clarin.com/ieco/economia/Cayo-enero-produccion-autos-exportaciones_0_1516048750.html
p7
aVhttps://www.clarin.com/politica/Congreso-Frente_para_la_Victoria-Gobierno-macrismo-PRO-Camara_de_Diputados_0_1516648402.html
p8
aVhttps://www.clarin.com/politica/PRO-jugo-fichas-aislo-duros_0_1516648379.html
p9
aVhttps://www.clarin.com/politica/Comenzo-realineamiento-PJ_0_1516648376.html
p10
aVhttps://www.clarin.com/politica/Assange-anticipa-ONU-piensa-entregarse_0_1516648367.html
p11
aVhttps://www.clarin.com/politica/Assange-anticipa-ONU-piensa-entregarse_0_1516648367.html
p12
aVhttps://www.clarin.com/politica/Diputados-fracturo-FpV-primera-minoria_0_1516648369.html
p13
aVhttps://www.clarin.com/politica/Diputados-fracturo-FpV-primera-minoria_0_1516648369.html
p14
aVhttps://www.clarin.com/sociedad/precio-vuelos-cabotaje-aumentar-limite_0_1516048830.html
p15
aVhttps://www.clarin.com/sociedad/precio-vuelos-cabotaje-aumentar-limite_0_1516048830.html
p16
a.