(lp0
S'https://www.clarin.com/sociedad/sommeliers-argentinos-buscan-ganar-Mundial_0_1558044387.html'
p1
aS'https://www.clarin.com/sociedad/sommeliers-argentinos-buscan-ganar-Mundial_0_1558044387.html'
p2
aS'https://www.clarin.com/politica/Cristina-renuncio-posibilidad-defenderse_0_1558044382.html'
p3
aS'https://www.clarin.com/politica/Cristina-renuncio-posibilidad-defenderse_0_1558044382.html'
p4
aS'https://www.clarin.com/sociedad/historia-docente-marplatense-aprobo-alumna_0_1558044378.html'
p5
aS'https://www.clarin.com/sociedad/historia-docente-marplatense-aprobo-alumna_0_1558044378.html'
p6
aS'https://www.clarin.com/sociedad/Cientificos-crearon-embriones-inmunes-VIH_0_1558044347.html'
p7
aS'https://www.clarin.com/sociedad/Cientificos-crearon-embriones-inmunes-VIH_0_1558044347.html'
p8
aS'https://www.clarin.com/ieco/Manana-atencion-bancos_0_1558044374.html'
p9
aS'https://www.clarin.com/ieco/Manana-atencion-bancos_0_1558044374.html'
p10
aS'https://www.clarin.com/politica/DElia-vigilia-Tribunales-paso-CFK_0_1558044371.html'
p11
aS'https://www.clarin.com/politica/DElia-vigilia-Tribunales-paso-CFK_0_1558044371.html'
p12
aS'https://www.clarin.com/politica/Cristina-habla-Tribunales-pueden-callar_0_1558044372.html'
p13
aS'https://www.clarin.com/politica/Cristina-habla-Tribunales-pueden-callar_0_1558044372.html'
p14
a.