(lp0
S'https://www.clarin.com/sociedad/Hallan-Bolivia-restos-mujer-anos_0_1636036491.html'
p1
aS'https://www.clarin.com/politica/Stolbizer-denuncias-Cristina-Siento-expresando_0_1636036470.html'
p2
a.