(lp0
S'https://www.clarin.com/politica/Macri-rodea-inversores-mejorar-economico_0_1648035273.html'
p1
aS'https://www.clarin.com/politica/Macri-rodea-inversores-mejorar-economico_0_1648035273.html'
p2
aS'https://www.clarin.com/politica/Denuncian-Justicia-Sabbatella-complicidad-Szpolski_0_1648035272.html'
p3
aS'https://www.clarin.com/politica/Denuncian-Justicia-Sabbatella-complicidad-Szpolski_0_1648035272.html'
p4
aS'https://www.clarin.com/sociedad/epidemia-global-soledad-combate-centers_0_1648035271.html'
p5
aS'https://www.clarin.com/sociedad/epidemia-global-soledad-combate-centers_0_1648035271.html'
p6
aS'https://www.clarin.com/politica/Lazaro-Baez-cuestiono-velocidad-mediatica_0_1648035270.html'
p7
aS'https://www.clarin.com/politica/Lazaro-Baez-cuestiono-velocidad-mediatica_0_1648035270.html'
p8
aS'https://www.clarin.com/sociedad/Convocan-caminata-concientizar-distrofia-muscular_0_1648035264.html'
p9
aS'https://www.clarin.com/sociedad/Convocan-caminata-concientizar-distrofia-muscular_0_1648035264.html'
p10
a.