(lp0
S'https://www.clarin.com/politica/Impiden-familia-Nisman-Corte-reclamos_0_1640836023.html'
p1
aS'https://www.clarin.com/politica/Piden-perpetua-jueces-complices-dictadura_0_1640836018.html'
p2
aS'https://www.clarin.com/sociedad/Investigan-venta-calaveras-esqueletos-cementerio_0_1640836037.html'
p3
a.