(lp0
S'https://www.clarin.com/sociedad/madre-internada-Qatar-vayan-desconectarla_0_1561643869.html'
p1
aS'https://www.clarin.com/ieco/economia/Prat-Gay-reconocio-inflacion-salto-importe_0_1561643881.html'
p2
aS'https://www.clarin.com/politica/Franco-Macri-Kirchner-confirscaron-Correo_0_1561643876.html'
p3
aS'https://www.clarin.com/ieco/Prat-Gay-viernes-Argentina-pondra-dia_0_1561643879.html'
p4
aS'https://www.clarin.com/politica/Baez-semanas-deteriorado-familiares-politica_0_1561643872.html'
p5
aS'https://www.clarin.com/politica/Confesion-diputada-Voy-decente-anos_0_1561643870.html'
p6
a.