(lp0
Vhttps://www.clarin.com/sociedad/perros-famosos-presidentes_0_1506449552.html
p1
aVhttps://www.clarin.com/sociedad/perros-famosos-presidentes_0_1506449552.html
p2
aVhttps://www.clarin.com/politica/Cristina_Kirchner-sindicalistas-trabajo-video-El_Calafate_0_1506449558.html
p3
aVhttps://www.clarin.com/politica/Cristina-justifico-contratos-Aerolineas-ocupacion_0_1506449550.html
p4
aVhttps://www.clarin.com/politica/Cristina-justifico-contratos-Aerolineas-ocupacion_0_1506449550.html
p5
aVhttps://www.clarin.com/ieco/economia/ritmo-liquidacion-divisas_0_1506449543.html
p6
aVhttps://www.clarin.com/ieco/economia/ritmo-liquidacion-divisas_0_1506449543.html
p7
aVhttps://www.clarin.com/politica/Confirman-Macri-viajara-Davos-costilla_0_1506449534.html
p8
aVhttps://www.clarin.com/politica/Confirman-Macri-viajara-Davos-costilla_0_1506449534.html
p9
a.