(lp0
Vhttps://www.clarin.com/politica/camara-federal-sobreseimiento-Liuzzi-Zannini_0_1550245213.html
p1
aVhttps://www.clarin.com/politica/camara-federal-sobreseimiento-Liuzzi-Zannini_0_1550245213.html
p2
aVhttps://www.clarin.com/ieco/economia/caida-materias-primas-seguir-viento_0_1550245208.html
p3
aVhttps://www.clarin.com/ieco/economia/caida-materias-primas-seguir-viento_0_1550245208.html
p4
aVhttps://www.clarin.com/politica/Dolar-futuro-recusan-juez-Bonadio_0_1550245206.html
p5
aVhttps://www.clarin.com/politica/Dolar-futuro-recusan-juez-Bonadio_0_1550245206.html
p6
aVhttps://www.clarin.com/ieco/economia/Gobierno-creara-millones-energias-renovables_0_1550245202.html
p7
aVhttps://www.clarin.com/ieco/economia/Gobierno-creara-millones-energias-renovables_0_1550245202.html
p8
aVhttps://www.clarin.com/sociedad/Anuncian-botones-antipanico-policias-hospitales_0_1550245200.html
p9
aVhttps://www.clarin.com/sociedad/Anuncian-botones-antipanico-policias-hospitales_0_1550245200.html
p10
aVhttps://www.clarin.com/politica/Premian-empresa-argentina-Washington-Macri_0_1550245201.html
p11
aVhttps://www.clarin.com/politica/Premian-empresa-argentina-Washington-Macri_0_1550245201.html
p12
aVhttps://www.clarin.com/politica/Gobierno-pide-querellante-causa-Hotesur_0_1550245198.html
p13
aVhttps://www.clarin.com/politica/Gobierno-pide-querellante-causa-Hotesur_0_1550245198.html
p14
aVhttps://www.clarin.com/sociedad/Video-gran-tormenta-ciudad-Florida_0_1550245194.html
p15
aVhttps://www.clarin.com/sociedad/Video-gran-tormenta-ciudad-Florida_0_1550245194.html
p16
a.