(lp0
S'https://www.clarin.com/opinion/cambalache-Rosadita-ajuste_0_1550845292.html'
p1
aS'https://www.clarin.com/opinion/Lilita-ultima-jacobina_0_1551444907.html'
p2
aS'https://www.clarin.com/sociedad/tragedia-desnudo-descontrol-lanchas-Delta_0_1550845337.html'
p3
aS'https://www.clarin.com/sociedad/tragedia-desnudo-descontrol-lanchas-Delta_0_1550845337.html'
p4
aS'https://www.clarin.com/sociedad/lugar-accidente-Julio-agua-controles_0_1550845362.html'
p5
aS'https://www.clarin.com/sociedad/Confirman-primeros-muertos-dengue-Capital_0_1550845355.html'
p6
aS'https://www.clarin.com/sociedad/Confirman-primeros-muertos-dengue-Capital_0_1550845355.html'
p7
aS'https://www.clarin.com/politica/Gobierno-admiten-despidos_0_1550845366.html'
p8
aS'https://www.clarin.com/politica/Gobierno-admiten-despidos_0_1550845366.html'
p9
aS'https://www.clarin.com/opinion/Justicia-problema-numero-pais_0_1551444899.html'
p10
a.