(lp0
S'https://www.clarin.com/sociedad/Hoy-precios-temporada-Mar-Plata_0_1642035806.html'
p1
aS'https://www.clarin.com/politica/Justicia-intenta-fortuna-Lazaro-Baez_0_1641435979.html'
p2
aS'https://www.clarin.com/sociedad/Volvieron-aumentar-cigarrillos-nuevos-precios_0_1642035813.html'
p3
aS'https://www.clarin.com/politica/Suiza-Argentina-vinculadas-Lazaro-Baez_0_1642035807.html'
p4
aS'https://www.clarin.com/politica/Elisa-Carrio-Aduana-puede-morir_0_1642035805.html'
p5
a.