(lp0
Vhttps://www.clarin.com/sociedad/Tijeras-estudian-peluqueria-alcanzar-futuro_0_1679832002.html
p1
aVhttps://www.clarin.com/sociedad/Tijeras-estudian-peluqueria-alcanzar-futuro_0_1679832002.html
p2
aVhttps://www.clarin.com/sociedad/peluquerias-generadoras-empleo_0_1679832025.html
p3
aVhttps://www.clarin.com/sociedad/peluquerias-generadoras-empleo_0_1679832025.html
p4
aVhttps://www.clarin.com/politica/Pichetto-polemico-Cuanta-recibiendo-inmigrantes_0_1679832021.html
p5
aVhttps://www.clarin.com/politica/Pichetto-polemico-Cuanta-recibiendo-inmigrantes_0_1679832021.html
p6
aVhttps://www.clarin.com/sociedad/salto-paracaidas-celebrar-Dia-Muertos_0_1679832020.html
p7
aVhttps://www.clarin.com/sociedad/salto-paracaidas-celebrar-Dia-Muertos_0_1679832020.html
p8
aVhttps://www.clarin.com/politica/Hoy-Lazaro-Baez-declarar-corrupcion_0_1679832014.html
p9
aVhttps://www.clarin.com/politica/Hoy-Lazaro-Baez-declarar-corrupcion_0_1679832014.html
p10
a.