(lp0
S'https://www.clarin.com/ieco/economia/AFIP-publico-liquidar-Bienes-Personales_0_1538246323.html'
p1
aS'https://www.clarin.com/sociedad/confirmo-contaminacion-derrame-cianuro-Veladero_0_1538246338.html'
p2
aS'https://www.clarin.com/ieco/economia/CAME-levantamiento-restricciones-comprar-exterior_0_1538246333.html'
p3
a.