(lp0
S'https://www.clarin.com/sociedad/Brasil-jaguar-participo-ceremonia-olimpica_0_1600040030.html'
p1
aS'https://www.clarin.com/sociedad/Brasil-jaguar-participo-ceremonia-olimpica_0_1600040030.html'
p2
aS'https://www.clarin.com/ieco/economia/Volkswagen-revision-vehiculos-escandalo-diesel_0_1600040029.html'
p3
aS'https://www.clarin.com/ieco/economia/Volkswagen-revision-vehiculos-escandalo-diesel_0_1600040029.html'
p4
aS'https://www.clarin.com/politica/movilizacion-Camioneros-paritaria-complicaria-transito_0_1600040025.html'
p5
aS'https://www.clarin.com/politica/movilizacion-Camioneros-paritaria-complicaria-transito_0_1600040025.html'
p6
aS'https://www.clarin.com/politica/Macri-muletas_0_1600040024.html'
p7
aS'https://www.clarin.com/politica/Macri-muletas_0_1600040024.html'
p8
aS'https://www.clarin.com/sociedad/Picasso-subasto-US-millones-cubista_0_1600040023.html'
p9
aS'https://www.clarin.com/sociedad/Picasso-subasto-US-millones-cubista_0_1600040023.html'
p10
aS'https://www.clarin.com/politica/cuaderno-Arte-Nestor-Cristina-Aca_0_1600040010.html'
p11
aS'https://www.clarin.com/politica/cuaderno-Arte-Nestor-Cristina-Aca_0_1600040010.html'
p12
aS'https://www.clarin.com/ieco/economia/Amplian-US-millones-Letras-provincia_0_1600040021.html'
p13
aS'https://www.clarin.com/ieco/economia/Amplian-US-millones-Letras-provincia_0_1600040021.html'
p14
a.