(lp0
S'https://www.clarin.com/politica/Frigerio-confirmo-Ganancias-sesiones-extraordinarias_0_1690031094.html'
p1
aS'https://www.clarin.com/politica/Macri-Vamos-elecciones-quiere-seguir_0_1690031107.html'
p2
aS'https://www.clarin.com/sociedad/Naciones-Unidas-Argentina-mortalidad-violencia_0_1690031099.html'
p3
aS'https://www.clarin.com/politica/Macri-gradualismo-rechazar-acuerdos-reclamarlos_0_1690031095.html'
p4
aS'https://www.clarin.com/sociedad/Sneakerheads-descalzos-sencillos_0_1690031091.html'
p5
aS'https://www.clarin.com/politica/Macri-optimista-logramos-bajando-inflacion_0_1690031097.html'
p6
a.