(lp0
S'https://www.clarin.com/sociedad/Embargan-Szpolski-Garfunkel-Radio-America_0_1540646438.html'
p1
aS'https://www.clarin.com/ieco/Griesa-dolares-pagar-podran-embargar_0_1540646429.html'
p2
aS'https://www.clarin.com/sociedad/Semana-Santa-quedan-pasajes-tren_0_1540646398.html'
p3
aS'https://www.clarin.com/sociedad/yerba-mate-argentina-sello-propio_0_1540646395.html'
p4
aS'https://www.clarin.com/sociedad/Extienden-plan-oficial-pagar-cuotas_0_1540646396.html'
p5
aS'https://www.clarin.com/opinion/obsesionespasado-futuro_0_1540646375.html'
p6
aS'https://www.clarin.com/politica/Campora-marcho-junto-izquierda-proyecto_0_1540646412.html'
p7
a.