(lp0
Vhttps://www.clarin.com/politica/intendente-Conurbano-inversiones-hombres-planeta_0_1681031970.html
p1
aVhttps://www.clarin.com/politica/intendente-Conurbano-inversiones-hombres-planeta_0_1681031970.html
p2
aVhttps://www.clarin.com/sociedad/pilotos-LATAM-asamblea-Aeroparque_0_1681031965.html
p3
aVhttps://www.clarin.com/sociedad/pilotos-LATAM-asamblea-Aeroparque_0_1681031965.html
p4
aVhttps://www.clarin.com/politica/Radio-Nacional-impulsan-realmente-federal_0_1681031962.html
p5
a.