(lp0
S'https://www.clarin.com/politica/empresario-Tomeo-desafio-Anibal-Fernandez_0_1655834537.html'
p1
aS'https://www.clarin.com/ieco/campus-ieco/carreras-salen-busca-secundarios_0_1655834538.html'
p2
aS'https://www.clarin.com/sociedad/Rosetta-acerca-historica-mision-cometa_0_1655834498.html'
p3
a.