(lp0
Vhttps://www.clarin.com/sociedad/Misa-Stone-termino-sacerdote-Richards_0_1517248690.html
p1
aVhttps://www.clarin.com/ieco/fondos_buitre-Daniel_Pollack-Thomas_Griesa-Luis_Caputo-Mario_Quintana-NML-Aurelius_0_1517248662.html
p2
aVhttps://www.clarin.com/ieco/fondos_buitre-Daniel_Pollack-Thomas_Griesa-Luis_Caputo-Mario_Quintana-NML-Aurelius_0_1517248662.html
p3
aVhttps://www.clarin.com/politica/Amado_Boudou-funcionario-conducta_uniforme_0_1517248651.html
p4
a.