(lp0
S'https://www.clarin.com/politica/Marcos-Pena-Lopez-Esperamos-explicaciones_0_1595240516.html'
p1
aS'https://www.clarin.com/politica/Marcos-Pena-Lopez-Esperamos-explicaciones_0_1595240516.html'
p2
aS'https://www.clarin.com/politica/Aseguran-Vido-Monsenor-Di-Monte_0_1595240512.html'
p3
aS'https://www.clarin.com/politica/Aseguran-Vido-Monsenor-Di-Monte_0_1595240512.html'
p4
aS'https://www.clarin.com/politica/protegido-Kirchner-millonarios-Lazaro-Baez_0_1595240511.html'
p5
aS'https://www.clarin.com/politica/protegido-Kirchner-millonarios-Lazaro-Baez_0_1595240511.html'
p6
aS'https://www.clarin.com/politica/Vidal-Macri-detencion-Gobierno-asombro_0_1595240510.html'
p7
aS'https://www.clarin.com/politica/Vidal-Macri-detencion-Gobierno-asombro_0_1595240510.html'
p8
aS'https://www.clarin.com/sociedad/Desaparece-primera-especie-mamifero-climatico_0_1595240507.html'
p9
aS'https://www.clarin.com/sociedad/Desaparece-primera-especie-mamifero-climatico_0_1595240507.html'
p10
aS'https://www.clarin.com/politica/Jose-Lopez-detuvieron-relojes-carabina_0_1595240506.html'
p11
aS'https://www.clarin.com/politica/Jose-Lopez-detuvieron-relojes-carabina_0_1595240506.html'
p12
aS'https://www.clarin.com/politica/Cristina-Comodoro-Py-apunta-Bonadio_0_1595240505.html'
p13
aS'https://www.clarin.com/politica/Cristina-Comodoro-Py-apunta-Bonadio_0_1595240505.html'
p14
aS'https://www.clarin.com/ieco/economia/Luego-retenciones-asegura-comenzo-reactivarse_0_1595240504.html'
p15
aS'https://www.clarin.com/ieco/economia/Luego-retenciones-asegura-comenzo-reactivarse_0_1595240504.html'
p16
aS'https://www.clarin.com/sociedad/Video-aviones-aterrizan-paralelo-tiempo_0_1595240501.html'
p17
aS'https://www.clarin.com/sociedad/Video-aviones-aterrizan-paralelo-tiempo_0_1595240501.html'
p18
a.