(lp0
S'https://www.clarin.com/politica/Anibal-Fernandez-Bullrich-Perez-Corradi_0_1598840146.html'
p1
aS'https://www.clarin.com/politica/Trasladan-Perez-Corradi-Asuncion-indagarlo_0_1598840135.html'
p2
aS'https://www.clarin.com/sociedad/argentino-chaqueta-Hitler-subastada-Munich_0_1598840139.html'
p3
aS'https://www.clarin.com/politica/treinta-identikits-Perez-Corradi-Interpol_0_1598840140.html'
p4
aS'https://www.clarin.com/ieco/economia/Hector-Mendez-publica-Movicom-adelante_0_1598840145.html'
p5
aS'https://www.clarin.com/politica/proteccion-pullover-precipitaron-Perez-Corradi_0_1598840136.html'
p6
aS'https://www.clarin.com/sociedad/disputa-herencia-Garcia-Uriburu-hija_0_1598840142.html'
p7
aS'https://www.clarin.com/politica/Duro-editorial-Longobardi-Cristina-disculpas_0_1598840149.html'
p8
a.