(lp0
S'https://www.clarin.com/sociedad/Misiones-chicas-desplomaron-escuela-alcoholico_0_1655834470.html'
p1
aS'https://www.clarin.com/politica/podra-disponer-dolares-Antonini-Wilson_0_1655834464.html'
p2
aS'https://www.clarin.com/politica/podra-disponer-dolares-Antonini-Wilson_0_1655834464.html'
p3
aS'https://www.clarin.com/sociedad/sexualidad-personalidad-piedras-parodia-Nobel_0_1655834463.html'
p4
aS'https://www.clarin.com/sociedad/sexualidad-personalidad-piedras-parodia-Nobel_0_1655834463.html'
p5
aS'https://www.clarin.com/ieco/economia/Ambientalistas-frenar-represas-Santa-Cruz_0_1655834462.html'
p6
aS'https://www.clarin.com/ieco/economia/Ambientalistas-frenar-represas-Santa-Cruz_0_1655834462.html'
p7
aS'https://www.clarin.com/sociedad/Video-youtuber-experiencia-fiesta-Moreno_0_1655834460.html'
p8
aS'https://www.clarin.com/sociedad/Video-youtuber-experiencia-fiesta-Moreno_0_1655834460.html'
p9
aS'https://www.clarin.com/ieco/Desplazan-ilegitimidad-manifiesta-Kicillof-BCRA_0_1655834458.html'
p10
aS'https://www.clarin.com/ieco/Desplazan-ilegitimidad-manifiesta-Kicillof-BCRA_0_1655834458.html'
p11
a.