(lp0
S'https://www.clarin.com/ieco/economia/Fiat-despedira-incorporara-personal-dentro_0_1574242596.html'
p1
aS'https://www.clarin.com/ieco/economia/Fiat-despedira-incorporara-personal-dentro_0_1574242596.html'
p2
aS'https://www.clarin.com/sociedad/hormiga-enemigo-llevarse-sueldos-anuales_0_1574242586.html'
p3
aS'https://www.clarin.com/sociedad/hormiga-enemigo-llevarse-sueldos-anuales_0_1574242586.html'
p4
aS'https://www.clarin.com/ieco/Consumidores-Provincia-sumaron-boicot-super_0_1574242591.html'
p5
aS'https://www.clarin.com/ieco/Consumidores-Provincia-sumaron-boicot-super_0_1574242591.html'
p6
aS'https://www.clarin.com/politica/empresa-Cristina-sectores-Poder-Judicial_0_1574242589.html'
p7
aS'https://www.clarin.com/politica/empresa-Cristina-sectores-Poder-Judicial_0_1574242589.html'
p8
aS'https://www.clarin.com/ieco/Difundieron-nombres-firmas-offshore-argentinas_0_1574242584.html'
p9
aS'https://www.clarin.com/ieco/Difundieron-nombres-firmas-offshore-argentinas_0_1574242584.html'
p10
aS'https://www.clarin.com/sociedad/Hablo-decorosa-mujer-calzas-excitando_0_1574242583.html'
p11
aS'https://www.clarin.com/sociedad/Hablo-decorosa-mujer-calzas-excitando_0_1574242583.html'
p12
aS'https://www.clarin.com/ieco/Difundieron-nombres-firmas-offshore-argentinas_0_1574242585.html'
p13
aS'https://www.clarin.com/ieco/Difundieron-nombres-firmas-offshore-argentinas_0_1574242585.html'
p14
a.