(lp0
S'https://www.clarin.com/politica/Das-Neves-Cristina-Scioli-Anibal_0_1520848084.html'
p1
aS'https://www.clarin.com/politica/Das-Neves-Cristina-Scioli-Anibal_0_1520848084.html'
p2
aS'https://www.clarin.com/ieco/economia/viernes-anuncios-nuevo-sistema-precios_0_1520848078.html'
p3
aS'https://www.clarin.com/ieco/economia/viernes-anuncios-nuevo-sistema-precios_0_1520848078.html'
p4
aS'https://www.clarin.com/ieco/economia/adherirse-pagos-AFIP-deudores-impositivos_0_1520848060.html'
p5
aS'https://www.clarin.com/ieco/frigorificos-carne-cara-supermercados_0_1520848066.html'
p6
aS'https://www.clarin.com/ieco/frigorificos-carne-cara-supermercados_0_1520848066.html'
p7
aS'https://www.clarin.com/politica/Cristobal-Lopez-crecimiento-millonario-empresas_0_1520848044.html'
p8
aS'https://www.clarin.com/politica/Cristobal-Lopez-crecimiento-millonario-empresas_0_1520848044.html'
p9
aS'https://www.clarin.com/politica/Gobierno-podria-anunciar-aumento-jubilaciones_0_1520848061.html'
p10
aS'https://www.clarin.com/politica/Gobierno-podria-anunciar-aumento-jubilaciones_0_1520848061.html'
p11
aS'https://www.clarin.com/ieco/economia/segunda-Gobierno-adelanto-financiero-Jujuy_0_1520848057.html'
p12
aS'https://www.clarin.com/ieco/economia/segunda-Gobierno-adelanto-financiero-Jujuy_0_1520848057.html'
p13
a.