(lp0
Vhttps://www.clarin.com/politica/familiar-Baez-millones-diferencias-defensa_0_1682231820.html
p1
aVhttps://www.clarin.com/politica/familiar-Baez-millones-diferencias-defensa_0_1682231820.html
p2
aVhttps://www.clarin.com/sociedad/sigo-victima-muchas-formas-violencia_0_1681631966.html
p3
aVhttps://www.clarin.com/sociedad/sigo-victima-muchas-formas-violencia_0_1681631966.html
p4
aVhttps://www.clarin.com/politica/indice-satisfaccion-Gobierno-mantuvo-estable_0_1682231814.html
p5
aVhttps://www.clarin.com/sociedad/Marcharon-justicia-crimen-argentino-Brasil_0_1682231809.html
p6
aVhttps://www.clarin.com/sociedad/Marcharon-justicia-crimen-argentino-Brasil_0_1682231809.html
p7
a.