(lp0
Vhttps://www.clarin.com/sociedad/Aseguran-filtracion-preguntas-invalida-Aprender_0_1670832967.html
p1
aVhttps://www.clarin.com/sociedad/Aseguran-filtracion-preguntas-invalida-Aprender_0_1670832967.html
p2
aVhttps://www.clarin.com/ieco/economia/Beneficio-fiscal-contratar-victimas-delito_0_1670832968.html
p3
aVhttps://www.clarin.com/ieco/economia/Beneficio-fiscal-contratar-victimas-delito_0_1670832968.html
p4
aVhttps://www.clarin.com/ieco/economia/YPF-Neuquen-inversiones-US-millones_0_1670832965.html
p5
aVhttps://www.clarin.com/ieco/economia/YPF-Neuquen-inversiones-US-millones_0_1670832965.html
p6
aVhttps://www.clarin.com/politica/jefes-CGT-puso-piso-bono_0_1670832964.html
p7
aVhttps://www.clarin.com/politica/jefes-CGT-puso-piso-bono_0_1670832964.html
p8
aVhttps://www.clarin.com/politica/advertencia-gobernador-opositor-Macri_0_1670832960.html
p9
aVhttps://www.clarin.com/politica/advertencia-gobernador-opositor-Macri_0_1670832960.html
p10
aVhttps://www.clarin.com/politica/Gobierno-crisis-AFA-vamos-meter_0_1670832958.html
p11
aVhttps://www.clarin.com/politica/Gobierno-crisis-AFA-vamos-meter_0_1670832958.html
p12
aVhttps://www.clarin.com/ieco/Entra-vigencia-otorga-beneficios-fiscales_0_1670832954.html
p13
aVhttps://www.clarin.com/ieco/Entra-vigencia-otorga-beneficios-fiscales_0_1670832954.html
p14
aVhttps://www.clarin.com/ieco/economia/Autonomos-monotributistas-cambio-forma-impuesto_0_1670832953.html
p15
aVhttps://www.clarin.com/ieco/economia/Autonomos-monotributistas-cambio-forma-impuesto_0_1670832953.html
p16
a.