(lp0
Vhttps://www.clarin.com/sociedad/Universidad-terminan-pocos-carreras-estrategicas_0_1655834606.html
p1
aVhttps://www.clarin.com/sociedad/Universidad-terminan-pocos-carreras-estrategicas_0_1655834606.html
p2
aVhttps://www.clarin.com/politica/Stiuso-ofrecieron-departamentos-investigar-Lauchon_0_1655834593.html
p3
aVhttps://www.clarin.com/politica/Stiuso-ofrecieron-departamentos-investigar-Lauchon_0_1655834593.html
p4
aVhttps://www.clarin.com/sociedad/escasa-graduacion_0_1655834605.html
p5
aVhttps://www.clarin.com/sociedad/formacion-calidad-comprometida_0_1655834603.html
p6
aVhttps://www.clarin.com/politica/Macri-ONU-Juliana-Awada-Nueva_0_1655834601.html
p7
aVhttps://www.clarin.com/politica/Macri-ONU-Juliana-Awada-Nueva_0_1655834601.html
p8
aVhttps://www.clarin.com/politica/seducir-gobernadores-suben-giros-provincias_0_1655834600.html
p9
aVhttps://www.clarin.com/sociedad/innovacion-camino-futuro-educacion_0_1655834599.html
p10
aVhttps://www.clarin.com/politica/Opiniones-encontradas-kelpers-acuerdo-Argentina_0_1655834591.html
p11
aVhttps://www.clarin.com/politica/Tarjetas-bancos-ofrecen-comisiones-usuarios_0_1655834596.html
p12
a.