(lp0
Vhttps://www.clarin.com/politica/protesta-impacto-transito-administracion-publica_0_1567643402.html
p1
aVhttps://www.clarin.com/politica/Allanaron-Milagro-Sala-encontraron-billetes_0_1567643399.html
p2
aVhttps://www.clarin.com/politica/Allanaron-Milagro-Sala-encontraron-billetes_0_1567643399.html
p3
aVhttps://www.clarin.com/politica/Enfrentamientos-tiros-aire-Lanus_0_1567643393.html
p4
aVhttps://www.clarin.com/politica/Enfrentamientos-tiros-aire-Lanus_0_1567643393.html
p5
aVhttps://www.clarin.com/politica/Disparos-corridas-Lanus-suspenden-Grindetti_0_1567643390.html
p6
aVhttps://www.clarin.com/politica/Disparos-corridas-Lanus-suspenden-Grindetti_0_1567643390.html
p7
a.