(lp0
S'https://www.clarin.com/sociedad/San-Luis-ataco-patadas-preceptor_0_1584441609.html'
p1
aS'https://www.clarin.com/sociedad/San-Luis-ataco-patadas-preceptor_0_1584441609.html'
p2
aS'https://www.clarin.com/politica/AFIP-investigara-comerciales-Sauces-inquilinos_0_1584441604.html'
p3
aS'https://www.clarin.com/politica/AFIP-investigara-comerciales-Sauces-inquilinos_0_1584441604.html'
p4
aS'https://www.clarin.com/sociedad/Alerta-bacteria-pesadilla_0_1584441605.html'
p5
aS'https://www.clarin.com/sociedad/Alerta-bacteria-pesadilla_0_1584441605.html'
p6
aS'https://www.clarin.com/ieco/economia/Juicios-jubilatorios-acepten-oficial-haberes_0_1584441603.html'
p7
aS'https://www.clarin.com/ieco/economia/Juicios-jubilatorios-acepten-oficial-haberes_0_1584441603.html'
p8
aS'https://www.clarin.com/politica/Jaimito-Duran-Barba-imitacion-Macri_0_1584441600.html'
p9
aS'https://www.clarin.com/politica/Jaimito-Duran-Barba-imitacion-Macri_0_1584441600.html'
p10
aS'https://www.clarin.com/ieco/detalles-blanqueo-moratoria-premio-cumplidores_0_1584441601.html'
p11
aS'https://www.clarin.com/ieco/detalles-blanqueo-moratoria-premio-cumplidores_0_1584441601.html'
p12
aS'https://www.clarin.com/ieco/Macri-exterior-millones-dolares-argentinos_0_1584441597.html'
p13
a.