(lp0
S'https://www.clarin.com/opinion/Pablo_Calvo-Pasiones_argentinas_0_1517248276.html'
p1
aS'https://www.clarin.com/politica/campana_antartica-Schneiter-marino-armada_0_1517248275.html'
p2
aS'https://www.clarin.com/sociedad/Crecieron-consultas-aparatos-consumen_0_1516648751.html'
p3
aS'https://www.clarin.com/sociedad/paso-acceder-beneficio-tarifa-social_0_1516648754.html'
p4
aS'https://www.clarin.com/sociedad/Usar-acondicionado-ahora-factura-mensual_0_1516648766.html'
p5
aS'https://www.clarin.com/politica/macri-llamados-gobernadores-senadores_0_1517248279.html'
p6
aS'https://www.clarin.com/politica/Corte_Suprema_de_Justicia-traspaso-escuchas_judiciales_0_1517248277.html'
p7
a.