(lp0
S'https://www.clarin.com/ieco/economia/dolar-sigue-subiendo-avanza-centavos_0_1517248543.html'
p1
aS'https://www.clarin.com/sociedad/Washington-video-panda-bebe-enternece_0_1517248583.html'
p2
aS'https://www.clarin.com/sociedad/Washington-video-panda-bebe-enternece_0_1517248583.html'
p3
aS'https://www.clarin.com/sociedad/Encuentran-mellizas-muertas-sospecha-suicida_0_1517248600.html'
p4
aS'https://www.clarin.com/sociedad/Encuentran-mellizas-muertas-sospecha-suicida_0_1517248600.html'
p5
aS'https://www.clarin.com/ieco/economia/Macri-elevo-corte-bioetanol-combustibles_0_1517248591.html'
p6
aS'https://www.clarin.com/sociedad/Manija-Stone-pasan-fanaticos-banda_0_1517248593.html'
p7
aS'https://www.clarin.com/sociedad/Manija-Stone-pasan-fanaticos-banda_0_1517248593.html'
p8
a.