(lp0
S'https://www.clarin.com/opinion/Buenos-Aires-Nueva-York-Berlin_0_1543046034.html'
p1
aS'https://www.clarin.com/opinion/Dilma-poder-Lula-salvar-Gobierno_0_1543645651.html'
p2
aS'https://www.clarin.com/opinion/Sergio-Sapo-Villar-crack-pared_0_1543046027.html'
p3
aS'https://www.clarin.com/opinion/apoyo-social-pueden-grandes-transformaciones_0_1543046056.html'
p4
aS'https://www.clarin.com/opinion/Dear-Companero-Obama_0_1543645648.html'
p5
aS'https://www.clarin.com/politica/Jorge-Lanata-parte-plata-Cristina_0_1543645645.html'
p6
aS'https://www.clarin.com/opinion/economia-mundo-jovenes_0_1543046036.html'
p7
aS'https://www.clarin.com/opinion/legado-autoritario-yace-historia_0_1543046047.html'
p8
aS'https://www.clarin.com/politica/kirchnerismo-junto-consigna-Cristina-Conduccion_0_1543046103.html'
p9
aS'https://www.clarin.com/sociedad/Hallan-interruptor-cerebral-controla-comer_0_1543046082.html'
p10
a.