(lp0
S'https://www.clarin.com/politica/cobertura-Tiempo-Argentino-visita-Cristina_0_1609039141.html'
p1
aS'https://www.clarin.com/politica/Vidal-carta-Carrio-decir-primero_0_1609039142.html'
p2
aS'https://www.clarin.com/politica/envenenen-Corradi-prueban-comida_0_1609039133.html'
p3
aS'https://www.clarin.com/politica/Baez-caprichoso-Casanello-reclamar-hijos_0_1609039123.html'
p4
aS'https://www.clarin.com/ieco/venta-insumos-construccion-cayo-junio_0_1609039134.html'
p5
aS'https://www.clarin.com/politica/incomodo-album-politicos-Tiempo-Argentino_0_1609039124.html'
p6
aS'https://www.clarin.com/sociedad/Terror-pierde-control-pleno-vuelo_0_1609039135.html'
p7
a.