(lp0
S'https://www.clarin.com/politica/Morales-amplio-denuncia-Sala-desalojara_0_1506449713.html'
p1
aS'https://www.clarin.com/politica/intendentes-reunieron-Papa-marcar-PJ_0_1506449750.html'
p2
aS'https://www.clarin.com/ieco/economia/avances-tecnologicos-eliminaran-millones-empleos_0_1506449696.html'
p3
aS'https://www.clarin.com/politica/nisman_0_1506449721.html'
p4
aS'https://www.clarin.com/politica/Justicia-rechazo-liberar-Milagro-Sala_0_1506449735.html'
p5
aS'https://www.clarin.com/ieco/campus-ieco/cientificos-mas-influyentes-mundo_0_1506449718.html'
p6
a.