(lp0
S'https://www.clarin.com/politica/claves-dictamen-Lagomarsino-sospechoso-Milani_0_1529247277.html'
p1
aS'https://www.clarin.com/politica/Macri-Papa-recibio-arzobispo-porteno_0_1529247258.html'
p2
aS'https://www.clarin.com/politica/Saenz-funcionario-judicial-Nisman-asesinato_0_1529247262.html'
p3
aS'https://www.clarin.com/sociedad/nena-murio-electrocutada-abrir-heladera_0_1529247270.html'
p4
aS'https://www.clarin.com/sociedad/sentencias-argentinas-pueden-elegidas-peores_0_1529247257.html'
p5
a.