(lp0
S'https://www.clarin.com/ieco/Reglamentan-deposito-electronico-cheques_0_1684031627.html'
p1
aS'https://www.clarin.com/sociedad/Avance-experimento-ratones-logro-proteger_0_1684031620.html'
p2
aS'https://www.clarin.com/sociedad/prision-domiciliaria-acusado-abuso-menores_0_1684031630.html'
p3
aS'https://www.clarin.com/ieco/Nielsen-Argentina-puede-pasarla-Trump_0_1684031629.html'
p4
aS'https://www.clarin.com/sociedad/cantante-Catamarca-nueva-estrella-Japon_0_1683431826.html'
p5
aS'https://www.clarin.com/politica/locutora-Cristina-exige-millones_0_1684031624.html'
p6
aS'https://www.clarin.com/ieco/FMI-analiza-levanta-sancion-Argentina_0_1684031636.html'
p7
a.