(lp0
Vhttps://www.clarin.com/sociedad/vino-tomara-Macri-Julio_0_1607239351.html
p1
aVhttps://www.clarin.com/sociedad/vino-tomara-Macri-Julio_0_1607239351.html
p2
aVhttps://www.clarin.com/ieco/petroleros-acordaron-ampliacion-acuerdo-salarial_0_1607239403.html
p3
aVhttps://www.clarin.com/ieco/petroleros-acordaron-ampliacion-acuerdo-salarial_0_1607239403.html
p4
aVhttps://www.clarin.com/ieco/comercio-alimentos-Argentina-seguira-viento_0_1607239394.html
p5
aVhttps://www.clarin.com/ieco/comercio-alimentos-Argentina-seguira-viento_0_1607239394.html
p6
aVhttps://www.clarin.com/politica/Bonafini-comparar-gobierno-Mussolini-equivoco_0_1607239399.html
p7
aVhttps://www.clarin.com/politica/Bonafini-comparar-gobierno-Mussolini-equivoco_0_1607239399.html
p8
aVhttps://www.clarin.com/politica/Macri-Brexit-reclamo-Malvinas-cambiar_0_1607239389.html
p9
a.