(lp0
S'https://www.clarin.com/sociedad/Vuelo-escandalo-Xipolitakis-pilotos-quedaran_0_1549645180.html'
p1
aS'https://www.clarin.com/sociedad/Vuelo-escandalo-Xipolitakis-pilotos-quedaran_0_1549645180.html'
p2
aS'https://www.clarin.com/politica/Angelici-respondio-nombrando-denunciar-Carrio_0_1549645171.html'
p3
aS'https://www.clarin.com/politica/Angelici-respondio-nombrando-denunciar-Carrio_0_1549645171.html'
p4
aS'https://www.clarin.com/politica/conecta-Jorge-Rial-Lazaro-Baez_0_1549645166.html'
p5
aS'https://www.clarin.com/politica/conecta-Jorge-Rial-Lazaro-Baez_0_1549645166.html'
p6
aS'https://www.clarin.com/ieco/economia/Argentina-saldo-deuda-Bolivia-gas_0_1549645165.html'
p7
aS'https://www.clarin.com/ieco/economia/Argentina-saldo-deuda-Bolivia-gas_0_1549645165.html'
p8
aS'https://www.clarin.com/politica/solicitada-Cristobal-Lopez-victimiza-empresas_0_1549645156.html'
p9
aS'https://www.clarin.com/politica/solicitada-Cristobal-Lopez-victimiza-empresas_0_1549645156.html'
p10
a.