(lp0
Vhttps://www.clarin.com/politica/Cristina-Kirchner-macrismo-propiedades-manzanas_0_1637236363.html
p1
aVhttps://www.clarin.com/politica/Cristina-Kirchner-macrismo-propiedades-manzanas_0_1637236363.html
p2
aVhttps://www.clarin.com/sociedad/impresionante-coleccion-mayor-fan-Barbie_0_1637236359.html
p3
aVhttps://www.clarin.com/sociedad/impresionante-coleccion-mayor-fan-Barbie_0_1637236359.html
p4
aVhttps://www.clarin.com/sociedad/Pornografia-infantil-realizaron-allanamientos-pais_0_1637236358.html
p5
aVhttps://www.clarin.com/sociedad/Pornografia-infantil-realizaron-allanamientos-pais_0_1637236358.html
p6
aVhttps://www.clarin.com/sociedad/zoologico-abre-inusual-exhibicion-perros_0_1637236357.html
p7
aVhttps://www.clarin.com/sociedad/zoologico-abre-inusual-exhibicion-perros_0_1637236357.html
p8
aVhttps://www.clarin.com/politica/Vidal-Hacer-correcto-incomodos-sectores_0_1637236350.html
p9
aVhttps://www.clarin.com/politica/Vidal-Hacer-correcto-incomodos-sectores_0_1637236350.html
p10
aVhttps://www.clarin.com/sociedad/Detuvieron-personas-acusadas-clausuraron-locales_0_1637236351.html
p11
aVhttps://www.clarin.com/ieco/economia/tercer-consecutivo-inflacion-esperada-mantiene_0_1637236352.html
p12
aVhttps://www.clarin.com/ieco/economia/tercer-consecutivo-inflacion-esperada-mantiene_0_1637236352.html
p13
aVhttps://www.clarin.com/sociedad/Balconing-practica-alerta-espanoles_0_1637236345.html
p14
aVhttps://www.clarin.com/sociedad/Balconing-practica-alerta-espanoles_0_1637236345.html
p15
a.