(lp0
S'https://www.clarin.com/politica/FAM-quiebre-PJ-Magario-Cambiemos_0_1663633676.html'
p1
aS'https://www.clarin.com/sociedad/Video-dar-vuelta-tortilla-gigante_0_1663633674.html'
p2
aS'https://www.clarin.com/sociedad/director-hospital-quiere-combatir-hambre_0_1663633685.html'
p3
a.