(lp0
Vhttps://www.clarin.com/sociedad/tregua-Rios-ahora-evacuados-Gualeguaychu_0_1565843524.html
p1
aVhttps://www.clarin.com/sociedad/tregua-Rios-ahora-evacuados-Gualeguaychu_0_1565843524.html
p2
aVhttps://www.clarin.com/sociedad/Sexo-Barcelona-creen-chica-consciente_0_1565843519.html
p3
aVhttps://www.clarin.com/sociedad/Sexo-Barcelona-creen-chica-consciente_0_1565843519.html
p4
aVhttps://www.clarin.com/sociedad/Mataron-companera-colegio-grabaron-celular_0_1565843502.html
p5
aVhttps://www.clarin.com/sociedad/Mataron-companera-colegio-grabaron-celular_0_1565843502.html
p6
aVhttps://www.clarin.com/politica/Marijuan-sigue-aprestos-ahora-llevaron_0_1565843515.html
p7
aVhttps://www.clarin.com/politica/Marijuan-sigue-aprestos-ahora-llevaron_0_1565843515.html
p8
aVhttps://www.clarin.com/politica/Defensa-Presentaron-sociedad-modernizado-EEUU_0_1565843511.html
p9
aVhttps://www.clarin.com/politica/Defensa-Presentaron-sociedad-modernizado-EEUU_0_1565843511.html
p10
aVhttps://www.clarin.com/sociedad/eligio-NASA-celebrar-Dia-Tierra_0_1565843497.html
p11
aVhttps://www.clarin.com/sociedad/eligio-NASA-celebrar-Dia-Tierra_0_1565843497.html
p12
a.