(lp0
S'https://www.clarin.com/sociedad/Murieron-animales-podrian-Zoo-Mendoza_0_1579042207.html'
p1
aS'https://www.clarin.com/sociedad/Murieron-animales-podrian-Zoo-Mendoza_0_1579042207.html'
p2
aS'https://www.clarin.com/sociedad/Video-agredieron-periodistas-filmaban-supermercado_0_1579042204.html'
p3
aS'https://www.clarin.com/sociedad/Video-agredieron-periodistas-filmaban-supermercado_0_1579042204.html'
p4
aS'https://www.clarin.com/sociedad/Video-carnivoros-hicieran-veganos_0_1579042202.html'
p5
aS'https://www.clarin.com/sociedad/Video-carnivoros-hicieran-veganos_0_1579042202.html'
p6
a.