(lp0
S'https://www.clarin.com/sociedad/atrasos-expensas-motivo-frecuente-conflicto_0_1667833391.html'
p1
aS'https://www.clarin.com/sociedad/Consorcios-duplico-cantidad-vecinos-expensas_0_1667833388.html'
p2
aS'https://www.clarin.com/sociedad/Consorcios-duplico-cantidad-vecinos-expensas_0_1667833388.html'
p3
aS'https://www.clarin.com/ieco/coloquioidea/Corrupcion-empresarios-problema-cultural_0_1667833385.html'
p4
aS'https://www.clarin.com/ieco/coloquioidea/Corrupcion-empresarios-problema-cultural_0_1667833385.html'
p5
a.