(lp0
Vhttps://www.clarin.com/ieco/Paises-acuerdan-medidas-empresas-offshore_0_1558644602.html
p1
aVhttps://www.clarin.com/ieco/Paises-acuerdan-medidas-empresas-offshore_0_1558644602.html
p2
aVhttps://www.clarin.com/politica/Confirman-validez-video-Rosadita_0_1558644599.html
p3
aVhttps://www.clarin.com/politica/Confirman-validez-video-Rosadita_0_1558644599.html
p4
a.