(lp0
Vhttps://www.clarin.com/ieco/liquidacion-agro-dolares-alta_0_1552644910.html
p1
aVhttps://www.clarin.com/ieco/liquidacion-agro-dolares-alta_0_1552644910.html
p2
aVhttps://www.clarin.com/politica/Panama-Papers-millonarios-Cristobal-Lopez_0_1552644918.html
p3
aVhttps://www.clarin.com/politica/Panama-Papers-millonarios-Cristobal-Lopez_0_1552644918.html
p4
aVhttps://www.clarin.com/politica/Juga-crear-propio-paraiso-fiscal_0_1552644904.html
p5
aVhttps://www.clarin.com/politica/Juga-crear-propio-paraiso-fiscal_0_1552644904.html
p6
aVhttps://www.clarin.com/sociedad/Video-crucero-choco-muelle-tragedia_0_1552644893.html
p7
aVhttps://www.clarin.com/sociedad/Video-crucero-choco-muelle-tragedia_0_1552644893.html
p8
aVhttps://www.clarin.com/ieco/claves-papeles-Panama_0_1552644896.html
p9
aVhttps://www.clarin.com/ieco/claves-papeles-Panama_0_1552644896.html
p10
aVhttps://www.clarin.com/ieco/Aprueban-nuevo-maiz-transgenico_0_1552644895.html
p11
a.