(lp0
S'https://www.clarin.com/politica/Macri-pidio-militares-participacion-activa_0_1624037770.html'
p1
aS'https://www.clarin.com/politica/Murio-Ongaro-dirigente-gremial-epoca_0_1624037766.html'
p2
aS'https://www.clarin.com/politica/Gioja-Cristina-decir-monton-cosas_0_1624037763.html'
p3
aS'https://www.clarin.com/ieco/economia/AFIP-US-millones-declarados-exterior_0_1624037768.html'
p4
aS'https://www.clarin.com/sociedad/golpeo-dejarla-podria-quedar-libertad_0_1624037761.html'
p5
aS'https://www.clarin.com/sociedad/Fabrico-chocolate-conseguir-dinero-exito_0_1624037759.html'
p6
aS'https://www.clarin.com/politica/Farina-gobernador-manejaba-obra-publica_0_1624037767.html'
p7
a.