(lp0
S'https://www.clarin.com/sociedad/digital-cambio-diarios-locales-EEUU_0_1562843953.html'
p1
aS'https://www.clarin.com/sociedad/digital-cambio-diarios-locales-EEUU_0_1562843953.html'
p2
aS'https://www.clarin.com/politica/Revelan-escuchas-traslado-Baez-camiones_0_1562843950.html'
p3
aS'https://www.clarin.com/politica/Revelan-escuchas-traslado-Baez-camiones_0_1562843950.html'
p4
aS'https://www.clarin.com/ieco/Banco-Central-levanto-cepo-importadores_0_1562843940.html'
p5
aS'https://www.clarin.com/sociedad/multiplico-uso-apps-arreglos-casa_0_1562843931.html'
p6
a.