(lp0
S'https://www.clarin.com/politica/Apelaron-decision-investigar-Pena-ANSES_0_1646235439.html'
p1
aS'https://www.clarin.com/ieco/espanol-Amancio-Ortega-Bill-Gates_0_1646235443.html'
p2
aS'https://www.clarin.com/sociedad/profecias-tecno-anticipo-Star-Trek_0_1646235435.html'
p3
aS'https://www.clarin.com/politica/Lazaro-Baez-cierre-sueldos-ejemplares_0_1646235415.html'
p4
aS'https://www.clarin.com/ieco/economia/Cabrera-empresarios-responsables-inflacion_0_1646235440.html'
p5
aS'https://www.clarin.com/ieco/economia/YPF-Edesur-empresas-energias-renovables_0_1646235436.html'
p6
a.