(lp0
Vhttps://www.clarin.com/opinion/difamar-retroceder-chancletas_0_1673232710.html
p1
aVhttps://www.clarin.com/opinion/Edificio-busca-policias-abstenerse_0_1672032978.html
p2
aVhttps://www.clarin.com/opinion/Edificio-busca-policias-abstenerse_0_1672032978.html
p3
aVhttps://www.clarin.com/opinion/secretos-Senora_0_1671432935.html
p4
aVhttps://www.clarin.com/opinion/secretos-Senora_0_1671432935.html
p5
aVhttps://www.clarin.com/opinion/Operativo-Aprender-maestros-examenes_0_1672632926.html
p6
aVhttps://www.clarin.com/sociedad/Mundos-intimos-Lleve-panza-vivir_0_1672032934.html
p7
aVhttps://www.clarin.com/sociedad/Mundos-intimos-Lleve-panza-vivir_0_1672032934.html
p8
aVhttps://www.clarin.com/sociedad/cicatrices-junto-ganas-vivir_0_1672032944.html
p9
aVhttps://www.clarin.com/sociedad/Fuerte-repudio-salvaje-Garfunkel-Vannucci_0_1672632925.html
p10
aVhttps://www.clarin.com/sociedad/Fuerte-repudio-salvaje-Garfunkel-Vannucci_0_1672632925.html
p11
aVhttps://www.clarin.com/politica/Ofrecen-provincias-apuran-Presupuesto_0_1672632924.html
p12
aVhttps://www.clarin.com/politica/Ofrecen-provincias-apuran-Presupuesto_0_1672632924.html
p13
a.