(lp0
Vhttps://www.clarin.com/politica/Marcos-Pena-marcha-resistencia-tragicomedia_0_1640836088.html
p1
aVhttps://www.clarin.com/politica/Marcos-Pena-marcha-resistencia-tragicomedia_0_1640836088.html
p2
aVhttps://www.clarin.com/sociedad/Clarin-cumplio-anos-celebro-personal_0_1640836087.html
p3
aVhttps://www.clarin.com/sociedad/Clarin-cumplio-anos-celebro-personal_0_1640836087.html
p4
aVhttps://www.clarin.com/politica/Sergio-Massa-sumarse-renovacion-PJ_0_1640836086.html
p5
aVhttps://www.clarin.com/politica/Sigue-interna-peronismo-marcha-Macri_0_1640836085.html
p6
aVhttps://www.clarin.com/politica/Sigue-interna-peronismo-marcha-Macri_0_1640836085.html
p7
aVhttps://www.clarin.com/politica/Acuerdo-Senado-firmar-dictamen-arrepentido_0_1640836077.html
p8
aVhttps://www.clarin.com/politica/Acuerdo-Senado-firmar-dictamen-arrepentido_0_1640836077.html
p9
aVhttps://www.clarin.com/politica/jueves-clave-fractura-bloque-Ciudad_0_1640836066.html
p10
aVhttps://www.clarin.com/politica/OA-jueces-Corte-declaraciones-bienes_0_1640836080.html
p11
aVhttps://www.clarin.com/politica/OA-jueces-Corte-declaraciones-bienes_0_1640836080.html
p12
aVhttps://www.clarin.com/sociedad/viernes-pararan-docentes-Ciudad-descontara_0_1640836078.html
p13
aVhttps://www.clarin.com/sociedad/viernes-pararan-docentes-Ciudad-descontara_0_1640836078.html
p14
a.