(lp0
Vhttps://www.clarin.com/politica/Peronistas-kirchneristas-cierran-gobernadores-pedir_0_1655234549.html
p1
aVhttps://www.clarin.com/politica/Peronistas-kirchneristas-cierran-gobernadores-pedir_0_1655234549.html
p2
aVhttps://www.clarin.com/politica/Imputan-Recalde-polemico-convenio_0_1655234547.html
p3
aVhttps://www.clarin.com/politica/Imputan-Recalde-polemico-convenio_0_1655234547.html
p4
aVhttps://www.clarin.com/opinion/ratones-dudas-amor_0_1654634669.html
p5
aVhttps://www.clarin.com/sociedad/Iglesia-critica-Justicia-allanamiento-clausura_0_1655234540.html
p6
aVhttps://www.clarin.com/sociedad/Iglesia-critica-Justicia-allanamiento-clausura_0_1655234540.html
p7
a.