(lp0
Vhttps://www.clarin.com/politica/video-reconstruyeron-Triple-Fuga_0_1544245698.html
p1
aVhttps://www.clarin.com/politica/video-reconstruyeron-Triple-Fuga_0_1544245698.html
p2
aVhttps://www.clarin.com/sociedad/Video-viral-desaparece-mujer_0_1544245694.html
p3
aVhttps://www.clarin.com/sociedad/Video-viral-desaparece-mujer_0_1544245694.html
p4
aVhttps://www.clarin.com/sociedad/Asesinan-joven-salida-boliche_0_1544245688.html
p5
aVhttps://www.clarin.com/sociedad/Asesinan-joven-salida-boliche_0_1544245688.html
p6
aVhttps://www.clarin.com/politica/Encuesta-pobres-ricos-peor-Macri_0_1544245689.html
p7
aVhttps://www.clarin.com/politica/Encuesta-pobres-ricos-peor-Macri_0_1544245689.html
p8
a.