(lp0
Vhttps://www.clarin.com/politica/Macri-volvio-Colombia-mostro-Urtubey_0_1597040362.html
p1
aVhttps://www.clarin.com/politica/Macri-volvio-Colombia-mostro-Urtubey_0_1597040362.html
p2
aVhttps://www.clarin.com/sociedad/Video-ternura-mama-koala-cria_0_1597040361.html
p3
aVhttps://www.clarin.com/sociedad/Video-ternura-mama-koala-cria_0_1597040361.html
p4
aVhttps://www.clarin.com/ieco/economia/Moratoria-blanqueo-cambios-ultimo-momento_0_1597040354.html
p5
aVhttps://www.clarin.com/ieco/economia/Moratoria-blanqueo-cambios-ultimo-momento_0_1597040354.html
p6
aVhttps://www.clarin.com/ieco/economia/Todesca-confirmo-FMI-revisar-IPC_0_1597040350.html
p7
aVhttps://www.clarin.com/ieco/economia/Todesca-confirmo-FMI-revisar-IPC_0_1597040350.html
p8
a.