(lp0
Vhttps://www.clarin.com/politica/Frigerio-Alicia-Kirchner-Santa-Cruz_0_1550845360.html
p1
aVhttps://www.clarin.com/sociedad/Confirman-primeros-fatales-dengue-Ciudad_0_1550845349.html
p2
aVhttps://www.clarin.com/politica/Macri-dijo-vendran-inversiones-decadas_0_1550845331.html
p3
aVhttps://www.clarin.com/ieco/economia/pobreza-aumento-alcanza-argentinos_0_1550845309.html
p4
a.