(lp0
Vhttps://www.clarin.com/opinion/reunion-niega-nadie_0_1646835469.html
p1
aVhttps://www.clarin.com/ieco/economia/Arranco-alcanzados-Ley-Reparacion-Historica_0_1647435342.html
p2
aVhttps://www.clarin.com/ieco/economia/Arranco-alcanzados-Ley-Reparacion-Historica_0_1647435342.html
p3
aVhttps://www.clarin.com/politica/Luis-DElia-comegato-Jose-Ottavis_0_1647435340.html
p4
aVhttps://www.clarin.com/politica/Luis-DElia-comegato-Jose-Ottavis_0_1647435340.html
p5
aVhttps://www.clarin.com/politica/Elecciones-ONU-Malcorra-pierde-terreno_0_1647435338.html
p6
aVhttps://www.clarin.com/politica/Elecciones-ONU-Malcorra-pierde-terreno_0_1647435338.html
p7
a.