(lp0
S'https://www.clarin.com/ieco/Prat-Gay-blanqueo-buscarian-US-millones_0_1575442481.html'
p1
aS'https://www.clarin.com/sociedad/ahora-suspendio-fiestas-electronicas-boliches_0_1575442467.html'
p2
aS'https://www.clarin.com/politica/Alfredo-Casero-diputado-Jorge-Triaca_0_1575442478.html'
p3
aS'https://www.clarin.com/sociedad/Acusan-portero-escuela-abusar-anos_0_1575442473.html'
p4
aS'https://www.clarin.com/ieco/economia/inflacion-Ciudad-abril_0_1575442476.html'
p5
aS'https://www.clarin.com/sociedad/Bullrich-respaldo-bloquea-irrestricto-universidad_0_1575442475.html'
p6
a.