(lp0
S'https://www.clarin.com/ieco/economia/valor-terrenos-Capital-aumento-anos_0_1604839613.html'
p1
aS'https://www.clarin.com/ieco/economia/valor-terrenos-Capital-aumento-anos_0_1604839613.html'
p2
aS'https://www.clarin.com/politica/Estallo-intendentes-muestran-macristas-dialoguistas_0_1604839609.html'
p3
aS'https://www.clarin.com/politica/Estallo-intendentes-muestran-macristas-dialoguistas_0_1604839609.html'
p4
aS'https://www.clarin.com/politica/procesados-top-corrupcion_0_1604839606.html'
p5
aS'https://www.clarin.com/politica/procesados-top-corrupcion_0_1604839606.html'
p6
aS'https://www.clarin.com/sociedad/dramatica-agonia-ballena-austral-encallada_0_1604839587.html'
p7
aS'https://www.clarin.com/sociedad/dramatica-agonia-ballena-austral-encallada_0_1604839587.html'
p8
aS'https://www.clarin.com/ieco/economia/Enargas-confia-cortes-GNC-normalizaran_0_1604839601.html'
p9
aS'https://www.clarin.com/ieco/economia/Enargas-confia-cortes-GNC-normalizaran_0_1604839601.html'
p10
aS'https://www.clarin.com/ieco/tecnologia/Google-lanzo-ensenarles-sacarle-Internet_0_1604839597.html'
p11
aS'https://www.clarin.com/ieco/tecnologia/Google-lanzo-ensenarles-sacarle-Internet_0_1604839597.html'
p12
a.