(lp0
Vhttps://www.clarin.com/politica/Shakira-mano-derecha-Milagro-Sala_0_1526247602.html
p1
aVhttps://www.clarin.com/politica/Shakira-mano-derecha-Milagro-Sala_0_1526247602.html
p2
aVhttps://www.clarin.com/politica/Gabinete-comprension-responsabilidad-dirigentes-Ganancias_0_1526247590.html
p3
aVhttps://www.clarin.com/politica/Gabinete-comprension-responsabilidad-dirigentes-Ganancias_0_1526247590.html
p4
aVhttps://www.clarin.com/sociedad/ultimas-horas-Martin-Blaquier_0_1526247587.html
p5
aVhttps://www.clarin.com/sociedad/ultimas-horas-Martin-Blaquier_0_1526247587.html
p6
a.