(lp0
Vhttps://www.clarin.com/sociedad/modalidad-extiende-region-hace-anos_0_1653434825.html
p1
aVhttps://www.clarin.com/sociedad/Murio-andinista-argentino-Chile-buscan_0_1653434824.html
p2
aVhttps://www.clarin.com/sociedad/Murio-andinista-argentino-Chile-buscan_0_1653434824.html
p3
aVhttps://www.clarin.com/sociedad/ensenanza-mejora-solo-implica-mismo_0_1653434823.html
p4
aVhttps://www.clarin.com/sociedad/lugar-improvisacion_0_1653434820.html
p5
aVhttps://www.clarin.com/sociedad/Perdio-alianza-argentina-devolvio-despues_0_1653434819.html
p6
aVhttps://www.clarin.com/sociedad/Perdio-alianza-argentina-devolvio-despues_0_1653434819.html
p7
aVhttps://www.clarin.com/sociedad/Celulares-buscan-agilicen-reclamos_0_1653434817.html
p8
aVhttps://www.clarin.com/sociedad/Celulares-buscan-agilicen-reclamos_0_1653434817.html
p9
aVhttps://www.clarin.com/politica/Investigan-asesinato-testigo-clave-Nisman_0_1653434801.html
p10
aVhttps://www.clarin.com/politica/Investigan-asesinato-testigo-clave-Nisman_0_1653434801.html
p11
aVhttps://www.clarin.com/sociedad/Gano-millon-pagaron-fallo-triple_0_1653434811.html
p12
aVhttps://www.clarin.com/sociedad/Gano-millon-pagaron-fallo-triple_0_1653434811.html
p13
a.