(lp0
S'https://www.clarin.com/sociedad/Violencia-escolar-alumna-apunalo-colegio_0_1559244259.html'
p1
aS'https://www.clarin.com/ieco/paro-bancario-sigue-hoy-Provincia_0_1559244254.html'
p2
aS'https://www.clarin.com/ieco/Preparan-desarrollar-infraestructura-inversiones-privadas_0_1559244246.html'
p3
aS'https://www.clarin.com/ieco/economia/minera-reincorporo-despedidos-limpiar-veredas_0_1559244240.html'
p4
aS'https://www.clarin.com/politica/Despues-juntos-Urtubey-despega-Macri_0_1559244237.html'
p5
aS'https://www.clarin.com/ieco/economia/Argentina-nota-ranking-competitividad-costos_0_1559244245.html'
p6
aS'https://www.clarin.com/sociedad/chimpance-atrinchera-electrico-evitar-capturado_0_1559244248.html'
p7
a.