(lp0
S'https://www.clarin.com/sociedad/yaguarete-dejo-pudo-grabado-guardaparques_0_1558644363.html'
p1
aS'https://www.clarin.com/sociedad/yaguarete-dejo-pudo-grabado-guardaparques_0_1558644363.html'
p2
aS'https://www.clarin.com/politica/Camara-Federal-procesamiento-Boudou-dadivas_0_1558644359.html'
p3
aS'https://www.clarin.com/politica/Camara-Federal-procesamiento-Boudou-dadivas_0_1558644359.html'
p4
aS'https://www.clarin.com/politica/Cristina-reuniones-diputados-organismos-DDHH_0_1558644351.html'
p5
aS'https://www.clarin.com/politica/Cristina-reuniones-diputados-organismos-DDHH_0_1558644351.html'
p6
aS'https://www.clarin.com/ieco/economia/Impuestos-region-presion-consumo-multinacionales_0_1556844697.html'
p7
aS'https://www.clarin.com/sociedad/Gastroenterocolitis-Berazategui-creen-causa-podria_0_1558644346.html'
p8
aS'https://www.clarin.com/sociedad/Gastroenterocolitis-Berazategui-creen-causa-podria_0_1558644346.html'
p9
aS'https://www.clarin.com/sociedad/mision-espacial-participa-argentino-primeras_0_1558644347.html'
p10
aS'https://www.clarin.com/sociedad/mision-espacial-participa-argentino-primeras_0_1558644347.html'
p11
a.