(lp0
Vhttps://www.clarin.com/sociedad/conocieron-detalles-odisea-japones-abandonado_0_1590440980.html
p1
aVhttps://www.clarin.com/sociedad/conocieron-detalles-odisea-japones-abandonado_0_1590440980.html
p2
aVhttps://www.clarin.com/politica/Justicia-freno-aumentos-agua-Matanza_0_1590440976.html
p3
aVhttps://www.clarin.com/politica/Justicia-freno-aumentos-agua-Matanza_0_1590440976.html
p4
aVhttps://www.clarin.com/sociedad/Hackearon-Mark-Zuckerberg-misma-contrasena_0_1590440970.html
p5
aVhttps://www.clarin.com/sociedad/Hackearon-Mark-Zuckerberg-misma-contrasena_0_1590440970.html
p6
aVhttps://www.clarin.com/politica/Lorenzetti-Ganancias-jueces-Corte-favor_0_1590440968.html
p7
aVhttps://www.clarin.com/politica/Lorenzetti-Ganancias-jueces-Corte-favor_0_1590440968.html
p8
aVhttps://www.clarin.com/sociedad/hombre-detenido-luego-acuchillar-cuello_0_1590440966.html
p9
a.