(lp0
Vhttps://www.clarin.com/sociedad/bandas-lugar-pertenencia-conflicto_0_1654634722.html
p1
aVhttps://www.clarin.com/sociedad/Fiestas-privadas-problema-pueden-frenar_0_1654634718.html
p2
aVhttps://www.clarin.com/sociedad/Fiestas-privadas-problema-pueden-frenar_0_1654634718.html
p3
aVhttps://www.clarin.com/politica/Farina-denuncio-allegados-Lazaro-Baez_0_1654634716.html
p4
aVhttps://www.clarin.com/politica/Farina-denuncio-allegados-Lazaro-Baez_0_1654634716.html
p5
aVhttps://www.clarin.com/sociedad/Admiten-estructura-monitorear-redes-sociales_0_1654634715.html
p6
aVhttps://www.clarin.com/sociedad/Admiten-estructura-monitorear-redes-sociales_0_1654634715.html
p7
aVhttps://www.clarin.com/sociedad/Nicolas-novio-River-pasion-motos_0_1654634712.html
p8
aVhttps://www.clarin.com/sociedad/Nicolas-novio-River-pasion-motos_0_1654634712.html
p9
a.