(lp0
Vhttps://www.clarin.com/opinion/teclado-virtual-vidas_0_1573042830.html
p1
aVhttps://www.clarin.com/politica/Denuncian-Cristina-Lazaro-Cristobal-Lopez_0_1573042841.html
p2
aVhttps://www.clarin.com/politica/Denuncian-Cristina-Lazaro-Cristobal-Lopez_0_1573042841.html
p3
aVhttps://www.clarin.com/sociedad/Condenan-Barcelona-indemnizar-Cecilia-Pando_0_1573042840.html
p4
aVhttps://www.clarin.com/politica/Senado-FpV-aceptara-cambios-proyecto_0_1573042839.html
p5
aVhttps://www.clarin.com/politica/Senado-FpV-aceptara-cambios-proyecto_0_1573042839.html
p6
aVhttps://www.clarin.com/politica/Match-point-Amado-chau-Copa_0_1573042821.html
p7
aVhttps://www.clarin.com/politica/Match-point-Amado-chau-Copa_0_1573042821.html
p8
a.