(lp0
S'https://www.clarin.com/politica/Feudos-intocables_0_1619238124.html'
p1
aS'https://www.clarin.com/politica/Feudos-intocables_0_1619238124.html'
p2
aS'https://www.clarin.com/politica/Boleta-electronica-dudan-aplicarse-PASO_0_1619238122.html'
p3
aS'https://www.clarin.com/politica/Boleta-electronica-dudan-aplicarse-PASO_0_1619238122.html'
p4
aS'https://www.clarin.com/politica/acordar-Massa-Stolbizer-ruido_0_1619238120.html'
p5
aS'https://www.clarin.com/politica/Marcos-Pena-aclaro-agenda-jubilatoria_0_1619238118.html'
p6
aS'https://www.clarin.com/politica/Marcos-Pena-aclaro-agenda-jubilatoria_0_1619238118.html'
p7
aS'https://www.clarin.com/politica/Estela-Carlotto-CFK-Cristina-amiga_0_1619238108.html'
p8
aS'https://www.clarin.com/politica/Estela-Carlotto-CFK-Cristina-amiga_0_1619238108.html'
p9
aS'https://www.clarin.com/politica/Imputan-intendente-sueldos-personas-muertas_0_1619238106.html'
p10
a.