(lp0
Vhttps://www.clarin.com/opinion/recaudos-frente-virus-Zika_0_1565243571.html
p1
aVhttps://www.clarin.com/opinion/recaudos-frente-virus-Zika_0_1565243571.html
p2
aVhttps://www.clarin.com/opinion/tasa-real-desocupacion_0_1565243569.html
p3
aVhttps://www.clarin.com/opinion/Derechos-humanos-FIFA-anota-AFA_0_1565243566.html
p4
aVhttps://www.clarin.com/politica/achicar-subas-subsidiaran-colectivos-interior_0_1565243629.html
p5
aVhttps://www.clarin.com/politica/achicar-subas-subsidiaran-colectivos-interior_0_1565243629.html
p6
aVhttps://www.clarin.com/sociedad/Advierten-adolescentes-pobres-riesgo-gordos_0_1565243628.html
p7
aVhttps://www.clarin.com/sociedad/Advierten-adolescentes-pobres-riesgo-gordos_0_1565243628.html
p8
aVhttps://www.clarin.com/politica/CGT-haran-masivo-exigir-antidespidos_0_1565243644.html
p9
aVhttps://www.clarin.com/politica/CGT-haran-masivo-exigir-antidespidos_0_1565243644.html
p10
aVhttps://www.clarin.com/politica/reunion-Maximo-negocios-Lazaro-Baez_0_1565243593.html
p11
aVhttps://www.clarin.com/politica/reunion-Maximo-negocios-Lazaro-Baez_0_1565243593.html
p12
aVhttps://www.clarin.com/politica/Prorrogaran-ano-acuerdo-automotor-Brasil_0_1565243643.html
p13
aVhttps://www.clarin.com/sociedad/Apuntan-asociacion-vender-fiesta-detenidos_0_1565243641.html
p14
a.