(lp0
Vhttps://www.clarin.com/politica/Encuesta-Macri-Cristina-cambio-imagen_0_1609039108.html
p1
aVhttps://www.clarin.com/politica/Encuesta-Macri-Cristina-cambio-imagen_0_1609039108.html
p2
aVhttps://www.clarin.com/sociedad/Lombardi-Loperfido-gestionar-sector-relacion_0_1609039106.html
p3
aVhttps://www.clarin.com/sociedad/Lombardi-Loperfido-gestionar-sector-relacion_0_1609039106.html
p4
aVhttps://www.clarin.com/politica/Hernan-Lombardi-salio-pegarle-panelistas_0_1609039105.html
p5
aVhttps://www.clarin.com/politica/Hernan-Lombardi-salio-pegarle-panelistas_0_1609039105.html
p6
aVhttps://www.clarin.com/politica/Forza-acusaciones-Perez-Corradi-estrategias_0_1609039104.html
p7
aVhttps://www.clarin.com/politica/Forza-acusaciones-Perez-Corradi-estrategias_0_1609039104.html
p8
aVhttps://www.clarin.com/politica/Berlin-Macri-polemica-Tiempo-Argentino_0_1609039103.html
p9
aVhttps://www.clarin.com/politica/Berlin-Macri-polemica-Tiempo-Argentino_0_1609039103.html
p10
aVhttps://www.clarin.com/politica/Facundo-Manes-Torre-equipo-Vidal_0_1609039101.html
p11
aVhttps://www.clarin.com/politica/Facundo-Manes-Torre-equipo-Vidal_0_1609039101.html
p12
a.