(lp0
S'https://www.clarin.com/ieco/economia/Propusieron-candidatos-unidad-antilavado_0_1511249021.html'
p1
aS'https://www.clarin.com/sociedad/Demoras-cancelaciones-LAN-reclamo-aeronauticos_0_1511249007.html'
p2
aS'https://www.clarin.com/ieco/economia/divisas-agro-ingresaron-mercado-financiero_0_1511249018.html'
p3
aS'https://www.clarin.com/opinion/Nadie-cuida-cuidacoches_0_1511248925.html'
p4
aS'https://www.clarin.com/opinion/Diana_Baccaro_0_1511248937.html'
p5
aS'https://www.clarin.com/sociedad/batallas-madre_0_1511248927.html'
p6
aS'https://www.clarin.com/ieco/economia/credito_puente-millones_0_1510649403.html'
p7
aS'https://www.clarin.com/politica/persecucion-detienen-legislador-oficialista-marihuana_0_1511249016.html'
p8
a.