(lp0
S'https://www.clarin.com/politica/baile-Oyarbide-version-remixada_0_1578442170.html'
p1
aS'https://www.clarin.com/ieco/sector-textil-advierten-caida-actividad_0_1578442162.html'
p2
aS'https://www.clarin.com/politica/Surgen-datos-facturas-falsas-Boudou_0_1578442160.html'
p3
aS'https://www.clarin.com/sociedad/Twitter-excluiria-fotos-limite-caracteres_0_1578442169.html'
p4
aS'https://www.clarin.com/ieco/economia/pan-aumenta-cuesta-kilo_0_1578442173.html'
p5
aS'https://www.clarin.com/sociedad/Susto-Mendoza-sismo-mediana-intensidad_0_1578442177.html'
p6
aS'https://www.clarin.com/sociedad/abuela-atraveso-siglos-desafiando-nutricionistas_0_1578442178.html'
p7
a.