(lp0
S'https://www.clarin.com/politica/hipotesis-gobierno-Vidal-Ministerio-Salud_0_1608439191.html'
p1
aS'https://www.clarin.com/politica/panelista-siente-perseguido-Cristina_0_1608439184.html'
p2
aS'https://www.clarin.com/politica/Perez-Corradi-Centinela-tribunales-seguridad_0_1608439182.html'
p3
aS'https://www.clarin.com/ieco/soja-mayor-caida-once-meses_0_1608439190.html'
p4
aS'https://www.clarin.com/ieco/produccion-automotriz-cayo-junio-exportaciones_0_1608439183.html'
p5
a.