(lp0
S'https://www.clarin.com/politica/Carrio-criticaron-denuncias-Prefiero-carcel_0_1587441393.html'
p1
aS'https://www.clarin.com/ieco/economia/Elypsis-inflacion-mayo-acumula-interanual_0_1587441392.html'
p2
aS'https://www.clarin.com/politica/Avanzan-Diputados-proyectos-investigaciones-judiciales_0_1587441386.html'
p3
aS'https://www.clarin.com/politica/Principio-acuerdo-tarifas-patagonicas_0_1587441376.html'
p4
aS'https://www.clarin.com/politica/Malcorra-Venezuela-Solo-adentro-crisis_0_1587441387.html'
p5
aS'https://www.clarin.com/sociedad/Capturan-gigante-arrancado-surfista-Australia_0_1587441345.html'
p6
a.