(lp0
S'https://www.clarin.com/politica/Ley-antidespidos-justifico-Massa-cambio_0_1579642039.html'
p1
aS'https://www.clarin.com/sociedad/Nina-Beatle_0_1579042285.html'
p2
aS'https://www.clarin.com/ieco/estatales-acuerdan-suba_0_1579642049.html'
p3
aS'https://www.clarin.com/politica/investigaciones-Clarin-revelaron-escandalo_0_1579642048.html'
p4
a.