(lp0
Vhttps://www.clarin.com/opinion/plan-gorila-historia_0_1627637221.html
p1
aVhttps://www.clarin.com/politica/Vidal-gestion-campana-contener-social_0_1627037433.html
p2
aVhttps://www.clarin.com/politica/Vidal-gestion-campana-contener-social_0_1627037433.html
p3
aVhttps://www.clarin.com/opinion/Creen-puede-comprar_0_1627037436.html
p4
aVhttps://www.clarin.com/opinion/Creen-puede-comprar_0_1627037436.html
p5
aVhttps://www.clarin.com/opinion/reino-ninez-apresurada_0_1627037422.html
p6
aVhttps://www.clarin.com/politica/Borraron-registros-entrada-Olivos-Nisman_0_1627037390.html
p7
aVhttps://www.clarin.com/politica/Borraron-registros-entrada-Olivos-Nisman_0_1627037390.html
p8
aVhttps://www.clarin.com/ieco/economia/gente-insatisfecha-aprueba-gestion-presidencial_0_1627037426.html
p9
aVhttps://www.clarin.com/politica/Macri-encuentro-presidente-chino-septiembre_0_1627037412.html
p10
aVhttps://www.clarin.com/politica/Macri-encuentro-presidente-chino-septiembre_0_1627037412.html
p11
aVhttps://www.clarin.com/politica/prepara-indagatoria-hija-Bonafini-lavado_0_1627037460.html
p12
aVhttps://www.clarin.com/politica/prepara-indagatoria-hija-Bonafini-lavado_0_1627037460.html
p13
aVhttps://www.clarin.com/ieco/economia/duro-camino-laboratorio-mercado_0_1627037448.html
p14
aVhttps://www.clarin.com/ieco/economia/argentino-negocio-mueve-US800-millones_0_1627637284.html
p15
aVhttps://www.clarin.com/ieco/economia/argentino-negocio-mueve-US800-millones_0_1627637284.html
p16
aVhttps://www.clarin.com/ieco/economia/acentua-pulseada-tasa-inflacion_0_1627637283.html
p17
aVhttps://www.clarin.com/ieco/economia/acentua-pulseada-tasa-inflacion_0_1627637283.html
p18
a.