(lp0
S'https://www.clarin.com/politica/sesion-Tucuman-ausencias-jefes-PJ_0_1608439238.html'
p1
aS'https://www.clarin.com/politica/sesion-Tucuman-ausencias-jefes-PJ_0_1608439238.html'
p2
aS'https://www.clarin.com/sociedad/restaurantes-raros-mundo_0_1608439232.html'
p3
aS'https://www.clarin.com/sociedad/restaurantes-raros-mundo_0_1608439232.html'
p4
aS'https://www.clarin.com/politica/oficialista-tarifazo-Podrian-haberse-medidas_0_1608439229.html'
p5
aS'https://www.clarin.com/politica/oficialista-tarifazo-Podrian-haberse-medidas_0_1608439229.html'
p6
aS'https://www.clarin.com/sociedad/Video-lucha-serpiente-rescatar-cria_0_1608439224.html'
p7
aS'https://www.clarin.com/sociedad/Video-lucha-serpiente-rescatar-cria_0_1608439224.html'
p8
aS'https://www.clarin.com/ieco/economia/inversiones-prometieron-Macri_0_1608439225.html'
p9
aS'https://www.clarin.com/ieco/economia/inversiones-prometieron-Macri_0_1608439225.html'
p10
aS'https://www.clarin.com/sociedad/Provocadora-propuesta-malla-piletas-publicas_0_1608439223.html'
p11
aS'https://www.clarin.com/sociedad/Provocadora-propuesta-malla-piletas-publicas_0_1608439223.html'
p12
aS'https://www.clarin.com/politica/Cristina-Comodoro-Py-concurrencia-Presidenta_0_1608439220.html'
p13
aS'https://www.clarin.com/politica/Cristina-Comodoro-Py-concurrencia-Presidenta_0_1608439220.html'
p14
a.