(lp0
S'https://www.clarin.com/ieco/economia/Stefan-Ingves-Suecia-dinero-desapareciendo_0_1654034722.html'
p1
aS'https://www.clarin.com/ieco/economia/Stefan-Ingves-Suecia-dinero-desapareciendo_0_1654034722.html'
p2
aS'https://www.clarin.com/opinion/Hospitales-publicos-eficientes_0_1654034744.html'
p3
aS'https://www.clarin.com/opinion/Hospitales-publicos-eficientes_0_1654034744.html'
p4
aS'https://www.clarin.com/politica/Gobierno-relanzo-canal-Russia-Today_0_1653434833.html'
p5
aS'https://www.clarin.com/politica/Gobierno-relanzo-canal-Russia-Today_0_1653434833.html'
p6
aS'https://www.clarin.com/opinion/Gobernar-motivar-burocracia_0_1654034748.html'
p7
aS'https://www.clarin.com/politica/canasta-pobreza-Ciudad-Buenos-Aires_0_1654034745.html'
p8
aS'https://www.clarin.com/politica/canasta-pobreza-Ciudad-Buenos-Aires_0_1654034745.html'
p9
aS'https://www.clarin.com/opinion/Desarrollo-sostenible-instituciones-responsables_0_1654034741.html'
p10
aS'https://www.clarin.com/ieco/economia/Sturzenegger-Borges-hablar-coordinacion-Prat-Gay_0_1654034737.html'
p11
aS'https://www.clarin.com/ieco/economia/Sturzenegger-Borges-hablar-coordinacion-Prat-Gay_0_1654034737.html'
p12
aS'https://www.clarin.com/politica/Macri-explico-recibir-refugiados-sirios_0_1654034735.html'
p13
aS'https://www.clarin.com/politica/Macri-explico-recibir-refugiados-sirios_0_1654034735.html'
p14
aS'https://www.clarin.com/politica/Macri-AMIA-cooperacion-Iran-esclarecer_0_1654034731.html'
p15
aS'https://www.clarin.com/politica/Macri-AMIA-cooperacion-Iran-esclarecer_0_1654034731.html'
p16
a.