(lp0
S'https://www.clarin.com/politica/Berlin-Macri-polemica-Tiempo-Argentino_0_1609039103.html'
p1
aS'https://www.clarin.com/politica/Encuesta-Macri-Cristina-cambio-imagen_0_1609039108.html'
p2
aS'https://www.clarin.com/politica/Hernan-Lombardi-salio-pegarle-panelistas_0_1609039105.html'
p3
aS'https://www.clarin.com/politica/Facundo-Manes-Torre-equipo-Vidal_0_1609039101.html'
p4
aS'https://www.clarin.com/sociedad/Lombardi-Loperfido-gestionar-sector-relacion_0_1609039106.html'
p5
aS'https://www.clarin.com/politica/Forza-acusaciones-Perez-Corradi-estrategias_0_1609039104.html'
p6
a.