(lp0
S'https://www.clarin.com/sociedad/Time-Warp-internados-Fernandez-critico_0_1562843750.html'
p1
aS'https://www.clarin.com/sociedad/Time-Warp-internados-Fernandez-critico_0_1562843750.html'
p2
aS'https://www.clarin.com/ieco/economia/productores-yerba-vuelven-protestar_0_1562843745.html'
p3
aS'https://www.clarin.com/politica/Farina-Lazaro-Baez-compromete-Martin_0_1562843723.html'
p4
aS'https://www.clarin.com/politica/Farina-Lazaro-Baez-compromete-Martin_0_1562843723.html'
p5
aS'https://www.clarin.com/sociedad/Aparecio-contratada-Dell-Producciones-descompensados_0_1562843740.html'
p6
aS'https://www.clarin.com/sociedad/Aparecio-contratada-Dell-Producciones-descompensados_0_1562843740.html'
p7
aS'https://www.clarin.com/ieco/Emiten-letra-dolares-millones_0_1562843739.html'
p8
aS'https://www.clarin.com/politica/Marcelo-Larraquy-Papa-Duran-Barba_0_1562243868.html'
p9
aS'https://www.clarin.com/politica/Marcelo-Larraquy-Papa-Duran-Barba_0_1562243868.html'
p10
a.