(lp0
S'https://www.clarin.com/politica/Carlos-Kunkel-utilizaba-cedidos-sindicalista_0_1577842244.html'
p1
aS'https://www.clarin.com/politica/Carlos-Kunkel-utilizaba-cedidos-sindicalista_0_1577842244.html'
p2
aS'https://www.clarin.com/sociedad/Ahora-ciudad-perdida-realidad-marihuana_0_1577842246.html'
p3
aS'https://www.clarin.com/sociedad/Ahora-ciudad-perdida-realidad-marihuana_0_1577842246.html'
p4
aS'https://www.clarin.com/sociedad/mejores-ofertas-HotSale_0_1577842242.html'
p5
aS'https://www.clarin.com/sociedad/mejores-ofertas-HotSale_0_1577842242.html'
p6
aS'https://www.clarin.com/politica/Das-Neves-chantaje-elogio-Frigerio_0_1577842240.html'
p7
aS'https://www.clarin.com/politica/Das-Neves-chantaje-elogio-Frigerio_0_1577842240.html'
p8
aS'https://www.clarin.com/politica/Jujuy-primera-provincia-Nacion-devolucion_0_1577842232.html'
p9
aS'https://www.clarin.com/politica/Jujuy-primera-provincia-Nacion-devolucion_0_1577842232.html'
p10
a.