(lp0
Vhttps://www.clarin.com/sociedad/Video-Star-Wars-revoluciono-Ezeiza_0_1655234504.html
p1
aVhttps://www.clarin.com/sociedad/Video-Star-Wars-revoluciono-Ezeiza_0_1655234504.html
p2
aVhttps://www.clarin.com/politica/Macri-reaparece-acto-cerrado-Vidal_0_1655234499.html
p3
aVhttps://www.clarin.com/politica/Macri-reaparece-acto-cerrado-Vidal_0_1655234499.html
p4
aVhttps://www.clarin.com/ieco/presionar-CGT-bancarios-marchan-microcentro_0_1655234498.html
p5
aVhttps://www.clarin.com/ieco/presionar-CGT-bancarios-marchan-microcentro_0_1655234498.html
p6
aVhttps://www.clarin.com/politica/Escandalo-Plata-dichos-policia-intendente_0_1655234490.html
p7
aVhttps://www.clarin.com/politica/Escandalo-Plata-dichos-policia-intendente_0_1655234490.html
p8
aVhttps://www.clarin.com/sociedad/Convocan-Facebook-nuevas-fiestas-clandestinas_0_1655234488.html
p9
aVhttps://www.clarin.com/sociedad/Convocan-Facebook-nuevas-fiestas-clandestinas_0_1655234488.html
p10
a.