(lp0
S'https://www.clarin.com/ieco/economia/Galuccio-YPF-encargado-Gas-Energia_0_1541246087.html'
p1
aS'https://www.clarin.com/ieco/economia/Galuccio-YPF-encargado-Gas-Energia_0_1541246087.html'
p2
aS'https://www.clarin.com/politica/preocupacion-Gobierno-chino-hundimiento-pesquero_0_1541246065.html'
p3
aS'https://www.clarin.com/politica/preocupacion-Gobierno-chino-hundimiento-pesquero_0_1541246065.html'
p4
aS'https://www.clarin.com/sociedad/Denuncian-fallecio-paciente-hospital-gastroenterologo_0_1541246069.html'
p5
aS'https://www.clarin.com/sociedad/Denuncian-fallecio-paciente-hospital-gastroenterologo_0_1541246069.html'
p6
aS'https://www.clarin.com/politica/agrupacion-macrista-parodio-artistas-deuda_0_1541246058.html'
p7
aS'https://www.clarin.com/politica/agrupacion-macrista-parodio-artistas-deuda_0_1541246058.html'
p8
a.