(lp0
Vhttps://www.clarin.com/politica/Echegaray-PJ-Lamberto-Auditoria-General_0_1630037088.html
p1
aVhttps://www.clarin.com/politica/Echegaray-PJ-Lamberto-Auditoria-General_0_1630037088.html
p2
aVhttps://www.clarin.com/politica/Venezuela-Macri-Quiere-destruir-Mercosur_0_1630037087.html
p3
aVhttps://www.clarin.com/politica/Venezuela-Macri-Quiere-destruir-Mercosur_0_1630037087.html
p4
aVhttps://www.clarin.com/sociedad/acatamiento-primer-docente-gestion-Vidal_0_1630037083.html
p5
aVhttps://www.clarin.com/sociedad/acatamiento-primer-docente-gestion-Vidal_0_1630037083.html
p6
a.