(lp0
S'https://www.clarin.com/sociedad/Hoy-intentan-siamesas-Bianca-Luciana_0_1569443105.html'
p1
aS'https://www.clarin.com/sociedad/Rock-fiesta-celebrar-cosecha-Mendoza_0_1569443107.html'
p2
aS'https://www.clarin.com/sociedad/Video-explosion-colores-hizo-viral_0_1569443095.html'
p3
a.