(lp0
Vhttps://www.clarin.com/politica/Florencia-NiUnaMenos-escribio-Facebook-Cristina_0_1589241121.html
p1
aVhttps://www.clarin.com/politica/Florencia-NiUnaMenos-escribio-Facebook-Cristina_0_1589241121.html
p2
aVhttps://www.clarin.com/sociedad/Recibio-noticia-inesperada-despues-volvio_0_1589241120.html
p3
aVhttps://www.clarin.com/sociedad/Recibio-noticia-inesperada-despues-volvio_0_1589241120.html
p4
aVhttps://www.clarin.com/sociedad/anos-Angeles-vida-Torito_0_1588041326.html
p5
aVhttps://www.clarin.com/sociedad/anos-Angeles-vida-Torito_0_1588041326.html
p6
aVhttps://www.clarin.com/politica/Macri-quinta-particular-retomara-agenda_0_1589241114.html
p7
aVhttps://www.clarin.com/politica/Macri-quinta-particular-retomara-agenda_0_1589241114.html
p8
aVhttps://www.clarin.com/politica/Moyano-arritmia-Macri-culpa-ministros_0_1589241112.html
p9
aVhttps://www.clarin.com/politica/Moyano-arritmia-Macri-culpa-ministros_0_1589241112.html
p10
a.