(lp0
S'https://www.clarin.com/sociedad/Video-ciudad-acantilado-efecto-Nino_0_1513049075.html'
p1
aS'https://www.clarin.com/ieco/tarifas-ajustes-Aranguren_0_1513049050.html'
p2
aS'https://www.clarin.com/ieco/tarifas-ajustes-Aranguren_0_1513049061.html'
p3
aS'https://www.clarin.com/sociedad/Rutas-tragicas-argentino-volvia-Brasil_0_1513049043.html'
p4
a.