(lp0
Vhttps://www.clarin.com/politica/Anuncian-cobertura-garantizar-universal-tratamientos_0_1624637661.html
p1
aVhttps://www.clarin.com/politica/Anuncian-cobertura-garantizar-universal-tratamientos_0_1624637661.html
p2
aVhttps://www.clarin.com/sociedad/antiamantes-infieles-China-servicio-despechadas_0_1624637659.html
p3
aVhttps://www.clarin.com/politica/mujer-murio-piquete-Puente-Pueyrredon_0_1624637650.html
p4
aVhttps://www.clarin.com/politica/mujer-murio-piquete-Puente-Pueyrredon_0_1624637650.html
p5
aVhttps://www.clarin.com/ieco/Arcor-invirtio-US-millones-planta_0_1624637631.html
p6
aVhttps://www.clarin.com/sociedad/Encuentran-pozo-submarino-profundo-mundo_0_1624637635.html
p7
aVhttps://www.clarin.com/sociedad/Encuentran-pozo-submarino-profundo-mundo_0_1624637635.html
p8
aVhttps://www.clarin.com/sociedad/piloto-linda-Instagram_0_1624637649.html
p9
aVhttps://www.clarin.com/sociedad/piloto-linda-Instagram_0_1624637649.html
p10
a.