(lp0
S'https://www.clarin.com/sociedad/respuesta-hombre-quedo-lupa_0_1561044216.html'
p1
aS'https://www.clarin.com/politica/oportunidad-alentar-inversiones-ajustar-deficit_0_1561044207.html'
p2
aS'https://www.clarin.com/sociedad/Fiesta-tragica-ordenaron-detener-organizo_0_1561044215.html'
p3
aS'https://www.clarin.com/politica/Ofertaron-US-millones-nuevos-deuda_0_1561044210.html'
p4
aS'https://www.clarin.com/politica/Ofertaron-US-millones-nuevos-deuda_0_1561044210.html'
p5
aS'https://www.clarin.com/ieco/parate-petroleo-afecta-consumo-empleo_0_1561044168.html'
p6
aS'https://www.clarin.com/ieco/parate-petroleo-afecta-consumo-empleo_0_1561044168.html'
p7
aS'https://www.clarin.com/politica/dilema-crecer-dar-paseo-Ferrari_0_1561044205.html'
p8
aS'https://www.clarin.com/sociedad/Angustia-hospital-chicas-internadas-grave_0_1561044219.html'
p9
aS'https://www.clarin.com/sociedad/Angustia-hospital-chicas-internadas-grave_0_1561044219.html'
p10
aS'https://www.clarin.com/ieco/Empresarios-Gobierno-necesita-hagamos-goles_0_1561044222.html'
p11
aS'https://www.clarin.com/ieco/Empresarios-Gobierno-necesita-hagamos-goles_0_1561044222.html'
p12
a.