(lp0
Vhttps://www.clarin.com/ieco/JP-Morgan-preve-caida-PBI_0_1685231487.html
p1
aVhttps://www.clarin.com/sociedad/prevista-Kraftwerk-Buenos-Aires-incognita_0_1685231485.html
p2
aVhttps://www.clarin.com/sociedad/prevista-Kraftwerk-Buenos-Aires-incognita_0_1685231485.html
p3
aVhttps://www.clarin.com/politica/Pinedo-aumento-legisladores-sueldo-bolsillo_0_1685231478.html
p4
aVhttps://www.clarin.com/politica/Pinedo-aumento-legisladores-sueldo-bolsillo_0_1685231478.html
p5
aVhttps://www.clarin.com/sociedad/mujer-luz-piso-guardia-Santojanni_0_1685231477.html
p6
aVhttps://www.clarin.com/sociedad/mujer-luz-piso-guardia-Santojanni_0_1685231477.html
p7
a.