(lp0
S'https://www.clarin.com/politica/Despues-Awada-sorprenden-ministra-Macri_0_1519648171.html'
p1
aS'https://www.clarin.com/politica/Despues-Awada-sorprenden-ministra-Macri_0_1519648171.html'
p2
aS'https://www.clarin.com/politica/Boudou-reaparecio-acampe-Milagro-Sala_0_1519648160.html'
p3
aS'https://www.clarin.com/politica/Boudou-reaparecio-acampe-Milagro-Sala_0_1519648160.html'
p4
aS'https://www.clarin.com/sociedad/Viveza-criolla-Venden-combatir-dengue_0_1519648155.html'
p5
aS'https://www.clarin.com/sociedad/Viveza-criolla-Venden-combatir-dengue_0_1519648155.html'
p6
aS'https://www.clarin.com/ieco/economia/precios-sistema-supermercados_0_1519048503.html'
p7
aS'https://www.clarin.com/ieco/economia/precios-sistema-supermercados_0_1519048503.html'
p8
aS'https://www.clarin.com/ieco/economia/carne-precio_0_1519048501.html'
p9
aS'https://www.clarin.com/ieco/economia/financial_times-bonistas-aceptacion_0_1519048374.html'
p10
a.