(lp0
S'https://www.clarin.com/politica/Casanello-medidas-definir-procesa-Echegaray_0_1591640965.html'
p1
aS'https://www.clarin.com/ieco/mejores-empresas/Assurant_0_1591640972.html'
p2
aS'https://www.clarin.com/politica/criticas-Vidal-difusion-Declaraciones-Juradas_0_1591640971.html'
p3
a.