(lp0
Vhttps://www.clarin.com/sociedad/China-termino-mayor-represa-mundo_0_1653434691.html
p1
aVhttps://www.clarin.com/sociedad/China-termino-mayor-represa-mundo_0_1653434691.html
p2
aVhttps://www.clarin.com/politica/Gobierno-maquinas-cambia-negocio-electronico_0_1653434684.html
p3
aVhttps://www.clarin.com/politica/Gobierno-maquinas-cambia-negocio-electronico_0_1653434684.html
p4
aVhttps://www.clarin.com/politica/Pinedo-aclara-Malvinas-viajar-negociacion_0_1653434683.html
p5
aVhttps://www.clarin.com/politica/Pinedo-aclara-Malvinas-viajar-negociacion_0_1653434683.html
p6
aVhttps://www.clarin.com/sociedad/Rio-celebraron-Juegos-Olimpicos-perros_0_1653434677.html
p7
aVhttps://www.clarin.com/sociedad/Rio-celebraron-Juegos-Olimpicos-perros_0_1653434677.html
p8
a.