(lp0
S'https://www.clarin.com/ieco/Macri-mundo-pelea-empleo_0_1574242611.html'
p1
aS'https://www.clarin.com/sociedad/Parques-Nacionales-recorrer-Street-View_0_1574242600.html'
p2
aS'https://www.clarin.com/ieco/medidas-Cabrera-anuncio-pymes_0_1574242609.html'
p3
aS'https://www.clarin.com/sociedad/precio-garrafas-municipio-reparte-calefaccionar_0_1574242616.html'
p4
aS'https://www.clarin.com/sociedad/Vidal-importante-chicos-aprendan_0_1574242603.html'
p5
aS'https://www.clarin.com/sociedad/inquietante-ultimo-mensaje-chicos-perdidos_0_1574242602.html'
p6
a.