(lp0
Vhttps://www.clarin.com/ieco/Luego-presidente-inaugurara-Rural-Palermo_0_1595240612.html
p1
aVhttps://www.clarin.com/ieco/Luego-presidente-inaugurara-Rural-Palermo_0_1595240612.html
p2
aVhttps://www.clarin.com/sociedad/Remataran-zoologico-Mendoza_0_1595240629.html
p3
aVhttps://www.clarin.com/ieco/economia/YPF-inversiones-millones-Neuquen-Mendoza_0_1595240626.html
p4
aVhttps://www.clarin.com/ieco/economia/YPF-inversiones-millones-Neuquen-Mendoza_0_1595240626.html
p5
aVhttps://www.clarin.com/politica/Macri-negociacion-Corte-senadora-opositora_0_1595240625.html
p6
aVhttps://www.clarin.com/politica/Macri-negociacion-Corte-senadora-opositora_0_1595240625.html
p7
aVhttps://www.clarin.com/sociedad/Suspenden-maestra-Rosario-maltratar-alumno_0_1595240623.html
p8
aVhttps://www.clarin.com/sociedad/Suspenden-maestra-Rosario-maltratar-alumno_0_1595240623.html
p9
aVhttps://www.clarin.com/sociedad/diputado-acusado-violento-retirar-denuncia_0_1595240621.html
p10
aVhttps://www.clarin.com/sociedad/diputado-acusado-violento-retirar-denuncia_0_1595240621.html
p11
a.