(lp0
Vhttps://www.clarin.com/sociedad/California-voto-preservativo-peliculas-porno_0_1684031681.html
p1
aVhttps://www.clarin.com/sociedad/California-voto-preservativo-peliculas-porno_0_1684031681.html
p2
aVhttps://www.clarin.com/politica/Acorralado-amenazar-Esteche-contrato-mediatico_0_1684031687.html
p3
aVhttps://www.clarin.com/politica/Acorralado-amenazar-Esteche-contrato-mediatico_0_1684031687.html
p4
aVhttps://www.clarin.com/politica/Hotesur-operativo-Tribunales-archivos-digitales_0_1684031682.html
p5
aVhttps://www.clarin.com/politica/Hotesur-operativo-Tribunales-archivos-digitales_0_1684031682.html
p6
aVhttps://www.clarin.com/sociedad/Repudio-intendente-dijo-niunamenos-moda_0_1684031680.html
p7
aVhttps://www.clarin.com/sociedad/Repudio-intendente-dijo-niunamenos-moda_0_1684031680.html
p8
aVhttps://www.clarin.com/sociedad/Extienden-vacuna-VPH-obligatoria-varones_0_1684031674.html
p9
aVhttps://www.clarin.com/sociedad/Extienden-vacuna-VPH-obligatoria-varones_0_1684031674.html
p10
aVhttps://www.clarin.com/politica/Presentan-Buenos-Aires-innovaciones-saneamiento_0_1683431800.html
p11
aVhttps://www.clarin.com/politica/Presentan-Buenos-Aires-innovaciones-saneamiento_0_1683431800.html
p12
aVhttps://www.clarin.com/ieco/economia/ganadores-perdedores-Bolsa-victoria-Trump_0_1684031672.html
p13
aVhttps://www.clarin.com/ieco/economia/ganadores-perdedores-Bolsa-victoria-Trump_0_1684031672.html
p14
a.