(lp0
Vhttps://www.clarin.com/politica/nuevo-regimen-inversiones-obras-publicas_0_1688231349.html
p1
aVhttps://www.clarin.com/politica/Desafio-opositor-Senado-aprobaron-emergencia_0_1688231346.html
p2
aVhttps://www.clarin.com/sociedad/oportunidades-jovenes-argentinos-estudia-trabaja_0_1688231342.html
p3
aVhttps://www.clarin.com/sociedad/oportunidades-jovenes-argentinos-estudia-trabaja_0_1688231342.html
p4
aVhttps://www.clarin.com/politica/Austral-justicia-publicas-pagar-deudas_0_1688231324.html
p5
aVhttps://www.clarin.com/politica/Austral-justicia-publicas-pagar-deudas_0_1688231324.html
p6
aVhttps://www.clarin.com/sociedad/Lanzaron-nuevo-Hospital-Clinicas-incidentes_0_1688231307.html
p7
aVhttps://www.clarin.com/sociedad/Lanzaron-nuevo-Hospital-Clinicas-incidentes_0_1688231307.html
p8
aVhttps://www.clarin.com/ieco/delegacion-Hacienda-Washington-acelerar-EEUU_0_1688231337.html
p9
aVhttps://www.clarin.com/politica/Alicia-Kirchner-nuevo-gabinete-asesores_0_1688231321.html
p10
aVhttps://www.clarin.com/politica/Alicia-Kirchner-nuevo-gabinete-asesores_0_1688231321.html
p11
a.