(lp0
S'https://www.clarin.com/politica/Piden-embargar-millones-Cristobal-Lopez_0_1676232462.html'
p1
aS'https://www.clarin.com/sociedad/Destapan-primera-siglos-tumba-Jesus_0_1676832315.html'
p2
aS'https://www.clarin.com/ieco/economia/Comercio-electronico-correo-argentino-aleman_0_1676232530.html'
p3
aS'https://www.clarin.com/ieco/economia/Coto-seducir-fabricantes-James-Bond_0_1676232435.html'
p4
aS'https://www.clarin.com/politica/tironeos-internos-Macri-relanzo-Cambiemos_0_1676232561.html'
p5
aS'https://www.clarin.com/sociedad/Fin-celular-usarlo-aulas-bonaerenses_0_1676832311.html'
p6
a.