(lp0
S'https://www.clarin.com/opinion/obsesiones-genera-Freud_0_1571243000.html'
p1
aS'https://www.clarin.com/politica/Stolbizer-estrategia-Lazaro-Baez-quedarse_0_1571842814.html'
p2
aS'https://www.clarin.com/politica/socio-Kirchner-laberinto-armo-mismo_0_1571243071.html'
p3
a.