(lp0
Vhttps://www.clarin.com/politica/Acuerdo-Diputados-dejar-aguinaldo-Ganancias_0_1592240886.html
p1
aVhttps://www.clarin.com/politica/Highton-defendio-inclusion-mujeres-Corte_0_1592240882.html
p2
aVhttps://www.clarin.com/politica/Highton-defendio-inclusion-mujeres-Corte_0_1592240882.html
p3
a.