(lp0
S'https://www.clarin.com/sociedad/etiope-corrio-zapatilla-conmovio-estadio_0_1631236942.html'
p1
aS'https://www.clarin.com/politica/Mira-insolito-intento-Othacehe-destitucion_0_1631236943.html'
p2
aS'https://www.clarin.com/politica/Othacehe-perdio-ultima-quedaba-Merlo_0_1631236938.html'
p3
a.