(lp0
S'https://www.clarin.com/sociedad/Insolito-Porsche-dolares-meterlo-garage_0_1600640026.html'
p1
aS'https://www.clarin.com/politica/Diputados-aprobaron-allanamiento-domicilio-Vido_0_1600640020.html'
p2
aS'https://www.clarin.com/politica/Movimiento-Evita-deja-bloque-diputados_0_1600640043.html'
p3
aS'https://www.clarin.com/ieco/economia/guru-inversiones-apuesta-bonos-argentinos_0_1600640022.html'
p4
aS'https://www.clarin.com/politica/Ruta-dinero-formas-desviar-FPT_0_1600640030.html'
p5
a.