(lp0
Vhttps://www.clarin.com/sociedad/Prision-preventiva-ultima-pareja-fisioterapeuta_0_1634236670.html
p1
aVhttps://www.clarin.com/sociedad/Prision-preventiva-ultima-pareja-fisioterapeuta_0_1634236670.html
p2
aVhttps://www.clarin.com/politica/Imputan-Szpolski-Pergolini-evasion-millonaria_0_1634236683.html
p3
aVhttps://www.clarin.com/politica/Imputan-Szpolski-Pergolini-evasion-millonaria_0_1634236683.html
p4
aVhttps://www.clarin.com/politica/unica-verdad-realidad-Macri-volvio_0_1634236675.html
p5
aVhttps://www.clarin.com/politica/unica-verdad-realidad-Macri-volvio_0_1634236675.html
p6
aVhttps://www.clarin.com/sociedad/Emotivo-bomberos-reanimando-perrito-incendio_0_1634236677.html
p7
aVhttps://www.clarin.com/sociedad/Emotivo-bomberos-reanimando-perrito-incendio_0_1634236677.html
p8
aVhttps://www.clarin.com/politica/Convocan-reapertura-Nisman-Cristina-Kirchner_0_1634236673.html
p9
aVhttps://www.clarin.com/politica/Convocan-reapertura-Nisman-Cristina-Kirchner_0_1634236673.html
p10
aVhttps://www.clarin.com/sociedad/Juegos-Olimpicos-alimentara-recursos-Rio_0_1634236661.html
p11
aVhttps://www.clarin.com/sociedad/Juegos-Olimpicos-alimentara-recursos-Rio_0_1634236661.html
p12
a.