(lp0
S'https://www.clarin.com/politica/Isabel-Macedo-Juan-Manuel-Urtubey_0_1656434357.html'
p1
aS'https://www.clarin.com/politica/Macri-principales-figuras-Gobierno-timbreo_0_1656434360.html'
p2
aS'https://www.clarin.com/politica/Isabel-Macedo-Juan-Manuel-Urtubey_0_1656434356.html'
p3
a.