(lp0
Vhttps://www.clarin.com/politica/Fondos-buitre-reunion-oficialismo-oposicion_0_1539446334.html
p1
aVhttps://www.clarin.com/politica/Fondos-buitre-reunion-oficialismo-oposicion_0_1539446334.html
p2
aVhttps://www.clarin.com/sociedad/Quedo-colgada-puente-policia-video_0_1539446318.html
p3
aVhttps://www.clarin.com/sociedad/Quedo-colgada-puente-policia-video_0_1539446318.html
p4
aVhttps://www.clarin.com/politica/Macri-acuerdo-holdouts-ajuste-hiperinflacion_0_1539446301.html
p5
aVhttps://www.clarin.com/politica/Macri-acuerdo-holdouts-ajuste-hiperinflacion_0_1539446301.html
p6
a.