(lp0
Vhttps://www.clarin.com/sociedad/robots-capacidad-mental-chico-anos_0_1514248973.html
p1
aVhttps://www.clarin.com/sociedad/robots-capacidad-mental-chico-anos_0_1514248973.html
p2
aVhttps://www.clarin.com/sociedad/Pinamar-apuestan-envion-feriados-Carnaval_0_1514248967.html
p3
aVhttps://www.clarin.com/politica/Cristina_Kirchner-Los_Sauces-El_Calafate-Chayanne-Ricky_Martin-gerenciamiento-contrato-Relats-Panatel-Maximo_Kirchner_0_1514249008.html
p4
aVhttps://www.clarin.com/politica/Cristina_Kirchner-Los_Sauces-El_Calafate-Chayanne-Ricky_Martin-gerenciamiento-contrato-Relats-Panatel-Maximo_Kirchner_0_1514249008.html
p5
aVhttps://www.clarin.com/politica/FPV-division_del_bloque-PJ-Hector_Recalde-La_Campora-Maximo_Kirchner-diputados-Congreso_0_1514249006.html
p6
aVhttps://www.clarin.com/politica/FPV-division_del_bloque-PJ-Hector_Recalde-La_Campora-Maximo_Kirchner-diputados-Congreso_0_1514249006.html
p7
aVhttps://www.clarin.com/politica/Puente_Aereo-Uruguay-nueva_linea-Gobierno_0_1514249004.html
p8
aVhttps://www.clarin.com/ieco/economia/luz-tarifa_0_1514249003.html
p9
aVhttps://www.clarin.com/politica/Scooter-cartera-Alicia_0_1514248996.html
p10
aVhttps://www.clarin.com/politica/Scooter-cartera-Alicia_0_1514248996.html
p11
aVhttps://www.clarin.com/sociedad/Trabajadores-realizaron-festival-vaciamiento-Grupo_0_1514248984.html
p12
a.