(lp0
S'https://www.clarin.com/sociedad/Putin-Ahora-porqueria-America-Latina_0_1511849039.html'
p1
aS'https://www.clarin.com/sociedad/Miss-Mundo-admitio-hizo-trampa_0_1511849045.html'
p2
aS'https://www.clarin.com/ieco/empresas-y-negocios/Preven-caida-ventas-iPhone_0_1511849054.html'
p3
aS'https://www.clarin.com/politica/gobernadores-PJ-Casa_Rosada-coparticipacion-obras_0_1511849030.html'
p4
aS'https://www.clarin.com/ieco/tarifas-energia_electrica-luz-desarrollo_social-tarifa_social_0_1511849036.html'
p5
aS'https://www.clarin.com/politica/Martin_Insaurralde-Fernando_Espinoza-PJ_bonaerense_0_1511849050.html'
p6
a.