(lp0
S'https://www.clarin.com/ieco/economia/fallo-Corte-suben-acciones-electricas_0_1645635501.html'
p1
aS'https://www.clarin.com/politica/Alicia-Kirchner-Buenos-Aires-plata_0_1645635496.html'
p2
aS'https://www.clarin.com/ieco/economia/Aranguren-facturas-gas-iran-mes_0_1645635500.html'
p3
aS'https://www.clarin.com/sociedad/Logro-desfilar-concurso-dejaban-gordita_0_1645635498.html'
p4
aS'https://www.clarin.com/ieco/Arranca-normalizacion-facturas-impagas-abril_0_1645635507.html'
p5
aS'https://www.clarin.com/sociedad/original-utilizo-campeon-mundial-Scrabble_0_1645635510.html'
p6
aS'https://www.clarin.com/sociedad/Video-trompadas-patadas-chicas-plaza_0_1645635499.html'
p7
aS'https://www.clarin.com/politica/Corte-negaron-declaraciones-juradas-Carrio_0_1645635509.html'
p8
a.