(lp0
S'https://www.clarin.com/politica/Marijuan-Martin-Baez-detenido-solicitado_0_1569443041.html'
p1
aS'https://www.clarin.com/politica/Marijuan-Martin-Baez-detenido-solicitado_0_1569443041.html'
p2
aS'https://www.clarin.com/opinion/Saber-vinos-placer-invasivo_0_1568843212.html'
p3
aS'https://www.clarin.com/sociedad/Lago-Escondido-vecinos-custodia-millonario_0_1568843210.html'
p4
aS'https://www.clarin.com/sociedad/valiente-lucha-mujer-mal-Alzheimer_0_1568843203.html'
p5
aS'https://www.clarin.com/sociedad/valiente-lucha-mujer-mal-Alzheimer_0_1568843203.html'
p6
aS'https://www.clarin.com/sociedad/drogas-diseno-fiestas-Web-subio_0_1568843200.html'
p7
aS'https://www.clarin.com/sociedad/drogas-diseno-fiestas-Web-subio_0_1568843200.html'
p8
a.