(lp0
S'https://www.clarin.com/sociedad/noticias-semana_0_1583841825.html'
p1
aS'https://www.clarin.com/sociedad/Mantener-cuesta-alquilar-departamento-chico_0_1583841832.html'
p2
aS'https://www.clarin.com/politica/tragedia-Once-embargar-sueldo-Vido_0_1583841817.html'
p3
aS'https://www.clarin.com/politica/Pinedo-tratando-tener-acuerdo-Congreso_0_1583841819.html'
p4
a.