(lp0
S'https://www.clarin.com/ieco/Gobierno-reglamento-precios-informar-supermercados_0_1542445921.html'
p1
aS'https://www.clarin.com/ieco/Gobierno-reglamento-precios-informar-supermercados_0_1542445921.html'
p2
aS'https://www.clarin.com/sociedad/pistas_0_1542445908.html'
p3
aS'https://www.clarin.com/sociedad/pistas_0_1542445908.html'
p4
aS'https://www.clarin.com/politica/Dia-Nisman-SIDE-definen-federal_0_1542445901.html'
p5
aS'https://www.clarin.com/politica/Dia-Nisman-SIDE-definen-federal_0_1542445901.html'
p6
aS'https://www.clarin.com/sociedad/Truco-camara-Resuelve-haciendo-malabares_0_1542445898.html'
p7
aS'https://www.clarin.com/sociedad/Truco-camara-Resuelve-haciendo-malabares_0_1542445898.html'
p8
a.