(lp0
S'https://www.clarin.com/politica/Casanello-Marijuan-investigacion-Cristina-Vido_0_1611438965.html'
p1
aS'https://www.clarin.com/politica/Casanello-Marijuan-investigacion-Cristina-Vido_0_1611438965.html'
p2
aS'https://www.clarin.com/sociedad/Alertan-presencia-sustancias-cancerigenas-chocolates_0_1612038781.html'
p3
aS'https://www.clarin.com/sociedad/Alertan-presencia-sustancias-cancerigenas-chocolates_0_1612038781.html'
p4
aS'https://www.clarin.com/opinion/reforma-politica-Provincia_0_1611438961.html'
p5
aS'https://www.clarin.com/opinion/libertad-prensa-democracia_0_1611438963.html'
p6
aS'https://www.clarin.com/opinion/libertad-prensa-democracia_0_1611438963.html'
p7
aS'https://www.clarin.com/opinion/Licencias-maternidadpaternidad-reforma_0_1611438962.html'
p8
aS'https://www.clarin.com/politica/Argentina-Brasil-Uruguay-presidencia-Mercosur_0_1611438988.html'
p9
aS'https://www.clarin.com/politica/Argentina-Brasil-Uruguay-presidencia-Mercosur_0_1611438988.html'
p10
aS'https://www.clarin.com/ieco/titular-Banco-Mundial-poner-pobres_0_1611438987.html'
p11
aS'https://www.clarin.com/ieco/titular-Banco-Mundial-poner-pobres_0_1611438987.html'
p12
aS'https://www.clarin.com/ieco/economia/alimentos-trepo-inflacion-junio_0_1611438975.html'
p13
aS'https://www.clarin.com/politica/Cambia-Procrear-podran-comprar-viviendas_0_1611439022.html'
p14
aS'https://www.clarin.com/politica/Cambia-Procrear-podran-comprar-viviendas_0_1611439022.html'
p15
aS'https://www.clarin.com/politica/Arranca-carrera-sindical-CGT-unificada_0_1611438995.html'
p16
aS'https://www.clarin.com/politica/Arranca-carrera-sindical-CGT-unificada_0_1611438995.html'
p17
aS'https://www.clarin.com/politica/moyanismo-moviliza-Juventud-Sindical_0_1611438991.html'
p18
a.