(lp0
Vhttps://www.clarin.com/ieco/demora-carne-EEUU-falta-controles_0_1531047244.html
p1
aVhttps://www.clarin.com/politica/Lesionados-Olivos-acalorados-Congreso_0_1531047298.html
p2
aVhttps://www.clarin.com/politica/Lesionados-Olivos-acalorados-Congreso_0_1531047298.html
p3
aVhttps://www.clarin.com/politica/Ahora-AFIP-investigara-Echegaray-Hotesur_0_1531047262.html
p4
aVhttps://www.clarin.com/politica/Ahora-AFIP-investigara-Echegaray-Hotesur_0_1531047262.html
p5
aVhttps://www.clarin.com/sociedad/esperanza-Gael-llego-Boston-operarse_0_1531047235.html
p6
aVhttps://www.clarin.com/sociedad/esperanza-Gael-llego-Boston-operarse_0_1531047235.html
p7
aVhttps://www.clarin.com/politica/nuevas-oficinas-Cristina-agencia-noticias_0_1531047268.html
p8
aVhttps://www.clarin.com/politica/nuevas-oficinas-Cristina-agencia-noticias_0_1531047268.html
p9
aVhttps://www.clarin.com/sociedad/Arrancan-clases-meta-cumplir-dias_0_1531047288.html
p10
aVhttps://www.clarin.com/sociedad/Arrancan-clases-meta-cumplir-dias_0_1531047288.html
p11
aVhttps://www.clarin.com/sociedad/Padres-chicos-docentes-temor-perdidos_0_1531047291.html
p12
aVhttps://www.clarin.com/sociedad/Padres-chicos-docentes-temor-perdidos_0_1531047291.html
p13
aVhttps://www.clarin.com/sociedad/Cohetes-ovnis-inventos-ofrecieron-Peron_0_1531047301.html
p14
aVhttps://www.clarin.com/sociedad/Cohetes-ovnis-inventos-ofrecieron-Peron_0_1531047301.html
p15
a.