(lp0
S'https://www.clarin.com/politica/Senado-tarifazo-calefaccion-sesiones-andamios_0_1624637734.html'
p1
aS'https://www.clarin.com/ieco/canasta-alimentaria-aumento-julio_0_1625237511.html'
p2
aS'https://www.clarin.com/sociedad/China-prueban-colectivo-futuro-arriba_0_1625237501.html'
p3
aS'https://www.clarin.com/ieco/Gobierno-ampliacion-Letra-US-millones_0_1625237504.html'
p4
aS'https://www.clarin.com/ieco/despues-intervencion-concurso-directorio-Enargas_0_1625237512.html'
p5
aS'https://www.clarin.com/sociedad/Nueva-cobertura-derivara-prepagas-sociales_0_1625237513.html'
p6
aS'https://www.clarin.com/ieco/aduanero-sospechado-encontro-refugio-Congreso_0_1624637618.html'
p7
a.