(lp0
S'https://www.clarin.com/politica/Mafia-Aduana-comenzaron-indagar-detenidos_0_1675632455.html'
p1
aS'https://www.clarin.com/politica/Mafia-Aduana-comenzaron-indagar-detenidos_0_1675632455.html'
p2
aS'https://www.clarin.com/politica/Rafecas-indaga-Milani-enriquecimiento-ilicito_0_1675632450.html'
p3
aS'https://www.clarin.com/politica/Rafecas-indaga-Milani-enriquecimiento-ilicito_0_1675632450.html'
p4
aS'https://www.clarin.com/politica/Carlotto-Vaticano-nefasta-complicidad-personas_0_1675632444.html'
p5
aS'https://www.clarin.com/politica/Carlotto-Vaticano-nefasta-complicidad-personas_0_1675632444.html'
p6
aS'https://www.clarin.com/politica/Manes-neurologo-puede-candidato_0_1675632442.html'
p7
aS'https://www.clarin.com/politica/Manes-neurologo-puede-candidato_0_1675632442.html'
p8
a.