(lp0
S'https://www.clarin.com/opinion/Gobierno-propio-laberinto_0_1615038485.html'
p1
aS'https://www.clarin.com/opinion/Boudou-reclama-pago-servicios_0_1615038484.html'
p2
aS'https://www.clarin.com/opinion/psicoanalisis-impacto-visiones-amor_0_1614438620.html'
p3
aS'https://www.clarin.com/opinion/Pensador-Rodin-celular-mano_0_1614438630.html'
p4
aS'https://www.clarin.com/opinion/Sentirse-maratonista-olimpico-dias_0_1614438627.html'
p5
aS'https://www.clarin.com/ieco/tecnologia/Accenture-Argentina-trabaja-robots-oficinas_0_1613838770.html'
p6
aS'https://www.clarin.com/politica/Investigan-financista-deposito-millones_0_1615038486.html'
p7
aS'https://www.clarin.com/opinion/cruel-realidad-tarifazo-choreo_0_1615038487.html'
p8
aS'https://www.clarin.com/opinion/Victor-Lavallen-yeites-tango_0_1614438626.html'
p9
aS'https://www.clarin.com/opinion/Argentina-apuesta-sobrevida-Europa_0_1614438628.html'
p10
a.