(lp0
S'https://www.clarin.com/ieco/empresarios-top-participaran-Foro-Inversiones_0_1649235139.html'
p1
aS'https://www.clarin.com/ieco/empresarios-top-participaran-Foro-Inversiones_0_1649235139.html'
p2
aS'https://www.clarin.com/sociedad/Alerta-Cordoba-incendio-Mina-Clavero_0_1649235138.html'
p3
aS'https://www.clarin.com/sociedad/Alerta-Cordoba-incendio-Mina-Clavero_0_1649235138.html'
p4
aS'https://www.clarin.com/sociedad/Mato-madre-hermano-ex-suicido_0_1649235135.html'
p5
aS'https://www.clarin.com/sociedad/Murio-Payaso-Plin_0_1649235133.html'
p6
aS'https://www.clarin.com/sociedad/Murio-Payaso-Plin_0_1649235133.html'
p7
aS'https://www.clarin.com/sociedad/Video-puente-alto-mundo-listo_0_1649235121.html'
p8
aS'https://www.clarin.com/sociedad/Video-puente-alto-mundo-listo_0_1649235121.html'
p9
a.