(lp0
S'https://www.clarin.com/sociedad/Murio-Francisco-Delich-UBA-democracia_0_1580842024.html'
p1
aS'https://www.clarin.com/sociedad/Murio-Francisco-Delich-UBA-democracia_0_1580842024.html'
p2
aS'https://www.clarin.com/politica/Papa-preocupado-economicos-America-Latina_0_1580842023.html'
p3
aS'https://www.clarin.com/politica/Papa-preocupado-economicos-America-Latina_0_1580842023.html'
p4
aS'https://www.clarin.com/politica/Papa-conflictos-Brasil-Venezuela-Argentina_0_1580842021.html'
p5
aS'https://www.clarin.com/politica/Papa-conflictos-Brasil-Venezuela-Argentina_0_1580842021.html'
p6
aS'https://www.clarin.com/politica/Gobierno-quiere-ponerle-obligatoriedad-primarias_0_1580842016.html'
p7
a.