(lp0
Vhttps://www.clarin.com/ieco/bancos-vuelcan-redes-sociales_0_1654034721.html
p1
aVhttps://www.clarin.com/politica/Ruta-dinero-confirmaron-inhibicion-financistas_0_1654034712.html
p2
aVhttps://www.clarin.com/politica/Ruta-dinero-confirmaron-inhibicion-financistas_0_1654034712.html
p3
a.