(lp0
S'https://www.clarin.com/sociedad/campeon-argentino-arranco-pasando-colectivos_0_1660034183.html'
p1
aS'https://www.clarin.com/opinion/tercio-poblacion-esclava_0_1660633922.html'
p2
aS'https://www.clarin.com/sociedad/choferes-micro-mascan-quedarse-dormidos_0_1660034175.html'
p3
aS'https://www.clarin.com/politica/AGN-SIGEN-auditarian-sorteos-judiciales_0_1660034187.html'
p4
aS'https://www.clarin.com/politica/Energia-renovable-Gobierno-pagara-hace_0_1660034182.html'
p5
aS'https://www.clarin.com/politica/bolillero-cargado-sospechas-graves-denuncias_0_1660034172.html'
p6
a.