(lp0
Vhttps://www.clarin.com/sociedad/Descubren-huellas-vida-antiguas-Tierra_0_1642035983.html
p1
aVhttps://www.clarin.com/sociedad/Descubren-huellas-vida-antiguas-Tierra_0_1642035983.html
p2
aVhttps://www.clarin.com/sociedad/Fabrica-Youtubers-nuevos-Web-cuentan_0_1642035980.html
p3
aVhttps://www.clarin.com/sociedad/Ir-jardin-infantes-rendimiento-secundaria_0_1642035979.html
p4
aVhttps://www.clarin.com/sociedad/Ir-jardin-infantes-rendimiento-secundaria_0_1642035979.html
p5
aVhttps://www.clarin.com/sociedad/Vital-educacion-calidad-inclusiva_0_1642035977.html
p6
aVhttps://www.clarin.com/sociedad/primeros-escuela-deben-prioridad-politica_0_1642035976.html
p7
aVhttps://www.clarin.com/politica/Cristina-retrocedieron-materia-economica-Macri_0_1642035975.html
p8
aVhttps://www.clarin.com/sociedad/chicos-menores-pueden-viajar-solos_0_1642035973.html
p9
aVhttps://www.clarin.com/politica/Frigerio-inflacion-agosto-baja-anos_0_1642035969.html
p10
aVhttps://www.clarin.com/politica/Frigerio-inflacion-agosto-baja-anos_0_1642035969.html
p11
a.