(lp0
Vhttps://www.clarin.com/sociedad/duena-hostel-aparecio-muerta-valija_0_1647435333.html
p1
aVhttps://www.clarin.com/sociedad/duena-hostel-aparecio-muerta-valija_0_1647435333.html
p2
aVhttps://www.clarin.com/sociedad/Mont-Blanc-turistas-varados-teleferico_0_1647435332.html
p3
aVhttps://www.clarin.com/sociedad/Mont-Blanc-turistas-varados-teleferico_0_1647435332.html
p4
aVhttps://www.clarin.com/sociedad/alarma-vaginal-amanecer-orgasmo_0_1647435326.html
p5
aVhttps://www.clarin.com/sociedad/alarma-vaginal-amanecer-orgasmo_0_1647435326.html
p6
aVhttps://www.clarin.com/politica/Rio-Turbio-Vido-convenios-UTN_0_1647435294.html
p7
aVhttps://www.clarin.com/politica/Rio-Turbio-Vido-convenios-UTN_0_1647435294.html
p8
aVhttps://www.clarin.com/politica/Corte-Rosatti-diferencio-entregar-declaracion_0_1647435324.html
p9
aVhttps://www.clarin.com/politica/Corte-Rosatti-diferencio-entregar-declaracion_0_1647435324.html
p10
aVhttps://www.clarin.com/ieco/economia/descuentos-consuman-gas_0_1647435321.html
p11
a.