(lp0
S'https://www.clarin.com/sociedad/Invasion-adolescentes-Rural-iconos-retro_0_1668433363.html'
p1
aS'https://www.clarin.com/opinion/CEO-militantes_0_1669033082.html'
p2
aS'https://www.clarin.com/ieco/coloquioidea/Sturzenegger-paritarias-debajo-inflacion-pasada_0_1668433364.html'
p3
aS'https://www.clarin.com/ieco/coloquioidea/Vidal-IDEA-amenazas-vamos-parar_0_1668433366.html'
p4
aS'https://www.clarin.com/opinion/Cristina-Andrea-universidad_0_1669033083.html'
p5
aS'https://www.clarin.com/opinion/Peron-peronista-justo-querian-serlo_0_1669033084.html'
p6
aS'https://www.clarin.com/ieco/coloquioidea/economistas-PBI-crecera_0_1668433365.html'
p7
aS'https://www.clarin.com/opinion/Mamas-mil-formas-dia_0_1669033086.html'
p8
a.