(lp0
Vhttps://www.clarin.com/ieco/Rige-descuento-regularizar-deudas-Provincia_0_1573642671.html
p1
aVhttps://www.clarin.com/ieco/Rige-descuento-regularizar-deudas-Provincia_0_1573642671.html
p2
aVhttps://www.clarin.com/sociedad/Zarate-prohibe-mujeres-iglesia-calzas_0_1573642668.html
p3
aVhttps://www.clarin.com/sociedad/Zarate-prohibe-mujeres-iglesia-calzas_0_1573642668.html
p4
aVhttps://www.clarin.com/sociedad/Murio-joven-haciendo-parkour-Rosario_0_1573642666.html
p5
aVhttps://www.clarin.com/sociedad/Murio-joven-haciendo-parkour-Rosario_0_1573642666.html
p6
aVhttps://www.clarin.com/sociedad/Tribunal-impone-multas-artista-vagina_0_1573642660.html
p7
aVhttps://www.clarin.com/sociedad/Tribunal-impone-multas-artista-vagina_0_1573642660.html
p8
aVhttps://www.clarin.com/politica/Michetti-distinguida-Honoris-Causa-Daegu_0_1573642657.html
p9
aVhttps://www.clarin.com/politica/Michetti-distinguida-Honoris-Causa-Daegu_0_1573642657.html
p10
a.