(lp0
S'https://www.clarin.com/politica/referente-derechos-Macri-Tiempo-Argentino_0_1609039155.html'
p1
aS'https://www.clarin.com/sociedad/pudo-operarse-padres-autorizaron_0_1609039152.html'
p2
aS'https://www.clarin.com/sociedad/vos-dijo-vecino-matarlo_0_1609039157.html'
p3
aS'https://www.clarin.com/sociedad/asesino-suicida-Necochea-hijos-sobrevivieron_0_1609039147.html'
p4
a.