(lp0
S'https://www.clarin.com/politica/Ercolini-pruebas-citar-Cristina-publica_0_1638436256.html'
p1
aS'https://www.clarin.com/politica/Ercolini-pruebas-citar-Cristina-publica_0_1638436256.html'
p2
aS'https://www.clarin.com/ieco/economia/Pymes-Rio-Negro-Neuquen-tarifazo_0_1638436251.html'
p3
aS'https://www.clarin.com/ieco/economia/Pymes-Rio-Negro-Neuquen-tarifazo_0_1638436251.html'
p4
aS'https://www.clarin.com/sociedad/Malabarista-extremo-mira-metros-altura_0_1638436246.html'
p5
aS'https://www.clarin.com/sociedad/Malabarista-extremo-mira-metros-altura_0_1638436246.html'
p6
a.