(lp0
S'https://www.clarin.com/sociedad/Infancia-segundos-casa-menor-anos_0_1666633429.html'
p1
aS'https://www.clarin.com/sociedad/Infancia-segundos-casa-menor-anos_0_1666633429.html'
p2
aS'https://www.clarin.com/politica/Maxima-vestido-libras-primer-Argentina_0_1666633436.html'
p3
aS'https://www.clarin.com/politica/Maxima-vestido-libras-primer-Argentina_0_1666633436.html'
p4
aS'https://www.clarin.com/ieco/coloquioidea/tecnologia-renueva-mundo-trabajo_0_1664233730.html'
p5
a.