(lp0
Vhttps://www.clarin.com/sociedad/pedido-Pachamama-chicos-hambre_0_1627637340.html
p1
aVhttps://www.clarin.com/sociedad/pedido-Pachamama-chicos-hambre_0_1627637340.html
p2
aVhttps://www.clarin.com/politica/Fuerte-The-New-York-Times_0_1627637334.html
p3
aVhttps://www.clarin.com/politica/Fuerte-The-New-York-Times_0_1627637334.html
p4
aVhttps://www.clarin.com/politica/Masiva-movimientos-izquierda-Plaza-Macri_0_1627637326.html
p5
aVhttps://www.clarin.com/politica/Masiva-movimientos-izquierda-Plaza-Macri_0_1627637326.html
p6
aVhttps://www.clarin.com/sociedad/Corrio-maraton-desierto-perrita-callejera_0_1627637311.html
p7
aVhttps://www.clarin.com/sociedad/Corrio-maraton-desierto-perrita-callejera_0_1627637311.html
p8
a.