(lp0
Vhttps://www.clarin.com/ieco/Buscan-afinar-estrategia-Buenos-Aires_0_1622237928.html
p1
aVhttps://www.clarin.com/ieco/Buscan-afinar-estrategia-Buenos-Aires_0_1622237928.html
p2
aVhttps://www.clarin.com/ieco/quieren-contagiarse-espiritu-Juegos-Olimpicos_0_1622237925.html
p3
aVhttps://www.clarin.com/ieco/quieren-contagiarse-espiritu-Juegos-Olimpicos_0_1622237925.html
p4
aVhttps://www.clarin.com/politica/Macri-teme-Tinelli-Cristina_0_1623437644.html
p5
aVhttps://www.clarin.com/politica/Macri-teme-Tinelli-Cristina_0_1623437644.html
p6
aVhttps://www.clarin.com/ieco/economia/Llego-tiempo-revisar-receta_0_1623437643.html
p7
aVhttps://www.clarin.com/politica/Terminaron-Olivos-Macri-Casa-Rosada_0_1622837815.html
p8
aVhttps://www.clarin.com/politica/Terminaron-Olivos-Macri-Casa-Rosada_0_1622837815.html
p9
aVhttps://www.clarin.com/politica/vayas-kirchnerismo_0_1623437642.html
p10
aVhttps://www.clarin.com/politica/Dialogo-EEUU-Hillary-propuesta-Cuba_0_1623437641.html
p11
a.