(lp0
S'https://www.clarin.com/ieco/Blanqueo-borrador-proyecto-circula-diciembre_0_1575442529.html'
p1
aS'https://www.clarin.com/ieco/Blanqueo-borrador-proyecto-circula-diciembre_0_1575442529.html'
p2
aS'https://www.clarin.com/politica/massismo-vamos-prestar-especulaciones-FpV_0_1575442527.html'
p3
aS'https://www.clarin.com/politica/massismo-vamos-prestar-especulaciones-FpV_0_1575442527.html'
p4
aS'https://www.clarin.com/sociedad/Podria-saberse-paso-chicos-perdidos_0_1575442499.html'
p5
aS'https://www.clarin.com/sociedad/Podria-saberse-paso-chicos-perdidos_0_1575442499.html'
p6
aS'https://www.clarin.com/sociedad/boliches-incluidos-denuncia-clausura-electronicas_0_1575442519.html'
p7
aS'https://www.clarin.com/sociedad/boliches-incluidos-denuncia-clausura-electronicas_0_1575442519.html'
p8
aS'https://www.clarin.com/politica/Margarita-Barrientos-viajo-Papa-recibio_0_1575442518.html'
p9
aS'https://www.clarin.com/politica/Margarita-Barrientos-viajo-Papa-recibio_0_1575442518.html'
p10
a.