(lp0
S'https://www.clarin.com/sociedad/reencuentro-bomberito-heroe-beba-salvo_0_1520848129.html'
p1
aS'https://www.clarin.com/sociedad/reencuentro-bomberito-heroe-beba-salvo_0_1520848129.html'
p2
aS'https://www.clarin.com/sociedad/Peru-mueren-chicos-mordidos-murcielagos_0_1520848200.html'
p3
aS'https://www.clarin.com/sociedad/Peru-mueren-chicos-mordidos-murcielagos_0_1520848200.html'
p4
aS'https://www.clarin.com/politica/Crisis-Santa-Cruz-despidos-polemica_0_1520848197.html'
p5
aS'https://www.clarin.com/politica/Crisis-Santa-Cruz-despidos-polemica_0_1520848197.html'
p6
aS'https://www.clarin.com/ieco/economia/dolar-sigue-escalando-sube-centavos_0_1520848119.html'
p7
a.