(lp0
Vhttps://www.clarin.com/politica/Cancilleria-restaurar-Palacio-San-Martin_0_1659434209.html
p1
aVhttps://www.clarin.com/politica/Cancilleria-restaurar-Palacio-San-Martin_0_1659434209.html
p2
aVhttps://www.clarin.com/politica/Italia-recomiendan-crear-policia-judicial_0_1659434206.html
p3
aVhttps://www.clarin.com/politica/Italia-recomiendan-crear-policia-judicial_0_1659434206.html
p4
aVhttps://www.clarin.com/politica/Michetti-busca-inversiones-Canada_0_1659434205.html
p5
aVhttps://www.clarin.com/politica/Michetti-busca-inversiones-Canada_0_1659434205.html
p6
aVhttps://www.clarin.com/opinion/obligacion-rendir-cuentas-Congreso_0_1659434204.html
p7
aVhttps://www.clarin.com/ieco/FMI-comentarios-inflacion-reuniones-oficiales_0_1659434203.html
p8
aVhttps://www.clarin.com/opinion/Malvinas-respetar-Constitucion_0_1659434201.html
p9
aVhttps://www.clarin.com/ieco/economia/Cerro-mayor-planta-hilados_0_1659434199.html
p10
aVhttps://www.clarin.com/ieco/economia/Cerro-mayor-planta-hilados_0_1659434199.html
p11
aVhttps://www.clarin.com/politica/Congreso-controlara-oficina-captaciones-telefonicas_0_1659434198.html
p12
aVhttps://www.clarin.com/politica/Congreso-controlara-oficina-captaciones-telefonicas_0_1659434198.html
p13
aVhttps://www.clarin.com/sociedad/Asesinaron-chica-anos-buscan-pareja_0_1659434194.html
p14
aVhttps://www.clarin.com/sociedad/Asesinaron-chica-anos-buscan-pareja_0_1659434194.html
p15
a.