(lp0
Vhttps://www.clarin.com/politica/Ricardo-Lorenzetti-involucrado-accidente-Rafaela_0_1686431417.html
p1
aVhttps://www.clarin.com/politica/Ricardo-Lorenzetti-involucrado-accidente-Rafaela_0_1686431417.html
p2
a.