(lp0
S'https://www.clarin.com/sociedad/festejos-Dia-Primavera-Palermo-supercustodiados_0_1654634621.html'
p1
aS'https://www.clarin.com/sociedad/Condenan-psicologo-pelear-paciente-familia_0_1654634612.html'
p2
aS'https://www.clarin.com/politica/kirchnerismo-Macri-papelon-internacional_0_1654634619.html'
p3
aS'https://www.clarin.com/politica/Mauricio-Nestor-soberania-despues-siempre_0_1654634622.html'
p4
aS'https://www.clarin.com/politica/Malvinas-Londres-contacto-Macri-May_0_1654634615.html'
p5
aS'https://www.clarin.com/politica/mujer-Maximo-Kirchner-declaro-bienes_0_1654634616.html'
p6
a.