(lp0
Vhttps://www.clarin.com/politica/Primera-condena-empresario-secuestros-dictadura_0_1549045323.html
p1
aVhttps://www.clarin.com/politica/Primera-condena-empresario-secuestros-dictadura_0_1549045323.html
p2
aVhttps://www.clarin.com/sociedad/Afirman-pollo-poniendo-vez-duro_0_1549045317.html
p3
aVhttps://www.clarin.com/sociedad/Afirman-pollo-poniendo-vez-duro_0_1549045317.html
p4
aVhttps://www.clarin.com/sociedad/Lujan-hombre-apunalo-despues-suicido_0_1549045298.html
p5
aVhttps://www.clarin.com/ieco/economia/congelamiento-proyecto-Arsat-3-peligran-trabajo_0_1549045297.html
p6
aVhttps://www.clarin.com/ieco/economia/congelamiento-proyecto-Arsat-3-peligran-trabajo_0_1549045297.html
p7
aVhttps://www.clarin.com/ieco/economia/Cesar-Alierta-manejo-Telefonica-anos_0_1549045293.html
p8
aVhttps://www.clarin.com/ieco/economia/Cesar-Alierta-manejo-Telefonica-anos_0_1549045293.html
p9
aVhttps://www.clarin.com/politica/Graciela-Ocana-cruzar-Victor-Hugo_0_1549045292.html
p10
aVhttps://www.clarin.com/politica/Graciela-Ocana-cruzar-Victor-Hugo_0_1549045292.html
p11
a.