(lp0
Vhttps://www.clarin.com/sociedad/Japon-avenida-centrica-hundio-genero_0_1683431686.html
p1
aVhttps://www.clarin.com/sociedad/Japon-avenida-centrica-hundio-genero_0_1683431686.html
p2
aVhttps://www.clarin.com/sociedad/Pulseras-electronicas-sistema-quieren-femicidios_0_1683431667.html
p3
aVhttps://www.clarin.com/sociedad/Pulseras-electronicas-sistema-quieren-femicidios_0_1683431667.html
p4
a.