(lp0
Vhttps://www.clarin.com/sociedad/mujer-kilos-bajar-mitad-tratarse_0_1504049898.html
p1
aVhttps://www.clarin.com/sociedad/mujer-kilos-bajar-mitad-tratarse_0_1504049898.html
p2
aVhttps://www.clarin.com/politica/carrio-lorenzetti_0_1504049899.html
p3
aVhttps://www.clarin.com/politica/carrio-lorenzetti_0_1504049899.html
p4
aVhttps://www.clarin.com/sociedad/Detienen-hombre-violar-hijos-decada_0_1504049894.html
p5
aVhttps://www.clarin.com/politica/Bonfatti-Santa-Fe-Carrio-triple-fuga_0_1504049868.html
p6
aVhttps://www.clarin.com/politica/Bonfatti-Santa-Fe-Carrio-triple-fuga_0_1504049868.html
p7
aVhttps://www.clarin.com/politica/Daniel_Scioli-cumpleanos-La_Nata_0_1504049876.html
p8
aVhttps://www.clarin.com/politica/Daniel_Scioli-cumpleanos-La_Nata_0_1504049876.html
p9
a.