(lp0
S'https://www.clarin.com/ieco/Oficializaron-pliegos-licitacion-energias-renovables_0_1620437991.html'
p1
aS'https://www.clarin.com/sociedad/aceite-principales-vendedores-aconseja-comprar_0_1620437994.html'
p2
aS'https://www.clarin.com/sociedad/ministra-Salud-bonaerense-atencion-hospitales_0_1620437998.html'
p3
aS'https://www.clarin.com/ieco/quejas-empresarias-regreso-compras-exterior_0_1620437988.html'
p4
a.