(lp0
Vhttps://www.clarin.com/politica/Cortes-Santa-Cruz-fuerzas-federales_0_1502850064.html
p1
aVhttps://www.clarin.com/politica/Cortes-Santa-Cruz-fuerzas-federales_0_1502850064.html
p2
aVhttps://www.clarin.com/ieco/economia/dolar-baja-centavos_0_1502849950.html
p3
aVhttps://www.clarin.com/politica/Nelson-Castro-Victor-Hugo-democracia_0_1502850050.html
p4
aVhttps://www.clarin.com/politica/Nelson-Castro-Victor-Hugo-democracia_0_1502850050.html
p5
aVhttps://www.clarin.com/politica/Perez_Corradi-Triple_Crimen-efedrina_0_1502850061.html
p6
aVhttps://www.clarin.com/politica/Perez_Corradi-Triple_Crimen-efedrina_0_1502850061.html
p7
aVhttps://www.clarin.com/politica/Alfredo-Casero-respondio-Victor-Hugo_0_1502850048.html
p8
aVhttps://www.clarin.com/politica/Alfredo-Casero-respondio-Victor-Hugo_0_1502850048.html
p9
a.