(lp0
S'https://www.clarin.com/sociedad/Subastaron-US-Cadillac-Evita-Peron_0_1543646000.html'
p1
aS'https://www.clarin.com/politica/Lost-version-piernas-bonitas_0_1543646008.html'
p2
aS'https://www.clarin.com/opinion/Excursion-colores-otonales_0_1543645969.html'
p3
aS'https://www.clarin.com/sociedad/celular-flexible-proyectara-hologramas-bateria_0_1543645997.html'
p4
aS'https://www.clarin.com/politica/Diputada-Carrizo-Congreso-representa-millones_0_1543646009.html'
p5
a.