(lp0
Vhttps://www.clarin.com/politica/Malvinas-polemica-Congreso-dudas-Malcorra_0_1653434782.html
p1
aVhttps://www.clarin.com/politica/Malvinas-polemica-Congreso-dudas-Malcorra_0_1653434782.html
p2
aVhttps://www.clarin.com/politica/FMI-Argentina-supervision-articulo-IV_0_1653434775.html
p3
aVhttps://www.clarin.com/politica/FMI-Argentina-supervision-articulo-IV_0_1653434775.html
p4
aVhttps://www.clarin.com/politica/FMI-Buenos-Aires-reconstruyendo-Argentina_0_1653434771.html
p5
aVhttps://www.clarin.com/politica/FMI-Buenos-Aires-reconstruyendo-Argentina_0_1653434771.html
p6
aVhttps://www.clarin.com/politica/Vidal-problema-inseguridad-intendentes-GBA_0_1653434769.html
p7
aVhttps://www.clarin.com/politica/Vidal-problema-inseguridad-intendentes-GBA_0_1653434769.html
p8
a.