(lp0
S'https://www.clarin.com/politica/partido-Carrio-votara-Macri-AFI_0_1625837553.html'
p1
aS'https://www.clarin.com/politica/partido-Carrio-votara-Macri-AFI_0_1625837553.html'
p2
aS'https://www.clarin.com/ieco/economia/Brasil-EEUU-Canada-importacion-Argentina_0_1625837542.html'
p3
aS'https://www.clarin.com/politica/ordeno-detener-Bonafini-pasara-comisaria_0_1625837511.html'
p4
aS'https://www.clarin.com/politica/ordeno-detener-Bonafini-pasara-comisaria_0_1625837511.html'
p5
aS'https://www.clarin.com/politica/Aerolineas-reclama-Bariloche-cedido-Recalde_0_1625837535.html'
p6
aS'https://www.clarin.com/politica/Aerolineas-reclama-Bariloche-cedido-Recalde_0_1625837535.html'
p7
a.