(lp0
S'https://www.clarin.com/opinion/Debemos-control-corrupcion-mentiras_0_1585041609.html'
p1
aS'https://www.clarin.com/sociedad/jovenes-argentinos-anotados-Polonia-Papa_0_1585041611.html'
p2
aS'https://www.clarin.com/sociedad/gente-ahora-sabra-recibe-universidad_0_1584441704.html'
p3
aS'https://www.clarin.com/opinion/semestre-vida_0_1585041615.html'
p4
aS'https://www.clarin.com/politica/vuelve-retrasar-causa-muerte-Nisman_0_1585041616.html'
p5
aS'https://www.clarin.com/sociedad/tragedia-Ruta-muertos-choque-Oran_0_1585041618.html'
p6
aS'https://www.clarin.com/sociedad/hallado-submarino-perdido-cuerpos-bordo_0_1585041605.html'
p7
a.