(lp0
Vhttps://www.clarin.com/sociedad/Solo-carreras-concentran-demanda-laboral_0_1528647602.html
p1
aVhttps://www.clarin.com/sociedad/Solo-carreras-concentran-demanda-laboral_0_1528647602.html
p2
aVhttps://www.clarin.com/sociedad/Mochilas-digitales-chicos-manuales-papel_0_1528647600.html
p3
aVhttps://www.clarin.com/sociedad/Mochilas-digitales-chicos-manuales-papel_0_1528647600.html
p4
aVhttps://www.clarin.com/politica/Peronismo-peluqueria-busqueda-nuevo-peinado_0_1528647662.html
p5
aVhttps://www.clarin.com/sociedad/Usan-Internet-investigar_0_1528647598.html
p6
aVhttps://www.clarin.com/sociedad/Usan-Internet-investigar_0_1528647598.html
p7
aVhttps://www.clarin.com/sociedad/salida-laboral-eje-eleccion-carrera_0_1528647614.html
p8
aVhttps://www.clarin.com/sociedad/salida-laboral-eje-eleccion-carrera_0_1528647614.html
p9
aVhttps://www.clarin.com/sociedad/inscriptos-Ingenieria-Sociales_0_1528647608.html
p10
aVhttps://www.clarin.com/politica/UCR-filas-macrismo-prometio-participacion_0_1528647656.html
p11
aVhttps://www.clarin.com/politica/UCR-filas-macrismo-prometio-participacion_0_1528647656.html
p12
aVhttps://www.clarin.com/ieco/economia/Europa-apura-acuerdo-Mercosur_0_1528647525.html
p13
aVhttps://www.clarin.com/ieco/economia/Europa-apura-acuerdo-Mercosur_0_1528647525.html
p14
aVhttps://www.clarin.com/opinion/anoranza-potrero_0_1528647558.html
p15
aVhttps://www.clarin.com/ieco/economia/INDEC-primer-provisorio-inflacion-saldra_0_1528647545.html
p16
aVhttps://www.clarin.com/politica/viaje-Buenos-Aires-alivio-Hollande_0_1528647523.html
p17
a.