(lp0
S'https://www.clarin.com/sociedad/Video-neonazis-desnudas-prostitutas-clientes_0_1580242126.html'
p1
aS'https://www.clarin.com/sociedad/Tribus-ruteras-violencia-aprietes-pasion_0_1580242128.html'
p2
aS'https://www.clarin.com/sociedad/Interpol-difunde-profugos-Time-Warp_0_1580242105.html'
p3
a.