(lp0
S'https://www.clarin.com/sociedad/eclipse-sol-deslumbro-Indonesia_0_1537046427.html'
p1
aS'https://www.clarin.com/sociedad/eclipse-sol-deslumbro-Indonesia_0_1537046427.html'
p2
aS'https://www.clarin.com/sociedad/rescataron-sobreviviente-aviones-General-Rodriguez_0_1537046459.html'
p3
aS'https://www.clarin.com/sociedad/rescataron-sobreviviente-aviones-General-Rodriguez_0_1537046459.html'
p4
aS'https://www.clarin.com/sociedad/Perito-Moreno-podria-romperse-manana_0_1537046454.html'
p5
aS'https://www.clarin.com/sociedad/Perito-Moreno-podria-romperse-manana_0_1537046454.html'
p6
aS'https://www.clarin.com/politica/TupacAmaru-MilagroSala_0_1537046394.html'
p7
aS'https://www.clarin.com/politica/TupacAmaru-MilagroSala_0_1537046394.html'
p8
aS'https://www.clarin.com/politica/DiegoBossio-CristinaKirchner_0_1537046428.html'
p9
aS'https://www.clarin.com/politica/DiegoBossio-CristinaKirchner_0_1537046428.html'
p10
a.