(lp0
S'https://www.clarin.com/politica/Carlotto-Obama-cita-vamos-pedirle_0_1529247186.html'
p1
aS'https://www.clarin.com/politica/abogado-Arroyo-noticia-dictamen-Saenz_0_1529247215.html'
p2
aS'https://www.clarin.com/politica/premier-italiano-Macri-Hollande-Bombonera_0_1529247188.html'
p3
aS'https://www.clarin.com/ieco/economia/petroleo-Techint-Tenaris-US-millones_0_1529247207.html'
p4
aS'https://www.clarin.com/politica/Alberto-Nisman-asesinado-dictamino-Saenz_0_1529247194.html'
p5
aS'https://www.clarin.com/politica/Toda-Hollande-Juanita-Moyano-Awada_0_1529247209.html'
p6
a.