(lp0
S'https://www.clarin.com/sociedad/Rolling-Stones-armaron-fiesta-despiden_0_1522647873.html'
p1
aS'https://www.clarin.com/sociedad/Rolling-Stones-armaron-fiesta-despiden_0_1522647873.html'
p2
aS'https://www.clarin.com/sociedad/historias-parejas-hicieron-amor-negocio_0_1522048218.html'
p3
aS'https://www.clarin.com/sociedad/historias-parejas-hicieron-amor-negocio_0_1522048218.html'
p4
aS'https://www.clarin.com/politica/historia-traicion_0_1522647803.html'
p5
aS'https://www.clarin.com/politica/historia-traicion_0_1522647803.html'
p6
aS'https://www.clarin.com/politica/retroceso-stalinismo-fracasado_0_1522647794.html'
p7
aS'https://www.clarin.com/politica/retroceso-stalinismo-fracasado_0_1522647794.html'
p8
aS'https://www.clarin.com/sociedad/oficial-comparar-precios-articulos-basicos_0_1522048212.html'
p9
aS'https://www.clarin.com/sociedad/oficial-comparar-precios-articulos-basicos_0_1522048212.html'
p10
aS'https://www.clarin.com/sociedad/sociedad-media-escasa-kirchnerismo_0_1522048208.html'
p11
aS'https://www.clarin.com/politica/Macri-mide-costo-politico-subir_0_1522647791.html'
p12
a.