(lp0
S'https://www.clarin.com/politica/Buscan-quitarle-Cristina-PJ-bonaerense_0_1684631646.html'
p1
aS'https://www.clarin.com/politica/Vidal-retoca-gabinete-encarar-campana_0_1684631710.html'
p2
aS'https://www.clarin.com/ieco/economia/Fuerte-perdida-Edenor-millones-pesos_0_1684631703.html'
p3
aS'https://www.clarin.com/ieco/complicada-tarea-explicar-mitad-llena_0_1684631701.html'
p4
aS'https://www.clarin.com/politica/Gobierno-apura-Fiestas-piqueteros-piden_0_1684631704.html'
p5
aS'https://www.clarin.com/politica/Gobierno-apura-Fiestas-piqueteros-piden_0_1684631704.html'
p6
a.