(lp0
Vhttps://www.clarin.com/ieco/economia/Eliminan-retenciones-exportacion-productos-organicos_0_1524447761.html
p1
aVhttps://www.clarin.com/ieco/cortes-electricidad-calor-edenor-edesur_0_1524447754.html
p2
aVhttps://www.clarin.com/sociedad/Hallan-Jerusalen-restos-asentamiento-anos_0_1524447732.html
p3
aVhttps://www.clarin.com/sociedad/Hallan-Jerusalen-restos-asentamiento-anos_0_1524447732.html
p4
aVhttps://www.clarin.com/ieco/economia/Gobierno-Comision-Nacional-Defensa-Competencia_0_1524447744.html
p5
aVhttps://www.clarin.com/politica/Hablo-recibio-primera-Qunita-desconfianza_0_1524447739.html
p6
aVhttps://www.clarin.com/politica/renovador-pedidos-Vidal-medio-bonaerense_0_1524447709.html
p7
aVhttps://www.clarin.com/politica/renovador-pedidos-Vidal-medio-bonaerense_0_1524447709.html
p8
a.