(lp0
Vhttps://www.clarin.com/ieco/economia/YPF-fijo-abril-salida-Galuccio_0_1549045505.html
p1
aVhttps://www.clarin.com/ieco/economia/YPF-fijo-abril-salida-Galuccio_0_1549045505.html
p2
aVhttps://www.clarin.com/sociedad/Conmocion-escuela-posible-mortal-hantavirus_0_1549045500.html
p3
aVhttps://www.clarin.com/sociedad/evacuados-Santa-Fe-crecida-rio_0_1549045489.html
p4
aVhttps://www.clarin.com/sociedad/evacuados-Santa-Fe-crecida-rio_0_1549045489.html
p5
aVhttps://www.clarin.com/ieco/economia/costos-construccion-aumentaron-primer-bimestre_0_1549045481.html
p6
aVhttps://www.clarin.com/ieco/economia/costos-construccion-aumentaron-primer-bimestre_0_1549045481.html
p7
aVhttps://www.clarin.com/sociedad/Corte-Suprema-ratifico-Colegio-Marianista_0_1549045472.html
p8
aVhttps://www.clarin.com/sociedad/Corte-Suprema-ratifico-Colegio-Marianista_0_1549045472.html
p9
aVhttps://www.clarin.com/politica/Carrio-declaro-Justicia-denuncias-Angelici_0_1549045474.html
p10
aVhttps://www.clarin.com/politica/Carrio-declaro-Justicia-denuncias-Angelici_0_1549045474.html
p11
aVhttps://www.clarin.com/sociedad/hielo-Artico-nuevo-minimo-historico_0_1549045453.html
p12
aVhttps://www.clarin.com/sociedad/hielo-Artico-nuevo-minimo-historico_0_1549045453.html
p13
a.