(lp0
Vhttps://www.clarin.com/ieco/finanzas/fuerte-caida-dolar-mayorista-centavos_0_1601239927.html
p1
aVhttps://www.clarin.com/ieco/finanzas/fuerte-caida-dolar-mayorista-centavos_0_1601239927.html
p2
aVhttps://www.clarin.com/politica/Preocupacion-Malvinas-impacto-Brexit_0_1601239926.html
p3
aVhttps://www.clarin.com/politica/Preocupacion-Malvinas-impacto-Brexit_0_1601239926.html
p4
aVhttps://www.clarin.com/ieco/economia/Fuertes-fuerte-Wall-Street-Brexit_0_1601239924.html
p5
aVhttps://www.clarin.com/ieco/economia/Fuertes-fuerte-Wall-Street-Brexit_0_1601239924.html
p6
aVhttps://www.clarin.com/sociedad/WhatsApp-desesperado-maestra-solidaria-enfermo_0_1601239922.html
p7
aVhttps://www.clarin.com/sociedad/WhatsApp-desesperado-maestra-solidaria-enfermo_0_1601239922.html
p8
aVhttps://www.clarin.com/ieco/economia/Gobierno-Aranguren-conflicto-intereses-Shell_0_1601239921.html
p9
aVhttps://www.clarin.com/ieco/economia/Gobierno-Aranguren-conflicto-intereses-Shell_0_1601239921.html
p10
aVhttps://www.clarin.com/politica/Lijo-descarta-Presidenta-Cobos-campana_0_1601239918.html
p11
aVhttps://www.clarin.com/politica/Lijo-descarta-Presidenta-Cobos-campana_0_1601239918.html
p12
aVhttps://www.clarin.com/politica/Piden-levantar-secreto-fiscal-Cristina_0_1601239910.html
p13
aVhttps://www.clarin.com/politica/Piden-levantar-secreto-fiscal-Cristina_0_1601239910.html
p14
a.