(lp0
S'https://www.clarin.com/sociedad/Mama-filmame-videos-generacion-youtuber_0_1647435368.html'
p1
aS'https://www.clarin.com/ieco/economia/primo-Macri-planta-papas-congeladas_0_1647435377.html'
p2
a.