(lp0
Vhttps://www.clarin.com/ieco/economia/Aumentan-partir-hoy-cigarrillos_0_1679232173.html
p1
aVhttps://www.clarin.com/ieco/economia/Aumentan-partir-hoy-cigarrillos_0_1679232173.html
p2
aVhttps://www.clarin.com/sociedad/laboratorio-pasarela-calle_0_1679232169.html
p3
aVhttps://www.clarin.com/sociedad/laboratorio-pasarela-calle_0_1679232169.html
p4
aVhttps://www.clarin.com/politica/Mafia-Aduana-profugo-buscando-Vido_0_1679232165.html
p5
aVhttps://www.clarin.com/politica/Mafia-Aduana-profugo-buscando-Vido_0_1679232165.html
p6
a.