(lp0
S'https://www.clarin.com/politica/Macri-Roma-reunion-Renzi-Italia_0_1529847116.html'
p1
aS'https://www.clarin.com/politica/Macri-Roma-reunion-Renzi-Italia_0_1529847116.html'
p2
aS'https://www.clarin.com/politica/Aprueban-comision-DNU-reintegro-provincias_0_1529247499.html'
p3
aS'https://www.clarin.com/politica/Aprueban-comision-DNU-reintegro-provincias_0_1529247499.html'
p4
aS'https://www.clarin.com/ieco/economia/Gobierno-cerrado-acuerdo-fondos-buitre_0_1529247310.html'
p5
aS'https://www.clarin.com/politica/Reencuentro-Moyano-Calo-Barrionuevo-Ganancias_0_1529247556.html'
p6
aS'https://www.clarin.com/politica/Reencuentro-Moyano-Calo-Barrionuevo-Ganancias_0_1529247556.html'
p7
aS'https://www.clarin.com/ieco/Hacienda-pago-tasas-conseguir-millones_0_1529247532.html'
p8
aS'https://www.clarin.com/sociedad/precios-clase-media-restaurante-crece_0_1529247511.html'
p9
aS'https://www.clarin.com/sociedad/precios-clase-media-restaurante-crece_0_1529247511.html'
p10
aS'https://www.clarin.com/politica/debate-Comodoro-Py-juez-investigar_0_1529847062.html'
p11
aS'https://www.clarin.com/politica/debate-Comodoro-Py-juez-investigar_0_1529847062.html'
p12
aS'https://www.clarin.com/politica/fiscal-afirmo-causa-Nisman-mataron_0_1529847055.html'
p13
aS'https://www.clarin.com/politica/fiscal-afirmo-causa-Nisman-mataron_0_1529847055.html'
p14
aS'https://www.clarin.com/politica/Principio-arreglo-Provincia-hoy-respuesta_0_1529847043.html'
p15
aS'https://www.clarin.com/politica/Principio-arreglo-Provincia-hoy-respuesta_0_1529847043.html'
p16
aS'https://www.clarin.com/politica/Docentes-acuerdo-Nacion-empiezan-Ciudad_0_1529847041.html'
p17
aS'https://www.clarin.com/politica/Docentes-acuerdo-Nacion-empiezan-Ciudad_0_1529847041.html'
p18
a.