(lp0
Vhttps://www.clarin.com/politica/Larroque-vs-Anguita-grieta-dentro_0_1558044463.html
p1
aVhttps://www.clarin.com/politica/Salta-Macri-cruzarse-Cristina-Urtubey_0_1558044458.html
p2
aVhttps://www.clarin.com/politica/Salta-Macri-cruzarse-Cristina-Urtubey_0_1558044458.html
p3
aVhttps://www.clarin.com/politica/Carrio-Cristina-Termino-ridiculo-nacional_0_1558044457.html
p4
aVhttps://www.clarin.com/politica/Carrio-Cristina-Termino-ridiculo-nacional_0_1558044457.html
p5
aVhttps://www.clarin.com/ieco/economia/decision-Corte-EEUU-tibia-bonos_0_1558044454.html
p6
aVhttps://www.clarin.com/ieco/economia/decision-Corte-EEUU-tibia-bonos_0_1558044454.html
p7
aVhttps://www.clarin.com/politica/Cuanta-gente-marcha-aguante-Tribunales_0_1558044448.html
p8
aVhttps://www.clarin.com/politica/Cuanta-gente-marcha-aguante-Tribunales_0_1558044448.html
p9
aVhttps://www.clarin.com/sociedad/acusaban-dejaban-colectivo-pasajeros-pimienta_0_1558044446.html
p10
aVhttps://www.clarin.com/sociedad/acusaban-dejaban-colectivo-pasajeros-pimienta_0_1558044446.html
p11
aVhttps://www.clarin.com/sociedad/estilo-Buscando-Nemo-pulpo-acuario_0_1558044441.html
p12
aVhttps://www.clarin.com/sociedad/estilo-Buscando-Nemo-pulpo-acuario_0_1558044441.html
p13
aVhttps://www.clarin.com/ieco/dolar-baja-centavo-fuerte-mayorista_0_1558044442.html
p14
a.