(lp0
S'https://www.clarin.com/sociedad/Mozart-Salieri-cantanta-Amadeus-rivalidad-amigos-enemigos-pelicula_0_1508849285.html'
p1
aS'https://www.clarin.com/sociedad/Mozart-Salieri-cantanta-Amadeus-rivalidad-amigos-enemigos-pelicula_0_1508849285.html'
p2
aS'https://www.clarin.com/sociedad/Look-Juliana-Awada-primer-primera_0_1508849340.html'
p3
aS'https://www.clarin.com/sociedad/Look-Juliana-Awada-primer-primera_0_1508849340.html'
p4
aS'https://www.clarin.com/sociedad/millones-personas-veran-afectadas-Nino_0_1508849324.html'
p5
aS'https://www.clarin.com/sociedad/millones-personas-veran-afectadas-Nino_0_1508849324.html'
p6
aS'https://www.clarin.com/ieco/FMI-pronostico-Argentina-PBI-Lagarde_0_1508849327.html'
p7
aS'https://www.clarin.com/ieco/FMI-pronostico-Argentina-PBI-Lagarde_0_1508849327.html'
p8
aS'https://www.clarin.com/ieco/economia/Macri-Pena-Nieto-acordaron-comerciales_0_1508849321.html'
p9
a.