(lp0
S'https://www.clarin.com/politica/sueldos-Zannini-mil-bancario-jubilado_0_1671432892.html'
p1
aS'https://www.clarin.com/politica/sueldos-Zannini-mil-bancario-jubilado_0_1671432892.html'
p2
aS'https://www.clarin.com/sociedad/Angeles-demonios-libro-record-kilos_0_1671432919.html'
p3
aS'https://www.clarin.com/sociedad/Angeles-demonios-libro-record-kilos_0_1671432919.html'
p4
aS'https://www.clarin.com/politica/Bicameral-Inteligencia-Milanipor-millones-rendicion_0_1671432918.html'
p5
aS'https://www.clarin.com/politica/Bicameral-Inteligencia-Milanipor-millones-rendicion_0_1671432918.html'
p6
aS'https://www.clarin.com/sociedad/Murio-beba-ano-detuvieron-padres_0_1671432913.html'
p7
aS'https://www.clarin.com/sociedad/delito-falso-milagro-conmovio-Cordoba_0_1671432911.html'
p8
aS'https://www.clarin.com/sociedad/delito-falso-milagro-conmovio-Cordoba_0_1671432911.html'
p9
aS'https://www.clarin.com/ieco/economia/exceso-dolares-preocupacion-Banco-Central_0_1671432910.html'
p10
aS'https://www.clarin.com/ieco/economia/exceso-dolares-preocupacion-Banco-Central_0_1671432910.html'
p11
aS'https://www.clarin.com/ieco/jubilados-descuentos-pasajes-Aerolineas_0_1671432908.html'
p12
aS'https://www.clarin.com/ieco/jubilados-descuentos-pasajes-Aerolineas_0_1671432908.html'
p13
a.