(lp0
Vhttps://www.clarin.com/sociedad/Musico-detenido-extorsionar-mujer-intimas_0_1642635918.html
p1
aVhttps://www.clarin.com/sociedad/Musico-detenido-extorsionar-mujer-intimas_0_1642635918.html
p2
aVhttps://www.clarin.com/sociedad/docentes-hacen-segundo-nacional-dias_0_1642635915.html
p3
aVhttps://www.clarin.com/sociedad/docentes-hacen-segundo-nacional-dias_0_1642635915.html
p4
aVhttps://www.clarin.com/ieco/economia/AFIP-denuncia-Gomez-Centurion-Justicia_0_1642635909.html
p5
aVhttps://www.clarin.com/ieco/economia/AFIP-denuncia-Gomez-Centurion-Justicia_0_1642635909.html
p6
a.