(lp0
S'https://www.clarin.com/politica/Ausencias-presencias-jura-Rosatti_0_1604239634.html'
p1
aS'https://www.clarin.com/ieco/economia/dolar-baja-centavos_0_1604239636.html'
p2
aS'https://www.clarin.com/ieco/economia/Bolsa-trepa-acerca-ultimo-record_0_1604239640.html'
p3
aS'https://www.clarin.com/politica/Macri-joven-distinguido-NASA-asesinado_0_1604239632.html'
p4
a.