(lp0
S'https://www.clarin.com/ieco/economia/titular-Chevrolet-ofertas-autos-seguiran_0_1612638774.html'
p1
aS'https://www.clarin.com/politica/Macri-defendio-Va-recuperar-kirchnerismo_0_1612638772.html'
p2
aS'https://www.clarin.com/sociedad/decana-bochazos-Medicina-fallas-secundario_0_1612638784.html'
p3
aS'https://www.clarin.com/politica/Vidal-pelearse-campo_0_1612638773.html'
p4
aS'https://www.clarin.com/ieco/economia/polemica-tarifas-prorrogan-intervencion-Enargas_0_1612638787.html'
p5
aS'https://www.clarin.com/sociedad/Video-emocionante-reaccion-entero-cancer_0_1612638753.html'
p6
a.