(lp0
Vhttps://www.clarin.com/politica/Perez-Corradi-extradicion-semana-proxima_0_1605439525.html
p1
aVhttps://www.clarin.com/politica/Perez-Corradi-extradicion-semana-proxima_0_1605439525.html
p2
aVhttps://www.clarin.com/ieco/economia/principales-puntos-ley-fomento-pymes_0_1605439519.html
p3
a.