(lp0
Vhttps://www.clarin.com/sociedad/Murio-Marc-Riboud-imagenes-XX_0_1642035862.html
p1
aVhttps://www.clarin.com/sociedad/Murio-Marc-Riboud-imagenes-XX_0_1642035862.html
p2
aVhttps://www.clarin.com/sociedad/chicas-aseguran-discriminaron-Biela-escrache_0_1642035861.html
p3
aVhttps://www.clarin.com/sociedad/chicas-aseguran-discriminaron-Biela-escrache_0_1642035861.html
p4
aVhttps://www.clarin.com/ieco/precios-Bahia-Blanca-subieron-agosto_0_1642035860.html
p5
aVhttps://www.clarin.com/politica/Gobierno-Vidal-acompana-division-Matanza_0_1642035859.html
p6
aVhttps://www.clarin.com/politica/Gobierno-Vidal-acompana-division-Matanza_0_1642035859.html
p7
aVhttps://www.clarin.com/sociedad/Videos-salto-record-metros-camioneta_0_1642035856.html
p8
aVhttps://www.clarin.com/sociedad/Videos-salto-record-metros-camioneta_0_1642035856.html
p9
aVhttps://www.clarin.com/sociedad/Condenaron-Martinez-Poch-prision-sexual_0_1642035855.html
p10
aVhttps://www.clarin.com/sociedad/Condenaron-Martinez-Poch-prision-sexual_0_1642035855.html
p11
aVhttps://www.clarin.com/sociedad/alivio-victima-dia-feliz-vida_0_1642035853.html
p12
aVhttps://www.clarin.com/sociedad/alivio-victima-dia-feliz-vida_0_1642035853.html
p13
a.