(lp0
Vhttps://www.clarin.com/opinion/DNU-Constitucion_Nacional-Presidencialismo-Poder_Legislativo_0_1507049309.html
p1
aVhttps://www.clarin.com/opinion/Mauricio_Macri-Sergio_Massa-Kirchnerismo-Oposicion_politica_0_1507049308.html
p2
aVhttps://www.clarin.com/politica/Ricardo_Delgado-Sergio_Massa-Rogelio_Frigerio-Ministerio_del_Interior_0_1507049302.html
p3
aVhttps://www.clarin.com/politica/Davos-Foro_Economico_Mundial-Macri-OCDE_0_1507049300.html
p4
aVhttps://www.clarin.com/politica/Davos-Foro_Economico_Mundial-Macri-OCDE_0_1507049300.html
p5
aVhttps://www.clarin.com/sociedad/Caso-Malvino-duro-Ariel-presente_0_1506449745.html
p6
aVhttps://www.clarin.com/sociedad/Caso-Malvino-duro-Ariel-presente_0_1506449745.html
p7
aVhttps://www.clarin.com/sociedad/verano-casos-conjuntivitis-duran-mes_0_1506449729.html
p8
aVhttps://www.clarin.com/politica/Peronismo-PJ-internas-oposicion_0_1507049297.html
p9
aVhttps://www.clarin.com/politica/Sala-Excarcelacion-Justicia_0_1507049296.html
p10
aVhttps://www.clarin.com/politica/Milagro-Sala-Gerardo-Morales-Acampe-Tupac-Desalojo_0_1507049295.html
p11
aVhttps://www.clarin.com/opinion/coalicion-necesita-Presidente_0_1507049292.html
p12
aVhttps://www.clarin.com/politica/Milagro-Sala-motivos-sobra-carcel_0_1507049289.html
p13
aVhttps://www.clarin.com/politica/Milagro-Sala-motivos-sobra-carcel_0_1507049289.html
p14
aVhttps://www.clarin.com/opinion/Detras-Sala-milagro_0_1507049286.html
p15
aVhttps://www.clarin.com/sociedad/Caos-Pinamar-quieren-bicisendas-peatonales_0_1506449765.html
p16
aVhttps://www.clarin.com/sociedad/Caos-Pinamar-quieren-bicisendas-peatonales_0_1506449765.html
p17
aVhttps://www.clarin.com/sociedad/Pros-contras-cirugias-esteticas-pionero_0_1506449743.html
p18
aVhttps://www.clarin.com/sociedad/Pros-contras-cirugias-esteticas-pionero_0_1506449743.html
p19
a.