(lp0
Vhttps://www.clarin.com/ieco/economia/Detras-Neuquen-Mendoza-US-millones_0_1575442569.html
p1
aVhttps://www.clarin.com/politica/Legislatura-bonaerense-reclamo-Fondo-Conurbano_0_1575442654.html
p2
aVhttps://www.clarin.com/politica/inflacion-abril-llego-mayor-anos_0_1576042395.html
p3
aVhttps://www.clarin.com/politica/Desayuno-completo-pacto-medias_0_1576042394.html
p4
aVhttps://www.clarin.com/opinion/educacion-pais-aplazos_0_1576042393.html
p5
aVhttps://www.clarin.com/opinion/Macri-gremialistas-palabras-fuertes-enojos_0_1575442625.html
p6
aVhttps://www.clarin.com/opinion/Macri-gremialistas-palabras-fuertes-enojos_0_1575442625.html
p7
aVhttps://www.clarin.com/opinion/Trump-monstruos-Occidente-engendra_0_1575442590.html
p8
aVhttps://www.clarin.com/politica/Macri-nominacion-Malcorra-Naciones-Unidas_0_1575442579.html
p9
a.