(lp0
S'https://www.clarin.com/opinion/anecdotas-infancia_0_1649235062.html'
p1
aS'https://www.clarin.com/politica/paro-calle-sombras-fin-ano_0_1649235061.html'
p2
aS'https://www.clarin.com/opinion/ladrones-gritan-goles-Messi_0_1648635246.html'
p3
aS'https://www.clarin.com/opinion/ladrones-gritan-goles-Messi_0_1648635246.html'
p4
aS'https://www.clarin.com/politica/Denuncian-viviendas-sociales-pagadas-construidas_0_1648635299.html'
p5
aS'https://www.clarin.com/politica/Denuncian-viviendas-sociales-pagadas-construidas_0_1648635299.html'
p6
aS'https://www.clarin.com/politica/Laura-Alonso-funcionarios-tomen-nota_0_1648635296.html'
p7
aS'https://www.clarin.com/politica/Laura-Alonso-funcionarios-tomen-nota_0_1648635296.html'
p8
aS'https://www.clarin.com/politica/Stolbizer-Lazaro-Vido-Jose-Lopez_0_1648635279.html'
p9
aS'https://www.clarin.com/politica/Stolbizer-Lazaro-Vido-Jose-Lopez_0_1648635279.html'
p10
aS'https://www.clarin.com/politica/empresa-importo-efedrina-justifico-operacion_0_1648635293.html'
p11
aS'https://www.clarin.com/politica/empresa-importo-efedrina-justifico-operacion_0_1648635293.html'
p12
aS'https://www.clarin.com/politica/Acusan-Scioli-fondos-publicos-campana_0_1648635292.html'
p13
aS'https://www.clarin.com/politica/Acusan-Scioli-fondos-publicos-campana_0_1648635292.html'
p14
aS'https://www.clarin.com/politica/Idas-Burzaco-argentinos-vinculados-ISIS_0_1648635289.html'
p15
aS'https://www.clarin.com/politica/Idas-Burzaco-argentinos-vinculados-ISIS_0_1648635289.html'
p16
aS'https://www.clarin.com/politica/Analizan-polemica-designacion-Alperovich_0_1648635288.html'
p17
aS'https://www.clarin.com/politica/imagino-Cristina-candidata-senal-alguna_0_1648635287.html'
p18
a.