(lp0
S'https://www.clarin.com/opinion/Educacion-necesitamos-cambio-revolucionario_0_1623437739.html'
p1
aS'https://www.clarin.com/opinion/Vigencia-ideas-Julio-Olivera_0_1623437741.html'
p2
aS'https://www.clarin.com/opinion/ira-gobierno-Macri_0_1623437737.html'
p3
aS'https://www.clarin.com/opinion/ira-gobierno-Macri_0_1623437737.html'
p4
aS'https://www.clarin.com/politica/PJ-capitaliza-tropiezos-Macri_0_1624037585.html'
p5
aS'https://www.clarin.com/sociedad/Adopciones-chico-sigue-principal-obstaculo_0_1623437777.html'
p6
aS'https://www.clarin.com/sociedad/divorcios-unilaterales-expres_0_1623437774.html'
p7
aS'https://www.clarin.com/sociedad/divorcios-unilaterales-expres_0_1623437774.html'
p8
aS'https://www.clarin.com/politica/Cristina-Kirchner-escrito-Lazaro-Baez_0_1624037584.html'
p9
aS'https://www.clarin.com/politica/Cristina-Kirchner-escrito-Lazaro-Baez_0_1624037584.html'
p10
a.