(lp0
Vhttps://www.clarin.com/politica/Hotesur-pericia-escopometrica-Cristina-Maximo_0_1609639159.html
p1
aVhttps://www.clarin.com/politica/Hotesur-pericia-escopometrica-Cristina-Maximo_0_1609639159.html
p2
aVhttps://www.clarin.com/sociedad/Lucharon-libertad-recordadas_0_1610239013.html
p3
aVhttps://www.clarin.com/sociedad/Lucharon-libertad-recordadas_0_1610239013.html
p4
aVhttps://www.clarin.com/opinion/desarrollo-federal-desafio-pendiente_0_1609639129.html
p5
aVhttps://www.clarin.com/opinion/pasado-recordar-superar_0_1609639140.html
p6
aVhttps://www.clarin.com/politica/dilema-existencial-UCR-tocar-gloria_0_1609639196.html
p7
aVhttps://www.clarin.com/opinion/Doscientos-anos-despues_0_1610239010.html
p8
aVhttps://www.clarin.com/politica/Gas-Corte-empresas-emision-boletas_0_1609639186.html
p9
aVhttps://www.clarin.com/sociedad/Mar-Plata-primavera-pleno-invierno_0_1609639185.html
p10
aVhttps://www.clarin.com/sociedad/Mar-Plata-primavera-pleno-invierno_0_1609639185.html
p11
aVhttps://www.clarin.com/opinion/Bonafini-alla-ley_0_1610239009.html
p12
aVhttps://www.clarin.com/opinion/Bonafini-alla-ley_0_1610239009.html
p13
aVhttps://www.clarin.com/sociedad/Gran-celeste-blanca-recibir-Julio_0_1609639199.html
p14
aVhttps://www.clarin.com/sociedad/Gran-celeste-blanca-recibir-Julio_0_1609639199.html
p15
a.