(lp0
S'https://www.clarin.com/sociedad/Abrazo-Buenos-Aires-Dia-Solidaridad_0_1639036226.html'
p1
aS'https://www.clarin.com/sociedad/Abrazo-Buenos-Aires-Dia-Solidaridad_0_1639036226.html'
p2
aS'https://www.clarin.com/politica/Cristina-sometera-chequeo-clinica-Favaloro_0_1639036235.html'
p3
aS'https://www.clarin.com/politica/Cristina-sometera-chequeo-clinica-Favaloro_0_1639036235.html'
p4
aS'https://www.clarin.com/sociedad/Sopa-silencio-latigos-convento-escandalo_0_1639036232.html'
p5
aS'https://www.clarin.com/sociedad/Sopa-silencio-latigos-convento-escandalo_0_1639036232.html'
p6
aS'https://www.clarin.com/ieco/economia/Miami-Buenos-Aires-nueva-inversores_0_1639036220.html'
p7
aS'https://www.clarin.com/ieco/economia/Miami-Buenos-Aires-nueva-inversores_0_1639036220.html'
p8
a.