(lp0
S'https://www.clarin.com/politica/Citan-funcionarios-empresarios-campana-Cristina_0_1532246869.html'
p1
aS'https://www.clarin.com/politica/Citan-funcionarios-empresarios-campana-Cristina_0_1532246869.html'
p2
aS'https://www.clarin.com/politica/Campora-centro-poder-periferia-meses_0_1531647189.html'
p3
aS'https://www.clarin.com/politica/Campora-centro-poder-periferia-meses_0_1531647189.html'
p4
aS'https://www.clarin.com/politica/CN23-despidos-conciliacion-obligatoria_0_1531647257.html'
p5
aS'https://www.clarin.com/politica/CN23-despidos-conciliacion-obligatoria_0_1531647257.html'
p6
aS'https://www.clarin.com/ieco/Gobierno-acordo-buitres-duros_0_1531647286.html'
p7
aS'https://www.clarin.com/ieco/Gobierno-acordo-buitres-duros_0_1531647286.html'
p8
aS'https://www.clarin.com/ieco/economia/Gobierno-negocia-telefonicas-canje-celulares_0_1531647249.html'
p9
aS'https://www.clarin.com/ieco/economia/Gobierno-negocia-telefonicas-canje-celulares_0_1531647249.html'
p10
aS'https://www.clarin.com/ieco/economia/oposicion-acompana-quiere-tramite-express_0_1531647289.html'
p11
aS'https://www.clarin.com/opinion/Macri-jugado_0_1532246780.html'
p12
aS'https://www.clarin.com/opinion/dictamen-valiente-muerte-Alberto-Nisman_0_1531647186.html'
p13
aS'https://www.clarin.com/opinion/vez-atraso-cambiario-endeudamiento-externo_0_1531647191.html'
p14
aS'https://www.clarin.com/opinion/vez-atraso-cambiario-endeudamiento-externo_0_1531647191.html'
p15
a.