(lp0
S'https://www.clarin.com/ieco/economia/busca-marcas-emocionales_0_1514248786.html'
p1
aS'https://www.clarin.com/politica/carrio-macri-romance_0_1514248586.html'
p2
aS'https://www.clarin.com/politica/duranbarba-entrevista-cristina-macri_0_1514248587.html'
p3
aS'https://www.clarin.com/ieco/economia/Recrear-verdadera-industria-naval_0_1514248772.html'
p4
aS'https://www.clarin.com/ieco/economia/Emergentes-nuevos-problemas_0_1514248777.html'
p5
aS'https://www.clarin.com/ieco/economia/burbujas-siguen-brillando_0_1514248806.html'
p6
aS'https://www.clarin.com/ieco/economia/favor-llegar-millones-toneladas_0_1514248779.html'
p7
aS'https://www.clarin.com/ieco/economia/Anteojos-calidad-ver_0_1514248789.html'
p8
aS'https://www.clarin.com/opinion/Universidades_conurbano_fondos_Gran_Buenos_Aires_0_1513649059.html'
p9
aS'https://www.clarin.com/ieco/economia/reciclar-buen-negocio_0_1514248781.html'
p10
aS'https://www.clarin.com/ieco/economia/marcas-helados-buscar-consumidores-adultos_0_1514248780.html'
p11
aS'https://www.clarin.com/ieco/economia/tasa-tiende-leve-baja_0_1514248804.html'
p12
a.