(lp0
Vhttps://www.clarin.com/politica/CGT-empresarios-Gobierno-suspender-despidos_0_1672032800.html
p1
aVhttps://www.clarin.com/politica/CGT-empresarios-Gobierno-suspender-despidos_0_1672032800.html
p2
aVhttps://www.clarin.com/sociedad/ExoMars-explican-fallo-amartizaje_0_1672032798.html
p3
aVhttps://www.clarin.com/sociedad/ExoMars-explican-fallo-amartizaje_0_1672032798.html
p4
aVhttps://www.clarin.com/opinion/Pequenos-simples-gestos-vencer-maltrato_0_1672032796.html
p5
aVhttps://www.clarin.com/ieco/economia/detalles-reglamentacion-ley-Pymes_0_1671432937.html
p6
aVhttps://www.clarin.com/ieco/economia/detalles-reglamentacion-ley-Pymes_0_1671432937.html
p7
aVhttps://www.clarin.com/politica/Diputados-sancion-proyecto-reforma-electoral_0_1672032789.html
p8
aVhttps://www.clarin.com/politica/Primer-paso-vote-boleta-electronica_0_1672032788.html
p9
a.