(lp0
S'https://www.clarin.com/ieco/economia/imagen-pais-puede-cambiar-dia_0_1647435416.html'
p1
aS'https://www.clarin.com/ieco/economia/imagen-pais-puede-cambiar-dia_0_1647435416.html'
p2
aS'https://www.clarin.com/ieco/economia/Inversiones-salarios-corre-telon_0_1647435415.html'
p3
aS'https://www.clarin.com/ieco/economia/Inversiones-salarios-corre-telon_0_1647435415.html'
p4
aS'https://www.clarin.com/ieco/economia/Llegan-inversiones-volumen-escaso_0_1647435389.html'
p5
aS'https://www.clarin.com/ieco/economia/realizo-Feria-Empleos-empresas-postulantes_0_1647435388.html'
p6
aS'https://www.clarin.com/ieco/economia/realizo-Feria-Empleos-empresas-postulantes_0_1647435388.html'
p7
aS'https://www.clarin.com/ieco/Gutierrez-Podemos-mercado-totalmente-partir_0_1647435430.html'
p8
aS'https://www.clarin.com/ieco/Gutierrez-Podemos-mercado-totalmente-partir_0_1647435430.html'
p9
aS'https://www.clarin.com/ieco/economia/mejor-adapta-sale-favorecido_0_1647435411.html'
p10
aS'https://www.clarin.com/ieco/economia/mejor-adapta-sale-favorecido_0_1647435411.html'
p11
aS'https://www.clarin.com/ieco/economia/Trabajar-juntos-competitivos_0_1647435401.html'
p12
aS'https://www.clarin.com/ieco/economia/Trabajar-juntos-competitivos_0_1647435401.html'
p13
aS'https://www.clarin.com/opinion/chicos-van-conocer-mar_0_1648635125.html'
p14
aS'https://www.clarin.com/opinion/chicos-van-conocer-mar_0_1648635125.html'
p15
aS'https://www.clarin.com/opinion/Borges-siempre-libro-abierto_0_1648635124.html'
p16
aS'https://www.clarin.com/opinion/triple-condena-espera-Macri_0_1648635123.html'
p17
aS'https://www.clarin.com/opinion/triple-condena-espera-Macri_0_1648635123.html'
p18
aS'https://www.clarin.com/opinion/Importaciones-verdades-mentiras_0_1648635122.html'
p19
aS'https://www.clarin.com/opinion/Importaciones-verdades-mentiras_0_1648635122.html'
p20
aS'https://www.clarin.com/opinion/responsable-politica-economica-llama-Macri_0_1648635121.html'
p21
aS'https://www.clarin.com/opinion/algun-lugar-peronismo_0_1648035256.html'
p22
a.