(lp0
S'https://www.clarin.com/ieco/economia/Nuevo-Plan-Pagos-Permanente-AFIP_0_1515448620.html'
p1
aS'https://www.clarin.com/politica/UOCRA-cortar-Nacion-Lazaro-Baez_0_1515448616.html'
p2
aS'https://www.clarin.com/politica/UOCRA-cortar-Nacion-Lazaro-Baez_0_1515448616.html'
p3
aS'https://www.clarin.com/ieco/economia/Piumato-momento-trabajadores-saquen-ventaja_0_1515448618.html'
p4
aS'https://www.clarin.com/politica/Micheli-aceptar-paritarias-rebaja-salarial_0_1515448602.html'
p5
aS'https://www.clarin.com/politica/Micheli-aceptar-paritarias-rebaja-salarial_0_1515448602.html'
p6
aS'https://www.clarin.com/ieco/economia/intereses-Gobierno-debio-ampliar-Presupuesto_0_1515448597.html'
p7
aS'https://www.clarin.com/politica/Moyano-quieren-limitar-paritarias-empezamos_0_1515448596.html'
p8
aS'https://www.clarin.com/politica/Moyano-quieren-limitar-paritarias-empezamos_0_1515448596.html'
p9
aS'https://www.clarin.com/sociedad/Plata-revolucionada-visita-Rolling-Stones_0_1514848914.html'
p10
a.