(lp0
S'https://www.clarin.com/ieco/media-golpeada-inflacion-primer-semestre_0_1609639070.html'
p1
aS'https://www.clarin.com/sociedad/Festejos-Bicentenario-desfile-militar-domingo_0_1609639067.html'
p2
aS'https://www.clarin.com/ieco/OCDE-visita-Argentina-proxima-semana_0_1609639063.html'
p3
aS'https://www.clarin.com/sociedad/fiesta-Wall-Street-termino-escandalo_0_1609639061.html'
p4
aS'https://www.clarin.com/politica/columnista-aca-guerra-bando-banco_0_1609639071.html'
p5
aS'https://www.clarin.com/sociedad/orquesta-chicos-toco-dinosaurios-Trelew_0_1609639072.html'
p6
aS'https://www.clarin.com/ieco/desempleo-EEUU-subio-junio_0_1609639068.html'
p7
a.