(lp0
S'https://www.clarin.com/sociedad/libro-Harry-Potter-batio-records_0_1625237543.html'
p1
aS'https://www.clarin.com/sociedad/libro-Harry-Potter-batio-records_0_1625237543.html'
p2
aS'https://www.clarin.com/politica/Primera-Cambiemos-UCR-Garro-Plata_0_1625237541.html'
p3
aS'https://www.clarin.com/politica/Primera-Cambiemos-UCR-Garro-Plata_0_1625237541.html'
p4
aS'https://www.clarin.com/politica/Lazaro-Baez-momento-contener-familiar_0_1624637579.html'
p5
aS'https://www.clarin.com/politica/Lazaro-Baez-momento-contener-familiar_0_1624637579.html'
p6
aS'https://www.clarin.com/sociedad/Encuentran-bebe-abandonado-estacion-Once_0_1625237539.html'
p7
aS'https://www.clarin.com/sociedad/Encuentran-bebe-abandonado-estacion-Once_0_1625237539.html'
p8
aS'https://www.clarin.com/ieco/economia/protesta-tamberos-salieron-regalar-leche_0_1625237538.html'
p9
aS'https://www.clarin.com/ieco/economia/protesta-tamberos-salieron-regalar-leche_0_1625237538.html'
p10
aS'https://www.clarin.com/sociedad/Efecto-manteca-viene-tarifazo-medialunas_0_1625237535.html'
p11
aS'https://www.clarin.com/sociedad/Efecto-manteca-viene-tarifazo-medialunas_0_1625237535.html'
p12
aS'https://www.clarin.com/ieco/Sancor-Vicentin-discuten-uso-marcas_0_1625237528.html'
p13
aS'https://www.clarin.com/ieco/Sancor-Vicentin-discuten-uso-marcas_0_1625237528.html'
p14
a.