(lp0
Vhttps://www.clarin.com/ieco/economia/US-millones-oficiales-amortiguar-futuro_0_1550245294.html
p1
aVhttps://www.clarin.com/sociedad/Cayo-Bocon-sospechado-intendente-Calera_0_1550245311.html
p2
aVhttps://www.clarin.com/sociedad/Cayo-Bocon-sospechado-intendente-Calera_0_1550245311.html
p3
aVhttps://www.clarin.com/ieco/economia/Central-redujo-tenencia-extranjera-bancos_0_1550245275.html
p4
aVhttps://www.clarin.com/ieco/economia/Fiat-suspende-mitad-personal-semana_0_1550245277.html
p5
a.