(lp0
S'https://www.clarin.com/sociedad/descuentos-largo-nueva-edicion-HotSale_0_1577242416.html'
p1
aS'https://www.clarin.com/politica/fuertes-declaraciones-Carrio-Lorenzetti-Zannini_0_1577842201.html'
p2
aS'https://www.clarin.com/opinion/Clamor-banos-publicos_0_1577242425.html'
p3
a.