(lp0
Vhttps://www.clarin.com/ieco/economia/Aluar-YPF-invertir-US-millones_0_1580242121.html
p1
aVhttps://www.clarin.com/sociedad/Hallazgo-Auschwitz-encontraron-anillo-prisioneros_0_1580242047.html
p2
aVhttps://www.clarin.com/sociedad/Hallazgo-Auschwitz-encontraron-anillo-prisioneros_0_1580242047.html
p3
aVhttps://www.clarin.com/sociedad/Time-Warp-documentos-vinculados-Stinfale_0_1580242044.html
p4
aVhttps://www.clarin.com/sociedad/Time-Warp-documentos-vinculados-Stinfale_0_1580242044.html
p5
aVhttps://www.clarin.com/ieco/economia/Comision-Europea-OMC-favorable-argentino_0_1580242046.html
p6
aVhttps://www.clarin.com/ieco/economia/Comision-Europea-OMC-favorable-argentino_0_1580242046.html
p7
aVhttps://www.clarin.com/politica/Historia-vetos-presidenciales-Alfonsin-Macri_0_1580242045.html
p8
aVhttps://www.clarin.com/politica/Historia-vetos-presidenciales-Alfonsin-Macri_0_1580242045.html
p9
aVhttps://www.clarin.com/politica/Lagomarsino-Arroyo-Salgado-mentir-Nisman_0_1580242037.html
p10
aVhttps://www.clarin.com/politica/Lagomarsino-Arroyo-Salgado-mentir-Nisman_0_1580242037.html
p11
aVhttps://www.clarin.com/sociedad/Punos-video-ensena-coreo-Oyarbide_0_1580242035.html
p12
aVhttps://www.clarin.com/sociedad/Punos-video-ensena-coreo-Oyarbide_0_1580242035.html
p13
a.