(lp0
S'https://www.clarin.com/sociedad/Reconquista-durmio-semanas-cadaver-mujer_0_1613238700.html'
p1
aS'https://www.clarin.com/sociedad/Europa-vuelve-Google-posicion-dominante_0_1613238689.html'
p2
aS'https://www.clarin.com/politica/Cristina-Stolbizer-adelantaron-tomaran-mediacion_0_1613238695.html'
p3
aS'https://www.clarin.com/politica/Intendente-General-Rodriguez-agrupaciones-Lopez_0_1613238696.html'
p4
aS'https://www.clarin.com/sociedad/videos-virales-enganaron-mundo_0_1613238686.html'
p5
a.