(lp0
Vhttps://www.clarin.com/politica/Macri-pais-camino-correcto_0_1628237277.html
p1
aVhttps://www.clarin.com/politica/Macri-pais-camino-correcto_0_1628237277.html
p2
aVhttps://www.clarin.com/politica/grieta-escraches-anti-k-aviones-aeropuertos_0_1628237274.html
p3
aVhttps://www.clarin.com/politica/grieta-escraches-anti-k-aviones-aeropuertos_0_1628237274.html
p4
aVhttps://www.clarin.com/politica/Cristina-lugar-seguro-villa_0_1628237276.html
p5
aVhttps://www.clarin.com/politica/Cristina-lugar-seguro-villa_0_1628237276.html
p6
aVhttps://www.clarin.com/sociedad/Lali-Axel-cumplieron-sueno-luchar_0_1626437497.html
p7
aVhttps://www.clarin.com/sociedad/Lali-Axel-cumplieron-sueno-luchar_0_1626437497.html
p8
aVhttps://www.clarin.com/ieco/dolar-minorista-perforo_0_1628237272.html
p9
aVhttps://www.clarin.com/ieco/dolar-minorista-perforo_0_1628237272.html
p10
aVhttps://www.clarin.com/politica/mediacion-fallida-denuncias-Cristina-Stolbizer_0_1628237261.html
p11
aVhttps://www.clarin.com/politica/mediacion-fallida-denuncias-Cristina-Stolbizer_0_1628237261.html
p12
aVhttps://www.clarin.com/politica/Reabrio-ultimo-medio-cerro-Szpolski_0_1628237267.html
p13
aVhttps://www.clarin.com/politica/Reabrio-ultimo-medio-cerro-Szpolski_0_1628237267.html
p14
aVhttps://www.clarin.com/politica/asesor-Obama-consejos-reforma-electoral_0_1628237265.html
p15
aVhttps://www.clarin.com/politica/asesor-Obama-consejos-reforma-electoral_0_1628237265.html
p16
a.