(lp0
S'https://www.clarin.com/politica/Menem-Cristina-usaron-FFAA-ajuste_0_1688231333.html'
p1
aS'https://www.clarin.com/sociedad/Carreras-galgos-Provincia-canodromos_0_1688231332.html'
p2
aS'https://www.clarin.com/sociedad/Carreras-galgos-Provincia-canodromos_0_1688231332.html'
p3
aS'https://www.clarin.com/sociedad/sala-anos-Jardin-cerca-obligatoria_0_1688231328.html'
p4
aS'https://www.clarin.com/sociedad/sala-anos-Jardin-cerca-obligatoria_0_1688231328.html'
p5
aS'https://www.clarin.com/politica/Desafio-opositor-Senado-sancion-emergencia_0_1688231323.html'
p6
aS'https://www.clarin.com/politica/Desafio-opositor-Senado-sancion-emergencia_0_1688231323.html'
p7
aS'https://www.clarin.com/opinion/mundo-editores_0_1688231325.html'
p8
aS'https://www.clarin.com/politica/Gobierno-comprara-presidencial-millones-dolares_0_1688231320.html'
p9
a.