(lp0
Vhttps://www.clarin.com/politica/Macri-anuncia-manana-veto-antidespidos_0_1579642070.html
p1
aVhttps://www.clarin.com/politica/Macri-anuncia-manana-veto-antidespidos_0_1579642070.html
p2
aVhttps://www.clarin.com/politica/Entrevista-completa-impactantes-revelaciones-Fein_0_1579642068.html
p3
aVhttps://www.clarin.com/politica/Entrevista-completa-impactantes-revelaciones-Fein_0_1579642068.html
p4
aVhttps://www.clarin.com/politica/hicieron-llamadas-sugestivas-muerte-Nisman_0_1579642066.html
p5
aVhttps://www.clarin.com/politica/hicieron-llamadas-sugestivas-muerte-Nisman_0_1579642066.html
p6
aVhttps://www.clarin.com/sociedad/Semana-Mayo-quieren-Facebook-escarapelas_0_1579642053.html
p7
aVhttps://www.clarin.com/sociedad/Semana-Mayo-quieren-Facebook-escarapelas_0_1579642053.html
p8
aVhttps://www.clarin.com/ieco/economia/Malcorra-llego-Beijing-cerrar-represas_0_1579642055.html
p9
aVhttps://www.clarin.com/sociedad/Buscan-quedaron-rastros-objeto-Pinamar_0_1579642052.html
p10
aVhttps://www.clarin.com/sociedad/Buscan-quedaron-rastros-objeto-Pinamar_0_1579642052.html
p11
aVhttps://www.clarin.com/ieco/economia/Macri-lanzo-licitacion-energias-renovables_0_1579642051.html
p12
a.