(lp0
Vhttps://www.clarin.com/politica/Macri-Vamos-elecciones-quiere-seguir_0_1690031107.html
p1
aVhttps://www.clarin.com/politica/Macri-Vamos-elecciones-quiere-seguir_0_1690031107.html
p2
aVhttps://www.clarin.com/politica/Frigerio-confirmo-Ganancias-sesiones-extraordinarias_0_1690031094.html
p3
aVhttps://www.clarin.com/sociedad/Naciones-Unidas-Argentina-mortalidad-violencia_0_1690031099.html
p4
aVhttps://www.clarin.com/politica/Macri-optimista-logramos-bajando-inflacion_0_1690031097.html
p5
aVhttps://www.clarin.com/politica/Macri-optimista-logramos-bajando-inflacion_0_1690031097.html
p6
aVhttps://www.clarin.com/politica/Macri-gradualismo-rechazar-acuerdos-reclamarlos_0_1690031095.html
p7
aVhttps://www.clarin.com/politica/Macri-gradualismo-rechazar-acuerdos-reclamarlos_0_1690031095.html
p8
aVhttps://www.clarin.com/sociedad/Sneakerheads-descalzos-sencillos_0_1690031091.html
p9
aVhttps://www.clarin.com/sociedad/Sneakerheads-descalzos-sencillos_0_1690031091.html
p10
a.