(lp0
Vhttps://www.clarin.com/politica/Reflotan-proyecto-dividir-Matanza_0_1548445406.html
p1
aVhttps://www.clarin.com/politica/Reflotan-proyecto-dividir-Matanza_0_1548445406.html
p2
aVhttps://www.clarin.com/sociedad/Alerta-drones-Unidos-reportan-incidentes_0_1548445401.html
p3
aVhttps://www.clarin.com/sociedad/Alerta-drones-Unidos-reportan-incidentes_0_1548445401.html
p4
aVhttps://www.clarin.com/politica/Crece-millonario-Lewis-Radio-Nacional_0_1548445396.html
p5
aVhttps://www.clarin.com/politica/Crece-millonario-Lewis-Radio-Nacional_0_1548445396.html
p6
aVhttps://www.clarin.com/politica/Robo-oficinas-Barolo-llevaron-SIDE_0_1548445393.html
p7
aVhttps://www.clarin.com/politica/Robo-oficinas-Barolo-llevaron-SIDE_0_1548445393.html
p8
aVhttps://www.clarin.com/politica/funcionario-combatientes-ganaban-pantalones-delante_0_1548445380.html
p9
aVhttps://www.clarin.com/politica/funcionario-combatientes-ganaban-pantalones-delante_0_1548445380.html
p10
a.