(lp0
Vhttps://www.clarin.com/ieco/economia/Telecom-anuncio-inversiones-millones_0_1613238783.html
p1
aVhttps://www.clarin.com/ieco/economia/Telecom-anuncio-inversiones-millones_0_1613238783.html
p2
aVhttps://www.clarin.com/sociedad/Primer-realidad-Clarin-VR-Vrtify_0_1613238782.html
p3
aVhttps://www.clarin.com/politica/Fragata-Libertad-amarrara-puerto-ingles_0_1613238781.html
p4
aVhttps://www.clarin.com/politica/Fragata-Libertad-amarrara-puerto-ingles_0_1613238781.html
p5
aVhttps://www.clarin.com/sociedad/hincha-Lobo-puso-Gimnasia-hija_0_1613238762.html
p6
aVhttps://www.clarin.com/sociedad/hincha-Lobo-puso-Gimnasia-hija_0_1613238762.html
p7
aVhttps://www.clarin.com/politica/diputado-PRO-tarifazo-salieron-escracharlo_0_1613238777.html
p8
aVhttps://www.clarin.com/politica/diputado-PRO-tarifazo-salieron-escracharlo_0_1613238777.html
p9
aVhttps://www.clarin.com/sociedad/crisis-China-universidad-ensena-chamuyar_0_1613238776.html
p10
aVhttps://www.clarin.com/sociedad/crisis-China-universidad-ensena-chamuyar_0_1613238776.html
p11
aVhttps://www.clarin.com/sociedad/Llego-nieve-principales-centros-Patagonia_0_1613238773.html
p12
aVhttps://www.clarin.com/sociedad/Llego-nieve-principales-centros-Patagonia_0_1613238773.html
p13
a.