(lp0
S'https://www.clarin.com/sociedad/tendencia-fiestas-electronicas-hora-desayuno_0_1580841981.html'
p1
aS'https://www.clarin.com/politica/Marijuan-Cancilleria-exigir-informacion-Suiza_0_1580841994.html'
p2
aS'https://www.clarin.com/sociedad/barrio-arremango-escuela-recupere_0_1580841992.html'
p3
a.