(lp0
Vhttps://www.clarin.com/politica/eliminaran-importacion-PC-notebooks-tablets_0_1682831828.html
p1
aVhttps://www.clarin.com/politica/eliminaran-importacion-PC-notebooks-tablets_0_1682831828.html
p2
aVhttps://www.clarin.com/politica/Vidal-EEUU-US-millones-Salado_0_1682831857.html
p3
aVhttps://www.clarin.com/politica/Vidal-EEUU-US-millones-Salado_0_1682831857.html
p4
aVhttps://www.clarin.com/opinion/batallas-fiscales-mucha-politica-juego_0_1682831844.html
p5
aVhttps://www.clarin.com/politica/Nuevo-agricola-invierte-US-millones_0_1682831843.html
p6
aVhttps://www.clarin.com/politica/Nuevo-agricola-invierte-US-millones_0_1682831843.html
p7
aVhttps://www.clarin.com/politica/Argentina-Qatar-acuerdo-millones-dolares_0_1682831707.html
p8
aVhttps://www.clarin.com/politica/Argentina-Qatar-acuerdo-millones-dolares_0_1682831707.html
p9
a.