(lp0
S'https://www.clarin.com/ieco/escandalo-motores-VW-registro-historia_0_1563443727.html'
p1
aS'https://www.clarin.com/ieco/escandalo-motores-VW-registro-historia_0_1563443727.html'
p2
aS'https://www.clarin.com/sociedad/internados-volvieron-mostrar-mejorias-graves_0_1563443724.html'
p3
aS'https://www.clarin.com/sociedad/internados-volvieron-mostrar-mejorias-graves_0_1563443724.html'
p4
aS'https://www.clarin.com/politica/Schiavi-reconoce-investigaban-funcionario-ahora_0_1563443718.html'
p5
aS'https://www.clarin.com/politica/Schiavi-reconoce-investigaban-funcionario-ahora_0_1563443718.html'
p6
aS'https://www.clarin.com/sociedad/defendido-Papa-aprietes-intendente-Merlo_0_1563443716.html'
p7
aS'https://www.clarin.com/sociedad/defendido-Papa-aprietes-intendente-Merlo_0_1563443716.html'
p8
aS'https://www.clarin.com/sociedad/declarar-detenidos-acusados-Time-Warp_0_1563443715.html'
p9
aS'https://www.clarin.com/sociedad/declarar-detenidos-acusados-Time-Warp_0_1563443715.html'
p10
aS'https://www.clarin.com/politica/Cordoba-primer-electoral-Macri-Presidente_0_1563443714.html'
p11
aS'https://www.clarin.com/politica/Cordoba-primer-electoral-Macri-Presidente_0_1563443714.html'
p12
aS'https://www.clarin.com/ieco/UIA-antidespidos-efecto-contrario-buscado_0_1563443712.html'
p13
aS'https://www.clarin.com/ieco/UIA-antidespidos-efecto-contrario-buscado_0_1563443712.html'
p14
a.