(lp0
Vhttps://www.clarin.com/politica/extrano-abogado-vinculado-Baez-desaparecido_0_1559244228.html
p1
aVhttps://www.clarin.com/politica/extrano-abogado-vinculado-Baez-desaparecido_0_1559244228.html
p2
aVhttps://www.clarin.com/ieco/Neuquen-busca-financiacion-represa-Chihuido_0_1559244233.html
p3
aVhttps://www.clarin.com/sociedad/Investigan-segunda-muerte-gastroenterocolitis-Berazategui_0_1559244232.html
p4
aVhttps://www.clarin.com/sociedad/Investigan-segunda-muerte-gastroenterocolitis-Berazategui_0_1559244232.html
p5
aVhttps://www.clarin.com/ieco/economia/Lanzan-primera-supercomputadora-aprendizaje-profundo_0_1559244225.html
p6
aVhttps://www.clarin.com/ieco/economia/Lanzan-primera-supercomputadora-aprendizaje-profundo_0_1559244225.html
p7
aVhttps://www.clarin.com/politica/Ahora-funcionarios-bolsillo-multas-oficiales_0_1559244207.html
p8
aVhttps://www.clarin.com/politica/Ahora-funcionarios-bolsillo-multas-oficiales_0_1559244207.html
p9
a.