(lp0
S'https://www.clarin.com/ieco/management/Capacitacion-incentivos-motivar-fuerzas-ventas_0_1559844209.html'
p1
aS'https://www.clarin.com/ieco/management/Capacitacion-incentivos-motivar-fuerzas-ventas_0_1559844209.html'
p2
aS'https://www.clarin.com/sociedad/lugar-megafiesta_0_1559844205.html'
p3
aS'https://www.clarin.com/sociedad/lugar-megafiesta_0_1559844205.html'
p4
aS'https://www.clarin.com/sociedad/catarata-acusaciones-quejas-oficial-fiesta_0_1559844203.html'
p5
aS'https://www.clarin.com/sociedad/catarata-acusaciones-quejas-oficial-fiesta_0_1559844203.html'
p6
aS'https://www.clarin.com/politica/Macri-medidas-sociales-atenuar-inflacion_0_1559844200.html'
p7
aS'https://www.clarin.com/politica/Macri-medidas-sociales-atenuar-inflacion_0_1559844200.html'
p8
aS'https://www.clarin.com/sociedad/Hernan-Caire-twiteo-video-fiesta_0_1559844198.html'
p9
aS'https://www.clarin.com/sociedad/Hernan-Caire-twiteo-video-fiesta_0_1559844198.html'
p10
aS'https://www.clarin.com/sociedad/Siempre-droga-dice-testigo_0_1559844186.html'
p11
aS'https://www.clarin.com/sociedad/Siempre-droga-dice-testigo_0_1559844186.html'
p12
aS'https://www.clarin.com/sociedad/director-SAME-informo-internados-graves_0_1559844181.html'
p13
a.