(lp0
Vhttps://www.clarin.com/sociedad/obispo-perdon-prohibicion-calzas-iglesia_0_1574842684.html
p1
aVhttps://www.clarin.com/sociedad/obispo-perdon-prohibicion-calzas-iglesia_0_1574842684.html
p2
aVhttps://www.clarin.com/politica/Sesion-especial-Senado-creditos-inmobiliarios_0_1574842683.html
p3
aVhttps://www.clarin.com/sociedad/ONU-derrame-poblacion-San-Juan_0_1574842682.html
p4
aVhttps://www.clarin.com/sociedad/ONU-derrame-poblacion-San-Juan_0_1574842682.html
p5
aVhttps://www.clarin.com/sociedad/Vuelven-subir-prepagas-acumulan-ano_0_1574842659.html
p6
aVhttps://www.clarin.com/sociedad/fallo-Revista-Barcelona-libertad-prensa_0_1574842679.html
p7
aVhttps://www.clarin.com/ieco/General-Motors-redefine-negocio-Uber_0_1574842678.html
p8
aVhttps://www.clarin.com/sociedad/tiro-bomba-molotov-ventana-casa_0_1574842677.html
p9
aVhttps://www.clarin.com/politica/Michetti-reunio-primer-ministro-Japon_0_1574842639.html
p10
aVhttps://www.clarin.com/politica/proyecto-PRO-departamento-Julio-Vido_0_1574842668.html
p11
aVhttps://www.clarin.com/politica/proyecto-PRO-departamento-Julio-Vido_0_1574842668.html
p12
a.