(lp0
Vhttps://www.clarin.com/sociedad/bananapeelchallenge-nuevo-peligroso-desafio-adolescentes_0_1550245098.html
p1
aVhttps://www.clarin.com/sociedad/bananapeelchallenge-nuevo-peligroso-desafio-adolescentes_0_1550245098.html
p2
aVhttps://www.clarin.com/ieco/economia/Prat-Gay-estimo-inflacion-marzo_0_1550245094.html
p3
aVhttps://www.clarin.com/ieco/economia/Prat-Gay-estimo-inflacion-marzo_0_1550245094.html
p4
aVhttps://www.clarin.com/politica/Prat-Gay-default-hacerlo-empezar-crecer_0_1550245081.html
p5
aVhttps://www.clarin.com/politica/Prat-Gay-default-hacerlo-empezar-crecer_0_1550245081.html
p6
aVhttps://www.clarin.com/politica/Gobierno-anuncia-aumento-colectivos-trenes_0_1550245069.html
p7
aVhttps://www.clarin.com/politica/Gobierno-anuncia-aumento-colectivos-trenes_0_1550245069.html
p8
a.