(lp0
Vhttps://www.clarin.com/politica/socio-Lopez-aparece-campos-Uruguay_0_1594640701.html
p1
aVhttps://www.clarin.com/politica/socio-Lopez-aparece-campos-Uruguay_0_1594640701.html
p2
aVhttps://www.clarin.com/politica/Preocupa-Gobierno-Lopez-resista-vender_0_1594640695.html
p3
aVhttps://www.clarin.com/politica/Preocupa-Gobierno-Lopez-resista-vender_0_1594640695.html
p4
aVhttps://www.clarin.com/sociedad/negocio-ceros_0_1594640708.html
p5
aVhttps://www.clarin.com/opinion/Segregacion-positiva-viajar-subte_0_1594640642.html
p6
aVhttps://www.clarin.com/opinion/investigacion-muerte-Nisman-vez-peligro_0_1594640644.html
p7
aVhttps://www.clarin.com/opinion/Buen-momento-acordar-futuro-social_0_1594640643.html
p8
aVhttps://www.clarin.com/opinion/Buen-momento-acordar-futuro-social_0_1594640643.html
p9
a.