(lp0
S'https://www.clarin.com/sociedad/Provincia-prometio-apoyo-victimas-femicidios_0_1621637883.html'
p1
aS'https://www.clarin.com/sociedad/atragantarse-carozo-aceituna-condenan-medica_0_1621637891.html'
p2
aS'https://www.clarin.com/ieco/economia/Precios-reunion-Gobierno-supermercados_0_1621637899.html'
p3
aS'https://www.clarin.com/sociedad/Hallazgo-insolito-barco-hundido-queso_0_1621637889.html'
p4
aS'https://www.clarin.com/politica/Confirman-preventiva-Jaime-Espana-Portugal_0_1621637896.html'
p5
a.