(lp0
S'https://www.clarin.com/sociedad/marginado-discapacidad-logre-cumplir-actor_0_1684631660.html'
p1
aS'https://www.clarin.com/politica/jubilados-cobren-minima-pagara-diciembre_0_1685831451.html'
p2
aS'https://www.clarin.com/politica/Intrigas-politica-ambiciones-tribunal-kirchnerista_0_1685231681.html'
p3
aS'https://www.clarin.com/sociedad/ilusion-construir-futuro_0_1684631662.html'
p4
aS'https://www.clarin.com/sociedad/Tension-Villa-Mitre-vecino-discusion_0_1685231688.html'
p5
aS'https://www.clarin.com/politica/Ojo-Trump-llevamos-dentro_0_1685831450.html'
p6
aS'https://www.clarin.com/politica/Arranca-nueva-ronda-audiencias-publicas_0_1685231653.html'
p7
aS'https://www.clarin.com/sociedad/Espanto-porteno-desequilibrada-arrojo-pullman_0_1685231686.html'
p8
aS'https://www.clarin.com/opinion/backstage-pelea-Lilita-Angelici_0_1685831449.html'
p9
aS'https://www.clarin.com/opinion/Donald-cumplas_0_1685831447.html'
p10
aS'https://www.clarin.com/politica/Gobierno-ministra-Menem-carrera-Defensoria_0_1685231682.html'
p11
aS'https://www.clarin.com/politica/Vidal-oficializo-estatizacion-rutas-Provincia_0_1685231685.html'
p12
a.