(lp0
S'https://www.clarin.com/ieco/economia/Autos-nuevo-retroceso-industria_0_1645035606.html'
p1
aS'https://www.clarin.com/ieco/economia/Autos-nuevo-retroceso-industria_0_1645035606.html'
p2
aS'https://www.clarin.com/ieco/ofertas-inversion-energia-renovables_0_1645035582.html'
p3
aS'https://www.clarin.com/ieco/ofertas-inversion-energia-renovables_0_1645035582.html'
p4
aS'https://www.clarin.com/politica/Macri-falta-reabrir-paritarias-inflacion_0_1645035647.html'
p5
aS'https://www.clarin.com/politica/Macri-falta-reabrir-paritarias-inflacion_0_1645035647.html'
p6
aS'https://www.clarin.com/politica/Gobierno-reformula-suba-gas-meses_0_1645035646.html'
p7
aS'https://www.clarin.com/politica/Gobierno-reformula-suba-gas-meses_0_1645035646.html'
p8
aS'https://www.clarin.com/ieco/economia/pobres-inflacion-anual-llega_0_1645035622.html'
p9
aS'https://www.clarin.com/politica/Presidente-advirtio-mafias_0_1645635424.html'
p10
aS'https://www.clarin.com/politica/Presidente-advirtio-mafias_0_1645635424.html'
p11
aS'https://www.clarin.com/opinion/anos-independientes-seguimos-adolescentes_0_1645035597.html'
p12
aS'https://www.clarin.com/opinion/posible-politica-personalista_0_1645035594.html'
p13
aS'https://www.clarin.com/opinion/posible-politica-personalista_0_1645035594.html'
p14
aS'https://www.clarin.com/opinion/pensar-viene-formato-Excel_0_1645035613.html'
p15
aS'https://www.clarin.com/sociedad/mitad-gente-mayor-siente-valora_0_1645035608.html'
p16
aS'https://www.clarin.com/sociedad/mitad-gente-mayor-siente-valora_0_1645035608.html'
p17
a.