(lp0
S'https://www.clarin.com/politica/Farina-asados-amigos-terapia-analisis_0_1594640634.html'
p1
aS'https://www.clarin.com/politica/Marijuan-Butti-posible-testaferro-Baez_0_1594640656.html'
p2
aS'https://www.clarin.com/politica/Patricia-Bullrich-Queremos-dejen-gobernar_0_1595240461.html'
p3
aS'https://www.clarin.com/politica/sentira-mejora-economica_0_1595240467.html'
p4
aS'https://www.clarin.com/opinion/dejar-llama-apague_0_1594640713.html'
p5
aS'https://www.clarin.com/opinion/arbitro-gol-mano-Borges_0_1595240465.html'
p6
aS'https://www.clarin.com/politica/inflacion-mayo-IPC-Congreso_0_1594640705.html'
p7
aS'https://www.clarin.com/politica/agudizo-caida-poder-compra-sueldos_0_1594640706.html'
p8
a.