(lp0
S'https://www.clarin.com/opinion/raices-comida-casera_0_1663033782.html'
p1
aS'https://www.clarin.com/sociedad/Tutorial-distinguir-juegos-llaves_0_1663033770.html'
p2
aS'https://www.clarin.com/sociedad/Tutorial-distinguir-juegos-llaves_0_1663033770.html'
p3
aS'https://www.clarin.com/politica/Gobierno-descarta-fuerzas-federales-provincias_0_1663033780.html'
p4
aS'https://www.clarin.com/politica/Gobierno-descarta-fuerzas-federales-provincias_0_1663033780.html'
p5
aS'https://www.clarin.com/sociedad/Desbordes-festejos-estudiantiles-apunto-padres_0_1663033776.html'
p6
aS'https://www.clarin.com/ieco/Nuevo-negociaciones-restablecer-exportaciones-EEUU_0_1663033773.html'
p7
aS'https://www.clarin.com/ieco/Nuevo-negociaciones-restablecer-exportaciones-EEUU_0_1663033773.html'
p8
aS'https://www.clarin.com/ieco/economia/Paritaria-comercio-ofrecen-aumento-bono_0_1663033771.html'
p9
aS'https://www.clarin.com/ieco/economia/Paritaria-comercio-ofrecen-aumento-bono_0_1663033771.html'
p10
a.