(lp0
S'https://www.clarin.com/opinion/cienaga-rodea-Cristina_0_1556244415.html'
p1
aS'https://www.clarin.com/opinion/Vidal-hace-equilibrio-frente-abismo_0_1556244410.html'
p2
aS'https://www.clarin.com/politica/declaracion-Farina-motivo-imputacion-Cristina_0_1555644866.html'
p3
aS'https://www.clarin.com/opinion/Cristina-quiere-acorralada-denuncias_0_1556244397.html'
p4
aS'https://www.clarin.com/opinion/exigencia-ejemplaridad_0_1555644751.html'
p5
aS'https://www.clarin.com/opinion/Primero-vocacion-ingenieria-vendria-bien_0_1555644783.html'
p6
aS'https://www.clarin.com/opinion/autismo-enfermedad-forma-desarrollo_0_1555644768.html'
p7
aS'https://www.clarin.com/opinion/autismo-enfermedad-forma-desarrollo_0_1555644768.html'
p8
aS'https://www.clarin.com/opinion/Hace-quieras-hagas-creas_0_1555644774.html'
p9
aS'https://www.clarin.com/opinion/Amo-ONU-fracasando-lastimosamente_0_1555644760.html'
p10
aS'https://www.clarin.com/opinion/Amo-ONU-fracasando-lastimosamente_0_1555644760.html'
p11
aS'https://www.clarin.com/opinion/Martin-Repetto-chef-viene-frio_0_1555644763.html'
p12
aS'https://www.clarin.com/opinion/Martin-Repetto-chef-viene-frio_0_1555644763.html'
p13
aS'https://www.clarin.com/sociedad/ESMA-realidad-virtual-Clarin-VR_0_1555644718.html'
p14
a.