(lp0
S'https://www.clarin.com/sociedad/robots-capacidad-mental-chico-anos_0_1514248973.html'
p1
aS'https://www.clarin.com/politica/FPV-division_del_bloque-PJ-Hector_Recalde-La_Campora-Maximo_Kirchner-diputados-Congreso_0_1514249006.html'
p2
aS'https://www.clarin.com/politica/Cristina_Kirchner-Los_Sauces-El_Calafate-Chayanne-Ricky_Martin-gerenciamiento-contrato-Relats-Panatel-Maximo_Kirchner_0_1514249008.html'
p3
aS'https://www.clarin.com/politica/Scooter-cartera-Alicia_0_1514248996.html'
p4
aS'https://www.clarin.com/ieco/economia/luz-tarifa_0_1514249003.html'
p5
aS'https://www.clarin.com/sociedad/Pinamar-apuestan-envion-feriados-Carnaval_0_1514248967.html'
p6
aS'https://www.clarin.com/politica/Puente_Aereo-Uruguay-nueva_linea-Gobierno_0_1514249004.html'
p7
aS'https://www.clarin.com/sociedad/Trabajadores-realizaron-festival-vaciamiento-Grupo_0_1514248984.html'
p8
a.