(lp0
S'https://www.clarin.com/politica/Jujuy-asegura-Lopez-relacion-Sala_0_1600039997.html'
p1
aS'https://www.clarin.com/politica/Jujuy-asegura-Lopez-relacion-Sala_0_1600039997.html'
p2
aS'https://www.clarin.com/politica/Rafecas-analizar-Lopez-comunicaciones-telefonicas_0_1600040000.html'
p3
aS'https://www.clarin.com/politica/Rafecas-analizar-Lopez-comunicaciones-telefonicas_0_1600040000.html'
p4
aS'https://www.clarin.com/ieco/economia/recorte-tasas-Central-ahora_0_1600039999.html'
p5
aS'https://www.clarin.com/politica/Ex-DAIA-Nisman-Rafecas-intimido_0_1600039998.html'
p6
aS'https://www.clarin.com/politica/Justicia-paraguaya-extradicion-Perez-Corradi_0_1600039994.html'
p7
aS'https://www.clarin.com/politica/Justicia-paraguaya-extradicion-Perez-Corradi_0_1600039994.html'
p8
aS'https://www.clarin.com/politica/Arrepentidos-corrupcion-acuerdo-votaria-manana_0_1600039992.html'
p9
aS'https://www.clarin.com/politica/Arrepentidos-corrupcion-acuerdo-votaria-manana_0_1600039992.html'
p10
aS'https://www.clarin.com/politica/Jubilaciones-Senado-inicio-debate-semana_0_1599440269.html'
p11
a.