(lp0
S'https://www.clarin.com/politica/protestas-Foro-izquierda-guardan-audiencia_0_1649835074.html'
p1
aS'https://www.clarin.com/politica/protestas-Foro-izquierda-guardan-audiencia_0_1649835074.html'
p2
aS'https://www.clarin.com/ieco/Grobocopatel-Argentina-necesitamos-crecer-rapido_0_1649835072.html'
p3
aS'https://www.clarin.com/ieco/Grobocopatel-Argentina-necesitamos-crecer-rapido_0_1649835072.html'
p4
aS'https://www.clarin.com/sociedad/Interrogan-madre-argentina-desaparecida-Espana_0_1649835070.html'
p5
aS'https://www.clarin.com/sociedad/Interrogan-madre-argentina-desaparecida-Espana_0_1649835070.html'
p6
aS'https://www.clarin.com/ieco/economia/Vale-acuerda-Mendoza-vender-potasio_0_1649835066.html'
p7
aS'https://www.clarin.com/ieco/economia/Vale-acuerda-Mendoza-vender-potasio_0_1649835066.html'
p8
a.