(lp0
Vhttps://www.clarin.com/politica/Sonia-Torres-Plaza-Mayo-Hice_0_1638436343.html
p1
aVhttps://www.clarin.com/politica/Sonia-Torres-Plaza-Mayo-Hice_0_1638436343.html
p2
aVhttps://www.clarin.com/sociedad/ministro-Educacion-estudiantes-disfrazados-nazis_0_1638436339.html
p3
aVhttps://www.clarin.com/sociedad/ministro-Educacion-estudiantes-disfrazados-nazis_0_1638436339.html
p4
aVhttps://www.clarin.com/politica/capital-horror-interior-pais-victimas_0_1638436340.html
p5
aVhttps://www.clarin.com/politica/capital-horror-interior-pais-victimas_0_1638436340.html
p6
aVhttps://www.clarin.com/sociedad/alumno-auto-directora-escuela-choco_0_1638436338.html
p7
aVhttps://www.clarin.com/sociedad/alumno-auto-directora-escuela-choco_0_1638436338.html
p8
aVhttps://www.clarin.com/politica/amenaza-bomba-Palacio-Hacienda_0_1638436335.html
p9
aVhttps://www.clarin.com/politica/amenaza-bomba-Palacio-Hacienda_0_1638436335.html
p10
aVhttps://www.clarin.com/sociedad/Expectativa-desconfianza-regreso-puerta_0_1638436331.html
p11
aVhttps://www.clarin.com/sociedad/Expectativa-desconfianza-regreso-puerta_0_1638436331.html
p12
aVhttps://www.clarin.com/politica/Crisis-Aduana-efedrina-Perez-Corradi_0_1638436333.html
p13
aVhttps://www.clarin.com/politica/Crisis-Aduana-efedrina-Perez-Corradi_0_1638436333.html
p14
a.