(lp0
Vhttps://www.clarin.com/sociedad/vecinos-Lujan-favor-restriccion_0_1619838177.html
p1
aVhttps://www.clarin.com/sociedad/Capital-mitad-pacientes-llegan-portenos_0_1619838178.html
p2
aVhttps://www.clarin.com/sociedad/Hospitales-vecinos-acotan-Conurbano-polemica_0_1619838176.html
p3
aVhttps://www.clarin.com/sociedad/Hospitales-vecinos-acotan-Conurbano-polemica_0_1619838176.html
p4
aVhttps://www.clarin.com/sociedad/Gestos-insolidarios-falta-soluciones_0_1620437943.html
p5
aVhttps://www.clarin.com/politica/guerra-tuits-husmear-vida-ajena_0_1620437942.html
p6
aVhttps://www.clarin.com/opinion/goles-unen_0_1619838153.html
p7
aVhttps://www.clarin.com/sociedad/riesgos-aconsejan-realizar-partos-caseros_0_1619838182.html
p8
aVhttps://www.clarin.com/sociedad/riesgos-aconsejan-realizar-partos-caseros_0_1619838182.html
p9
aVhttps://www.clarin.com/sociedad/Bajan-muertes-cancer-falta-prevencion_0_1619838183.html
p10
a.