(lp0
S'https://www.clarin.com/sociedad/cita-ciegas-comida-arrasa-web_0_1567043359.html'
p1
aS'https://www.clarin.com/sociedad/cita-ciegas-comida-arrasa-web_0_1567043359.html'
p2
aS'https://www.clarin.com/politica/senador-buitres-despidos-ultra-opositores_0_1567043357.html'
p3
aS'https://www.clarin.com/politica/senador-buitres-despidos-ultra-opositores_0_1567043357.html'
p4
aS'https://www.clarin.com/ieco/campus-ieco/mayoria-jovenes-siente-insegura-idioma_0_1567043349.html'
p5
aS'https://www.clarin.com/ieco/campus-ieco/mayoria-jovenes-siente-insegura-idioma_0_1567043349.html'
p6
aS'https://www.clarin.com/sociedad/Lograron-sacarles-respirador-internados-Fernandez_0_1567043353.html'
p7
aS'https://www.clarin.com/sociedad/Lograron-sacarles-respirador-internados-Fernandez_0_1567043353.html'
p8
aS'https://www.clarin.com/ieco/unen-estudios-cine-Minions-Shreck_0_1567043352.html'
p9
aS'https://www.clarin.com/ieco/unen-estudios-cine-Minions-Shreck_0_1567043352.html'
p10
aS'https://www.clarin.com/politica/Telegram-mensajero-cuela-ruta-dinero_0_1567043348.html'
p11
aS'https://www.clarin.com/politica/Telegram-mensajero-cuela-ruta-dinero_0_1567043348.html'
p12
a.