(lp0
S'https://www.clarin.com/sociedad/Encuentran-abandonado-investigan-madre-chica_0_1540646156.html'
p1
aS'https://www.clarin.com/politica/opositor-arranco-sesion-acuerdo-buitres_0_1540646149.html'
p2
aS'https://www.clarin.com/politica/opositor-arranco-sesion-acuerdo-buitres_0_1540646149.html'
p3
aS'https://www.clarin.com/sociedad/Resolvio-problema-historia-Nobel-matematico_0_1540646141.html'
p4
aS'https://www.clarin.com/sociedad/Resolvio-problema-historia-Nobel-matematico_0_1540646141.html'
p5
aS'https://www.clarin.com/sociedad/Asesino-esposa-dejo-notas-escapo_0_1540646139.html'
p6
aS'https://www.clarin.com/sociedad/hamburguesa-gourmet-llego-grandes-cadenas_0_1540646128.html'
p7
aS'https://www.clarin.com/sociedad/hamburguesa-gourmet-llego-grandes-cadenas_0_1540646128.html'
p8
a.