(lp0
S'https://www.clarin.com/politica/Rosendo-Trump-Hillary-Macri-Obama_0_1683431699.html'
p1
aS'https://www.clarin.com/politica/Rosendo-Trump-Hillary-Macri-Obama_0_1683431699.html'
p2
aS'https://www.clarin.com/politica/Callate-respuesta-Segovia-Vilouta-Intratables_0_1683431697.html'
p3
aS'https://www.clarin.com/politica/Callate-respuesta-Segovia-Vilouta-Intratables_0_1683431697.html'
p4
aS'https://www.clarin.com/sociedad/argentino-acusado-amenazar-empleado-porteno_0_1683431689.html'
p5
aS'https://www.clarin.com/sociedad/argentino-acusado-amenazar-empleado-porteno_0_1683431689.html'
p6
aS'https://www.clarin.com/politica/Ricardo-Saenz-Quieren-Nisman-Cristina_0_1683431688.html'
p7
aS'https://www.clarin.com/politica/Ricardo-Saenz-Quieren-Nisman-Cristina_0_1683431688.html'
p8
a.