(lp0
S'https://www.clarin.com/politica/Axel-Kicillof-fuertes-Congreso-diarios_0_1678632287.html'
p1
aS'https://www.clarin.com/politica/Axel-Kicillof-fuertes-Congreso-diarios_0_1678632287.html'
p2
aS'https://www.clarin.com/politica/causa-anos-utilizada-fines-politicos_0_1678632286.html'
p3
aS'https://www.clarin.com/politica/Camara-Federal-Ernestina-Herrera-Noble_0_1678632281.html'
p4
a.