(lp0
S'https://www.clarin.com/sociedad/Video-sobrevivieron-violento-choque-camion_0_1571242933.html'
p1
aS'https://www.clarin.com/sociedad/Video-sobrevivieron-violento-choque-camion_0_1571242933.html'
p2
aS'https://www.clarin.com/sociedad/pareja-ballenas-quedo-puerto-Alaska_0_1571242932.html'
p3
aS'https://www.clarin.com/sociedad/pareja-ballenas-quedo-puerto-Alaska_0_1571242932.html'
p4
aS'https://www.clarin.com/sociedad/Demostro-convivido-sacerdote-dieron-pension_0_1571242924.html'
p5
aS'https://www.clarin.com/sociedad/Demostro-convivido-sacerdote-dieron-pension_0_1571242924.html'
p6
aS'https://www.clarin.com/sociedad/requisitos-cumplir-German-Garmendia-libro_0_1571242913.html'
p7
aS'https://www.clarin.com/sociedad/requisitos-cumplir-German-Garmendia-libro_0_1571242913.html'
p8
a.