(lp0
Vhttps://www.clarin.com/politica/Detuvieron-Lazaro-Baez-contador-dinero_0_1553245173.html
p1
aVhttps://www.clarin.com/politica/Detuvieron-Lazaro-Baez-contador-dinero_0_1553245173.html
p2
aVhttps://www.clarin.com/sociedad/Privacidad-online-WhatsApp-anuncio-seguros_0_1553245112.html
p3
aVhttps://www.clarin.com/politica/Rogelio-Frigerio-Baez-dormir-tranquila_0_1553844636.html
p4
aVhttps://www.clarin.com/politica/Rogelio-Frigerio-Baez-dormir-tranquila_0_1553844636.html
p5
aVhttps://www.clarin.com/politica/investigacion-muestra-enorme-montana-pruebas_0_1553844632.html
p6
aVhttps://www.clarin.com/politica/investigacion-muestra-enorme-montana-pruebas_0_1553844632.html
p7
aVhttps://www.clarin.com/politica/alerta-inteligencia-temia-Baez-fugara_0_1553245179.html
p8
aVhttps://www.clarin.com/politica/alerta-inteligencia-temia-Baez-fugara_0_1553245179.html
p9
aVhttps://www.clarin.com/politica/corrupcion-embarra-toda-politica_0_1553844624.html
p10
aVhttps://www.clarin.com/opinion/Aceleracion-brusca-reacciones-lentas_0_1553844622.html
p11
aVhttps://www.clarin.com/opinion/deuda-externa-Constitucion_0_1553245058.html
p12
aVhttps://www.clarin.com/opinion/deuda-externa-Constitucion_0_1553245058.html
p13
aVhttps://www.clarin.com/opinion/Velar-educar-intolerancia_0_1553245051.html
p14
aVhttps://www.clarin.com/opinion/Ejercer-soberania-aprovechando-recursos_0_1553245054.html
p15
aVhttps://www.clarin.com/sociedad/Hololens-tecnologia-realidad-ciencia-ficcion_0_1553245165.html
p16
aVhttps://www.clarin.com/sociedad/Delta-conductores-lanchas-podrian-presos_0_1553245128.html
p17
aVhttps://www.clarin.com/politica/oposicion-renuncia-Laura-Alonso-OA_0_1553245140.html
p18
aVhttps://www.clarin.com/politica/oposicion-renuncia-Laura-Alonso-OA_0_1553245140.html
p19
a.