(lp0
S'https://www.clarin.com/sociedad/premio-Nobel-Literatura-Dario-Fo_0_1667833205.html'
p1
aS'https://www.clarin.com/sociedad/premio-Nobel-Literatura-Dario-Fo_0_1667833205.html'
p2
aS'https://www.clarin.com/politica/Maxima-medidas-Macri-advirtio-inclusion_0_1667233396.html'
p3
aS'https://www.clarin.com/politica/Maxima-medidas-Macri-advirtio-inclusion_0_1667233396.html'
p4
aS'https://www.clarin.com/opinion/Tributo-viejas-figuritas_0_1667833202.html'
p5
aS'https://www.clarin.com/politica/Disparen-Seleccion_0_1667833201.html'
p6
aS'https://www.clarin.com/politica/Lan-Argentina-actividades-reclamo-sindical_0_1667233479.html'
p7
aS'https://www.clarin.com/politica/Lan-Argentina-actividades-reclamo-sindical_0_1667233479.html'
p8
aS'https://www.clarin.com/ieco/economia/asistencia-perfecta-buscaron-acercarse-Presidente_0_1667233478.html'
p9
aS'https://www.clarin.com/ieco/economia/asistencia-perfecta-buscaron-acercarse-Presidente_0_1667233478.html'
p10
aS'https://www.clarin.com/ieco/economia/Macri-generosidad-empresarios-elogio-sindicalistas_0_1667233476.html'
p11
aS'https://www.clarin.com/ieco/economia/Macri-generosidad-empresarios-elogio-sindicalistas_0_1667233476.html'
p12
aS'https://www.clarin.com/politica/Lousteau-armo-acto-diferenciarse-Cambiemos_0_1667233475.html'
p13
aS'https://www.clarin.com/politica/Lousteau-armo-acto-diferenciarse-Cambiemos_0_1667233475.html'
p14
a.