(lp0
S'https://www.clarin.com/sociedad/desesperacion-intendente-ciudad-va_0_1562843934.html'
p1
aS'https://www.clarin.com/sociedad/Avanza-ley-acceder-informacion-publica_0_1562843951.html'
p2
aS'https://www.clarin.com/ieco/economia/Despues-emision-ofreceran-letra-dolares_0_1562843876.html'
p3
aS'https://www.clarin.com/politica/Fuerte-rechazo-Macri-proyecto-despidos_0_1562843947.html'
p4
aS'https://www.clarin.com/politica/Granados-vuelve-pertenezco-espacio-Cristina_0_1563443652.html'
p5
aS'https://www.clarin.com/opinion/cobijo-buena-parrilla_0_1562843889.html'
p6
aS'https://www.clarin.com/ieco/economia/Renault-sustituye-importaciones-crisis-Brasil_0_1562843900.html'
p7
a.