(lp0
Vhttps://www.clarin.com/politica/Justicia-arquitecto-Mausoleo-Nestor-Kirchner_0_1650434953.html
p1
aVhttps://www.clarin.com/politica/Justicia-arquitecto-Mausoleo-Nestor-Kirchner_0_1650434953.html
p2
aVhttps://www.clarin.com/politica/Vido-primo-Kirchner-involucrados-denuncia_0_1650434959.html
p3
aVhttps://www.clarin.com/politica/Vido-primo-Kirchner-involucrados-denuncia_0_1650434959.html
p4
aVhttps://www.clarin.com/politica/Malvinas-seguridad-Argentina-Gran-Bretana_0_1650434958.html
p5
aVhttps://www.clarin.com/politica/Malvinas-seguridad-Argentina-Gran-Bretana_0_1650434958.html
p6
aVhttps://www.clarin.com/sociedad/Suspendieron-rugbiers-San-Cirano-atacaron_0_1650434956.html
p7
aVhttps://www.clarin.com/sociedad/Suspendieron-rugbiers-San-Cirano-atacaron_0_1650434956.html
p8
a.