(lp0
S'https://www.clarin.com/sociedad/Mundos-intimos-compinches-retraso-intelectual_0_1655834557.html'
p1
aS'https://www.clarin.com/sociedad/Mundos-intimos-compinches-retraso-intelectual_0_1655834557.html'
p2
aS'https://www.clarin.com/politica/Cristina-Kirchner-queja-Macri-ONU_0_1655834544.html'
p3
aS'https://www.clarin.com/politica/Cristina-Kirchner-queja-Macri-ONU_0_1655834544.html'
p4
a.