(lp0
S'https://www.clarin.com/sociedad/llamado-telefonico-salvo-hermanos-incendio_0_1642635759.html'
p1
aS'https://www.clarin.com/sociedad/Acusan-atropellar-hermana-asesinadas-Ecuador_0_1642635758.html'
p2
aS'https://www.clarin.com/ieco/EEUU-declara-victorioso-batalla-austeridad_0_1642635766.html'
p3
aS'https://www.clarin.com/ieco/Gobierno-presentara-semana-proxima-tarifario_0_1642635751.html'
p4
aS'https://www.clarin.com/ieco/Prat-Gay-admitio-diferencias-Sturzenegger_0_1642635754.html'
p5
aS'https://www.clarin.com/sociedad/Detienen-sacristan-parroquia-acusado-adolescente_0_1642635765.html'
p6
a.