(lp0
S'https://www.clarin.com/opinion/Volver-conquistar-independencia_0_1595240655.html'
p1
aS'https://www.clarin.com/opinion/genuinos-motores-crecimiento_0_1595240651.html'
p2
aS'https://www.clarin.com/opinion/genuinos-motores-crecimiento_0_1595240651.html'
p3
aS'https://www.clarin.com/politica/consejero-espiritual-Vido-favorito-Nestor_0_1595240698.html'
p4
aS'https://www.clarin.com/politica/gremios-transporte-reclaman-federal-sector_0_1595240663.html'
p5
aS'https://www.clarin.com/politica/gremios-transporte-reclaman-federal-sector_0_1595240663.html'
p6
aS'https://www.clarin.com/politica/Lopez-robado-ayudar-conto-monja_0_1595240676.html'
p7
aS'https://www.clarin.com/politica/Lopez-robado-ayudar-conto-monja_0_1595240676.html'
p8
a.