(lp0
S'https://www.clarin.com/politica/Macri-ingresen-US-millones-blanqueo_0_1584441727.html'
p1
aS'https://www.clarin.com/ieco/economia/Vanoli-Venezuela-exitoso-distribucion-ingreso_0_1584441730.html'
p2
aS'https://www.clarin.com/politica/Argentina-situacion-Derechos-Humanos-Venezuela_0_1584441711.html'
p3
aS'https://www.clarin.com/politica/Imputaron-Anibal-Fernandez-irregular-canchas_0_1584441718.html'
p4
aS'https://www.clarin.com/ieco/economia/Bergman-llamo-debatir-mineria_0_1584441702.html'
p5
aS'https://www.clarin.com/politica/Rio-Turbio-denuncian-abandono-derrumbe_0_1584441713.html'
p6
a.