(lp0
Vhttps://www.clarin.com/sociedad/fiesta-pizza-exito-gana-adversidad_0_1682831865.html
p1
aVhttps://www.clarin.com/sociedad/equipo-argentino-Japon-Mundial-ciberseguridad_0_1682831863.html
p2
aVhttps://www.clarin.com/sociedad/equipo-argentino-Japon-Mundial-ciberseguridad_0_1682831863.html
p3
aVhttps://www.clarin.com/sociedad/Portugal-puerta-Europa-sefardies-argentinos_0_1682831862.html
p4
aVhttps://www.clarin.com/sociedad/Portugal-puerta-Europa-sefardies-argentinos_0_1682831862.html
p5
a.