(lp0
S'https://www.clarin.com/sociedad/Dia-Nino-dinero-rol-protagonico_0_1634236750.html'
p1
aS'https://www.clarin.com/sociedad/adelanta-acceso-chicos-tarjetas-celular_0_1634236749.html'
p2
aS'https://www.clarin.com/sociedad/UBA-abrira-CBC-Vicente-Lopez_0_1634236747.html'
p3
aS'https://www.clarin.com/politica/Boudou-juicio-coimas-caso-Ciccone_0_1634236742.html'
p4
aS'https://www.clarin.com/politica/Carrio-tarifazo-Empezo-funcionar-Republica_0_1634236754.html'
p5
a.