(lp0
S'https://www.clarin.com/opinion/FpV-Felicidades-Victoria_0_1678032183.html'
p1
aS'https://www.clarin.com/politica/Scioli-discusion-padre-chico-ladron_0_1678032182.html'
p2
aS'https://www.clarin.com/politica/Scioli-discusion-padre-chico-ladron_0_1678032182.html'
p3
aS'https://www.clarin.com/ieco/management/Gire-programas-promueven-innovacion-desarrollo_0_1676832437.html'
p4
aS'https://www.clarin.com/ieco/management/Gire-programas-promueven-innovacion-desarrollo_0_1676832437.html'
p5
aS'https://www.clarin.com/ieco/economia/CyberMonday-dias-venderan-facturan_0_1676832435.html'
p6
aS'https://www.clarin.com/ieco/economia/CyberMonday-dias-venderan-facturan_0_1676832435.html'
p7
aS'https://www.clarin.com/ieco/economia/Eterno-postulante-deja-buscar-trabajo_0_1676832433.html'
p8
aS'https://www.clarin.com/ieco/economia/Eterno-postulante-deja-buscar-trabajo_0_1676832433.html'
p9
aS'https://www.clarin.com/ieco/economia/mayoria-industrias-elevada-capacidad-ociosa_0_1676832430.html'
p10
aS'https://www.clarin.com/ieco/economia/mayoria-industrias-elevada-capacidad-ociosa_0_1676832430.html'
p11
aS'https://www.clarin.com/ieco/economia/economia-informal-estupido_0_1676832426.html'
p12
aS'https://www.clarin.com/ieco/emprendedores/informatica-solucion-medida_0_1676832467.html'
p13
aS'https://www.clarin.com/ieco/emprendedores/informatica-solucion-medida_0_1676832467.html'
p14
aS'https://www.clarin.com/ieco/economia/Trump-cambio-Unidos_0_1676832422.html'
p15
aS'https://www.clarin.com/ieco/economia/Trump-cambio-Unidos_0_1676832422.html'
p16
aS'https://www.clarin.com/ieco/economia/feliz-tiempo-importante-dinero_0_1676832418.html'
p17
aS'https://www.clarin.com/ieco/economia/Cresta-Roja-frustracion-Grazia_0_1676832414.html'
p18
aS'https://www.clarin.com/ieco/Argentina-China-Macri-fantasmas-apertura-inversiones_0_1677432352.html'
p19
aS'https://www.clarin.com/ieco/Argentina-China-Macri-fantasmas-apertura-inversiones_0_1677432352.html'
p20
aS'https://www.clarin.com/ieco/grieta-Macri-cerro-gabinete-economico_0_1677432357.html'
p21
aS'https://www.clarin.com/ieco/grieta-Macri-cerro-gabinete-economico_0_1677432357.html'
p22
a.