(lp0
Vhttps://www.clarin.com/sociedad/fin-semana-juega-Mundial-Escondida_0_1643235735.html
p1
aVhttps://www.clarin.com/sociedad/fin-semana-juega-Mundial-Escondida_0_1643235735.html
p2
aVhttps://www.clarin.com/ieco/Comision-Europea-automotrices-trampa-emisiones_0_1643235737.html
p3
aVhttps://www.clarin.com/ieco/Comision-Europea-automotrices-trampa-emisiones_0_1643235737.html
p4
aVhttps://www.clarin.com/ieco/economia/Central-Puerto-mete-energia-eolica_0_1643235733.html
p5
aVhttps://www.clarin.com/ieco/economia/Central-Puerto-mete-energia-eolica_0_1643235733.html
p6
aVhttps://www.clarin.com/politica/agenda-caliente-cruzo-Gobierno-CGT_0_1643235732.html
p7
aVhttps://www.clarin.com/politica/agenda-caliente-cruzo-Gobierno-CGT_0_1643235732.html
p8
aVhttps://www.clarin.com/politica/Acusan-funcionario-macrista-Rincon-Vago_0_1643235726.html
p9
aVhttps://www.clarin.com/politica/Acusan-funcionario-macrista-Rincon-Vago_0_1643235726.html
p10
aVhttps://www.clarin.com/politica/bienes-Lazaro-Baez-valen_0_1643235721.html
p11
aVhttps://www.clarin.com/politica/bienes-Lazaro-Baez-valen_0_1643235721.html
p12
aVhttps://www.clarin.com/ieco/economia/meses-caida-crece-venta-cemento_0_1643235730.html
p13
aVhttps://www.clarin.com/ieco/economia/meses-caida-crece-venta-cemento_0_1643235730.html
p14
aVhttps://www.clarin.com/sociedad/exploto-cohete-llevar-satelite-Facebook_0_1643235727.html
p15
aVhttps://www.clarin.com/sociedad/exploto-cohete-llevar-satelite-Facebook_0_1643235727.html
p16
a.