(lp0
S'https://www.clarin.com/sociedad/deja-hijo_0_1504649955.html'
p1
aS'https://www.clarin.com/sociedad/Verano-colapso-ruta_2-recambio-quincena_0_1505249646.html'
p2
aS'https://www.clarin.com/sociedad/Mundos-intimos-invencible-enfermo-cuido_0_1504649951.html'
p3
aS'https://www.clarin.com/sociedad/lucas_cesio-consiguio-casa_0_1505249648.html'
p4
a.