(lp0
Vhttps://www.clarin.com/sociedad/toma-Pellegrini-cumple-dias_0_1559244402.html
p1
aVhttps://www.clarin.com/ieco/emision-calificadora-Moodys-mejoro-Argentna_0_1559244401.html
p2
aVhttps://www.clarin.com/ieco/emision-calificadora-Moodys-mejoro-Argentna_0_1559244401.html
p3
aVhttps://www.clarin.com/ieco/economia/FMI-Argentina-necesaria-transicion-economica_0_1559244395.html
p4
aVhttps://www.clarin.com/ieco/economia/FMI-Argentina-necesaria-transicion-economica_0_1559244395.html
p5
aVhttps://www.clarin.com/sociedad/e-mail-Atlantico-veces-chica-suicidio_0_1559244394.html
p6
aVhttps://www.clarin.com/politica/britanicos-festejar-Buenos-Aires-cumpleanos_0_1559244316.html
p7
aVhttps://www.clarin.com/politica/britanicos-festejar-Buenos-Aires-cumpleanos_0_1559244316.html
p8
aVhttps://www.clarin.com/sociedad/argentinos-pene-menor-tamano-real_0_1559244379.html
p9
aVhttps://www.clarin.com/sociedad/argentinos-pene-menor-tamano-real_0_1559244379.html
p10
a.