(lp0
S'https://www.clarin.com/sociedad/boleto-estudiantil-gratuito-plata-colegio_0_1590441111.html'
p1
aS'https://www.clarin.com/politica/Echegaray-Auditoria-igual-apelara-suspendion_0_1590441121.html'
p2
a.