(lp0
Vhttps://www.clarin.com/sociedad/Florianopolis-argentinos-ranking-mejores-playas_0_1501650162.html
p1
aVhttps://www.clarin.com/sociedad/Florianopolis-argentinos-ranking-mejores-playas_0_1501650162.html
p2
aVhttps://www.clarin.com/politica/Carrio-Anibal-Fernandez-Martin-Lanatta_0_1501650117.html
p3
aVhttps://www.clarin.com/politica/Carrio-Anibal-Fernandez-Martin-Lanatta_0_1501650117.html
p4
aVhttps://www.clarin.com/ieco/economia/largo-plazo-maquinas-haran-trabajo_0_1501650103.html
p5
aVhttps://www.clarin.com/ieco/economia/largo-plazo-maquinas-haran-trabajo_0_1501650103.html
p6
aVhttps://www.clarin.com/ieco/economia/mitos-rol-jovenes-trabajo_0_1501650064.html
p7
a.