(lp0
Vhttps://www.clarin.com/sociedad/Editorial-Perfil-autorizacion-TV-digital_0_1663633841.html
p1
aVhttps://www.clarin.com/sociedad/Editorial-Perfil-autorizacion-TV-digital_0_1663633841.html
p2
aVhttps://www.clarin.com/sociedad/Todavia-posible-innovar-periodismo-grafico_0_1663633839.html
p3
aVhttps://www.clarin.com/sociedad/Todavia-posible-innovar-periodismo-grafico_0_1663633839.html
p4
aVhttps://www.clarin.com/politica/acuerdo-Cambiemos-quebro-federacion-intendentes_0_1663633816.html
p5
aVhttps://www.clarin.com/politica/acuerdo-Cambiemos-quebro-federacion-intendentes_0_1663633816.html
p6
aVhttps://www.clarin.com/ieco/economia/Reajustan-haberes-mil-jubilados_0_1663633836.html
p7
aVhttps://www.clarin.com/ieco/economia/Reajustan-haberes-mil-jubilados_0_1663633836.html
p8
aVhttps://www.clarin.com/ieco/avanza-intercambio-tributario_0_1663633835.html
p9
aVhttps://www.clarin.com/politica/CGT-espera-propuesta-jueves-fecha_0_1663633817.html
p10
aVhttps://www.clarin.com/politica/CGT-espera-propuesta-jueves-fecha_0_1663633817.html
p11
aVhttps://www.clarin.com/sociedad/nueva-Internet-celular-costara-hace_0_1663633826.html
p12
aVhttps://www.clarin.com/sociedad/nueva-Internet-celular-costara-hace_0_1663633826.html
p13
aVhttps://www.clarin.com/politica/Presupuesto-negocian-reparto-ATN-noviembre_0_1663633828.html
p14
aVhttps://www.clarin.com/politica/Presupuesto-negocian-reparto-ATN-noviembre_0_1663633828.html
p15
a.