(lp0
Vhttps://www.clarin.com/sociedad/Polemica-Chile-fallo-femicidio_0_1554444821.html
p1
aVhttps://www.clarin.com/sociedad/Polemica-Chile-fallo-femicidio_0_1554444821.html
p2
aVhttps://www.clarin.com/sociedad/nene-milagro-cayo-atropello-salvo_0_1554444842.html
p3
aVhttps://www.clarin.com/sociedad/nene-milagro-cayo-atropello-salvo_0_1554444842.html
p4
aVhttps://www.clarin.com/sociedad/Hallan-agujero-gigante-inesperado-Universo_0_1554444818.html
p5
aVhttps://www.clarin.com/sociedad/Hallan-agujero-gigante-inesperado-Universo_0_1554444818.html
p6
aVhttps://www.clarin.com/ieco/economia/Bolsa-baja-cuarta-jornada-pierde_0_1554444836.html
p7
aVhttps://www.clarin.com/ieco/economia/Bolsa-baja-cuarta-jornada-pierde_0_1554444836.html
p8
aVhttps://www.clarin.com/sociedad/Chubut-encontraron-avion-caido-lago_0_1554444833.html
p9
aVhttps://www.clarin.com/sociedad/Chubut-encontraron-avion-caido-lago_0_1554444833.html
p10
aVhttps://www.clarin.com/politica/Lorenzetti-impunidad-requiere_0_1554444830.html
p11
aVhttps://www.clarin.com/politica/Lorenzetti-impunidad-requiere_0_1554444830.html
p12
aVhttps://www.clarin.com/sociedad/PAMI-remedios-perdieron-cobertura-gratis_0_1554444829.html
p13
aVhttps://www.clarin.com/sociedad/PAMI-remedios-perdieron-cobertura-gratis_0_1554444829.html
p14
a.