(lp0
Vhttps://www.clarin.com/ieco/economia/Pymes-industriales-caen-ventas-rentabilidad_0_1579042195.html
p1
aVhttps://www.clarin.com/politica/Gobierno-millonario-acuerdo-provincias-coparticipacion_0_1579042194.html
p2
aVhttps://www.clarin.com/politica/Gobierno-millonario-acuerdo-provincias-coparticipacion_0_1579042194.html
p3
aVhttps://www.clarin.com/sociedad/Complicada-fabrica-bolitas-Sudamerica-seguira_0_1579042193.html
p4
aVhttps://www.clarin.com/sociedad/Complicada-fabrica-bolitas-Sudamerica-seguira_0_1579042193.html
p5
aVhttps://www.clarin.com/politica/muerte-Menem-Jr-juez-Presidentes_0_1579042182.html
p6
aVhttps://www.clarin.com/politica/muerte-Menem-Jr-juez-Presidentes_0_1579042182.html
p7
aVhttps://www.clarin.com/ieco/economia/ANSES-vendera-acciones-sentencias-jubilados_0_1579042179.html
p8
aVhttps://www.clarin.com/ieco/economia/ANSES-vendera-acciones-sentencias-jubilados_0_1579042179.html
p9
a.