(lp0
S'https://www.clarin.com/politica/Sobreseyeron-ex-gobernador-peronista-Chubut_0_1592840916.html'
p1
aS'https://www.clarin.com/politica/Sobreseyeron-ex-gobernador-peronista-Chubut_0_1592840916.html'
p2
aS'https://www.clarin.com/politica/Ruta-descubren-offshore-Mossack-Fonseca_0_1592840919.html'
p3
aS'https://www.clarin.com/politica/Ruta-descubren-offshore-Mossack-Fonseca_0_1592840919.html'
p4
aS'https://www.clarin.com/opinion/bendicion-cae-Maria-Eugenia_0_1594040587.html'
p5
aS'https://www.clarin.com/opinion/bendicion-cae-Maria-Eugenia_0_1594040587.html'
p6
aS'https://www.clarin.com/opinion/Gas-embrollo-camino-Corte_0_1594040586.html'
p7
aS'https://www.clarin.com/opinion/Reforma-politica-transparencia-participacion-ciudadana_0_1593440795.html'
p8
a.