(lp0
Vhttps://www.clarin.com/politica/Dan-nombre-Nestor-Kirchner-auditorio_0_1671432970.html
p1
aVhttps://www.clarin.com/sociedad/Mendoza-Santa-Fe-Pampa-NiUnaMenos_0_1671432968.html
p2
aVhttps://www.clarin.com/sociedad/Mendoza-Santa-Fe-Pampa-NiUnaMenos_0_1671432968.html
p3
aVhttps://www.clarin.com/politica/Protesta-senadoras-kirchneristas-otorgado-Sabat_0_1671432941.html
p4
aVhttps://www.clarin.com/politica/Protesta-senadoras-kirchneristas-otorgado-Sabat_0_1671432941.html
p5
aVhttps://www.clarin.com/sociedad/Uruguay-Chile-Mexico-Paraguay-marchan_0_1671432958.html
p6
aVhttps://www.clarin.com/sociedad/Uruguay-Chile-Mexico-Paraguay-marchan_0_1671432958.html
p7
aVhttps://www.clarin.com/sociedad/MiercolesNegro-reunio-apoyo-sectores_0_1671432956.html
p8
aVhttps://www.clarin.com/sociedad/MiercolesNegro-reunio-apoyo-sectores_0_1671432956.html
p9
a.