(lp0
S'https://www.clarin.com/opinion/Cine-cielos_0_1549045518.html'
p1
aS'https://www.clarin.com/ieco/economia/Analizan-aumentos-facturas-agua_0_1549045543.html'
p2
aS'https://www.clarin.com/politica/Difunden-Nuncio-Pio-Laghi-desaparecidos_0_1549045510.html'
p3
aS'https://www.clarin.com/sociedad/pacientes-Justicia-cubran-tratamientos-nuevos_0_1549045554.html'
p4
aS'https://www.clarin.com/ieco/ANSeS-analiza-oferta-acciones-Telecom_0_1549045549.html'
p5
a.