(lp0
Vhttps://www.clarin.com/politica/millonarios-negocios-Kirchner-Cristobal-Lopez_0_1540046219.html
p1
aVhttps://www.clarin.com/politica/millonarios-negocios-Kirchner-Cristobal-Lopez_0_1540046219.html
p2
aVhttps://www.clarin.com/sociedad/Convocan-apagar-hora-cuidar-planeta_0_1540046289.html
p3
aVhttps://www.clarin.com/sociedad/Convocan-apagar-hora-cuidar-planeta_0_1540046289.html
p4
aVhttps://www.clarin.com/politica/gobernadora-Vidal-confirmo-separacion_0_1540046287.html
p5
aVhttps://www.clarin.com/politica/gobernadora-Vidal-confirmo-separacion_0_1540046287.html
p6
aVhttps://www.clarin.com/sociedad/Sigue-creciendo-Paraguay-Formosa-evacuados_0_1540046285.html
p7
aVhttps://www.clarin.com/sociedad/Sigue-creciendo-Paraguay-Formosa-evacuados_0_1540046285.html
p8
a.