(lp0
S'https://www.clarin.com/politica/movilizacion-oficialista-manana-cumplir-Protocolo_0_1531647227.html'
p1
aS'https://www.clarin.com/politica/Cortes-subte-cerrado-concentracion-macrismo_0_1531647233.html'
p2
a.