(lp0
S'https://www.clarin.com/sociedad/Logran-prometedor-avance-VIH_0_1662433820.html'
p1
aS'https://www.clarin.com/ieco/recupera-inmobiliario-Capital-operaciones-aumentaron_0_1662433814.html'
p2
aS'https://www.clarin.com/politica/declaraciones-complican-Rafecas-Magistratura_0_1662433817.html'
p3
aS'https://www.clarin.com/ieco/ventas-minoristas-cayeron-septiembre_0_1662433812.html'
p4
aS'https://www.clarin.com/politica/Luis-DElia-juicio-oral-discriminacion_0_1662433822.html'
p5
aS'https://www.clarin.com/sociedad/Murio-Driving-Miss-Norma-ultimos_0_1662433811.html'
p6
a.