(lp0
S'https://www.clarin.com/ieco/Indec-inflacion-subio-septiembre_0_1667833372.html'
p1
aS'https://www.clarin.com/politica/Guino-Uruguay-difundira-monitoreo-Botnia_0_1667833367.html'
p2
aS'https://www.clarin.com/sociedad/felicidad-chico-buscaba-identikit-encontre_0_1667833375.html'
p3
aS'https://www.clarin.com/sociedad/Forman-alumnos-escuelas-humildes-empleo_0_1667833382.html'
p4
aS'https://www.clarin.com/sociedad/Fijan-inicio-clases-turismo-festeja_0_1667833380.html'
p5
aS'https://www.clarin.com/sociedad/Turismo-lanzan-descuentos-jubilados_0_1667833348.html'
p6
a.