(lp0
Vhttps://www.clarin.com/sociedad/David_Bowie-muerte-murio-twitter-redes_sociales-famosos-despedida-artistas_0_1502249927.html
p1
aVhttps://www.clarin.com/sociedad/David_Bowie-muerte-murio-twitter-redes_sociales-famosos-despedida-artistas_0_1502249927.html
p2
aVhttps://www.clarin.com/ieco/economia/Macri-prometio-bajar-inflacion-digito_0_1502249934.html
p3
aVhttps://www.clarin.com/politica/Tras-detenciones-Bullrich-viaja-Santa_Fe_0_1502249908.html
p4
aVhttps://www.clarin.com/politica/Tras-detenciones-Bullrich-viaja-Santa_Fe_0_1502249908.html
p5
aVhttps://www.clarin.com/ieco/economia/miercoles-arrancan-negociaciones-holdouts_0_1502249919.html
p6
aVhttps://www.clarin.com/politica/solo-kilometro-detuvieron-Martin-Lanatta_0_1502249918.html
p7
aVhttps://www.clarin.com/politica/solo-kilometro-detuvieron-Martin-Lanatta_0_1502249918.html
p8
a.