(lp0
S'https://www.clarin.com/politica/Caso-Nisman-estallo-guerra-abogados_0_1536446695.html'
p1
aS'https://www.clarin.com/politica/Miguel-Schiariti-precios-mantener-estables_0_1536446722.html'
p2
aS'https://www.clarin.com/ieco/economia/Fintech-Telecom-Argentina-US-millones_0_1536446718.html'
p3
aS'https://www.clarin.com/ieco/economia/canasta-determina-pobreza-febrero-interanual_0_1536446698.html'
p4
aS'https://www.clarin.com/sociedad/Pura-ternura-videos-animales-Twitter_0_1536446616.html'
p5
aS'https://www.clarin.com/sociedad/Crimen-argentinas-Montanita-desconfian-investigacion_0_1536446684.html'
p6
a.