(lp0
S'https://www.clarin.com/opinion/Abril-otono-enamora_0_1556844730.html'
p1
aS'https://www.clarin.com/sociedad/Hospitales-medicos-incentivos-vacantes-Provincia_0_1556844710.html'
p2
aS'https://www.clarin.com/sociedad/Hospitales-medicos-incentivos-vacantes-Provincia_0_1556844710.html'
p3
aS'https://www.clarin.com/sociedad/Aseguran-dengue-piden-seguir-alerta_0_1556844714.html'
p4
aS'https://www.clarin.com/sociedad/Aseguran-dengue-piden-seguir-alerta_0_1556844714.html'
p5
aS'https://www.clarin.com/politica/abogada-Farina-pidio-Plata-excarcelacion_0_1556844712.html'
p6
aS'https://www.clarin.com/politica/abogada-Farina-pidio-Plata-excarcelacion_0_1556844712.html'
p7
aS'https://www.clarin.com/politica/Macri-pidio-imparcialidad-rigurosidad-jueces_0_1556844757.html'
p8
aS'https://www.clarin.com/politica/Macri-pidio-imparcialidad-rigurosidad-jueces_0_1556844757.html'
p9
aS'https://www.clarin.com/politica/Garavano-Justicia-asegurar-Farina-pase_0_1556844761.html'
p10
aS'https://www.clarin.com/politica/Garavano-Justicia-asegurar-Farina-pase_0_1556844761.html'
p11
aS'https://www.clarin.com/politica/Nisman-fuero-federal-recayo-Ercolini_0_1556844657.html'
p12
aS'https://www.clarin.com/politica/Panama-Papers-Macri-independiente-presidente_0_1556844745.html'
p13
aS'https://www.clarin.com/politica/Panama-Papers-Macri-independiente-presidente_0_1556844745.html'
p14
a.