(lp0
S'https://www.clarin.com/ieco/Once-sectores-Gobierno-cree-monopolios_0_1629437157.html'
p1
aS'https://www.clarin.com/politica/derogar-tarifazo-diputados-improvisaron-Congreso_0_1629437175.html'
p2
aS'https://www.clarin.com/sociedad/UNICEF-Tete-Coustarot-ayudar-chicos_0_1629437165.html'
p3
a.