(lp0
Vhttps://www.clarin.com/politica/AMIA-argentino-comision-Interpol-controla_0_1684631617.html
p1
aVhttps://www.clarin.com/politica/AMIA-argentino-comision-Interpol-controla_0_1684631617.html
p2
aVhttps://www.clarin.com/sociedad/vitamina-aliado-ganarle-cancer-mama_0_1684631609.html
p3
aVhttps://www.clarin.com/sociedad/vitamina-aliado-ganarle-cancer-mama_0_1684631609.html
p4
aVhttps://www.clarin.com/politica/Confirman-Vera-podra-querellante-Stiuso_0_1684631612.html
p5
aVhttps://www.clarin.com/politica/Confirman-Vera-podra-querellante-Stiuso_0_1684631612.html
p6
aVhttps://www.clarin.com/politica/Skanksa-Jose-Lopez-acusaciones-Cameron_0_1684631611.html
p7
aVhttps://www.clarin.com/politica/Skanksa-Jose-Lopez-acusaciones-Cameron_0_1684631611.html
p8
a.