(lp0
Vhttps://www.clarin.com/sociedad/restaurantes-argentinos-premiados-cartas-vino_0_1607239366.html
p1
aVhttps://www.clarin.com/sociedad/restaurantes-argentinos-premiados-cartas-vino_0_1607239366.html
p2
aVhttps://www.clarin.com/sociedad/Time-Warp-ordenan-Stinfale-Conci_0_1607239365.html
p3
aVhttps://www.clarin.com/sociedad/Time-Warp-ordenan-Stinfale-Conci_0_1607239365.html
p4
aVhttps://www.clarin.com/politica/Repudio-generalizado-ataque-Tiempo-Argentino_0_1607239358.html
p5
aVhttps://www.clarin.com/politica/Repudio-generalizado-ataque-Tiempo-Argentino_0_1607239358.html
p6
a.