(lp0
S'https://www.clarin.com/sociedad/Ordenan-detener-padre-abusaba-vestir_0_1600640003.html'
p1
aS'https://www.clarin.com/politica/Toman-juramento-Rosatti-Corte-Suprema_0_1600640002.html'
p2
aS'https://www.clarin.com/politica/Toman-juramento-Rosatti-Corte-Suprema_0_1600640002.html'
p3
aS'https://www.clarin.com/sociedad/Pistorius-polemico-muerta-querria-libre_0_1600640000.html'
p4
aS'https://www.clarin.com/sociedad/Pistorius-polemico-muerta-querria-libre_0_1600640000.html'
p5
aS'https://www.clarin.com/sociedad/Buscando-Dory-puede-peligro-naturaleza_0_1600639990.html'
p6
aS'https://www.clarin.com/sociedad/Buscando-Dory-puede-peligro-naturaleza_0_1600639990.html'
p7
aS'https://www.clarin.com/politica/operan-Macri-Mauricio-siglos-padre_0_1600639989.html'
p8
aS'https://www.clarin.com/politica/operan-Macri-Mauricio-siglos-padre_0_1600639989.html'
p9
a.