(lp0
Vhttps://www.clarin.com/sociedad/Prometen-investigar-denuncias-Vera-Barros_0_1535846825.html
p1
aVhttps://www.clarin.com/politica/negociador-primer-respaldo-acuerdo-buitres_0_1535846820.html
p2
aVhttps://www.clarin.com/politica/negociador-primer-respaldo-acuerdo-buitres_0_1535846820.html
p3
aVhttps://www.clarin.com/ieco/economia/Banco-Inglaterra-celebra-economicos-Argentina_0_1535846807.html
p4
aVhttps://www.clarin.com/ieco/economia/Banco-Inglaterra-celebra-economicos-Argentina_0_1535846807.html
p5
aVhttps://www.clarin.com/politica/hermana-Szpolski-despedidas-CN23_0_1535846808.html
p6
aVhttps://www.clarin.com/sociedad/Villa-Paranacito-pueblo-vive-agua_0_1535846797.html
p7
aVhttps://www.clarin.com/sociedad/Villa-Paranacito-pueblo-vive-agua_0_1535846797.html
p8
a.