(lp0
S'https://www.clarin.com/sociedad/celulares-cuestan-pagar-comprarlos-afuera_0_1609039125.html'
p1
aS'https://www.clarin.com/sociedad/celulares-cuestan-pagar-comprarlos-afuera_0_1609039125.html'
p2
aS'https://www.clarin.com/sociedad/vecinos-Plata-alto-riesgo-inundarse_0_1609039122.html'
p3
aS'https://www.clarin.com/sociedad/vecinos-Plata-alto-riesgo-inundarse_0_1609039122.html'
p4
aS'https://www.clarin.com/politica/Operativo-Banco-Santa-Cruz-Cristina_0_1609039112.html'
p5
aS'https://www.clarin.com/politica/Operativo-Banco-Santa-Cruz-Cristina_0_1609039112.html'
p6
aS'https://www.clarin.com/politica/Pidieron-Banco-Central-identifique-CFK_0_1608439319.html'
p7
aS'https://www.clarin.com/politica/Pidieron-Banco-Central-identifique-CFK_0_1608439319.html'
p8
aS'https://www.clarin.com/ieco/Banco-Central-Europeo-consecuencias-Brexit_0_1609039114.html'
p9
aS'https://www.clarin.com/ieco/Banco-Central-Europeo-consecuencias-Brexit_0_1609039114.html'
p10
aS'https://www.clarin.com/politica/Pelea-tucumanos-mendocinos-Macri-Bicentenario_0_1609039110.html'
p11
aS'https://www.clarin.com/politica/Pelea-tucumanos-mendocinos-Macri-Bicentenario_0_1609039110.html'
p12
aS'https://www.clarin.com/sociedad/hacerse-cirugia-estetica-quedo-coma_0_1609039109.html'
p13
aS'https://www.clarin.com/sociedad/hacerse-cirugia-estetica-quedo-coma_0_1609039109.html'
p14
a.