(lp0
S'https://www.clarin.com/sociedad/ataque-hackers-EEUU-gigantes-Internet_0_1672632896.html'
p1
aS'https://www.clarin.com/sociedad/ataque-hackers-EEUU-gigantes-Internet_0_1672632896.html'
p2
aS'https://www.clarin.com/politica/Gobierno-impulsa-salarios-impuestos-ajusten_0_1672632902.html'
p3
aS'https://www.clarin.com/politica/Gobierno-impulsa-salarios-impuestos-ajusten_0_1672632902.html'
p4
aS'https://www.clarin.com/politica/Gobierno-aplicara-aumentos-febrero-proximo_0_1672632874.html'
p5
aS'https://www.clarin.com/opinion/Dolar-tropezar-misma-piedra_0_1672632879.html'
p6
aS'https://www.clarin.com/opinion/Dolar-tropezar-misma-piedra_0_1672632879.html'
p7
a.