(lp0
Vhttps://www.clarin.com/sociedad/Pago-millones-dolares-elegir-patente_0_1665433512.html
p1
aVhttps://www.clarin.com/sociedad/Pago-millones-dolares-elegir-patente_0_1665433512.html
p2
aVhttps://www.clarin.com/sociedad/Arranco-campeonato-elegir-mejor-asador_0_1665433510.html
p3
aVhttps://www.clarin.com/sociedad/Arranco-campeonato-elegir-mejor-asador_0_1665433510.html
p4
aVhttps://www.clarin.com/ieco/economia/Espartanos-rol-educativo-deportes_0_1665433469.html
p5
aVhttps://www.clarin.com/ieco/economia/Espartanos-rol-educativo-deportes_0_1665433469.html
p6
aVhttps://www.clarin.com/ieco/economia/negocio-pedalear_0_1665433477.html
p7
aVhttps://www.clarin.com/ieco/economia/negocio-pedalear_0_1665433477.html
p8
aVhttps://www.clarin.com/sociedad/Encontraron-enterrados-celulares-iglesia-Tucuman_0_1665433509.html
p9
aVhttps://www.clarin.com/sociedad/Encontraron-enterrados-celulares-iglesia-Tucuman_0_1665433509.html
p10
aVhttps://www.clarin.com/politica/Macri-insiste-meta-pobreza-cero_0_1665433507.html
p11
aVhttps://www.clarin.com/politica/Macri-insiste-meta-pobreza-cero_0_1665433507.html
p12
aVhttps://www.clarin.com/ieco/economia/Percepcion-crisis-EEUU_0_1665433456.html
p13
aVhttps://www.clarin.com/ieco/economia/Percepcion-crisis-EEUU_0_1665433456.html
p14
aVhttps://www.clarin.com/politica/Bono-interna-CGT-sector-insiste_0_1665433505.html
p15
aVhttps://www.clarin.com/politica/Bono-interna-CGT-sector-insiste_0_1665433505.html
p16
aVhttps://www.clarin.com/sociedad/hombre-rescate-viejo-oficio-ebanisteria_0_1665433501.html
p17
aVhttps://www.clarin.com/sociedad/hombre-rescate-viejo-oficio-ebanisteria_0_1665433501.html
p18
a.