(lp0
S'https://www.clarin.com/politica/Gerardo-Morales-Milagros-Sala-efectivo_0_1504649766.html'
p1
aS'https://www.clarin.com/sociedad/tweet-dia-Victor-Hugo-pizza-la_continental_0_1504649772.html'
p2
aS'https://www.clarin.com/sociedad/Sorpresa-espacio-descubren-supernova-poderosa_0_1504649787.html'
p3
aS'https://www.clarin.com/sociedad/Lifschitz-cierre-Sol-perdida-region_0_1504649768.html'
p4
aS'https://www.clarin.com/ieco/economia/nueva-petroleo-hace-Wall-Street_0_1504649796.html'
p5
a.