(lp0
Vhttps://www.clarin.com/sociedad/controladores-podria-suspender-vuelos-medianoche_0_1570043007.html
p1
aVhttps://www.clarin.com/sociedad/controladores-podria-suspender-vuelos-medianoche_0_1570043007.html
p2
aVhttps://www.clarin.com/politica/Alicia-Kirchner-Gobierno-adelanto-financiero_0_1570043004.html
p3
aVhttps://www.clarin.com/politica/Alicia-Kirchner-Gobierno-adelanto-financiero_0_1570043004.html
p4
aVhttps://www.clarin.com/ieco/economia/Ponen-marcha-turbina-Loma-Lata_0_1570043003.html
p5
aVhttps://www.clarin.com/ieco/Corrigen-esquema-retenciones-pan-soja_0_1570043001.html
p6
aVhttps://www.clarin.com/ieco/Corrigen-esquema-retenciones-pan-soja_0_1570043001.html
p7
aVhttps://www.clarin.com/politica/Sauces-empresa-fortalecio-Cristina-Baez_0_1569443221.html
p8
aVhttps://www.clarin.com/politica/Sauces-empresa-fortalecio-Cristina-Baez_0_1569443221.html
p9
a.