(lp0
Vhttps://www.clarin.com/ieco/economia/grupo-mexicano-compra-cal-Milagro_0_1628837183.html
p1
aVhttps://www.clarin.com/ieco/economia/debate-creditos-hipotecarios-llego-Congreso_0_1628837252.html
p2
aVhttps://www.clarin.com/ieco/economia/debate-creditos-hipotecarios-llego-Congreso_0_1628837252.html
p3
aVhttps://www.clarin.com/ieco/economia/Costantini-Dietrich-duros-Campora_0_1628837237.html
p4
aVhttps://www.clarin.com/ieco/economia/Costantini-Dietrich-duros-Campora_0_1628837237.html
p5
aVhttps://www.clarin.com/ieco/economia/Despidos-industria-petrolera-enviaron-telegramas_0_1628837251.html
p6
aVhttps://www.clarin.com/ieco/economia/Despidos-industria-petrolera-enviaron-telegramas_0_1628837251.html
p7
aVhttps://www.clarin.com/ieco/economia/Central-animo-bajar-tasa-debajo_0_1628837269.html
p8
aVhttps://www.clarin.com/ieco/economia/Central-animo-bajar-tasa-debajo_0_1628837269.html
p9
aVhttps://www.clarin.com/ieco/economia/consumo-cayo-primer-semestre_0_1628837253.html
p10
aVhttps://www.clarin.com/ieco/dieron-matricula-polemico-matarife-Carne_0_1628837119.html
p11
aVhttps://www.clarin.com/ieco/dieron-matricula-polemico-matarife-Carne_0_1628837119.html
p12
aVhttps://www.clarin.com/sociedad/Arman-gastronomia-argentina-atraer-turistas_0_1628837294.html
p13
aVhttps://www.clarin.com/sociedad/Arman-gastronomia-argentina-atraer-turistas_0_1628837294.html
p14
a.