(lp0
S'https://www.clarin.com/politica/Citan-Oyarbide-confirme-Angelici-jubilara_0_1550845242.html'
p1
aS'https://www.clarin.com/politica/Citan-Oyarbide-confirme-Angelici-jubilara_0_1550845242.html'
p2
aS'https://www.clarin.com/sociedad/Clarin-lanza-domingo-realidad-virtual_0_1550845193.html'
p3
aS'https://www.clarin.com/sociedad/Clarin-lanza-domingo-realidad-virtual_0_1550845193.html'
p4
a.