(lp0
S'https://www.clarin.com/politica/Casanello-defendio-dijo-acostumbrado-criticas_0_1567643238.html'
p1
aS'https://www.clarin.com/sociedad/Comprar-estufa-nueva-sale-pasado_0_1567043503.html'
p2
aS'https://www.clarin.com/sociedad/Comprar-estufa-nueva-sale-pasado_0_1567043503.html'
p3
aS'https://www.clarin.com/sociedad/juicio-perro-desfiguro-chico-anos_0_1567043513.html'
p4
aS'https://www.clarin.com/sociedad/juicio-perro-desfiguro-chico-anos_0_1567043513.html'
p5
aS'https://www.clarin.com/politica/Gobierno-jueces-pura-desconfianza_0_1567643237.html'
p6
aS'https://www.clarin.com/opinion/desafio-sindical-intereses-politicos_0_1567643236.html'
p7
aS'https://www.clarin.com/opinion/Ruta-dinero-caminos-conducen-Vido_0_1567043493.html'
p8
aS'https://www.clarin.com/opinion/Ruta-dinero-caminos-conducen-Vido_0_1567043493.html'
p9
aS'https://www.clarin.com/opinion/Drogas-peligrosas_0_1567043490.html'
p10
a.