(lp0
S'https://www.clarin.com/ieco/empresas-y-negocios/polemico-socio-YPF-Vaca-Muerta_0_1504649995.html'
p1
aS'https://www.clarin.com/ieco/empresas-y-negocios/Toyota-producir-utilitario-Innova-Zarate_0_1504649993.html'
p2
aS'https://www.clarin.com/ieco/empresas-y-negocios/Toyota-producir-utilitario-Innova-Zarate_0_1504649993.html'
p3
aS'https://www.clarin.com/politica/Alicia_Kirchner_0_1504650003.html'
p4
a.