(lp0
S'https://www.clarin.com/politica/Nisman-Lagomarsino-causa-fuero-federal_0_1535846536.html'
p1
aS'https://www.clarin.com/sociedad/Internaron-urgencia-Gasalla_0_1535846551.html'
p2
aS'https://www.clarin.com/ieco/economia/Volwswagen-justifico-motores-cumplir-objetivos_0_1535846542.html'
p3
aS'https://www.clarin.com/sociedad/fantasma-nueva-especie-descubierta-Pacifico_0_1535846528.html'
p4
aS'https://www.clarin.com/sociedad/china-fallece-ascensor-quedo-encerrada_0_1535846534.html'
p5
aS'https://www.clarin.com/ieco/economia/Aseguran-suba-canasta-basica-supera_0_1535846538.html'
p6
a.