(lp0
S'https://www.clarin.com/ieco/economia/Central-Puerto-mete-energia-eolica_0_1643235733.html'
p1
aS'https://www.clarin.com/politica/Acusan-funcionario-macrista-Rincon-Vago_0_1643235726.html'
p2
aS'https://www.clarin.com/ieco/Comision-Europea-automotrices-trampa-emisiones_0_1643235737.html'
p3
aS'https://www.clarin.com/ieco/economia/meses-caida-crece-venta-cemento_0_1643235730.html'
p4
aS'https://www.clarin.com/politica/bienes-Lazaro-Baez-valen_0_1643235721.html'
p5
aS'https://www.clarin.com/politica/agenda-caliente-cruzo-Gobierno-CGT_0_1643235732.html'
p6
aS'https://www.clarin.com/sociedad/exploto-cohete-llevar-satelite-Facebook_0_1643235727.html'
p7
aS'https://www.clarin.com/sociedad/fin-semana-juega-Mundial-Escondida_0_1643235735.html'
p8
a.