(lp0
S'https://www.clarin.com/sociedad/Hugh-Jackman-vistio-rescato-personas_0_1547845398.html'
p1
aS'https://www.clarin.com/sociedad/Hugh-Jackman-vistio-rescato-personas_0_1547845398.html'
p2
aS'https://www.clarin.com/politica/Iglesia-corrupcion-alerto-sociales-impunidad_0_1547845389.html'
p3
aS'https://www.clarin.com/politica/Iglesia-corrupcion-alerto-sociales-impunidad_0_1547845389.html'
p4
aS'https://www.clarin.com/politica/TV-Zulema-Julio-Barbaro-Menem_0_1547845376.html'
p5
aS'https://www.clarin.com/politica/TV-Zulema-Julio-Barbaro-Menem_0_1547845376.html'
p6
aS'https://www.clarin.com/sociedad/arbol-centenario-Mar-Negro_0_1547845370.html'
p7
aS'https://www.clarin.com/sociedad/arbol-centenario-Mar-Negro_0_1547845370.html'
p8
aS'https://www.clarin.com/ieco/economia/Argentina-mercado-ofrecerle-US30000-millones_0_1547845328.html'
p9
aS'https://www.clarin.com/ieco/economia/Argentina-mercado-ofrecerle-US30000-millones_0_1547845328.html'
p10
aS'https://www.clarin.com/ieco/economia/fuerza-buena-historia_0_1547845341.html'
p11
aS'https://www.clarin.com/ieco/economia/fuerza-buena-historia_0_1547845341.html'
p12
a.