(lp0
S'https://www.clarin.com/politica/Corte-sentencio-sindicatos-llamar-huelga_0_1591040997.html'
p1
aS'https://www.clarin.com/politica/Macri-dijo-modificara-articulo-blanqueo_0_1591040999.html'
p2
aS'https://www.clarin.com/sociedad/errores-titular-Central-venado-billetes_0_1591040992.html'
p3
a.