(lp0
S'https://www.clarin.com/sociedad/Balean-joven-buscan-pareja-ataque_0_1510649174.html'
p1
aS'https://www.clarin.com/sociedad/ultima-selfie-explorador-murio-Antartida-Henry_Worlsey_0_1510649191.html'
p2
aS'https://www.clarin.com/sociedad/Video-ping-pong-espacio_0_1510649170.html'
p3
aS'https://www.clarin.com/politica/PJ_bonaerense-Santa_Teresita-La_Campora-Sergio_Massa-Fernando_Espinoza_0_1510649185.html'
p4
aS'https://www.clarin.com/sociedad/Muere-explorador-britanico-cruzar-Antartida_0_1510649121.html'
p5
aS'https://www.clarin.com/sociedad/dengue-epidemia-Corrientes-emergencia_sanitaria_0_1510649164.html'
p6
a.