(lp0
S'https://www.clarin.com/sociedad/Parque-Nacional-fantasma-nadie-entrar_0_1636036530.html'
p1
aS'https://www.clarin.com/sociedad/Parque-Nacional-fantasma-nadie-entrar_0_1636036530.html'
p2
aS'https://www.clarin.com/sociedad/revolucion-social-demandara-cambios_0_1636036526.html'
p3
a.