(lp0
Vhttps://www.clarin.com/politica/demora-contar-genero-criticas-Michetti_0_1615638587.html
p1
aVhttps://www.clarin.com/sociedad/Holanda-hizo-perros-callejeros_0_1615638586.html
p2
aVhttps://www.clarin.com/sociedad/Holanda-hizo-perros-callejeros_0_1615638586.html
p3
aVhttps://www.clarin.com/politica/Baez-Casanello-Gils-Carbo-Presidenta_0_1615638581.html
p4
aVhttps://www.clarin.com/politica/Baez-Casanello-Gils-Carbo-Presidenta_0_1615638581.html
p5
aVhttps://www.clarin.com/ieco/economia/fallo-suba-gas-inflacion-menor_0_1615638578.html
p6
aVhttps://www.clarin.com/politica/Perez-Corradi-Anibal-involucro-Villordo_0_1615638557.html
p7
aVhttps://www.clarin.com/politica/Perez-Corradi-Anibal-involucro-Villordo_0_1615638557.html
p8
a.