(lp0
S'https://www.clarin.com/ieco/economia/futuro-Punta-Tech-Meetup_0_1505849546.html'
p1
aS'https://www.clarin.com/ieco/economia/negocio-lavar-alquilar-ropa_0_1505849548.html'
p2
aS'https://www.clarin.com/ieco/economia/Balance-ano-movimiento_0_1505849543.html'
p3
aS'https://www.clarin.com/ieco/economia/Aprender-cotizar_0_1505849554.html'
p4
aS'https://www.clarin.com/ieco/economia/Llego-adios-bonos-Lebac_0_1505849570.html'
p5
aS'https://www.clarin.com/ieco/economia/marca-imbatible_0_1505849540.html'
p6
aS'https://www.clarin.com/ieco/economia/provocacion-mejora-genetica_0_1505849545.html'
p7
aS'https://www.clarin.com/ieco/economia/Sturzenegger-deja-dominancia-fiscal_0_1505849569.html'
p8
aS'https://www.clarin.com/ieco/economia/saga-suma-negocios-Argentina_0_1505849541.html'
p9
aS'https://www.clarin.com/ieco/economia/Casas-diseno-autor_0_1505849555.html'
p10
aS'https://www.clarin.com/ieco/economia/Oportunidades-graduados_0_1505849544.html'
p11
aS'https://www.clarin.com/ieco/economia/cambio-politico-atrae-inversiones_0_1505849547.html'
p12
aS'https://www.clarin.com/ieco/economia/busqueda-publico-femenino_0_1505849539.html'
p13
aS'https://www.clarin.com/ieco/economia/Crece-oferta-licenciaturas-formar-profesionales_0_1505849551.html'
p14
aS'https://www.clarin.com/ieco/economia/Ingenieros-informaticos-profesionales-buscados_0_1505849542.html'
p15
a.