(lp0
Vhttps://www.clarin.com/politica/Analizan-Mar-Plata-vinculos-dictadura_0_1684631586.html
p1
aVhttps://www.clarin.com/politica/Analizan-Mar-Plata-vinculos-dictadura_0_1684631586.html
p2
aVhttps://www.clarin.com/politica/relacion-Macri-Trump-videos_0_1684631580.html
p3
aVhttps://www.clarin.com/politica/relacion-Macri-Trump-videos_0_1684631580.html
p4
aVhttps://www.clarin.com/ieco/finanzas/Wall-Street-niveles-eleccion-Trump_0_1684631579.html
p5
aVhttps://www.clarin.com/ieco/finanzas/Wall-Street-niveles-eleccion-Trump_0_1684631579.html
p6
aVhttps://www.clarin.com/sociedad/abogado-penalista-atropello-agentes-querian_0_1684631577.html
p7
aVhttps://www.clarin.com/sociedad/abogado-penalista-atropello-agentes-querian_0_1684631577.html
p8
aVhttps://www.clarin.com/ieco/economia/inflacion-portena-octubre_0_1684631576.html
p9
aVhttps://www.clarin.com/ieco/economia/inflacion-portena-octubre_0_1684631576.html
p10
a.