(lp0
S'https://www.clarin.com/politica/Vidal-respondio-Carrio-sostener-cometido_0_1607839387.html'
p1
aS'https://www.clarin.com/politica/Vidal-respondio-Carrio-sostener-cometido_0_1607839387.html'
p2
aS'https://www.clarin.com/politica/Gladys-Gonzalez-Ferraresi-Cristina-actitudes_0_1607839373.html'
p3
aS'https://www.clarin.com/politica/Gladys-Gonzalez-Ferraresi-Cristina-actitudes_0_1607839373.html'
p4
aS'https://www.clarin.com/politica/Patricia-Bullrich-Facebook-Perez-Corradi_0_1607839366.html'
p5
aS'https://www.clarin.com/politica/Patricia-Bullrich-Facebook-Perez-Corradi_0_1607839366.html'
p6
a.