(lp0
Vhttps://www.clarin.com/opinion/Presidenta-deberia-conocer-todas-auditorias_0_1607839363.html
p1
aVhttps://www.clarin.com/politica/mujeres-hacen-favor-Macri_0_1608439144.html
p2
aVhttps://www.clarin.com/politica/mujeres-hacen-favor-Macri_0_1608439144.html
p3
aVhttps://www.clarin.com/politica/Terminar-patota-fascista_0_1608439142.html
p4
aVhttps://www.clarin.com/sociedad/Superbacterias-playas-Rio-Janeiro_0_1607839389.html
p5
aVhttps://www.clarin.com/sociedad/Superbacterias-playas-Rio-Janeiro_0_1607839389.html
p6
aVhttps://www.clarin.com/sociedad/Time-Warp-policonsumo-drogas-Superman_0_1607839418.html
p7
aVhttps://www.clarin.com/sociedad/Time-Warp-policonsumo-drogas-Superman_0_1607839418.html
p8
aVhttps://www.clarin.com/politica/Macri-confirmo-decision-recibir-refugiados_0_1607839407.html
p9
aVhttps://www.clarin.com/politica/Macri-confirmo-decision-recibir-refugiados_0_1607839407.html
p10
aVhttps://www.clarin.com/politica/invitacion-invertir-auditorio-empresarios_0_1607839429.html
p11
aVhttps://www.clarin.com/politica/invitacion-invertir-auditorio-empresarios_0_1607839429.html
p12
aVhttps://www.clarin.com/politica/Berlin-Merkel-reformas-economicas-Macri_0_1607839425.html
p13
aVhttps://www.clarin.com/politica/Berlin-Merkel-reformas-economicas-Macri_0_1607839425.html
p14
aVhttps://www.clarin.com/sociedad/parecia-debian-esperar-juicio-presos_0_1607839420.html
p15
aVhttps://www.clarin.com/sociedad/parecia-debian-esperar-juicio-presos_0_1607839420.html
p16
a.