(lp0
S'https://www.clarin.com/ieco/Precios-Rebajas-Negocian-Productores-Supermercados_0_1508249177.html'
p1
aS'https://www.clarin.com/politica/Estados_Unidos-viajes-visa-Mauricio_Macri-Barack_Obama_0_1508249173.html'
p2
aS'https://www.clarin.com/sociedad/estudia-trabaja-jovenes_0_1507649660.html'
p3
aS'https://www.clarin.com/sociedad/Entretener-chicos-tarea-bolsillo-padres_0_1507649630.html'
p4
aS'https://www.clarin.com/sociedad/Sistema-Solar-cientificos-pruebas-planeta_0_1507649677.html'
p5
aS'https://www.clarin.com/politica/Petroleras-Despidos-Chubut-Das_Neves-Aranguren_0_1508249181.html'
p6
aS'https://www.clarin.com/politica/Petroleras-Despidos-Chubut-Das_Neves_0_1508249182.html'
p7
aS'https://www.clarin.com/politica/Malvinas-Foro_Economico_Mundial-Davos-Susana_Malcorra-David_Cameron_0_1508249174.html'
p8
aS'https://www.clarin.com/politica/Gobierno-negocia-EEUU-pueda-viajar_0_1508249172.html'
p9
aS'https://www.clarin.com/politica/Rio_Turbio-Paro-Santa_Cruz_0_1508249180.html'
p10
aS'https://www.clarin.com/politica/Milagro-Sala-Presa-Carcel-Mujeres-Mercau-Morales_0_1508249176.html'
p11
aS'https://www.clarin.com/politica/Foro_Economico_Mundial-Mauricio_Macri-Davos_0_1508249175.html'
p12
aS'https://www.clarin.com/sociedad/selfies-porqueria-telefono-haces-arte_0_1507649581.html'
p13
a.