(lp0
S'https://www.clarin.com/politica/anonimo-planos-excusas-investigar-droga_0_1646835480.html'
p1
aS'https://www.clarin.com/politica/anonimo-planos-excusas-investigar-droga_0_1646835480.html'
p2
aS'https://www.clarin.com/sociedad/Investigan-Pellegrini-charla-favor-aborto_0_1646835483.html'
p3
aS'https://www.clarin.com/sociedad/Investigan-Pellegrini-charla-favor-aborto_0_1646835483.html'
p4
aS'https://www.clarin.com/sociedad/buscaba-sacarle-Facebook-borraran-falsos_0_1646835484.html'
p5
aS'https://www.clarin.com/politica/PASO-Cambiemos-podria-competir-compartidas_0_1646835473.html'
p6
aS'https://www.clarin.com/politica/PASO-Cambiemos-podria-competir-compartidas_0_1646835473.html'
p7
aS'https://www.clarin.com/politica/Urtubey-peronismo-requiere-trabajo-fundacional_0_1646835476.html'
p8
a.