(lp0
S'https://www.clarin.com/opinion/Medicos-XXI-modelo-armar_0_1675632568.html'
p1
aS'https://www.clarin.com/sociedad/pais-albinos-buscan-protegerlos-ley_0_1675632562.html'
p2
aS'https://www.clarin.com/sociedad/pais-albinos-buscan-protegerlos-ley_0_1675632562.html'
p3
aS'https://www.clarin.com/politica/massismo-unio-frenar-pidio-Macri_0_1675632566.html'
p4
aS'https://www.clarin.com/politica/massismo-unio-frenar-pidio-Macri_0_1675632566.html'
p5
aS'https://www.clarin.com/politica/Ex-ministros-nestoristas-homenajear-Kirchner_0_1675632549.html'
p6
aS'https://www.clarin.com/politica/Ex-ministros-nestoristas-homenajear-Kirchner_0_1675632549.html'
p7
aS'https://www.clarin.com/sociedad/Detienen-pareja-prostituir-hija-anos_0_1675632553.html'
p8
a.