(lp0
Vhttps://www.clarin.com/opinion/Trump-verdadero-populista_0_1674432666.html
p1
aVhttps://www.clarin.com/opinion/Trump-verdadero-populista_0_1674432666.html
p2
aVhttps://www.clarin.com/sociedad/Debaten-proteccion-ballenas-Japon-ejemplares_0_1674432673.html
p3
aVhttps://www.clarin.com/sociedad/Debaten-proteccion-ballenas-Japon-ejemplares_0_1674432673.html
p4
aVhttps://www.clarin.com/sociedad/Stephen-Wiltshire-sobrevuela-ciudades-dibujarlas_0_1674432675.html
p5
aVhttps://www.clarin.com/sociedad/Stephen-Wiltshire-sobrevuela-ciudades-dibujarlas_0_1674432675.html
p6
aVhttps://www.clarin.com/politica/Vidal-Costantini-acuerdan-Mar-Plata_0_1674432668.html
p7
aVhttps://www.clarin.com/politica/Vidal-Costantini-acuerdan-Mar-Plata_0_1674432668.html
p8
aVhttps://www.clarin.com/opinion/paises-llenos-pobres_0_1674432669.html
p9
aVhttps://www.clarin.com/opinion/paises-llenos-pobres_0_1674432669.html
p10
aVhttps://www.clarin.com/sociedad/disfraces-Halloween-originales-noche-brujas_0_1674432662.html
p11
aVhttps://www.clarin.com/sociedad/disfraces-Halloween-originales-noche-brujas_0_1674432662.html
p12
aVhttps://www.clarin.com/opinion/Dignidad-silencio_0_1674432663.html
p13
aVhttps://www.clarin.com/opinion/Dignidad-silencio_0_1674432663.html
p14
aVhttps://www.clarin.com/sociedad/Chascomus-asesino-mujer-suicido_0_1674432661.html
p15
a.