(lp0
Vhttps://www.clarin.com/ieco/coloquioidea/Ejecutivos-infraestructura-servicios-financieros-multinacionales_0_1668433264.html
p1
aVhttps://www.clarin.com/sociedad/Trasladan-Tutankamon-Gran-Museo-Egipcio_0_1668433247.html
p2
aVhttps://www.clarin.com/sociedad/Trasladan-Tutankamon-Gran-Museo-Egipcio_0_1668433247.html
p3
a.