(lp0
S'https://www.clarin.com/politica/Escandalo-Plata-intendente-millones-dolares_0_1654634566.html'
p1
aS'https://www.clarin.com/ieco/segunda-expectativas-inflacion-caen-debajo_0_1654634561.html'
p2
aS'https://www.clarin.com/politica/britanica-difundio-posicion-Macri-Malvinas_0_1654634555.html'
p3
aS'https://www.clarin.com/politica/Macri-Gran-Bretana-retomar-Malvinas_0_1654634559.html'
p4
a.