(lp0
Vhttps://www.clarin.com/politica/Primer-encuentro-Vidal-Tagaliferro-separacion_0_1547245478.html
p1
aVhttps://www.clarin.com/politica/Primer-encuentro-Vidal-Tagaliferro-separacion_0_1547245478.html
p2
aVhttps://www.clarin.com/politica/segundo-Epicospado-advirtio-sufriendo-pobreza_0_1547245477.html
p3
aVhttps://www.clarin.com/politica/segundo-Epicospado-advirtio-sufriendo-pobreza_0_1547245477.html
p4
aVhttps://www.clarin.com/politica/Joe-Lewis-magnate-Lago-Escondido_0_1547245470.html
p5
aVhttps://www.clarin.com/politica/Joe-Lewis-magnate-Lago-Escondido_0_1547245470.html
p6
aVhttps://www.clarin.com/politica/adverso-Gobierno-busca-postergar-buitres_0_1547245469.html
p7
aVhttps://www.clarin.com/politica/adverso-Gobierno-busca-postergar-buitres_0_1547245469.html
p8
aVhttps://www.clarin.com/politica/Barrionuevo-esperanza-Cristina-Kirchner-presa_0_1547245459.html
p9
a.