(lp0
Vhttps://www.clarin.com/ieco/Paritarias-Vidal-Estatales_0_1516048781.html
p1
aVhttps://www.clarin.com/politica/Bloque_del_Frente_Para_la_Victoria-Consejo_nacional_del_PJ-peronismo-Hector_Recalde_0_1516048759.html
p2
aVhttps://www.clarin.com/politica/Bloque_del_Frente_Para_la_Victoria-Consejo_nacional_del_PJ-peronismo-Hector_Recalde_0_1516048759.html
p3
aVhttps://www.clarin.com/politica/documento-bloque-Justicialista-romper-FpV_0_1516048755.html
p4
aVhttps://www.clarin.com/politica/documento-bloque-Justicialista-romper-FpV_0_1516048755.html
p5
aVhttps://www.clarin.com/politica/empleo_publico-fin_de_contratos_0_1516048746.html
p6
aVhttps://www.clarin.com/politica/Papa_Francisco-Macri-audiencia-corralito_0_1516048744.html
p7
aVhttps://www.clarin.com/politica/Papa_Francisco-Macri-audiencia-corralito_0_1516048744.html
p8
a.