(lp0
Vhttps://www.clarin.com/ieco/Pese-ajuste-publica-fiscal-millones_0_1563443827.html
p1
aVhttps://www.clarin.com/politica/Cristina-Kirchner-Santa-Cruz-crisis_0_1563443802.html
p2
aVhttps://www.clarin.com/politica/Cristina-Kirchner-Santa-Cruz-crisis_0_1563443802.html
p3
aVhttps://www.clarin.com/politica/Maximo-Kirchner-Olivos-asegura-diputada_0_1563443814.html
p4
aVhttps://www.clarin.com/politica/Maximo-Kirchner-Olivos-asegura-diputada_0_1563443814.html
p5
a.