(lp0
Vhttps://www.clarin.com/politica/Gobierno-habla-detencion-Martin-Lanatta_0_1501050236.html
p1
aVhttps://www.clarin.com/politica/Macri-Michetti-felicitacion-detencion-silencio_0_1501050204.html
p2
a.