(lp0
Vhttps://www.clarin.com/politica/Blanqueo-exluidos-familiares-directos-funcionarios_0_1596440472.html
p1
aVhttps://www.clarin.com/politica/Blanqueo-exluidos-familiares-directos-funcionarios_0_1596440472.html
p2
aVhttps://www.clarin.com/politica/camioneros-dejaron-Moyano-decision-nacional_0_1596440471.html
p3
aVhttps://www.clarin.com/politica/camioneros-dejaron-Moyano-decision-nacional_0_1596440471.html
p4
aVhttps://www.clarin.com/politica/Elevaron-juicio-Jaime-enriquecimiento-ilicito_0_1596440470.html
p5
aVhttps://www.clarin.com/politica/Elevaron-juicio-Jaime-enriquecimiento-ilicito_0_1596440470.html
p6
aVhttps://www.clarin.com/ieco/economia/compras-Central-dolar-subio-centavos_0_1596440468.html
p7
aVhttps://www.clarin.com/politica/Lopez-Ezeiza-Chueco-Jaime-Lazaro_0_1596440465.html
p8
aVhttps://www.clarin.com/politica/Lopez-Ezeiza-Chueco-Jaime-Lazaro_0_1596440465.html
p9
aVhttps://www.clarin.com/sociedad/aventura-mujer-vivio-meses-Antartida_0_1594040710.html
p10
aVhttps://www.clarin.com/sociedad/aventura-mujer-vivio-meses-Antartida_0_1594040710.html
p11
a.