(lp0
S'https://www.clarin.com/ieco/economia/Intervienen-sindicato-Caballo-Suarez_0_1525647858.html'
p1
aS'https://www.clarin.com/sociedad/Empresarios-amigos-despidieron-Martin-Blaquier_0_1526247635.html'
p2
aS'https://www.clarin.com/sociedad/Empresarios-amigos-despidieron-Martin-Blaquier_0_1526247635.html'
p3
aS'https://www.clarin.com/politica/Internaron-director-Indec_0_1526247626.html'
p4
aS'https://www.clarin.com/politica/Internaron-director-Indec_0_1526247626.html'
p5
aS'https://www.clarin.com/sociedad/Argentina-record-tuits-recitales_0_1526247623.html'
p6
aS'https://www.clarin.com/sociedad/Argentina-record-tuits-recitales_0_1526247623.html'
p7
aS'https://www.clarin.com/politica/embajadora-argentina-Francia-llegue-relevo_0_1526247638.html'
p8
a.