(lp0
Vhttps://www.clarin.com/sociedad/Lanzaron-Fresco-Batata-nanosatelites-comerciales_0_1586241385.html
p1
aVhttps://www.clarin.com/sociedad/Lanzaron-Fresco-Batata-nanosatelites-comerciales_0_1586241385.html
p2
aVhttps://www.clarin.com/politica/Gobierno-otorgo-millones-Scholas-Occurrentes_0_1586241382.html
p3
aVhttps://www.clarin.com/politica/Gobierno-otorgo-millones-Scholas-Occurrentes_0_1586241382.html
p4
aVhttps://www.clarin.com/sociedad/fuerte-temporal-suspendieron-Mar-Plata_0_1586241379.html
p5
aVhttps://www.clarin.com/sociedad/fuerte-temporal-suspendieron-Mar-Plata_0_1586241379.html
p6
aVhttps://www.clarin.com/politica/Corte-Suprema-designaciones-tratan-junio_0_1586241373.html
p7
aVhttps://www.clarin.com/politica/Demora-reintegro-IVA-error-votacion_0_1586241371.html
p8
aVhttps://www.clarin.com/politica/Demora-reintegro-IVA-error-votacion_0_1586241371.html
p9
a.