(lp0
Vhttps://www.clarin.com/ieco/economia/inflacion-ejecutivos_0_1576042542.html
p1
aVhttps://www.clarin.com/ieco/economia/inflacion-ejecutivos_0_1576042542.html
p2
aVhttps://www.clarin.com/ieco/economia/cambios-futuro-mirada-lideres-clave_0_1576042546.html
p3
aVhttps://www.clarin.com/ieco/economia/cambios-futuro-mirada-lideres-clave_0_1576042546.html
p4
aVhttps://www.clarin.com/politica/Cablevision-anuncio-invertira-US-millones_0_1576042547.html
p5
aVhttps://www.clarin.com/politica/Bonadio-Cristina-maniobras-ilegales-mantener_0_1576042536.html
p6
aVhttps://www.clarin.com/politica/Bonadio-Cristina-maniobras-ilegales-mantener_0_1576042536.html
p7
aVhttps://www.clarin.com/politica/causas-acorralan-ex-presidenta_0_1576042531.html
p8
aVhttps://www.clarin.com/politica/causas-acorralan-ex-presidenta_0_1576042531.html
p9
aVhttps://www.clarin.com/sociedad/funcionario-esquivo-control-alcoholemia-autos_0_1576042532.html
p10
aVhttps://www.clarin.com/sociedad/funcionario-esquivo-control-alcoholemia-autos_0_1576042532.html
p11
aVhttps://www.clarin.com/politica/frases-principales-fallo-Bonadio_0_1576042530.html
p12
aVhttps://www.clarin.com/politica/frases-principales-fallo-Bonadio_0_1576042530.html
p13
a.