(lp0
Vhttps://www.clarin.com/sociedad/Solar-Impulse-retoma-intento-vuelta_0_1562843764.html
p1
aVhttps://www.clarin.com/sociedad/Solar-Impulse-retoma-intento-vuelta_0_1562843764.html
p2
aVhttps://www.clarin.com/politica/Macri-proyecto-antidespidos-oposicion-hagamos_0_1562843760.html
p3
aVhttps://www.clarin.com/politica/Macri-proyecto-antidespidos-oposicion-hagamos_0_1562843760.html
p4
aVhttps://www.clarin.com/ieco/economia/Comenzo-paro-horas-bancos_0_1562843759.html
p5
aVhttps://www.clarin.com/ieco/economia/Comenzo-paro-horas-bancos_0_1562843759.html
p6
aVhttps://www.clarin.com/ieco/Gobierno-promete-excepcionales-productores-inundados_0_1562843758.html
p7
aVhttps://www.clarin.com/ieco/Gobierno-promete-excepcionales-productores-inundados_0_1562843758.html
p8
aVhttps://www.clarin.com/sociedad/Freddie-Mercury-normal-distorsionandola-estudio_0_1562843754.html
p9
aVhttps://www.clarin.com/sociedad/Freddie-Mercury-normal-distorsionandola-estudio_0_1562843754.html
p10
aVhttps://www.clarin.com/ieco/ANSES-confirmo-pagara-extra_0_1562843753.html
p11
aVhttps://www.clarin.com/politica/Carrio-Justicia-millones-Nestor-Cristina_0_1562843752.html
p12
aVhttps://www.clarin.com/politica/Carrio-Justicia-millones-Nestor-Cristina_0_1562843752.html
p13
a.