(lp0
S'https://www.clarin.com/politica/Allanan-Cristobal-Lopez-disposicion-Justicia_0_1542446046.html'
p1
aS'https://www.clarin.com/politica/Casanello-datos-Martin-Baez-AFIP_0_1542446036.html'
p2
aS'https://www.clarin.com/politica/Gobierno-pedira-querellante-causa-Hotesur_0_1542446033.html'
p3
aS'https://www.clarin.com/sociedad/Subastaran-Inglaterra-Cadillac-usaba-Evita_0_1542446014.html'
p4
aS'https://www.clarin.com/sociedad/mayo-simplificaran-tramite-cruzar-Chile_0_1542446043.html'
p5
a.