(lp0
Vhttps://www.clarin.com/politica/Balas-gases-heridos-represion-Plata_0_1501049970.html
p1
aVhttps://www.clarin.com/politica/Balas-gases-heridos-represion-Plata_0_1501049970.html
p2
aVhttps://www.clarin.com/sociedad/Asco-ultima-frontera_0_1501049944.html
p3
aVhttps://www.clarin.com/politica/Campora-careta-plumas_0_1501049943.html
p4
aVhttps://www.clarin.com/politica/triple_crimen-vidal_0_1501049939.html
p5
aVhttps://www.clarin.com/politica/triple_crimen-vidal_0_1501049939.html
p6
aVhttps://www.clarin.com/politica/triple_crimen-vidal_0_1501049938.html
p7
aVhttps://www.clarin.com/politica/triple_crimen-vidal_0_1501049937.html
p8
aVhttps://www.clarin.com/politica/triple_crimen-vidal_0_1501049937.html
p9
aVhttps://www.clarin.com/opinion/TIC-s-Ciber_delitos-Bullying-Redes_sociales_0_1501049929.html
p10
aVhttps://www.clarin.com/sociedad/turistas-siguen-burlando-controles-Nicolas_0_1500450385.html
p11
aVhttps://www.clarin.com/sociedad/combate-perdido-marco-triunfo-diplomatico_0_1500450373.html
p12
aVhttps://www.clarin.com/sociedad/bergantin-agil-mastil-metros_0_1500450371.html
p13
aVhttps://www.clarin.com/sociedad/bergantin-agil-mastil-metros_0_1500450371.html
p14
a.