(lp0
Vhttps://www.clarin.com/politica/Revelan-Echegaray-AFIP-controlo-lavado_0_1584441764.html
p1
aVhttps://www.clarin.com/politica/Revelan-Echegaray-AFIP-controlo-lavado_0_1584441764.html
p2
aVhttps://www.clarin.com/politica/vuelve-retrasar-investigacion-muerte-Nisman_0_1585641428.html
p3
aVhttps://www.clarin.com/politica/vuelve-retrasar-investigacion-muerte-Nisman_0_1585641428.html
p4
aVhttps://www.clarin.com/opinion/Luis-Miranda-decadas-buen-servicio_0_1584441722.html
p5
aVhttps://www.clarin.com/opinion/Luis-Miranda-decadas-buen-servicio_0_1584441722.html
p6
aVhttps://www.clarin.com/opinion/dependia-depende-economia_0_1584441726.html
p7
aVhttps://www.clarin.com/opinion/Debemos-control-corrupcion-mentiras_0_1584441715.html
p8
aVhttps://www.clarin.com/opinion/Debemos-control-corrupcion-mentiras_0_1584441715.html
p9
aVhttps://www.clarin.com/opinion/deseamos-queremos-experimentar_0_1584441733.html
p10
aVhttps://www.clarin.com/opinion/carrera-mejor-correr_0_1584441729.html
p11
aVhttps://www.clarin.com/opinion/marcha-vida-caminando-horror-pasado_0_1584441720.html
p12
aVhttps://www.clarin.com/opinion/marcha-vida-caminando-horror-pasado_0_1584441720.html
p13
a.