(lp0
Vhttps://www.clarin.com/sociedad/Vivir-deporte-explican-espectadores-juegan_0_1628237329.html
p1
aVhttps://www.clarin.com/sociedad/Vivir-deporte-explican-espectadores-juegan_0_1628237329.html
p2
aVhttps://www.clarin.com/ieco/economia/Blanqueo-senalan-mejor-opcion-anos_0_1628237305.html
p3
aVhttps://www.clarin.com/ieco/economia/Blanqueo-senalan-mejor-opcion-anos_0_1628237305.html
p4
aVhttps://www.clarin.com/politica/izquierda-moviliza-Plaza-Mayo-tarifazo_0_1628237318.html
p5
aVhttps://www.clarin.com/politica/izquierda-moviliza-Plaza-Mayo-tarifazo_0_1628237318.html
p6
aVhttps://www.clarin.com/politica/denuncias-lavado-Cristina-mostro-Scioli_0_1628237307.html
p7
aVhttps://www.clarin.com/politica/denuncias-lavado-Cristina-mostro-Scioli_0_1628237307.html
p8
aVhttps://www.clarin.com/ieco/economia/Banco-Central-elimino-ultimos-vestigios_0_1628237300.html
p9
aVhttps://www.clarin.com/ieco/economia/Banco-Central-elimino-ultimos-vestigios_0_1628237300.html
p10
a.