(lp0
Vhttps://www.clarin.com/ieco/dolar-arranca-semana-subiendo-centavos_0_1640835989.html
p1
aVhttps://www.clarin.com/ieco/dolar-arranca-semana-subiendo-centavos_0_1640835989.html
p2
aVhttps://www.clarin.com/sociedad/hombre-pajaro-transmitio-propia-muerte_0_1640836011.html
p3
aVhttps://www.clarin.com/sociedad/hombre-pajaro-transmitio-propia-muerte_0_1640836011.html
p4
aVhttps://www.clarin.com/opinion/Padres-obstinados-hijos-saben-ayudar_0_1640836007.html
p5
aVhttps://www.clarin.com/politica/Carrio-Macri-apuesta-disolver-SIDE_0_1640836004.html
p6
aVhttps://www.clarin.com/politica/Carrio-Macri-apuesta-disolver-SIDE_0_1640836004.html
p7
a.