(lp0
S'https://www.clarin.com/opinion/expectativas-siguen-altas_0_1665433447.html'
p1
aS'https://www.clarin.com/opinion/dice-espera-blanqueo_0_1665433444.html'
p2
aS'https://www.clarin.com/ieco/coloquioidea/Trucco-precios-igualan-costos-produccion_0_1664233732.html'
p3
aS'https://www.clarin.com/opinion/karma-persigue-Mauricio-Macri_0_1665433445.html'
p4
aS'https://www.clarin.com/ieco/coloquioidea/Opinion-expectativas-favorables_0_1664233740.html'
p5
aS'https://www.clarin.com/ieco/economia/claves-blanqueo-fiscal_0_1664233752.html'
p6
aS'https://www.clarin.com/opinion/encuestas-vienen-llenas-sorpresas_0_1665433443.html'
p7
aS'https://www.clarin.com/ieco/coloquioidea/Opinion-Obra-publica-transparencia_0_1664233734.html'
p8
aS'https://www.clarin.com/ieco/economia/Opinion-fin-clandestinidad_0_1664233759.html'
p9
aS'https://www.clarin.com/opinion/Falta-plan-seguridad-objetivos_0_1665433446.html'
p10
aS'https://www.clarin.com/ieco/Club-Paris-Prat-Gay-modificar-Kicillof_0_1665433448.html'
p11
aS'https://www.clarin.com/ieco/coloquioidea/Jose-Corral-desarrollo-capacidades_0_1664233729.html'
p12
aS'https://www.clarin.com/ieco/coloquioidea/Inflacion-vientos-cambio-Aduana_0_1664233738.html'
p13
aS'https://www.clarin.com/ieco/economia/estreno-Gobierno-colocar-titulos-euros_0_1664233726.html'
p14
a.