(lp0
Vhttps://www.clarin.com/sociedad/eclipse-sol-deslumbro-Indonesia_0_1537046427.html
p1
aVhttps://www.clarin.com/sociedad/eclipse-sol-deslumbro-Indonesia_0_1537046427.html
p2
aVhttps://www.clarin.com/sociedad/rescataron-sobreviviente-aviones-General-Rodriguez_0_1537046459.html
p3
aVhttps://www.clarin.com/sociedad/rescataron-sobreviviente-aviones-General-Rodriguez_0_1537046459.html
p4
aVhttps://www.clarin.com/sociedad/Perito-Moreno-podria-romperse-manana_0_1537046454.html
p5
aVhttps://www.clarin.com/sociedad/Perito-Moreno-podria-romperse-manana_0_1537046454.html
p6
aVhttps://www.clarin.com/politica/TupacAmaru-MilagroSala_0_1537046394.html
p7
aVhttps://www.clarin.com/politica/TupacAmaru-MilagroSala_0_1537046394.html
p8
aVhttps://www.clarin.com/politica/DiegoBossio-CristinaKirchner_0_1537046428.html
p9
aVhttps://www.clarin.com/politica/DiegoBossio-CristinaKirchner_0_1537046428.html
p10
a.