(lp0
Vhttps://www.clarin.com/politica/confirmo-Camara-Federal-reto-Bonadio_0_1557444463.html
p1
aVhttps://www.clarin.com/politica/confirmo-Camara-Federal-reto-Bonadio_0_1557444463.html
p2
aVhttps://www.clarin.com/sociedad/Video-pescador-llevo-susto-vida_0_1557444462.html
p3
aVhttps://www.clarin.com/sociedad/Video-pescador-llevo-susto-vida_0_1557444462.html
p4
aVhttps://www.clarin.com/sociedad/misterio-roca-gigante-divide-arqueologos_0_1557444459.html
p5
aVhttps://www.clarin.com/sociedad/misterio-roca-gigante-divide-arqueologos_0_1557444459.html
p6
a.