(lp0
Vhttps://www.clarin.com/politica/polemica-aumentan-presupuesto-Enargas-millones_0_1613238670.html
p1
aVhttps://www.clarin.com/politica/polemica-aumentan-presupuesto-Enargas-millones_0_1613238670.html
p2
aVhttps://www.clarin.com/sociedad/Impresionante-accidente-embestido-conductor-precavido_0_1613238669.html
p3
aVhttps://www.clarin.com/sociedad/Impresionante-accidente-embestido-conductor-precavido_0_1613238669.html
p4
aVhttps://www.clarin.com/politica/Justicia-inhibicion-general-Cristobal-Lopez_0_1612638864.html
p5
aVhttps://www.clarin.com/politica/Justicia-inhibicion-general-Cristobal-Lopez_0_1612638864.html
p6
aVhttps://www.clarin.com/politica/nueva-rutina-Cristobal-Lopez_0_1612638865.html
p7
aVhttps://www.clarin.com/politica/nueva-rutina-Cristobal-Lopez_0_1612638865.html
p8
aVhttps://www.clarin.com/politica/Agredieron-intendente-detuvieron-Jose-Lopez_0_1613238664.html
p9
aVhttps://www.clarin.com/sociedad/olvido-quiso-entrar-balcon-vacio_0_1612638909.html
p10
aVhttps://www.clarin.com/sociedad/olvido-quiso-entrar-balcon-vacio_0_1612638909.html
p11
aVhttps://www.clarin.com/politica/informe-psiquiatrico-revela-Jose-Lopez_0_1612638899.html
p12
aVhttps://www.clarin.com/politica/informe-psiquiatrico-revela-Jose-Lopez_0_1612638899.html
p13
aVhttps://www.clarin.com/opinion/chicos-necesitan-certidumbres-adultos_0_1612638854.html
p14
a.