(lp0
Vhttps://www.clarin.com/politica/Cristina-Kirchner-prepara-departamento-porteno_0_1520248277.html
p1
aVhttps://www.clarin.com/politica/Cristina-Kirchner-prepara-departamento-porteno_0_1520248277.html
p2
aVhttps://www.clarin.com/sociedad/negaron-seguir-excursion-chofer-ebrio_0_1520248280.html
p3
aVhttps://www.clarin.com/sociedad/negaron-seguir-excursion-chofer-ebrio_0_1520248280.html
p4
aVhttps://www.clarin.com/ieco/economia/Narcotrafico-Mexico-denuncian-HSBC_0_1520248262.html
p5
aVhttps://www.clarin.com/politica/Francisco_Lagos-proteccion_de_testigos_0_1520248271.html
p6
aVhttps://www.clarin.com/politica/Julio_De_Vido-coimas-Petrobras-Gerardo_Pollicita_0_1520248267.html
p7
a.