(lp0
S'https://www.clarin.com/ieco/Gobierno-aclaro-piensa-condonar-electricas_0_1689431088.html'
p1
aS'https://www.clarin.com/sociedad/Guia-viajar-mascota-medio-transporte_0_1689431087.html'
p2
aS'https://www.clarin.com/sociedad/proteccion-solar-recomendada-imposible-bolsillo_0_1689431092.html'
p3
aS'https://www.clarin.com/politica/Martin-Baez-Justicia-necesita-vivir_0_1689431056.html'
p4
aS'https://www.clarin.com/sociedad/Galileo-GPS-europeo-listo-competir_0_1689431099.html'
p5
a.