(lp0
S'https://www.clarin.com/sociedad/Milagro-monte-paso-perdido-sobrevivio_0_1606039543.html'
p1
aS'https://www.clarin.com/opinion/Buenos-dias-companero-Mauri_0_1606639321.html'
p2
aS'https://www.clarin.com/opinion/ensueno-visitar-pasado_0_1606039501.html'
p3
aS'https://www.clarin.com/opinion/Patria-pudo_0_1606039530.html'
p4
aS'https://www.clarin.com/opinion/Patria-pudo_0_1606039530.html'
p5
aS'https://www.clarin.com/politica/Carrio-tiburon-Macri-enemigos-atemoriza_0_1606039556.html'
p6
aS'https://www.clarin.com/politica/panorama-judicial-Cristina-vez-comprometido_0_1606039542.html'
p7
aS'https://www.clarin.com/politica/panorama-judicial-Cristina-vez-comprometido_0_1606039542.html'
p8
aS'https://www.clarin.com/politica/Brexit-Macri-Hollande-estrechar-Europa_0_1606039548.html'
p9
aS'https://www.clarin.com/politica/Brexit-Macri-Hollande-estrechar-Europa_0_1606039548.html'
p10
aS'https://www.clarin.com/politica/Presidente-viaja-Belgica-Merkel-Alemania_0_1606039547.html'
p11
aS'https://www.clarin.com/politica/Presidente-viaja-Belgica-Merkel-Alemania_0_1606039547.html'
p12
aS'https://www.clarin.com/politica/Macri-cumbre-ultramillonarios_0_1606039527.html'
p13
aS'https://www.clarin.com/politica/gente-poca-confianza-Justicia_0_1606039549.html'
p14
aS'https://www.clarin.com/ieco/economia/segundo-semestre-Bolsa-festejo-primero_0_1606039540.html'
p15
aS'https://www.clarin.com/ieco/economia/segundo-semestre-Bolsa-festejo-primero_0_1606039540.html'
p16
a.