(lp0
S'https://www.clarin.com/politica/Extrana-alianza-kirchnerismo-Cambiemos-Legislatura_0_1538846370.html'
p1
aS'https://www.clarin.com/sociedad/complejo-penitenciario-rugbiers-argentinos_0_1538846356.html'
p2
aS'https://www.clarin.com/sociedad/complejo-penitenciario-rugbiers-argentinos_0_1538846356.html'
p3
aS'https://www.clarin.com/politica/Bullrich-defendio-Roncaglia-vinculado-Stiuso_0_1538846363.html'
p4
aS'https://www.clarin.com/politica/Bullrich-defendio-Roncaglia-vinculado-Stiuso_0_1538846363.html'
p5
aS'https://www.clarin.com/sociedad/avion-Iron-Maiden-choco-tractor_0_1538846352.html'
p6
aS'https://www.clarin.com/sociedad/Descubren-bacteria-come-plastico_0_1538846345.html'
p7
aS'https://www.clarin.com/sociedad/Descubren-bacteria-come-plastico_0_1538846345.html'
p8
aS'https://www.clarin.com/sociedad/Piden-fotos-reconstruir-ultimas-mochileras_0_1538846343.html'
p9
aS'https://www.clarin.com/sociedad/Piden-fotos-reconstruir-ultimas-mochileras_0_1538846343.html'
p10
aS'https://www.clarin.com/sociedad/Detuvieron-rugbiers-argentinos-Rio-Janeiro_0_1538846332.html'
p11
aS'https://www.clarin.com/sociedad/Detuvieron-rugbiers-argentinos-Rio-Janeiro_0_1538846332.html'
p12
a.