(lp0
S'https://www.clarin.com/politica/Faraon-Melnyk-volvio-pedir-excarcelacion_0_1504049819.html'
p1
aS'https://www.clarin.com/politica/Triple_Fuga-video-Eugenio_Burzaco_0_1504049823.html'
p2
aS'https://www.clarin.com/politica/Carlos_Zannini-Santa_Cruz_0_1504049796.html'
p3
aS'https://www.clarin.com/sociedad/tiempo-Costa-segunda-quincena_0_1504049803.html'
p4
aS'https://www.clarin.com/sociedad/Australia-cazan-tiburones-metros-liberan_0_1504049784.html'
p5
aS'https://www.clarin.com/sociedad/chancho-calles-Rosario-atrapado-taxistas_0_1504049802.html'
p6
aS'https://www.clarin.com/politica/salpicado-llamo-petiso-Ottavis-apoyo_0_1504049781.html'
p7
a.