(lp0
S'https://www.clarin.com/politica/Tinelli-ironico-campana-artistas-buitre_0_1540646093.html'
p1
aS'https://www.clarin.com/sociedad/muertes-causas-ambientales_0_1540646082.html'
p2
aS'https://www.clarin.com/politica/fiscal-investigar-acuerdo-Gobierno-holdouts_0_1540646088.html'
p3
aS'https://www.clarin.com/politica/medios-Cristobal-Lopez-ceder-socio_0_1540646079.html'
p4
aS'https://www.clarin.com/ieco/Gobierno-prorroga-Precios-Cuidados-Ahora_0_1540646095.html'
p5
aS'https://www.clarin.com/ieco/economia/Masiva-protesta-Misiones-tarifa-electrica_0_1540646101.html'
p6
a.