(lp0
S'https://www.clarin.com/sociedad/vinos-enologos-argentinos_0_1685231599.html'
p1
aS'https://www.clarin.com/sociedad/vinos-enologos-argentinos_0_1685231599.html'
p2
aS'https://www.clarin.com/politica/AMIA-Casacion-denuncia-Nisman-Cristina_0_1685831453.html'
p3
aS'https://www.clarin.com/politica/AMIA-Casacion-denuncia-Nisman-Cristina_0_1685831453.html'
p4
aS'https://www.clarin.com/politica/definio-monto-pago-AUH-refuerzo_0_1685831452.html'
p5
a.