(lp0
Vhttps://www.clarin.com/politica/Larroque-Trato-pensar-Cristina-presa_0_1556844507.html
p1
aVhttps://www.clarin.com/politica/Larroque-Trato-pensar-Cristina-presa_0_1556844507.html
p2
aVhttps://www.clarin.com/sociedad/PAMI-defender-recorte-cobertura-medicamentos_0_1556844504.html
p3
aVhttps://www.clarin.com/sociedad/PAMI-defender-recorte-cobertura-medicamentos_0_1556844504.html
p4
aVhttps://www.clarin.com/sociedad/Video-peluche-astronauta-estratosfera-volvio_0_1556844475.html
p5
aVhttps://www.clarin.com/politica/problemas-Jaime-consuegros-denunciaron-procesarlo_0_1556844495.html
p6
aVhttps://www.clarin.com/politica/problemas-Jaime-consuegros-denunciaron-procesarlo_0_1556844495.html
p7
aVhttps://www.clarin.com/sociedad/Abren-convocatoria-Premio-Clarin-Zurich-Educacion_0_1556844496.html
p8
aVhttps://www.clarin.com/politica/SIP-elogio-Macri-abierto-plural_0_1556844493.html
p9
aVhttps://www.clarin.com/sociedad/elite-vino-arbitros-Mundial-Mendoza_0_1556844490.html
p10
aVhttps://www.clarin.com/sociedad/elite-vino-arbitros-Mundial-Mendoza_0_1556844490.html
p11
aVhttps://www.clarin.com/ieco/economia/ajustes-tarifarios-inflacion-abril-superaria_0_1556844491.html
p12
aVhttps://www.clarin.com/ieco/economia/ajustes-tarifarios-inflacion-abril-superaria_0_1556844491.html
p13
aVhttps://www.clarin.com/politica/Nisman-cerca-pasar-fuero-federal_0_1556844489.html
p14
aVhttps://www.clarin.com/politica/Nisman-cerca-pasar-fuero-federal_0_1556844489.html
p15
a.