(lp0
S'https://www.clarin.com/politica/Gobierno-alivio-rechazo-aprovechamiento-politico_0_1651634930.html'
p1
aS'https://www.clarin.com/politica/Gobierno-alivio-rechazo-aprovechamiento-politico_0_1651634930.html'
p2
aS'https://www.clarin.com/politica/Casanello-Ercolini-investigacion-vinculada-ilicitos_0_1651634931.html'
p3
aS'https://www.clarin.com/politica/Casanello-Ercolini-investigacion-vinculada-ilicitos_0_1651634931.html'
p4
aS'https://www.clarin.com/politica/Michetti-sobreseida-explico-dinero-robado_0_1651634929.html'
p5
aS'https://www.clarin.com/politica/Michetti-sobreseida-explico-dinero-robado_0_1651634929.html'
p6
aS'https://www.clarin.com/politica/vivo-mira-audiencia-publica-tarifa_0_1651634928.html'
p7
aS'https://www.clarin.com/politica/vivo-mira-audiencia-publica-tarifa_0_1651634928.html'
p8
aS'https://www.clarin.com/politica/ministro-Bullrich-Campana-Desierto-desato_0_1651634926.html'
p9
aS'https://www.clarin.com/politica/ministro-Bullrich-Campana-Desierto-desato_0_1651634926.html'
p10
aS'https://www.clarin.com/sociedad/enfermedades-mentales-Belgica-coleccion-cerebros_0_1651634925.html'
p11
aS'https://www.clarin.com/sociedad/enfermedades-mentales-Belgica-coleccion-cerebros_0_1651634925.html'
p12
aS'https://www.clarin.com/ieco/economia/YPF-consiguio-millones-francos-suizos_0_1651634921.html'
p13
aS'https://www.clarin.com/ieco/economia/YPF-consiguio-millones-francos-suizos_0_1651634921.html'
p14
a.