(lp0
S'https://www.clarin.com/sociedad/Fuerte-explosion-laboratorio-Rosario_0_1603039743.html'
p1
aS'https://www.clarin.com/sociedad/Fuerte-explosion-laboratorio-Rosario_0_1603039743.html'
p2
aS'https://www.clarin.com/sociedad/Sweepee-Rambo-perro-feo-mundo_0_1603039723.html'
p3
aS'https://www.clarin.com/sociedad/Sweepee-Rambo-perro-feo-mundo_0_1603039723.html'
p4
aS'https://www.clarin.com/ieco/economia/Gobierno-nuevas-Letras-US-millones_0_1603039735.html'
p5
aS'https://www.clarin.com/ieco/economia/Gobierno-nuevas-Letras-US-millones_0_1603039735.html'
p6
a.