(lp0
Vhttps://www.clarin.com/politica/dictaron-prision-preventiva-Jose-Lopez_0_1616238506.html
p1
aVhttps://www.clarin.com/politica/dictaron-prision-preventiva-Jose-Lopez_0_1616238506.html
p2
aVhttps://www.clarin.com/ieco/economia/Chubut-consiguio-exterior-US-millones_0_1616238504.html
p3
aVhttps://www.clarin.com/ieco/economia/Chubut-consiguio-exterior-US-millones_0_1616238504.html
p4
aVhttps://www.clarin.com/ieco/economia/accion-filial-PDVSA-acuerdo-venta_0_1616238461.html
p5
aVhttps://www.clarin.com/ieco/economia/accion-filial-PDVSA-acuerdo-venta_0_1616238461.html
p6
aVhttps://www.clarin.com/politica/Macri-viaja-Juegos-Olimpicos-Rio_0_1616238493.html
p7
aVhttps://www.clarin.com/sociedad/ano-matan-animales-combatir-arrugas_0_1616238491.html
p8
aVhttps://www.clarin.com/sociedad/ano-matan-animales-combatir-arrugas_0_1616238491.html
p9
a.