(lp0
Vhttps://www.clarin.com/ieco/economia/Microsoft-compra-LinkedIn-US-millones_0_1594640596.html
p1
aVhttps://www.clarin.com/ieco/economia/Microsoft-compra-LinkedIn-US-millones_0_1594640596.html
p2
aVhttps://www.clarin.com/politica/Macri-visito-electrifcado-Roca-Berazategui_0_1594640593.html
p3
aVhttps://www.clarin.com/politica/Macri-visito-electrifcado-Roca-Berazategui_0_1594640593.html
p4
aVhttps://www.clarin.com/sociedad/PrayforOrlando-solidaridad-mundo-comunidad-gay_0_1594640572.html
p5
aVhttps://www.clarin.com/sociedad/PrayforOrlando-solidaridad-mundo-comunidad-gay_0_1594640572.html
p6
a.