(lp0
S'https://www.clarin.com/sociedad/golpear-maestra-hijo-dieron-carcel_0_1613838803.html'
p1
aS'https://www.clarin.com/politica/cajas-dolares-corbatas-Lastiri_0_1613838800.html'
p2
aS'https://www.clarin.com/sociedad/Drogas-recargadas-pastillas-diseno-potencia_0_1613838799.html'
p3
aS'https://www.clarin.com/sociedad/Drogas-recargadas-pastillas-diseno-potencia_0_1613838799.html'
p4
aS'https://www.clarin.com/sociedad/INDEC-denuncia-irregularidades-censo_0_1613838789.html'
p5
aS'https://www.clarin.com/ieco/economia/Prat-Gay-inflacion-dialogo-sindicatos-formadores_0_1613838788.html'
p6
aS'https://www.clarin.com/opinion/Time-Warp-cruzada-judicial-desinflo_0_1613838787.html'
p7
aS'https://www.clarin.com/opinion/Time-Warp-cruzada-judicial-desinflo_0_1613838787.html'
p8
aS'https://www.clarin.com/politica/Malvinas-esperan-informe-identificar-caidos_0_1613838779.html'
p9
aS'https://www.clarin.com/politica/Malvinas-esperan-informe-identificar-caidos_0_1613838779.html'
p10
a.