(lp0
S'https://www.clarin.com/opinion/Mercosur-fractura-expuesta_0_1628237280.html'
p1
aS'https://www.clarin.com/sociedad/carreras-estudiar-videojuegos-matricula-crece_0_1628237313.html'
p2
aS'https://www.clarin.com/sociedad/carreras-estudiar-videojuegos-matricula-crece_0_1628237313.html'
p3
aS'https://www.clarin.com/sociedad/Arranco-juicio-distancia-crimenes-Montanita_0_1628237319.html'
p4
aS'https://www.clarin.com/sociedad/Arranco-juicio-distancia-crimenes-Montanita_0_1628237319.html'
p5
aS'https://www.clarin.com/sociedad/conocido-alquiler-vientre-detienen-trata_0_1628237320.html'
p6
aS'https://www.clarin.com/sociedad/conocido-alquiler-vientre-detienen-trata_0_1628237320.html'
p7
aS'https://www.clarin.com/sociedad/Conseguir-expertos-puede-llevar-meses_0_1628237304.html'
p8
aS'https://www.clarin.com/sociedad/Conseguir-expertos-puede-llevar-meses_0_1628237304.html'
p9
aS'https://www.clarin.com/opinion/Amigos-amigos-espias_0_1628837103.html'
p10
aS'https://www.clarin.com/politica/diplomacia-reclamos-casos-emblematicos_0_1628237346.html'
p11
aS'https://www.clarin.com/politica/diplomacia-reclamos-casos-emblematicos_0_1628237346.html'
p12
aS'https://www.clarin.com/politica/Revelan-duros-informes-represion-dictadura_0_1628237345.html'
p13
aS'https://www.clarin.com/politica/Revelan-duros-informes-represion-dictadura_0_1628237345.html'
p14
aS'https://www.clarin.com/politica/detenidos-intimidaciones-Presidente_0_1628237344.html'
p15
a.