(lp0
S'https://www.clarin.com/sociedad/vacaciones-arrancaron-historico-salidas-Ezeiza_0_1619238081.html'
p1
aS'https://www.clarin.com/sociedad/Varios-tigres-matan-safari-Pekin_0_1619238086.html'
p2
aS'https://www.clarin.com/sociedad/grave-joven-golpearon-patovicas-boliche_0_1619238085.html'
p3
aS'https://www.clarin.com/politica/Macri-critico-Tinelli-Justicia-Legitima_0_1619238087.html'
p4
aS'https://www.clarin.com/ieco/campus-ieco/teoria-empresa-valor-practicas-profesionales_0_1618038323.html'
p5
aS'https://www.clarin.com/politica/Lombardi-Tecnopolis-aparato-propaganda-amigable_0_1619238090.html'
p6
aS'https://www.clarin.com/sociedad/museo-Moron-cuenta-historia-basura_0_1617438358.html'
p7
aS'https://www.clarin.com/sociedad/Femicidio-pelotero-acuchillo-cumpleanos-infantil_0_1619238078.html'
p8
a.