(lp0
Vhttps://www.clarin.com/sociedad/Lanzan-primera-debate-educativo-nacional_0_1612638769.html
p1
aVhttps://www.clarin.com/ieco/septiembre-vuelven-subir-comisiones-bancos_0_1612638768.html
p2
aVhttps://www.clarin.com/ieco/septiembre-vuelven-subir-comisiones-bancos_0_1612638768.html
p3
aVhttps://www.clarin.com/sociedad/Auschwitz-prohibe-visitantes-Pokemon-Go_0_1612638766.html
p4
aVhttps://www.clarin.com/sociedad/Auschwitz-prohibe-visitantes-Pokemon-Go_0_1612638766.html
p5
aVhttps://www.clarin.com/ieco/actividad-industrial-cayo-ano_0_1612638761.html
p6
aVhttps://www.clarin.com/ieco/actividad-industrial-cayo-ano_0_1612638761.html
p7
aVhttps://www.clarin.com/sociedad/Solar-completo-penultimo-vuelta-mundo_0_1612638760.html
p8
aVhttps://www.clarin.com/sociedad/Solar-completo-penultimo-vuelta-mundo_0_1612638760.html
p9
aVhttps://www.clarin.com/politica/Marcha-candidato-embajador-Venezuela_0_1612038950.html
p10
aVhttps://www.clarin.com/politica/Marcha-candidato-embajador-Venezuela_0_1612038950.html
p11
aVhttps://www.clarin.com/ieco/AFIP-Echegaray-inspecciones-propios-empleados_0_1612638750.html
p12
aVhttps://www.clarin.com/ieco/AFIP-Echegaray-inspecciones-propios-empleados_0_1612638750.html
p13
aVhttps://www.clarin.com/sociedad/Bullrich-bochazo-Medicina-Plata-problema_0_1612638758.html
p14
aVhttps://www.clarin.com/sociedad/Bullrich-bochazo-Medicina-Plata-problema_0_1612638758.html
p15
a.