(lp0
S'https://www.clarin.com/politica/Gobierno-confirmo-disparo-misiles-Argentino_0_1670833032.html'
p1
aS'https://www.clarin.com/politica/traspapelaron-causas-varias-corrupcion_0_1670833039.html'
p2
aS'https://www.clarin.com/politica/traspapelaron-causas-varias-corrupcion_0_1670833039.html'
p3
aS'https://www.clarin.com/sociedad/milagro-Dia-Madre-conmovio-Cordoba_0_1670833041.html'
p4
aS'https://www.clarin.com/sociedad/milagro-Dia-Madre-conmovio-Cordoba_0_1670833041.html'
p5
aS'https://www.clarin.com/politica/Gobierno-denunciara-Maximo-Oficina-Anticorrupcion_0_1670833029.html'
p6
aS'https://www.clarin.com/politica/Gobierno-denunciara-Maximo-Oficina-Anticorrupcion_0_1670833029.html'
p7
aS'https://www.clarin.com/politica/Cristina-subio-convocatoria-NiUnaMenos_0_1670833033.html'
p8
aS'https://www.clarin.com/politica/Cristina-subio-convocatoria-NiUnaMenos_0_1670833033.html'
p9
a.