(lp0
S'https://www.clarin.com/politica/Macri-corrupcion-instalo-sociedad-argentina_0_1507649369.html'
p1
aS'https://www.clarin.com/politica/evento-anos-deja-foto_0_1507649278.html'
p2
aS'https://www.clarin.com/politica/aumento-jubilados-marzo-alrededor_0_1507049508.html'
p3
aS'https://www.clarin.com/sociedad/verano-Lucas-pileta-viajara-conocer_0_1507649290.html'
p4
aS'https://www.clarin.com/sociedad/Avanza-virus-dengue-Capital-GBA_0_1507649295.html'
p5
a.