(lp0
S'https://www.clarin.com/politica/Sigue-interna-peronismo-marcha-Macri_0_1640836085.html'
p1
aS'https://www.clarin.com/politica/jueves-clave-fractura-bloque-Ciudad_0_1640836066.html'
p2
aS'https://www.clarin.com/politica/Marcos-Pena-marcha-resistencia-tragicomedia_0_1640836088.html'
p3
aS'https://www.clarin.com/politica/Sergio-Massa-sumarse-renovacion-PJ_0_1640836086.html'
p4
aS'https://www.clarin.com/sociedad/Clarin-cumplio-anos-celebro-personal_0_1640836087.html'
p5
aS'https://www.clarin.com/politica/Acuerdo-Senado-firmar-dictamen-arrepentido_0_1640836077.html'
p6
aS'https://www.clarin.com/sociedad/viernes-pararan-docentes-Ciudad-descontara_0_1640836078.html'
p7
aS'https://www.clarin.com/politica/OA-jueces-Corte-declaraciones-bienes_0_1640836080.html'
p8
a.