(lp0
S'https://www.clarin.com/politica/Copani-Solano-Lima-guerra-videoclips_0_1562243882.html'
p1
aS'https://www.clarin.com/ieco/economia/dolar-subio-once-centavos_0_1562243886.html'
p2
aS'https://www.clarin.com/sociedad/Video-insolito-show-osos_0_1562243877.html'
p3
aS'https://www.clarin.com/ieco/economia/canasta-basica-familiar-cuesta-mes_0_1562243889.html'
p4
a.