(lp0
S'https://www.clarin.com/politica/Ernesto-Sanz-Duran-Barba-Gobierno_0_1652834798.html'
p1
aS'https://www.clarin.com/ieco/economia/agrando-brecha-precios-gondola-productores_0_1652834805.html'
p2
aS'https://www.clarin.com/politica/Llego-Macri-Nueva-Asamblea-ONU_0_1652834792.html'
p3
aS'https://www.clarin.com/politica/arranca-movilizacion-Jorge-Julio-Lopez_0_1652834794.html'
p4
aS'https://www.clarin.com/politica/Stolbizer-pedidos-Aranguren-Lazaro-Baez_0_1652834797.html'
p5
aS'https://www.clarin.com/politica/audiencia-Gobierno-prometio-facilitar-social_0_1652834791.html'
p6
a.