(lp0
S'https://www.clarin.com/sociedad/Comida-tipicos-escarapelas-festejar-Bicentenario_0_1609639090.html'
p1
aS'https://www.clarin.com/sociedad/Comida-tipicos-escarapelas-festejar-Bicentenario_0_1609639090.html'
p2
aS'https://www.clarin.com/ieco/Aconsejan-pagar-tarifazos-Gobierno-apele_0_1609639089.html'
p3
aS'https://www.clarin.com/ieco/Aconsejan-pagar-tarifazos-Gobierno-apele_0_1609639089.html'
p4
aS'https://www.clarin.com/ieco/economia/Diputados-FPV-pediran-especial-Congreso_0_1609639084.html'
p5
aS'https://www.clarin.com/ieco/economia/Diputados-FPV-pediran-especial-Congreso_0_1609639084.html'
p6
aS'https://www.clarin.com/sociedad/Justicia-ordeno-devolver-docentes-descuentos_0_1609639085.html'
p7
aS'https://www.clarin.com/sociedad/Justicia-ordeno-devolver-docentes-descuentos_0_1609639085.html'
p8
aS'https://www.clarin.com/sociedad/Bicentenario-Tucuman-presidente-festival-interactivo_0_1609639076.html'
p9
aS'https://www.clarin.com/sociedad/Bicentenario-Tucuman-presidente-festival-interactivo_0_1609639076.html'
p10
a.