(lp0
Vhttps://www.clarin.com/opinion/inflacion_microeconomia_consumidor_alza_de_precios_Macri_0_1522048251.html
p1
aVhttps://www.clarin.com/opinion/inflacion_microeconomia_consumidor_alza_de_precios_Macri_0_1522048251.html
p2
a.