(lp0
S'https://www.clarin.com/politica/Camara-Casacion-confirmo-detencion-Baez_0_1570643077.html'
p1
aS'https://www.clarin.com/politica/Cambiemos-picardia-sello_0_1570643112.html'
p2
aS'https://www.clarin.com/politica/Prision-perpetua-Patti-crimenes-dictadura_0_1570643099.html'
p3
aS'https://www.clarin.com/sociedad/encuentra-estable-siamesa-separada-Posadas_0_1570643091.html'
p4
aS'https://www.clarin.com/sociedad/Hablo-internados-Time-Warp-acuerdo_0_1570643089.html'
p5
aS'https://www.clarin.com/sociedad/fumadores-quejan-subas-siguen-comprando_0_1570643110.html'
p6
aS'https://www.clarin.com/sociedad/primera-Micaela-morir-Costa-Salguero_0_1570643097.html'
p7
aS'https://www.clarin.com/sociedad/suba-cigarrillo-lleva-sueldo-ano_0_1570643098.html'
p8
a.