(lp0
S'https://www.clarin.com/opinion/Ladrones-codigos-piedad_0_1652234907.html'
p1
aS'https://www.clarin.com/opinion/Ladrones-codigos-piedad_0_1652234907.html'
p2
aS'https://www.clarin.com/ieco/economia/Espana-respaldara-inversiones-empresas-Argentina_0_1651634989.html'
p3
aS'https://www.clarin.com/ieco/economia/Cambios-Defensa-Competencia_0_1652834715.html'
p4
aS'https://www.clarin.com/ieco/economia/Cambios-Defensa-Competencia_0_1652834715.html'
p5
aS'https://www.clarin.com/ieco/economia/relevancia-competitivos_0_1652834714.html'
p6
aS'https://www.clarin.com/ieco/economia/relevancia-competitivos_0_1652834714.html'
p7
aS'https://www.clarin.com/ieco/economia/Dar-respuestas-empleados_0_1652834736.html'
p8
aS'https://www.clarin.com/ieco/economia/Dar-respuestas-empleados_0_1652834736.html'
p9
aS'https://www.clarin.com/ieco/economia/caida-comercio-internacional_0_1652834712.html'
p10
aS'https://www.clarin.com/ieco/economia/caida-comercio-internacional_0_1652834712.html'
p11
aS'https://www.clarin.com/ieco/economia/km-promocionados_0_1652834718.html'
p12
aS'https://www.clarin.com/ieco/economia/km-promocionados_0_1652834718.html'
p13
aS'https://www.clarin.com/ieco/economia/Presupuesto-fuerte-suba-deuda_0_1652834711.html'
p14
aS'https://www.clarin.com/ieco/economia/Presupuesto-fuerte-suba-deuda_0_1652834711.html'
p15
aS'https://www.clarin.com/ieco/economia/pymes-industriales-recesion-tocado-fondo_0_1652834724.html'
p16
aS'https://www.clarin.com/ieco/economia/pymes-industriales-recesion-tocado-fondo_0_1652834724.html'
p17
aS'https://www.clarin.com/ieco/economia/Autopartes-sector-caida-libre_0_1652834723.html'
p18
aS'https://www.clarin.com/ieco/economia/Espana-refuta-predicciones-europeas-Stiglitz_0_1652834722.html'
p19
aS'https://www.clarin.com/ieco/campus-ieco/Ole-UP-lanzan-marketing-deportivo_0_1652234933.html'
p20
aS'https://www.clarin.com/ieco/campus-ieco/Ole-UP-lanzan-marketing-deportivo_0_1652234933.html'
p21
aS'https://www.clarin.com/ieco/management/hacen-empresas-atraer-empleados-conservarlos_0_1651634995.html'
p22
aS'https://www.clarin.com/ieco/management/hacen-empresas-atraer-empleados-conservarlos_0_1651634995.html'
p23
aS'https://www.clarin.com/ieco/economia/pelea-clave-inflacion-salarios_0_1651634991.html'
p24
aS'https://www.clarin.com/ieco/economia/pelea-clave-inflacion-salarios_0_1651634991.html'
p25
aS'https://www.clarin.com/ieco/economia/regreso-Mindlin-Wall-Street_0_1652834726.html'
p26
aS'https://www.clarin.com/ieco/economia/regreso-Mindlin-Wall-Street_0_1652834726.html'
p27
a.