(lp0
Vhttps://www.clarin.com/politica/diputado-FPV-puede-Legislatura-quemo_0_1499250349.html
p1
aVhttps://www.clarin.com/politica/diputado-FPV-puede-Legislatura-quemo_0_1499250349.html
p2
aVhttps://www.clarin.com/sociedad/correponsal-BBC-despide-argentina-aprendio_0_1499250342.html
p3
aVhttps://www.clarin.com/sociedad/correponsal-BBC-despide-argentina-aprendio_0_1499250342.html
p4
aVhttps://www.clarin.com/ieco/economia/litro-nafta-llega-interior_0_1499250336.html
p5
aVhttps://www.clarin.com/ieco/economia/litro-nafta-llega-interior_0_1499250336.html
p6
aVhttps://www.clarin.com/sociedad/secreto-longevidad-senorita-argentina-vieja_0_1499250321.html
p7
aVhttps://www.clarin.com/sociedad/secreto-longevidad-senorita-argentina-vieja_0_1499250321.html
p8
a.