(lp0
S'https://www.clarin.com/sociedad/astronauta-habitaculo-inflable-NASA-epacio_0_1590441054.html'
p1
aS'https://www.clarin.com/sociedad/Denuncio-robado-ahora-encontraron-cadaver_0_1590441042.html'
p2
aS'https://www.clarin.com/politica/Tarifas-amparo-ahora-tope_0_1590441062.html'
p3
aS'https://www.clarin.com/ieco/economia/dolar-mantiene-tendencia-retrocedio-centavos_0_1590441057.html'
p4
aS'https://www.clarin.com/sociedad/Vicky-Xipolitakis-pilotos-juicio-escandalo_0_1590441067.html'
p5
aS'https://www.clarin.com/politica/Patagonia-reclama-tarifas-bajas-impuestos_0_1590441070.html'
p6
aS'https://www.clarin.com/ieco/Vivir-vacaciones-dias-ano_0_1588641251.html'
p7
a.