(lp0
S'https://www.clarin.com/sociedad/Luchan-cancer-cuentan-primera-persona_0_1572442905.html'
p1
aS'https://www.clarin.com/sociedad/Luchan-cancer-cuentan-primera-persona_0_1572442905.html'
p2
aS'https://www.clarin.com/sociedad/Flor-militante-violencia_0_1572442901.html'
p3
aS'https://www.clarin.com/sociedad/amigas-final-matan-violan-juntas_0_1572442897.html'
p4
aS'https://www.clarin.com/sociedad/amigas-final-matan-violan-juntas_0_1572442897.html'
p5
aS'https://www.clarin.com/sociedad/dias-femicidios_0_1572442889.html'
p6
aS'https://www.clarin.com/sociedad/dias-femicidios_0_1572442889.html'
p7
aS'https://www.clarin.com/sociedad/tecnologia-aliada-nietos-abuelos-juntan_0_1572442896.html'
p8
aS'https://www.clarin.com/politica/macrismo-discute-candidato-provincia_0_1572442891.html'
p9
aS'https://www.clarin.com/sociedad/Gardelito-robot-reconoce-sentimiento-argentino_0_1572442890.html'
p10
aS'https://www.clarin.com/sociedad/Gardelito-robot-reconoce-sentimiento-argentino_0_1572442890.html'
p11
aS'https://www.clarin.com/politica/Vera-criticas-Carrio-encuentro-Papa_0_1572442878.html'
p12
aS'https://www.clarin.com/politica/Vera-criticas-Carrio-encuentro-Papa_0_1572442878.html'
p13
a.