(lp0
Vhttps://www.clarin.com/sociedad/ashtanga-yoga-matthew-vollmer-seminario_0_1671433029.html
p1
aVhttps://www.clarin.com/sociedad/ashtanga-yoga-matthew-vollmer-seminario_0_1671433029.html
p2
aVhttps://www.clarin.com/sociedad/Video-violento-iniciacion-hockey-sanjuanino_0_1672032812.html
p3
aVhttps://www.clarin.com/sociedad/Video-violento-iniciacion-hockey-sanjuanino_0_1672032812.html
p4
aVhttps://www.clarin.com/sociedad/famoso-chef-desato-escandalo-defiende_0_1672032811.html
p5
aVhttps://www.clarin.com/sociedad/famoso-chef-desato-escandalo-defiende_0_1672032811.html
p6
aVhttps://www.clarin.com/politica/pymes-redoblan-apuesta-vamos-pagar_0_1672032807.html
p7
aVhttps://www.clarin.com/politica/pymes-redoblan-apuesta-vamos-pagar_0_1672032807.html
p8
aVhttps://www.clarin.com/sociedad/Justicia-anula-prohibicion-corridas-Cataluna_0_1672032810.html
p9
aVhttps://www.clarin.com/sociedad/Justicia-anula-prohibicion-corridas-Cataluna_0_1672032810.html
p10
aVhttps://www.clarin.com/politica/Rioja-insiste-reclamo-millonario-coparticipacion_0_1672032809.html
p11
aVhttps://www.clarin.com/politica/Rioja-insiste-reclamo-millonario-coparticipacion_0_1672032809.html
p12
aVhttps://www.clarin.com/sociedad/ley-cobertura-leche-medicamentosa_0_1672032806.html
p13
aVhttps://www.clarin.com/sociedad/ley-cobertura-leche-medicamentosa_0_1672032806.html
p14
aVhttps://www.clarin.com/politica/senadores-votaron-ley-paridad_0_1672032801.html
p15
aVhttps://www.clarin.com/politica/senadores-votaron-ley-paridad_0_1672032801.html
p16
a.