(lp0
Vhttps://www.clarin.com/ieco/carne-consume-feedlot_0_1574842658.html
p1
aVhttps://www.clarin.com/ieco/carne-consume-feedlot_0_1574842658.html
p2
aVhttps://www.clarin.com/politica/Pesos-dolares-clave-inflacion_0_1574842673.html
p3
aVhttps://www.clarin.com/ieco/General-Motors-apuesta-creceran-Brasil_0_1574842672.html
p4
aVhttps://www.clarin.com/ieco/General-Motors-apuesta-creceran-Brasil_0_1574842672.html
p5
aVhttps://www.clarin.com/politica/Avance-opositor-votar-antidespidos-cambios_0_1574842698.html
p6
aVhttps://www.clarin.com/politica/Avance-opositor-votar-antidespidos-cambios_0_1574842698.html
p7
aVhttps://www.clarin.com/ieco/economia/Sturzenegger-exito-moderar-inflacion_0_1574842632.html
p8
aVhttps://www.clarin.com/ieco/economia/Sturzenegger-exito-moderar-inflacion_0_1574842632.html
p9
aVhttps://www.clarin.com/ieco/economia/Senado-tratara-ley-creditos-inmobiliarios_0_1575442442.html
p10
aVhttps://www.clarin.com/sociedad/Contrapunto-rectores-conurbano-Bullrich-fondos_0_1574842708.html
p11
a.