(lp0
S'https://www.clarin.com/sociedad/espectacular-video-alud-Alpes_0_1506449641.html'
p1
aS'https://www.clarin.com/sociedad/fracaso-SpaceX-estallo-ultimo-momento_0_1506449625.html'
p2
aS'https://www.clarin.com/sociedad/avalancha-dejo-muertos-Alpes_0_1506449631.html'
p3
a.