(lp0
Vhttps://www.clarin.com/sociedad/huracan-Matthew-Estacion-Espacial-Internacional_0_1664233601.html
p1
aVhttps://www.clarin.com/sociedad/huracan-Matthew-Estacion-Espacial-Internacional_0_1664233601.html
p2
aVhttps://www.clarin.com/politica/Sobreseen-declaran-inimputable-hermana-Alba_0_1664233599.html
p3
aVhttps://www.clarin.com/politica/Sobreseen-declaran-inimputable-hermana-Alba_0_1664233599.html
p4
aVhttps://www.clarin.com/politica/Gas-oficializan-tarifarios-usuarios-consumo_0_1664233590.html
p5
aVhttps://www.clarin.com/politica/Gas-oficializan-tarifarios-usuarios-consumo_0_1664233590.html
p6
a.