(lp0
S'https://www.clarin.com/politica/Triple_crimen-provincia_de_Buenos_Aires-efedrina-profugos_0_1496850364.html'
p1
aS'https://www.clarin.com/sociedad/Fiestas_privadas-La_Plata-clandestina_0_1496850363.html'
p2
aS'https://www.clarin.com/politica/energia-naftas-petroleo-precios-Juan_Jose_Aranguren_0_1496850362.html'
p3
aS'https://www.clarin.com/politica/Rosada-buscan-caso-salpique-Presidente_0_1496250680.html'
p4
aS'https://www.clarin.com/politica/paso-legislacion-conecte-mejor_0_1496250675.html'
p5
aS'https://www.clarin.com/ieco/empresas-y-negocios/Fusiones-piso-empiezan-aparecer-inversores_0_1496250656.html'
p6
aS'https://www.clarin.com/politica/Triple_Crimen-fuga_0_1496250718.html'
p7
aS'https://www.clarin.com/politica/Triple_Crimen-fuga_0_1496250718.html'
p8
aS'https://www.clarin.com/politica/Triple_Crimen-fuga-fotos-Ranger-Kangoo_0_1496250693.html'
p9
aS'https://www.clarin.com/politica/Triple_Crimen-fuga-fotos-Ranger-Kangoo_0_1496250693.html'
p10
a.