(lp0
S'https://www.clarin.com/politica/mueble-Vido-desayuno-Macri_0_1598240314.html'
p1
aS'https://www.clarin.com/politica/Lazaro-debera-ratificar-compromete-Juez_0_1598240298.html'
p2
aS'https://www.clarin.com/sociedad/pitbull-raza-recomendable-mascota_0_1598240305.html'
p3
aS'https://www.clarin.com/sociedad/robots-ocupan-puestos-trabajo-pais_0_1598240296.html'
p4
aS'https://www.clarin.com/politica/abogado-Bina-recompensa-Perez-Corradi_0_1598240313.html'
p5
a.