(lp0
Vhttps://www.clarin.com/sociedad/Artistas-argentinos-prestigiosa-exposicion-Praga_0_1591640968.html
p1
aVhttps://www.clarin.com/sociedad/Artistas-argentinos-prestigiosa-exposicion-Praga_0_1591640968.html
p2
aVhttps://www.clarin.com/politica/PRO-respondio-Cristina-kirchnerismo-callarse_0_1592240850.html
p3
a.