(lp0
Vhttps://www.clarin.com/politica/interna-PJ-suspendio-partidaria-prevista_0_1604239684.html
p1
aVhttps://www.clarin.com/politica/Alicia-Kirchner-Lopez-General-Rodriguez_0_1604239674.html
p2
aVhttps://www.clarin.com/politica/Alicia-Kirchner-Lopez-General-Rodriguez_0_1604239674.html
p3
aVhttps://www.clarin.com/ieco/primer-trimestre-profundizo-recesion_0_1604239676.html
p4
aVhttps://www.clarin.com/politica/Reforma-candidatos-presidente-designaran-PASO_0_1603639823.html
p5
aVhttps://www.clarin.com/politica/Reforma-candidatos-presidente-designaran-PASO_0_1603639823.html
p6
aVhttps://www.clarin.com/politica/Maximo-Baez-hablaron-compartian-negocios_0_1604239671.html
p7
aVhttps://www.clarin.com/politica/Maximo-Baez-hablaron-compartian-negocios_0_1604239671.html
p8
a.