(lp0
Vhttps://www.clarin.com/politica/Baez-negaron-control-cuentas-Suiza_0_1607839359.html
p1
aVhttps://www.clarin.com/politica/Baez-negaron-control-cuentas-Suiza_0_1607839359.html
p2
aVhttps://www.clarin.com/politica/Gobierno-cambiarle-Centro-Cultural-Kirchner_0_1607839417.html
p3
aVhttps://www.clarin.com/politica/Gobierno-cambiarle-Centro-Cultural-Kirchner_0_1607839417.html
p4
aVhttps://www.clarin.com/sociedad/dulce-cepillo-dientes-caries-alumnos_0_1607839416.html
p5
aVhttps://www.clarin.com/sociedad/dulce-cepillo-dientes-caries-alumnos_0_1607839416.html
p6
aVhttps://www.clarin.com/sociedad/Consumidores-responsables-reclaman-derechos_0_1607839405.html
p7
aVhttps://www.clarin.com/sociedad/Consumidores-responsables-reclaman-derechos_0_1607839405.html
p8
aVhttps://www.clarin.com/politica/Garavano-pidio-Corte-resuelva-tarifas_0_1607839388.html
p9
aVhttps://www.clarin.com/politica/Garavano-pidio-Corte-resuelva-tarifas_0_1607839388.html
p10
aVhttps://www.clarin.com/sociedad/celulares-gama-media-potentes-caros_0_1607839401.html
p11
aVhttps://www.clarin.com/sociedad/celulares-gama-media-potentes-caros_0_1607839401.html
p12
aVhttps://www.clarin.com/sociedad/control-precios-reciben-denuncias-dia_0_1607839403.html
p13
aVhttps://www.clarin.com/sociedad/control-precios-reciben-denuncias-dia_0_1607839403.html
p14
aVhttps://www.clarin.com/politica/Cristina-cruzar-Stolbizer-calumniar-mentir_0_1607839402.html
p15
aVhttps://www.clarin.com/politica/Cristina-cruzar-Stolbizer-calumniar-mentir_0_1607839402.html
p16
aVhttps://www.clarin.com/politica/Criticas-Senado-flexibiliza-tierras-extranjeros_0_1607839398.html
p17
aVhttps://www.clarin.com/politica/Criticas-Senado-flexibiliza-tierras-extranjeros_0_1607839398.html
p18
aVhttps://www.clarin.com/politica/Schoklender-Hebe-perdio-verguenza-ajena_0_1607839390.html
p19
aVhttps://www.clarin.com/politica/Schoklender-Hebe-perdio-verguenza-ajena_0_1607839390.html
p20
a.