(lp0
S'https://www.clarin.com/sociedad/Disparador_Marcelo_Moreno_0_1505849415.html'
p1
aS'https://www.clarin.com/ieco/economia/Telefonicas-retail-guerra-celulares-liberados_0_1505849572.html'
p2
aS'https://www.clarin.com/politica/Rosatti-avales-Corte_0_1505849416.html'
p3
aS'https://www.clarin.com/politica/Policia_Bonaerense-purgas-fuga_0_1505849419.html'
p4
aS'https://www.clarin.com/politica/complices-delatores-profugos-Santa_Fe_0_1505849418.html'
p5
aS'https://www.clarin.com/sociedad/Wi-Fi-Li-Fi-transmiten-Internet-LED_0_1505249800.html'
p6
aS'https://www.clarin.com/ieco/economia/Precios-promedio_0_1505849571.html'
p7
aS'https://www.clarin.com/politica/Relacion-Papa-Macri-no-encamina_0_1505849414.html'
p8
aS'https://www.clarin.com/politica/Insisten-acusar-mala-informacion-Gendarmeria_0_1505849417.html'
p9
aS'https://www.clarin.com/politica/Relato_M-Relato_K-publicidad-medios_0_1505849413.html'
p10
a.