(lp0
S'https://www.clarin.com/ieco/Macri-CEO-gigante-quimica-China_0_1657634295.html'
p1
aS'https://www.clarin.com/ieco/Macri-CEO-gigante-quimica-China_0_1657634295.html'
p2
aS'https://www.clarin.com/sociedad/Perros-nadadores-demostraron-destrezas-surf_0_1657634293.html'
p3
aS'https://www.clarin.com/sociedad/Perros-nadadores-demostraron-destrezas-surf_0_1657634293.html'
p4
aS'https://www.clarin.com/politica/intendente-quiso-frenar-protesta-pegan_0_1657634291.html'
p5
aS'https://www.clarin.com/politica/intendente-quiso-frenar-protesta-pegan_0_1657634291.html'
p6
aS'https://www.clarin.com/politica/Malcorra-cuarto-lugar-votacion-ONU_0_1657634289.html'
p7
aS'https://www.clarin.com/politica/Malcorra-cuarto-lugar-votacion-ONU_0_1657634289.html'
p8
aS'https://www.clarin.com/politica/Servini-dura-Ahora-nadie-puerta_0_1657634290.html'
p9
aS'https://www.clarin.com/politica/Servini-dura-Ahora-nadie-puerta_0_1657634290.html'
p10
aS'https://www.clarin.com/sociedad/album-Nirvana-recrea-anos-despues_0_1657634285.html'
p11
aS'https://www.clarin.com/sociedad/album-Nirvana-recrea-anos-despues_0_1657634285.html'
p12
a.