(lp0
Vhttps://www.clarin.com/politica/Alcances-limitaciones-acuerdo-mesa-dialogo_0_1671433032.html
p1
aVhttps://www.clarin.com/politica/Alcances-limitaciones-acuerdo-mesa-dialogo_0_1671433032.html
p2
aVhttps://www.clarin.com/ieco/economia/empresarios-acuerdo-politico-aceptan-negociar_0_1671433033.html
p3
aVhttps://www.clarin.com/ieco/economia/empresarios-acuerdo-politico-aceptan-negociar_0_1671433033.html
p4
aVhttps://www.clarin.com/ieco/economia/indios-Issue-vienen-empresas-argentinas_0_1671433031.html
p5
aVhttps://www.clarin.com/ieco/economia/Bioceres-Rizobacter-tablero-negocio-agroindustrial_0_1671433030.html
p6
aVhttps://www.clarin.com/ieco/economia/Bioceres-Rizobacter-tablero-negocio-agroindustrial_0_1671433030.html
p7
aVhttps://www.clarin.com/politica/Gobierno-impulsa-agencia-municipios-intendentes_0_1671433019.html
p8
aVhttps://www.clarin.com/politica/Gobierno-impulsa-agencia-municipios-intendentes_0_1671433019.html
p9
aVhttps://www.clarin.com/politica/Prat-Gay-enojo-pregunta-cuentas-fiscales_0_1671433003.html
p10
aVhttps://www.clarin.com/politica/Prat-Gay-enojo-pregunta-cuentas-fiscales_0_1671433003.html
p11
aVhttps://www.clarin.com/politica/Acuerdan-minimo-trabajadores-sector-privado_0_1671433027.html
p12
aVhttps://www.clarin.com/politica/Acuerdan-minimo-trabajadores-sector-privado_0_1671433027.html
p13
aVhttps://www.clarin.com/sociedad/Marte-llego-mision-europea-misterio_0_1671433028.html
p14
aVhttps://www.clarin.com/sociedad/Marte-llego-mision-europea-misterio_0_1671433028.html
p15
aVhttps://www.clarin.com/politica/Lazaro-Baez-Jose-Lopez-fiscales_0_1671433026.html
p16
aVhttps://www.clarin.com/politica/Lazaro-Baez-Jose-Lopez-fiscales_0_1671433026.html
p17
aVhttps://www.clarin.com/sociedad/grito-subte-universidades_0_1671433024.html
p18
aVhttps://www.clarin.com/sociedad/grito-subte-universidades_0_1671433024.html
p19
aVhttps://www.clarin.com/politica/acuerdo-profundizo-division-gremios_0_1671433022.html
p20
aVhttps://www.clarin.com/politica/acuerdo-profundizo-division-gremios_0_1671433022.html
p21
a.