(lp0
S'https://www.clarin.com/ieco/economia/fideicomiso-ciego-firmara-Macri_0_1555044915.html'
p1
aS'https://www.clarin.com/ieco/YPF-tension-directores-politicos-corporativos_0_1555044929.html'
p2
aS'https://www.clarin.com/ieco/YPF-tension-directores-politicos-corporativos_0_1555044929.html'
p3
aS'https://www.clarin.com/politica/Farina-arrepentido-complico-Baez-Kirchner_0_1555045015.html'
p4
aS'https://www.clarin.com/ieco/Provincia-analiza-colocacion-extranjero_0_1555045010.html'
p5
aS'https://www.clarin.com/ieco/bonos-emision-calificacion-default_0_1555045008.html'
p6
aS'https://www.clarin.com/sociedad/demostrar-sangre-congela-peliculas-terror_0_1555044994.html'
p7
aS'https://www.clarin.com/sociedad/demostrar-sangre-congela-peliculas-terror_0_1555044994.html'
p8
a.