(lp0
Vhttps://www.clarin.com/ieco/Rosario-amenaza-prohibir-supermercados-domingos_0_1541246361.html
p1
aVhttps://www.clarin.com/politica/YPF-Justicia-difundir-contrato-Chevron_0_1541246354.html
p2
aVhttps://www.clarin.com/politica/gobernadores-exigen-avales-Gobierno_0_1541246351.html
p3
aVhttps://www.clarin.com/politica/Obama-ESMA-honrara-victimas-dictadura_0_1541246346.html
p4
aVhttps://www.clarin.com/politica/Casanello-llamo-indagatoria-Lazaro-Baez_0_1541246341.html
p5
aVhttps://www.clarin.com/politica/Casanello-llamo-indagatoria-Lazaro-Baez_0_1541246341.html
p6
a.