(lp0
S'https://www.clarin.com/politica/Senado-Frigerio-FpV-limitar-electronico_0_1679232253.html'
p1
aS'https://www.clarin.com/politica/dudas-expertos-uso-boletas-chip_0_1679232234.html'
p2
aS'https://www.clarin.com/politica/Vaca-Muerta-petroleras-beneficios-despedidos_0_1679232222.html'
p3
aS'https://www.clarin.com/sociedad/Tripulantes-Latam-amenazan-medidas-fuerza_0_1679232236.html'
p4
aS'https://www.clarin.com/sociedad/Tripulantes-Latam-amenazan-medidas-fuerza_0_1679232236.html'
p5
aS'https://www.clarin.com/sociedad/solo-feriado-puente_0_1679232239.html'
p6
aS'https://www.clarin.com/sociedad/usuarios-celulares-llamadas-traves-WhatsApp_0_1679232233.html'
p7
aS'https://www.clarin.com/sociedad/usuarios-celulares-llamadas-traves-WhatsApp_0_1679232233.html'
p8
a.