(lp0
Vhttps://www.clarin.com/sociedad/desaparecida-denuncio-mantuvo-secuestrada-Brasil_0_1629437111.html
p1
aVhttps://www.clarin.com/politica/ministro-apoyar-candidatos-Macri-Inteligencia_0_1629437109.html
p2
aVhttps://www.clarin.com/politica/ministro-apoyar-candidatos-Macri-Inteligencia_0_1629437109.html
p3
aVhttps://www.clarin.com/ieco/Costantini-aprovechar-blanqueo-lanzar-inmobiliario_0_1629437107.html
p4
aVhttps://www.clarin.com/ieco/Costantini-aprovechar-blanqueo-lanzar-inmobiliario_0_1629437107.html
p5
aVhttps://www.clarin.com/politica/Escandalo-Pampa-diputado-politico-machete_0_1629437106.html
p6
aVhttps://www.clarin.com/politica/Escandalo-Pampa-diputado-politico-machete_0_1629437106.html
p7
aVhttps://www.clarin.com/politica/Bonafini-miedo-ir-presa-carcel_0_1629437104.html
p8
aVhttps://www.clarin.com/politica/Bonafini-miedo-ir-presa-carcel_0_1629437104.html
p9
aVhttps://www.clarin.com/sociedad/docentes_bonaerenses_paro_0_1629437103.html
p10
aVhttps://www.clarin.com/sociedad/docentes_bonaerenses_paro_0_1629437103.html
p11
a.