(lp0
Vhttps://www.clarin.com/politica/Legisladores-Jueces-restricciones-acceder-blanqueo_0_1587441323.html
p1
aVhttps://www.clarin.com/politica/Legisladores-Jueces-restricciones-acceder-blanqueo_0_1587441323.html
p2
aVhttps://www.clarin.com/sociedad/Horror-Templo-Tigre-encuentran-congelados_0_1587441318.html
p3
aVhttps://www.clarin.com/sociedad/Horror-Templo-Tigre-encuentran-congelados_0_1587441318.html
p4
aVhttps://www.clarin.com/sociedad/castiga-sudoeste-provincia-Buenos-Aires_0_1587441321.html
p5
aVhttps://www.clarin.com/sociedad/castiga-sudoeste-provincia-Buenos-Aires_0_1587441321.html
p6
aVhttps://www.clarin.com/sociedad/mito-Marilyn-Monroe-cumple-anos_0_1587441317.html
p7
aVhttps://www.clarin.com/sociedad/mito-Marilyn-Monroe-cumple-anos_0_1587441317.html
p8
aVhttps://www.clarin.com/politica/gobernadores-respaldan-pago-jubilados_0_1587441320.html
p9
aVhttps://www.clarin.com/politica/gobernadores-respaldan-pago-jubilados_0_1587441320.html
p10
aVhttps://www.clarin.com/sociedad/Video-tunel-ferroviario-largo-mundo_0_1587441314.html
p11
aVhttps://www.clarin.com/sociedad/Video-tunel-ferroviario-largo-mundo_0_1587441314.html
p12
a.