(lp0
Vhttps://www.clarin.com/opinion/Mercosur-Jorge_Taiana-Consejo_del_Mercado_Comun_0_1504049613.html
p1
aVhttps://www.clarin.com/politica/Lifschitz-complicidades-niveles-politica-permitieron_0_1504049597.html
p2
aVhttps://www.clarin.com/politica/Lifschitz-complicidades-niveles-politica-permitieron_0_1504049597.html
p3
aVhttps://www.clarin.com/politica/Presupuesto_2016-Provincia-Vidal-FPV-Intendentes_0_1504049607.html
p4
aVhttps://www.clarin.com/ieco/INDEC-Jorge_Todesca-IPC_0_1504049606.html
p5
aVhttps://www.clarin.com/politica/Coparticipacion-Decreto_15-Rogelio_Frigerio_0_1504049605.html
p6
aVhttps://www.clarin.com/sociedad/decada-embarazo-menores-anos-crecio_0_1503450059.html
p7
aVhttps://www.clarin.com/sociedad/LOCOS-LUJO-Punta-argentinos-sentirse_0_1503450041.html
p8
aVhttps://www.clarin.com/sociedad/LOCOS-LUJO-Punta-argentinos-sentirse_0_1503450041.html
p9
aVhttps://www.clarin.com/sociedad/separaron-abrio-Facebook-perfil-prostituta_0_1503450065.html
p10
aVhttps://www.clarin.com/sociedad/Jubilan-Explorer-navegador-ventana-virtual_0_1503449971.html
p11
aVhttps://www.clarin.com/sociedad/Jubilan-Explorer-navegador-ventana-virtual_0_1503449971.html
p12
aVhttps://www.clarin.com/sociedad/Post-adultos-setenta_y_pico-envejecimiento_exitoso_0_1504049600.html
p13
aVhttps://www.clarin.com/sociedad/Post-adultos-setenta_y_pico-envejecimiento_exitoso_0_1504049600.html
p14
aVhttps://www.clarin.com/opinion/INDEC-Derecho_a_la_informacion-Politicas_publicas_0_1504049590.html
p15
aVhttps://www.clarin.com/opinion/INDEC-Derecho_a_la_informacion-Politicas_publicas_0_1504049590.html
p16
a.