(lp0
Vhttps://www.clarin.com/sociedad/Hot-Sale-ofertas-siguen-viernes_0_1579042178.html
p1
aVhttps://www.clarin.com/sociedad/Hot-Sale-ofertas-siguen-viernes_0_1579042178.html
p2
aVhttps://www.clarin.com/sociedad/Llega-meeting-evolucion-citas-online_0_1579042171.html
p3
aVhttps://www.clarin.com/sociedad/Llega-meeting-evolucion-citas-online_0_1579042171.html
p4
aVhttps://www.clarin.com/sociedad/pelea-Kung-Fu-termino-batalla-campal_0_1579042174.html
p5
aVhttps://www.clarin.com/sociedad/pelea-Kung-Fu-termino-batalla-campal_0_1579042174.html
p6
aVhttps://www.clarin.com/politica/Arranco-maratonica-Diputados-antidespidos-atencion_0_1579042167.html
p7
aVhttps://www.clarin.com/politica/Arranco-maratonica-Diputados-antidespidos-atencion_0_1579042167.html
p8
aVhttps://www.clarin.com/sociedad/Mira-museo-termino-panico-detenidos_0_1579042156.html
p9
aVhttps://www.clarin.com/sociedad/Mira-museo-termino-panico-detenidos_0_1579042156.html
p10
aVhttps://www.clarin.com/politica/intendente-rebelo-llamo-vecinos-pagar_0_1579042163.html
p11
aVhttps://www.clarin.com/politica/intendente-rebelo-llamo-vecinos-pagar_0_1579042163.html
p12
aVhttps://www.clarin.com/sociedad/consiguieron-jirafas-cuello-largo_0_1579042162.html
p13
aVhttps://www.clarin.com/sociedad/consiguieron-jirafas-cuello-largo_0_1579042162.html
p14
a.