(lp0
Vhttps://www.clarin.com/sociedad/Mundos-intimos-Volver-Argentina-Espana_0_1562843844.html
p1
aVhttps://www.clarin.com/sociedad/Mundos-intimos-Volver-Argentina-Espana_0_1562843844.html
p2
aVhttps://www.clarin.com/politica/Parrilli-jovenes-Frente-Ciudadano-Cristina_0_1565243554.html
p3
aVhttps://www.clarin.com/politica/Parrilli-jovenes-Frente-Ciudadano-Cristina_0_1565243554.html
p4
aVhttps://www.clarin.com/politica/Carrio-Martin-Baez-detienen-hablar_0_1565243552.html
p5
aVhttps://www.clarin.com/politica/Carrio-Martin-Baez-detienen-hablar_0_1565243552.html
p6
aVhttps://www.clarin.com/sociedad/lluvia-rompio-records-pais_0_1565243550.html
p7
aVhttps://www.clarin.com/sociedad/lluvia-rompio-records-pais_0_1565243550.html
p8
aVhttps://www.clarin.com/ieco/Polemicas-Paul-Singer-Street-Journal_0_1565243548.html
p9
aVhttps://www.clarin.com/ieco/Polemicas-Paul-Singer-Street-Journal_0_1565243548.html
p10
aVhttps://www.clarin.com/sociedad/Fallo-inedito-perro-condenaron-homicidio_0_1565243547.html
p11
aVhttps://www.clarin.com/sociedad/Fallo-inedito-perro-condenaron-homicidio_0_1565243547.html
p12
a.