(lp0
Vhttps://www.clarin.com/ieco/economia/Provincias-posibles-cambios-mercado-petroleo_0_1630037131.html
p1
aVhttps://www.clarin.com/ieco/economia/Provincias-posibles-cambios-mercado-petroleo_0_1630037131.html
p2
aVhttps://www.clarin.com/sociedad/Pusieron-Capitan-America-vecinos-quieren_0_1630037109.html
p3
aVhttps://www.clarin.com/sociedad/Pusieron-Capitan-America-vecinos-quieren_0_1630037109.html
p4
aVhttps://www.clarin.com/sociedad/vertebrado-longevo-tiburon-puede-vivir_0_1630037097.html
p5
aVhttps://www.clarin.com/sociedad/vertebrado-longevo-tiburon-puede-vivir_0_1630037097.html
p6
aVhttps://www.clarin.com/sociedad/DEA-mantiene-marihuana-drogas-peligrosas_0_1630037089.html
p7
aVhttps://www.clarin.com/sociedad/DEA-mantiene-marihuana-drogas-peligrosas_0_1630037089.html
p8
aVhttps://www.clarin.com/sociedad/Conmocion-Mendoza-muerte-abanderada-colegio_0_1630037124.html
p9
aVhttps://www.clarin.com/sociedad/Conmocion-Mendoza-muerte-abanderada-colegio_0_1630037124.html
p10
a.