(lp0
S'https://www.clarin.com/politica/Maria-Julia-corrupcion-menemista-condicional_0_1667233405.html'
p1
aS'https://www.clarin.com/politica/Maria-Julia-corrupcion-menemista-condicional_0_1667233405.html'
p2
aS'https://www.clarin.com/politica/Casanello-denuncio-testigo-haberlo-Olivos_0_1667233391.html'
p3
aS'https://www.clarin.com/politica/Casanello-denuncio-testigo-haberlo-Olivos_0_1667233391.html'
p4
aS'https://www.clarin.com/politica/Impuesto-Ganancias-parcial-aguinaldo-diciembre_0_1667233393.html'
p5
aS'https://www.clarin.com/politica/Impuesto-Ganancias-parcial-aguinaldo-diciembre_0_1667233393.html'
p6
aS'https://www.clarin.com/politica/Gobierno-admite-puede-reapertura-paritarias_0_1667233390.html'
p7
aS'https://www.clarin.com/politica/Gobierno-admite-puede-reapertura-paritarias_0_1667233390.html'
p8
aS'https://www.clarin.com/politica/Gomez-Centurion-vuelve-manana-Aduana_0_1667233387.html'
p9
aS'https://www.clarin.com/politica/Gomez-Centurion-vuelve-manana-Aduana_0_1667233387.html'
p10
aS'https://www.clarin.com/ieco/economia/inflacion-portena-septiembre_0_1667233388.html'
p11
aS'https://www.clarin.com/ieco/economia/inflacion-portena-septiembre_0_1667233388.html'
p12
a.