(lp0
Vhttps://www.clarin.com/politica/Intiman-Cristobal-Lopez-deudas-Ciudad_0_1544245604.html
p1
aVhttps://www.clarin.com/politica/Intiman-Cristobal-Lopez-deudas-Ciudad_0_1544245604.html
p2
aVhttps://www.clarin.com/politica/Echegaray-beneficio-empresarios-medios_0_1544245591.html
p3
aVhttps://www.clarin.com/politica/Echegaray-beneficio-empresarios-medios_0_1544245591.html
p4
aVhttps://www.clarin.com/politica/EEUU-reanuda-cooperacion-Argentina-dinero_0_1544245590.html
p5
aVhttps://www.clarin.com/politica/EEUU-reanuda-cooperacion-Argentina-dinero_0_1544245590.html
p6
aVhttps://www.clarin.com/politica/final-frenan-traslado-Puente-Noria_0_1543645973.html
p7
aVhttps://www.clarin.com/politica/dias-caida-temores_0_1544245585.html
p8
aVhttps://www.clarin.com/opinion/recordada-Cristina_0_1544245583.html
p9
aVhttps://www.clarin.com/opinion/Semana-Santa-alla-religioso_0_1543645927.html
p10
aVhttps://www.clarin.com/opinion/mujeres-incubadoras_0_1543645932.html
p11
aVhttps://www.clarin.com/opinion/mujeres-incubadoras_0_1543645932.html
p12
aVhttps://www.clarin.com/opinion/traspaso-Federal-recuperar-seguridad_0_1543645929.html
p13
aVhttps://www.clarin.com/sociedad/especialistas-piden-regule-alquiler-vientres_0_1543645988.html
p14
aVhttps://www.clarin.com/politica/Casanello-videos-Rosadita-verdadera-sorpresa_0_1544245576.html
p15
aVhttps://www.clarin.com/politica/Casanello-videos-Rosadita-verdadera-sorpresa_0_1544245576.html
p16
a.