(lp0
S'https://www.clarin.com/ieco/consumo-inversion-exportaciones-economia-repunta_0_1621038078.html'
p1
aS'https://www.clarin.com/ieco/economia/Multas-LATAM-sospechan-coimas-sindicalistas_0_1621037948.html'
p2
aS'https://www.clarin.com/politica/provincias-reclaman-regalias-petroleras-tarifazo_0_1621038090.html'
p3
aS'https://www.clarin.com/opinion/larga-noche-Universidad_0_1621637823.html'
p4
aS'https://www.clarin.com/opinion/mejor-institucionalidad-democratica_0_1621038000.html'
p5
aS'https://www.clarin.com/ieco/economia/Inflacion-dolar-banco-pruebas_0_1621637824.html'
p6
aS'https://www.clarin.com/opinion/llegar-dialogo-social-miedos_0_1621038003.html'
p7
aS'https://www.clarin.com/sociedad/UBA-conmemora-Noche-Bastones-Largos_0_1621038086.html'
p8
aS'https://www.clarin.com/opinion/hito-proyeccion-maritima-pais_0_1621038021.html'
p9
aS'https://www.clarin.com/sociedad/Puerta-puerta-ventajas-correo-compra_0_1621038081.html'
p10
a.