(lp0
S'https://www.clarin.com/politica/sombra-Cristina_0_1546645654.html'
p1
aS'https://www.clarin.com/politica/Carlos-Liuzzi-viajes-apuntan-beneficio_0_1546645643.html'
p2
aS'https://www.clarin.com/sociedad/Rolling-Stones-tocaron-Cuba-historico_0_1546645745.html'
p3
aS'https://www.clarin.com/sociedad/Jairo-Misa-Criolla-Espacio-Clarin_0_1546645727.html'
p4
aS'https://www.clarin.com/politica/Macri-alojo-Sur-millonario-polemico_0_1546645658.html'
p5
aS'https://www.clarin.com/opinion/mania-impuntuales_0_1546645591.html'
p6
aS'https://www.clarin.com/politica/Gobierno-pide-anulen-sobreseimiento_0_1546645660.html'
p7
a.