(lp0
S'https://www.clarin.com/sociedad/UBA-entro-selecto-mejores-universidades_0_1645035644.html'
p1
aS'https://www.clarin.com/sociedad/UBA-entro-selecto-mejores-universidades_0_1645035644.html'
p2
aS'https://www.clarin.com/sociedad/Deuda-chicos-apenas-horas-colegio_0_1645035634.html'
p3
aS'https://www.clarin.com/sociedad/Deuda-chicos-apenas-horas-colegio_0_1645035634.html'
p4
a.