(lp0
S'https://www.clarin.com/sociedad/Suspenden-clases-escuelas-Chubut-contaminada_0_1566443496.html'
p1
aS'https://www.clarin.com/sociedad/Suspenden-clases-escuelas-Chubut-contaminada_0_1566443496.html'
p2
aS'https://www.clarin.com/politica/Cruces-Senado-antidespidos-media-sancion_0_1566443497.html'
p3
aS'https://www.clarin.com/politica/Cruces-Senado-antidespidos-media-sancion_0_1566443497.html'
p4
a.