(lp0
S'https://www.clarin.com/politica/Kicillof-costumbre-echar-culpa-errores_0_1557444719.html'
p1
aS'https://www.clarin.com/ieco/economia/INDEC-reanuda-difusion-Indice-Precios_0_1557444653.html'
p2
aS'https://www.clarin.com/ieco/economia/Argentina-nota-ranking-competitividad-costos_0_1557444512.html'
p3
aS'https://www.clarin.com/ieco/economia/Inversiones-regresan-empresarios-chilenos_0_1558044314.html'
p4
aS'https://www.clarin.com/ieco/economia/precios-inmuebles-paran-subir-ano_0_1557444578.html'
p5
aS'https://www.clarin.com/opinion/papel-municipios-salud-barrial_0_1557444642.html'
p6
aS'https://www.clarin.com/politica/Audiencia-Nueva-York-destrabar-buitres_0_1558044235.html'
p7
aS'https://www.clarin.com/politica/Dolar-Kicillof-Macri-respondio-preguntas_0_1557444693.html'
p8
aS'https://www.clarin.com/opinion/Partidos-politicos-salir-irrelevancia_0_1557444639.html'
p9
aS'https://www.clarin.com/opinion/delito-atractivo-trabajo_0_1558044201.html'
p10
aS'https://www.clarin.com/ieco/economia/lluvias-frenaron-recoleccion-soja_0_1558044308.html'
p11
aS'https://www.clarin.com/opinion/Kirchnerismo-Utopia-Tribunales_0_1557444644.html'
p12
aS'https://www.clarin.com/politica/argentinos-cree-Cristina-terminara-presa_0_1557444714.html'
p13
a.