(lp0
Vhttps://www.clarin.com/sociedad/empresario-Martin-Blaquier-Macri-Pilar_0_1525647692.html
p1
aVhttps://www.clarin.com/sociedad/empresario-Martin-Blaquier-Macri-Pilar_0_1525647692.html
p2
aVhttps://www.clarin.com/ieco/economia/Google-comienza-delivery-productos-California_0_1525647736.html
p3
a.