(lp0
Vhttps://www.clarin.com/ieco/economia/guino-Macri-complica-negocios-Monsanto_0_1562843797.html
p1
aVhttps://www.clarin.com/ieco/economia/guino-Macri-complica-negocios-Monsanto_0_1562843797.html
p2
aVhttps://www.clarin.com/politica/Fondos-buitre-Argentina-US-millones_0_1563443660.html
p3
aVhttps://www.clarin.com/politica/Fondos-buitre-Argentina-US-millones_0_1563443660.html
p4
aVhttps://www.clarin.com/politica/Peronismo-rebeldia-desorientada_0_1563443659.html
p5
a.