(lp0
S'https://www.clarin.com/politica/Pena-Congreso-modificar-Impuesto-Ganancias_0_1622237791.html'
p1
aS'https://www.clarin.com/sociedad/Museo-Helado-abrio-Nueva-York_0_1622237799.html'
p2
aS'https://www.clarin.com/sociedad/Condenaron-prision-celador-abusar-alumno_0_1622237805.html'
p3
aS'https://www.clarin.com/sociedad/Mama-Antula-nueva-beata-argentina_0_1622237798.html'
p4
aS'https://www.clarin.com/sociedad/Reimprimen-Nueva-York-National-Geographic_0_1622237804.html'
p5
aS'https://www.clarin.com/ieco/AFIP-reglamento-requisitos-entrar-blanqueo_0_1622237806.html'
p6
aS'https://www.clarin.com/sociedad/Cerro-restaurante-chef-Macri_0_1622237797.html'
p7
aS'https://www.clarin.com/sociedad/bomberos-intentaban-controlar-incendio-Chilecito_0_1622237794.html'
p8
aS'https://www.clarin.com/politica/sospechosos-numeros-administra-familia-Kirchner_0_1621637972.html'
p9
aS'https://www.clarin.com/ieco/Basavilbaso-Vamos-pagar-juicios-mes_0_1622237792.html'
p10
a.