(lp0
Vhttps://www.clarin.com/sociedad/fiestas-electronicas-experiencia-religiosa_0_1559844411.html
p1
aVhttps://www.clarin.com/sociedad/consumidores-drogas-debaten-Web_0_1559844406.html
p2
aVhttps://www.clarin.com/opinion/cambio-climatico-economia-carbono_0_1559844368.html
p3
a.