(lp0
S'https://www.clarin.com/ieco/Mendoza-coloca-Letras-Tesoro-millones_0_1675032543.html'
p1
aS'https://www.clarin.com/ieco/Mendoza-coloca-Letras-Tesoro-millones_0_1675032543.html'
p2
aS'https://www.clarin.com/politica/Pinas-Tomada-Macri-organizacion-Papa_0_1675032536.html'
p3
aS'https://www.clarin.com/politica/Pinas-Tomada-Macri-organizacion-Papa_0_1675032536.html'
p4
aS'https://www.clarin.com/sociedad/Hablo-Claudia-Arias-Zalazar-premeditado_0_1675032533.html'
p5
aS'https://www.clarin.com/sociedad/Hablo-Claudia-Arias-Zalazar-premeditado_0_1675032533.html'
p6
aS'https://www.clarin.com/sociedad/Decima-Jornada-Anual-Encontrarse-Diversidad_0_1675032528.html'
p7
aS'https://www.clarin.com/sociedad/Decima-Jornada-Anual-Encontrarse-Diversidad_0_1675032528.html'
p8
aS'https://www.clarin.com/sociedad/muertos-accidente-parque-diversiones-Australia_0_1675032527.html'
p9
aS'https://www.clarin.com/sociedad/muertos-accidente-parque-diversiones-Australia_0_1675032527.html'
p10
a.