(lp0
S'https://www.clarin.com/politica/Respaldo-oficial-Aranguren-acciones-Shell_0_1591640994.html'
p1
aS'https://www.clarin.com/politica/Respaldo-oficial-Aranguren-acciones-Shell_0_1591640994.html'
p2
aS'https://www.clarin.com/politica/Gobernadora-admitio-decreto-limita-DDJJ_0_1591640989.html'
p3
a.