(lp0
S'https://www.clarin.com/politica/diputado-reconocio-amenazas-discusion-Ottavis_0_1537646394.html'
p1
aS'https://www.clarin.com/politica/diputado-reconocio-amenazas-discusion-Ottavis_0_1537646394.html'
p2
aS'https://www.clarin.com/ieco/Gobierno-lento-amarrete-Ganancias_0_1537646364.html'
p3
aS'https://www.clarin.com/ieco/Gobierno-lento-amarrete-Ganancias_0_1537646364.html'
p4
aS'https://www.clarin.com/ieco/economia/Bulgheroni-inaugura-Uruguay-bodegas-grandes_0_1537646382.html'
p5
aS'https://www.clarin.com/politica/discusion-holdouts-Frigerio-gobernadores-Rosada_0_1537646378.html'
p6
aS'https://www.clarin.com/politica/discusion-holdouts-Frigerio-gobernadores-Rosada_0_1537646378.html'
p7
aS'https://www.clarin.com/politica/Pena-escalas-Ganancias-votarlo-implementarlo_0_1537646368.html'
p8
aS'https://www.clarin.com/politica/Pena-escalas-Ganancias-votarlo-implementarlo_0_1537646368.html'
p9
aS'https://www.clarin.com/sociedad/ejecutivos-Barrick-procesados-derrame-Veladero_0_1537646355.html'
p10
aS'https://www.clarin.com/sociedad/ejecutivos-Barrick-procesados-derrame-Veladero_0_1537646355.html'
p11
a.