(lp0
S'https://www.clarin.com/sociedad/Feriados-calendario-planificar-tiempo-libre_0_1687031373.html'
p1
aS'https://www.clarin.com/sociedad/Feriados-calendario-planificar-tiempo-libre_0_1687031373.html'
p2
aS'https://www.clarin.com/sociedad/Macri-favor-eliminar-carreras-galgos_0_1687031369.html'
p3
aS'https://www.clarin.com/sociedad/Macri-favor-eliminar-carreras-galgos_0_1687031369.html'
p4
aS'https://www.clarin.com/sociedad/Fines-Semana-Largos-calendario-feriados_0_1687031370.html'
p5
aS'https://www.clarin.com/sociedad/Fines-Semana-Largos-calendario-feriados_0_1687031370.html'
p6
aS'https://www.clarin.com/sociedad/climatico-Patagonia-chilena-produce-primeros_0_1687031365.html'
p7
aS'https://www.clarin.com/sociedad/climatico-Patagonia-chilena-produce-primeros_0_1687031365.html'
p8
a.