(lp0
S'https://www.clarin.com/ieco/inflacion-agosto-apenas-Cordoba_0_1647435290.html'
p1
aS'https://www.clarin.com/sociedad/mujer-metio-contramano-avenida-choco_0_1647435295.html'
p2
aS'https://www.clarin.com/ieco/exportaciones-autopartes-cayeron-primer-semestre_0_1647435300.html'
p3
aS'https://www.clarin.com/ieco/Marcos-Pena-transicion-dolorosa-cambiado_0_1647435286.html'
p4
a.