(lp0
Vhttps://www.clarin.com/sociedad/Dijeron-hecho-cumbre-Everest-mentira_0_1641435874.html
p1
aVhttps://www.clarin.com/sociedad/Dijeron-hecho-cumbre-Everest-mentira_0_1641435874.html
p2
aVhttps://www.clarin.com/politica/Macri-presento-narcotrafico-ganar-guerra_0_1641435878.html
p3
aVhttps://www.clarin.com/politica/Macri-presento-narcotrafico-ganar-guerra_0_1641435878.html
p4
aVhttps://www.clarin.com/sociedad/infiltraron-picada-detuvieron-personas_0_1641435867.html
p5
aVhttps://www.clarin.com/sociedad/infiltraron-picada-detuvieron-personas_0_1641435867.html
p6
aVhttps://www.clarin.com/sociedad/Cambio-genero-denuncia-permite-femenino_0_1641435868.html
p7
aVhttps://www.clarin.com/sociedad/Cambio-genero-denuncia-permite-femenino_0_1641435868.html
p8
aVhttps://www.clarin.com/politica/declaracion-confidencialidad-deberan-custodios-Macri_0_1641435865.html
p9
aVhttps://www.clarin.com/politica/declaracion-confidencialidad-deberan-custodios-Macri_0_1641435865.html
p10
a.