(lp0
S'https://www.clarin.com/sociedad/Nemo-recorrio-kilometros-extirparan-gigante_0_1586841426.html'
p1
aS'https://www.clarin.com/politica/Casanello-nego-particiado-reuniones-Cristina_0_1586841437.html'
p2
aS'https://www.clarin.com/ieco/INDEC-industria-cayo-construccion_0_1586841443.html'
p3
aS'https://www.clarin.com/politica/Apuran-reintegro-IVA-Senado-dictamen_0_1586841445.html'
p4
a.