(lp0
Vhttps://www.clarin.com/sociedad/disenadora-sindrome-Down-revoluciona-moda_0_1652834774.html
p1
aVhttps://www.clarin.com/sociedad/disenadora-sindrome-Down-revoluciona-moda_0_1652834774.html
p2
aVhttps://www.clarin.com/politica/Foro-Economico-repuntar-indice-optimismo_0_1652834784.html
p3
aVhttps://www.clarin.com/politica/Foro-Economico-repuntar-indice-optimismo_0_1652834784.html
p4
aVhttps://www.clarin.com/politica/Juliana-Awada-volvera-Michelle-Obama_0_1652234921.html
p5
aVhttps://www.clarin.com/politica/Juliana-Awada-volvera-Michelle-Obama_0_1652234921.html
p6
a.