(lp0
S'https://www.clarin.com/sociedad/dormida-provoca-tragedia-Callao-Corrientes_0_1690031041.html'
p1
aS'https://www.clarin.com/sociedad/dormida-provoca-tragedia-Callao-Corrientes_0_1690031041.html'
p2
aS'https://www.clarin.com/sociedad/Lograron-condena-escuela-negado-matricula_0_1690031034.html'
p3
aS'https://www.clarin.com/sociedad/Lograron-condena-escuela-negado-matricula_0_1690031034.html'
p4
aS'https://www.clarin.com/sociedad/Furor-EEUU-Argentina-tramitan-visas_0_1689431245.html'
p5
aS'https://www.clarin.com/sociedad/Furor-EEUU-Argentina-tramitan-visas_0_1689431245.html'
p6
aS'https://www.clarin.com/opinion/final-negrear-fugar_0_1690031030.html'
p7
a.