(lp0
Vhttps://www.clarin.com/sociedad/Polemico-parcial-profesor-antimacrista-UBA_0_1605439556.html
p1
aVhttps://www.clarin.com/sociedad/Polemico-parcial-profesor-antimacrista-UBA_0_1605439556.html
p2
aVhttps://www.clarin.com/ieco/economia/Saint-Gobain-peor-momento_0_1605439555.html
p3
aVhttps://www.clarin.com/ieco/economia/Saint-Gobain-peor-momento_0_1605439555.html
p4
aVhttps://www.clarin.com/sociedad/Avance-cientificos-argentinos-lucha-tuberculosis_0_1605439549.html
p5
aVhttps://www.clarin.com/sociedad/Avance-cientificos-argentinos-lucha-tuberculosis_0_1605439549.html
p6
aVhttps://www.clarin.com/politica/sindicalista-estallo-tarifas-Anda-Aranguren_0_1605439551.html
p7
aVhttps://www.clarin.com/politica/sindicalista-estallo-tarifas-Anda-Aranguren_0_1605439551.html
p8
a.