(lp0
Vhttps://www.clarin.com/politica/Allanaron-funcionario-Scioli-encontraron-escondida_0_1650435043.html
p1
aVhttps://www.clarin.com/politica/Allanaron-funcionario-Scioli-encontraron-escondida_0_1650435043.html
p2
aVhttps://www.clarin.com/sociedad/Quilmes-echaron-funcionarios-fumar-marihuana_0_1650435042.html
p3
aVhttps://www.clarin.com/sociedad/Quilmes-echaron-funcionarios-fumar-marihuana_0_1650435042.html
p4
aVhttps://www.clarin.com/politica/fiscal-Pollicita-Caballo-Suarez-excarcelado_0_1650435039.html
p5
aVhttps://www.clarin.com/politica/fiscal-Pollicita-Caballo-Suarez-excarcelado_0_1650435039.html
p6
aVhttps://www.clarin.com/sociedad/rugbier-San-Cirano-defiende-WhatsApp_0_1650435027.html
p7
aVhttps://www.clarin.com/sociedad/rugbier-San-Cirano-defiende-WhatsApp_0_1650435027.html
p8
aVhttps://www.clarin.com/ieco/economia/Dante-Sica-economia-mejora-finales_0_1650435038.html
p9
aVhttps://www.clarin.com/ieco/economia/Dante-Sica-economia-mejora-finales_0_1650435038.html
p10
aVhttps://www.clarin.com/politica/Rafecas-actuacion-denuncia-Nisman-irreprochable_0_1650435037.html
p11
aVhttps://www.clarin.com/politica/Rafecas-actuacion-denuncia-Nisman-irreprochable_0_1650435037.html
p12
aVhttps://www.clarin.com/sociedad/Insolito-aseguradora-incendiado-mansion-distancia_0_1650435034.html
p13
aVhttps://www.clarin.com/sociedad/Insolito-aseguradora-incendiado-mansion-distancia_0_1650435034.html
p14
aVhttps://www.clarin.com/politica/Ahora-verdura-Plaza-Mayo-larguisimas_0_1650435033.html
p15
aVhttps://www.clarin.com/politica/Ahora-verdura-Plaza-Mayo-larguisimas_0_1650435033.html
p16
aVhttps://www.clarin.com/politica/Bullrich-documentos-oficiales-Justicia-efedrina_0_1650435031.html
p17
aVhttps://www.clarin.com/politica/Bullrich-documentos-oficiales-Justicia-efedrina_0_1650435031.html
p18
a.