(lp0
S'https://www.clarin.com/ieco/cervecera-CCU-invertira-millones-ahorrar_0_1636636370.html'
p1
aS'https://www.clarin.com/ieco/cervecera-CCU-invertira-millones-ahorrar_0_1636636370.html'
p2
aS'https://www.clarin.com/politica/amenaza-refuerzan-seguridad-gobernacion-Vidal_0_1636636369.html'
p3
aS'https://www.clarin.com/politica/amenaza-refuerzan-seguridad-gobernacion-Vidal_0_1636636369.html'
p4
aS'https://www.clarin.com/sociedad/Asesino-balazos-mujer-aparecio-muerto_0_1636636366.html'
p5
aS'https://www.clarin.com/politica/van-ahora-caciques-CGT_0_1636636362.html'
p6
aS'https://www.clarin.com/politica/van-ahora-caciques-CGT_0_1636636362.html'
p7
aS'https://www.clarin.com/sociedad/Recibio-Mini-Cooper-regalo-motociclista_0_1636636361.html'
p8
aS'https://www.clarin.com/sociedad/Recibio-Mini-Cooper-regalo-motociclista_0_1636636361.html'
p9
aS'https://www.clarin.com/ieco/Nuevos-adelantos-financieros-Jujuy-Chaco_0_1636636360.html'
p10
aS'https://www.clarin.com/ieco/Nuevos-adelantos-financieros-Jujuy-Chaco_0_1636636360.html'
p11
aS'https://www.clarin.com/politica/Vidal-Scioli-peor-gobernador-provincia_0_1636636359.html'
p12
aS'https://www.clarin.com/politica/Vidal-Scioli-peor-gobernador-provincia_0_1636636359.html'
p13
aS'https://www.clarin.com/ieco/Moodys-Argentina-opcion-atractiva-Latinoamerica_0_1636636355.html'
p14
aS'https://www.clarin.com/ieco/Moodys-Argentina-opcion-atractiva-Latinoamerica_0_1636636355.html'
p15
aS'https://www.clarin.com/sociedad/Balean-mujer-hijo-dirigian-colegio_0_1636636354.html'
p16
a.