(lp0
S'https://www.clarin.com/politica/helicoptero-viajaba-Macri-cerca-incidente_0_1538246597.html'
p1
aS'https://www.clarin.com/politica/Escandalo-Auditoria-Echegaray-investigar-gestion_0_1538246596.html'
p2
aS'https://www.clarin.com/sociedad/Luis-Perez-Companc-toxicologica-Pablo_0_1538246556.html'
p3
a.