(lp0
Vhttps://www.clarin.com/sociedad/Empezo-juicio-profesor-gimnasia-acusado_0_1682831791.html
p1
aVhttps://www.clarin.com/politica/Patria-Muerte-afiche-politico-marketing_0_1682231851.html
p2
aVhttps://www.clarin.com/politica/Patria-Muerte-afiche-politico-marketing_0_1682231851.html
p3
aVhttps://www.clarin.com/politica/denuncio-Esteche-intimidacion-pericias-psiquiatricas_0_1682831787.html
p4
aVhttps://www.clarin.com/politica/denuncio-Esteche-intimidacion-pericias-psiquiatricas_0_1682831787.html
p5
aVhttps://www.clarin.com/politica/romance-Facundo-Susana-Moyano-colegas_0_1682831783.html
p6
aVhttps://www.clarin.com/politica/romance-Facundo-Susana-Moyano-colegas_0_1682831783.html
p7
a.