(lp0
Vhttps://www.clarin.com/ieco/economia/Provincia-sistema-Arbanet-Ingresos-Brutos_0_1508249357.html
p1
aVhttps://www.clarin.com/ieco/economia/Provincia-sistema-Arbanet-Ingresos-Brutos_0_1508249357.html
p2
aVhttps://www.clarin.com/sociedad/Acusan-policias-dejar-perro-antidrogas_0_1508249348.html
p3
aVhttps://www.clarin.com/sociedad/Acusan-policias-dejar-perro-antidrogas_0_1508249348.html
p4
aVhttps://www.clarin.com/sociedad/Arranca-paritaria-Provincia-maestros-salarios_0_1508249340.html
p5
aVhttps://www.clarin.com/sociedad/Arranca-paritaria-Provincia-maestros-salarios_0_1508249340.html
p6
aVhttps://www.clarin.com/politica/Mauricio_Macri-Davos-fondos_buitre_0_1508249342.html
p7
aVhttps://www.clarin.com/politica/Mauricio_Macri-Davos-fondos_buitre_0_1508249342.html
p8
aVhttps://www.clarin.com/sociedad/neuquen-La_Matanza-ahogado-joven-murio-rio-alto_valle_0_1508249324.html
p9
aVhttps://www.clarin.com/sociedad/comienza-brote-dengue-bola-nieve_0_1508249329.html
p10
aVhttps://www.clarin.com/sociedad/comienza-brote-dengue-bola-nieve_0_1508249329.html
p11
a.