(lp0
Vhttps://www.clarin.com/politica/Bonadio-desestiman-pedido-politico-CFK_0_1586841435.html
p1
aVhttps://www.clarin.com/politica/Bonadio-desestiman-pedido-politico-CFK_0_1586841435.html
p2
aVhttps://www.clarin.com/sociedad/Procesaron-gendarme-atropellado-Panamericana-protestaban_0_1586841434.html
p3
aVhttps://www.clarin.com/sociedad/Procesaron-gendarme-atropellado-Panamericana-protestaban_0_1586841434.html
p4
aVhttps://www.clarin.com/politica/Casanello-reuni-Cristina-Quinta-Olivos_0_1586841433.html
p5
aVhttps://www.clarin.com/politica/Casanello-reuni-Cristina-Quinta-Olivos_0_1586841433.html
p6
aVhttps://www.clarin.com/ieco/economia/Extienden-suspension-textil-TN-Platex_0_1586841427.html
p7
aVhttps://www.clarin.com/sociedad/Reinas-belleza-Cordoba-aceptan-casadas_0_1586841425.html
p8
aVhttps://www.clarin.com/sociedad/Reinas-belleza-Cordoba-aceptan-casadas_0_1586841425.html
p9
a.