(lp0
Vhttps://www.clarin.com/sociedad/nuevos_elementos_quimicos-tabla_periodica-quimica-Lemmy_Kilmister_0_1502250086.html
p1
aVhttps://www.clarin.com/sociedad/nuevos_elementos_quimicos-tabla_periodica-quimica-Lemmy_Kilmister_0_1502250086.html
p2
aVhttps://www.clarin.com/sociedad/instructor-parapente-murieron-San-Luis_0_1502849905.html
p3
aVhttps://www.clarin.com/politica/macri-nego-impulsado-despido-victor-hugo_0_1502849909.html
p4
aVhttps://www.clarin.com/politica/macri-nego-impulsado-despido-victor-hugo_0_1502849909.html
p5
aVhttps://www.clarin.com/sociedad/original-promocion-turistica-Cayasta-atrapa_0_1502849866.html
p6
aVhttps://www.clarin.com/sociedad/original-promocion-turistica-Cayasta-atrapa_0_1502849866.html
p7
aVhttps://www.clarin.com/ieco/economia/Empiezan-vencimientos-tributarios-zonas-inundadas_0_1502849902.html
p8
aVhttps://www.clarin.com/ieco/economia/Chubut-reclama-ayuda-sector-petrolero_0_1502849900.html
p9
aVhttps://www.clarin.com/ieco/economia/Chubut-reclama-ayuda-sector-petrolero_0_1502849900.html
p10
a.