(lp0
S'https://www.clarin.com/politica/Macri-reclamo-proteger-material-terroristas_0_1550845197.html'
p1
aS'https://www.clarin.com/politica/Macri-reclamo-proteger-material-terroristas_0_1550845197.html'
p2
aS'https://www.clarin.com/politica/Citan-Baez-investigan-patrimonio-Echegaray_0_1550845191.html'
p3
aS'https://www.clarin.com/politica/Citan-Baez-investigan-patrimonio-Echegaray_0_1550845191.html'
p4
aS'https://www.clarin.com/politica/Maximo-Kirchner-recrimino-Pichetto-Cristina_0_1550845168.html'
p5
aS'https://www.clarin.com/politica/Maximo-Kirchner-recrimino-Pichetto-Cristina_0_1550845168.html'
p6
aS'https://www.clarin.com/sociedad/joven-asesino-pareja-intento-suicidarse_0_1550845169.html'
p7
aS'https://www.clarin.com/sociedad/joven-asesino-pareja-intento-suicidarse_0_1550845169.html'
p8
a.