(lp0
S'https://www.clarin.com/sociedad/Buscan-actual-pareja-acusado-menores_0_1624037710.html'
p1
aS'https://www.clarin.com/politica/Amenazas-Macri-Twitter-allanaron-encontraron_0_1624037722.html'
p2
aS'https://www.clarin.com/ieco/economia/recaudacion-julio-record-debajo-inflacion_0_1624037711.html'
p3
aS'https://www.clarin.com/politica/Lifschitz-faltara-reunion-gobernadores-manana_0_1624037715.html'
p4
aS'https://www.clarin.com/politica/costumbres-Qatar-esposas-habitaciones-Llao_0_1624037716.html'
p5
aS'https://www.clarin.com/ieco/economia/mes-podra-pagar-celular_0_1624037720.html'
p6
aS'https://www.clarin.com/politica/Farina-contesta-Cristina-corrupcion-sobreprecios_0_1624037725.html'
p7
aS'https://www.clarin.com/sociedad/Esperaban-restos-entregaron-cajon-vacio_0_1624037717.html'
p8
a.