(lp0
Vhttps://www.clarin.com/sociedad/barrio-chico-atropello-sale-conmocion_0_1678032253.html
p1
aVhttps://www.clarin.com/ieco/elecciones-peso-seguir-ganando-dolar_0_1678032250.html
p2
aVhttps://www.clarin.com/ieco/elecciones-peso-seguir-ganando-dolar_0_1678032250.html
p3
a.