(lp0
S'https://www.clarin.com/sociedad/Rioja-beba-aspiro-purpurina-grave_0_1587441408.html'
p1
aS'https://www.clarin.com/sociedad/Rioja-beba-aspiro-purpurina-grave_0_1587441408.html'
p2
aS'https://www.clarin.com/politica/Presion-opositora-ampliacion-Corte_0_1587441405.html'
p3
aS'https://www.clarin.com/politica/Presion-opositora-ampliacion-Corte_0_1587441405.html'
p4
aS'https://www.clarin.com/politica/Magistrados-defendio-Lorenzetti-denuncias-Carrio_0_1587441384.html'
p5
aS'https://www.clarin.com/politica/Magistrados-defendio-Lorenzetti-denuncias-Carrio_0_1587441384.html'
p6
aS'https://www.clarin.com/politica/Casanello-proceso-Baez-embargo-millonario_0_1587441398.html'
p7
aS'https://www.clarin.com/politica/Casanello-proceso-Baez-embargo-millonario_0_1587441398.html'
p8
a.