(lp0
Vhttps://www.clarin.com/ieco/economia/carrera-pick-ups-acelera-Ranger-Ford_0_1560444093.html
p1
aVhttps://www.clarin.com/ieco/economia/carrera-pick-ups-acelera-Ranger-Ford_0_1560444093.html
p2
aVhttps://www.clarin.com/ieco/economia/emprendedores-trabajan-comunidades-vinculos-estrechos_0_1560444092.html
p3
aVhttps://www.clarin.com/ieco/economia/emprendedores-trabajan-comunidades-vinculos-estrechos_0_1560444092.html
p4
aVhttps://www.clarin.com/ieco/economia/Rottenberg-lider-ensenar-liderar_0_1560444091.html
p5
aVhttps://www.clarin.com/ieco/economia/Crece-deuda-Banco-Central_0_1560444090.html
p6
aVhttps://www.clarin.com/ieco/economia/Crece-deuda-Banco-Central_0_1560444090.html
p7
aVhttps://www.clarin.com/ieco/economia/China-productividad-high-tech_0_1560444089.html
p8
aVhttps://www.clarin.com/ieco/economia/carta-cambiar-futuro-petroleo_0_1560444088.html
p9
aVhttps://www.clarin.com/ieco/economia/carta-cambiar-futuro-petroleo_0_1560444088.html
p10
aVhttps://www.clarin.com/sociedad/Murio-Cora-Cane-periodista-Clarin_0_1559844427.html
p11
aVhttps://www.clarin.com/sociedad/Murio-Cora-Cane-periodista-Clarin_0_1559844427.html
p12
aVhttps://www.clarin.com/politica/Medios-CIDH-valoro-anuncios-oficiales_0_1559844419.html
p13
a.