(lp0
S'https://www.clarin.com/politica/Salario-bendice-Francisco-forzar-Macri_0_1680432132.html'
p1
aS'https://www.clarin.com/politica/Salario-bendice-Francisco-forzar-Macri_0_1680432132.html'
p2
aS'https://www.clarin.com/sociedad/cuartel-bomberos-creo-milagro-Gilda_0_1682231840.html'
p3
a.