(lp0
S'https://www.clarin.com/sociedad/Revelan-secreto-Tutankamon-hecho-punal_0_1583841755.html'
p1
aS'https://www.clarin.com/sociedad/Revelan-secreto-Tutankamon-hecho-punal_0_1583841755.html'
p2
aS'https://www.clarin.com/ieco/economia/compras-oficiales-contener-caida-centavos_0_1583841744.html'
p3
aS'https://www.clarin.com/sociedad/Descubren-tumba-podria-Aristoteles_0_1583841750.html'
p4
aS'https://www.clarin.com/sociedad/Descubren-tumba-podria-Aristoteles_0_1583841750.html'
p5
aS'https://www.clarin.com/ieco/economia/Supervielle-capta-US-millones-acciones_0_1583841742.html'
p6
aS'https://www.clarin.com/ieco/economia/Supervielle-capta-US-millones-acciones_0_1583841742.html'
p7
aS'https://www.clarin.com/sociedad/Hablo-disenador-Bicentenario-Une-grieta_0_1583841746.html'
p8
aS'https://www.clarin.com/sociedad/Hablo-disenador-Bicentenario-Une-grieta_0_1583841746.html'
p9
aS'https://www.clarin.com/politica/Camara-Lazaro-Baez-declara-arrepentido_0_1583841745.html'
p10
aS'https://www.clarin.com/politica/Camara-Lazaro-Baez-declara-arrepentido_0_1583841745.html'
p11
a.