(lp0
S'https://www.clarin.com/politica/Stolbizer-declaracion-Farina-Cristina-complicada_0_1555644611.html'
p1
aS'https://www.clarin.com/sociedad/Marcos-Di-Palma-desesperada-busqueda_0_1555644617.html'
p2
aS'https://www.clarin.com/politica/Insolita-Mossack-Fonseca-Panama-Papers_0_1555644630.html'
p3
aS'https://www.clarin.com/politica/Izquierda-propio-conduce-excandidato-presidencial_0_1550245256.html'
p4
a.