(lp0
S'https://www.clarin.com/sociedad/Bullrich-apunto-docentes-manana-educacion_0_1637236299.html'
p1
aS'https://www.clarin.com/politica/Urtubey-gobernadores-peronistas-Cristina-Kirchner_0_1637236297.html'
p2
aS'https://www.clarin.com/sociedad/Mato-hijo-doce-punaladas-estudiaba_0_1637236306.html'
p3
aS'https://www.clarin.com/sociedad/Batalla-unico-lago-asesino-Europa_0_1637236296.html'
p4
aS'https://www.clarin.com/politica/Sospechas-corrupcion-suspendieron-subdirector-Aduana_0_1637236300.html'
p5
aS'https://www.clarin.com/sociedad/Murio-historicas-palmeras-Casa-Rosada_0_1637236307.html'
p6
a.