(lp0
S'https://www.clarin.com/ieco/economia/Google-comienza-delivery-productos-California_0_1525647736.html'
p1
aS'https://www.clarin.com/sociedad/empresario-Martin-Blaquier-Macri-Pilar_0_1525647692.html'
p2
a.