(lp0
S'https://www.clarin.com/politica/Gas-Rosada-busca-gobernadores-oposicion_0_1644435700.html'
p1
aS'https://www.clarin.com/politica/Triaca-intentara-reflotar-Primer-Empleo_0_1644435653.html'
p2
aS'https://www.clarin.com/ieco/economia/Cayeron-ventas-minoristas-agosto_0_1644435645.html'
p3
aS'https://www.clarin.com/politica/Alicia-Kirchner-impuestos-Santa-Cruz_0_1644435652.html'
p4
aS'https://www.clarin.com/sociedad/pandas-salen-lista-especies-amenazadas_0_1645035491.html'
p5
aS'https://www.clarin.com/politica/paises-aportaran-datos-cuentas-exterior_0_1644435668.html'
p6
aS'https://www.clarin.com/politica/Macri-G20-junto-agradecio-elogios_0_1645035492.html'
p7
aS'https://www.clarin.com/politica/reunion-Gobierno-CGT-amenazan-paro_0_1644435654.html'
p8
aS'https://www.clarin.com/politica/hoguera-vanidades-gabinete-economico_0_1644435684.html'
p9
aS'https://www.clarin.com/politica/pruebas-fiscal-reitero-indagatoria-Cristina_0_1645035481.html'
p10
aS'https://www.clarin.com/politica/Energias-renovables-Gobierno-espera-ofertas_0_1644435701.html'
p11
a.