(lp0
S'https://www.clarin.com/sociedad/Fuerte-tormenta-Mar-Plata-evacuados_0_1613838761.html'
p1
aS'https://www.clarin.com/politica/Soja-Buryaile-admite-dificil-retenciones_0_1613838757.html'
p2
aS'https://www.clarin.com/politica/Soja-Buryaile-admite-dificil-retenciones_0_1613838757.html'
p3
a.