(lp0
Vhttps://www.clarin.com/politica/Macri-dietazo-legisladores-acorde-esfuerzo_0_1679832103.html
p1
aVhttps://www.clarin.com/politica/Macri-dietazo-legisladores-acorde-esfuerzo_0_1679832103.html
p2
aVhttps://www.clarin.com/politica/Izquierda-anular-dietazo-obtuvo-apoyo_0_1679832091.html
p3
aVhttps://www.clarin.com/politica/Izquierda-anular-dietazo-obtuvo-apoyo_0_1679832091.html
p4
aVhttps://www.clarin.com/politica/Pasteras-detectan-contaminacion-orillas-Uruguay_0_1679832099.html
p5
aVhttps://www.clarin.com/politica/Pasteras-detectan-contaminacion-orillas-Uruguay_0_1679832099.html
p6
aVhttps://www.clarin.com/sociedad/Prometen-diciembre-volvera-Mar-Plata_0_1679832094.html
p7
aVhttps://www.clarin.com/sociedad/Prometen-diciembre-volvera-Mar-Plata_0_1679832094.html
p8
a.