(lp0
Vhttps://www.clarin.com/opinion/Origen-Carrera-montana-Villa-Angostura_0_1559844352.html
p1
aVhttps://www.clarin.com/opinion/Origen-Carrera-montana-Villa-Angostura_0_1559844352.html
p2
aVhttps://www.clarin.com/opinion/Panama-Papers-mecanismo-rendicion-cuentas_0_1559844396.html
p3
aVhttps://www.clarin.com/opinion/Panama-Papers-florece-primavera-transparencia_0_1559844392.html
p4
aVhttps://www.clarin.com/opinion/programa-comunista-Julio-Argentino-Roca_0_1559844359.html
p5
aVhttps://www.clarin.com/sociedad/semanas-aparece-nueva-droga-diseno_0_1559844379.html
p6
aVhttps://www.clarin.com/sociedad/semanas-aparece-nueva-droga-diseno_0_1559844379.html
p7
aVhttps://www.clarin.com/politica/seguridad-nuclear-Macri-lideres-importantes_0_1559844443.html
p8
aVhttps://www.clarin.com/sociedad/ambiente-potencia-riesgos-consumo_0_1559844409.html
p9
aVhttps://www.clarin.com/sociedad/Pequeno-Cromanon-ilustrado_0_1559844402.html
p10
a.