(lp0
Vhttps://www.clarin.com/ieco/Presentaron-ofertas-comprar-Cresta-Roja_0_1674432714.html
p1
aVhttps://www.clarin.com/ieco/Presentaron-ofertas-comprar-Cresta-Roja_0_1674432714.html
p2
aVhttps://www.clarin.com/ieco/Tarifas-entidades-consumidores-graduales-estatal_0_1674432660.html
p3
aVhttps://www.clarin.com/opinion/Dignidad-silencio_0_1675032486.html
p4
aVhttps://www.clarin.com/opinion/moderno-Tartufo-puede-ir-preso_0_1675032485.html
p5
aVhttps://www.clarin.com/opinion/Maduro-Vaticano-pedir-perdon_0_1675032483.html
p6
aVhttps://www.clarin.com/opinion/Maduro-Vaticano-pedir-perdon_0_1675032483.html
p7
aVhttps://www.clarin.com/politica/Maria-Eugenia-Vidal-pagar-bono_0_1675032482.html
p8
aVhttps://www.clarin.com/politica/Maria-Eugenia-Vidal-pagar-bono_0_1675032482.html
p9
aVhttps://www.clarin.com/politica/legislativa-trabar-embestida-Gils-Carbo_0_1674432721.html
p10
aVhttps://www.clarin.com/politica/legislativa-trabar-embestida-Gils-Carbo_0_1674432721.html
p11
aVhttps://www.clarin.com/ieco/economia/primera-blanqueo-ingresaran-US-millones_0_1674432720.html
p12
aVhttps://www.clarin.com/ieco/economia/primera-blanqueo-ingresaran-US-millones_0_1674432720.html
p13
a.