(lp0
S'https://www.clarin.com/sociedad/hora-promover-aprendizaje-gratificante_0_1659434187.html'
p1
aS'https://www.clarin.com/politica/Echegaray-otorgado-petrolera-Cristobal-Lopez_0_1659434190.html'
p2
aS'https://www.clarin.com/sociedad/Innovacion-pedagogica-mejor-antidoto-indisciplina_0_1659434188.html'
p3
aS'https://www.clarin.com/sociedad/plan-nacional-mejorar-educacion_0_1659434185.html'
p4
aS'https://www.clarin.com/politica/Duhalde-parte-dirigencia-mierda-fracasado_0_1659434182.html'
p5
a.