(lp0
S'https://www.clarin.com/ieco/Gas-Gobierno-analiza-usuarios-comerciales_0_1580242031.html'
p1
aS'https://www.clarin.com/ieco/economia/Pagaran-compensaciones-millones-productores-tamberos_0_1580242021.html'
p2
aS'https://www.clarin.com/politica/destacadas-discurso-Macri-Cresta-Roja_0_1580242026.html'
p3
aS'https://www.clarin.com/sociedad/cura-embarazada-joven-abandono-parroquia_0_1580242036.html'
p4
a.