(lp0
Vhttps://www.clarin.com/politica/intendentes-PJ-tarifazo-Gobierno-dialogo_0_1652234943.html
p1
aVhttps://www.clarin.com/politica/intendentes-PJ-tarifazo-Gobierno-dialogo_0_1652234943.html
p2
aVhttps://www.clarin.com/sociedad/Patricia-Ramos-jefa-parrilla-imposible_0_1652234942.html
p3
aVhttps://www.clarin.com/sociedad/Patricia-Ramos-jefa-parrilla-imposible_0_1652234942.html
p4
aVhttps://www.clarin.com/sociedad/campeona-nacional-gano-costillar-kilos_0_1652234940.html
p5
aVhttps://www.clarin.com/sociedad/campeona-nacional-gano-costillar-kilos_0_1652234940.html
p6
aVhttps://www.clarin.com/sociedad/Mujeres-asadoras-parrilla-territorio-femenino_0_1651634912.html
p7
aVhttps://www.clarin.com/sociedad/Mujeres-asadoras-parrilla-territorio-femenino_0_1651634912.html
p8
aVhttps://www.clarin.com/sociedad/Aplican-eutanasia-chico-primera-mundo_0_1652234935.html
p9
aVhttps://www.clarin.com/sociedad/Aplican-eutanasia-chico-primera-mundo_0_1652234935.html
p10
aVhttps://www.clarin.com/ieco/economia/Espana-refuta-Stiglitz_0_1652234932.html
p11
aVhttps://www.clarin.com/ieco/km-ataque_0_1651635005.html
p12
aVhttps://www.clarin.com/ieco/km-ataque_0_1651635005.html
p13
a.