(lp0
S'https://www.clarin.com/politica/Detuvieron-Lazaro-Baez-contador-dinero_0_1553245173.html'
p1
aS'https://www.clarin.com/politica/Detuvieron-Lazaro-Baez-contador-dinero_0_1553245173.html'
p2
aS'https://www.clarin.com/sociedad/Privacidad-online-WhatsApp-anuncio-seguros_0_1553245112.html'
p3
aS'https://www.clarin.com/politica/Rogelio-Frigerio-Baez-dormir-tranquila_0_1553844636.html'
p4
aS'https://www.clarin.com/politica/Rogelio-Frigerio-Baez-dormir-tranquila_0_1553844636.html'
p5
aS'https://www.clarin.com/politica/investigacion-muestra-enorme-montana-pruebas_0_1553844632.html'
p6
aS'https://www.clarin.com/politica/investigacion-muestra-enorme-montana-pruebas_0_1553844632.html'
p7
aS'https://www.clarin.com/politica/alerta-inteligencia-temia-Baez-fugara_0_1553245179.html'
p8
aS'https://www.clarin.com/politica/alerta-inteligencia-temia-Baez-fugara_0_1553245179.html'
p9
aS'https://www.clarin.com/politica/corrupcion-embarra-toda-politica_0_1553844624.html'
p10
aS'https://www.clarin.com/opinion/Aceleracion-brusca-reacciones-lentas_0_1553844622.html'
p11
aS'https://www.clarin.com/opinion/deuda-externa-Constitucion_0_1553245058.html'
p12
aS'https://www.clarin.com/opinion/deuda-externa-Constitucion_0_1553245058.html'
p13
aS'https://www.clarin.com/opinion/Velar-educar-intolerancia_0_1553245051.html'
p14
aS'https://www.clarin.com/opinion/Ejercer-soberania-aprovechando-recursos_0_1553245054.html'
p15
aS'https://www.clarin.com/sociedad/Hololens-tecnologia-realidad-ciencia-ficcion_0_1553245165.html'
p16
aS'https://www.clarin.com/sociedad/Delta-conductores-lanchas-podrian-presos_0_1553245128.html'
p17
aS'https://www.clarin.com/politica/oposicion-renuncia-Laura-Alonso-OA_0_1553245140.html'
p18
aS'https://www.clarin.com/politica/oposicion-renuncia-Laura-Alonso-OA_0_1553245140.html'
p19
a.