(lp0
S'https://www.clarin.com/ieco/economia/tarifas-consumo-electrico-area-metropolitana_0_1562243849.html'
p1
aS'https://www.clarin.com/politica/Malcorra-Naciones-Unidas-Costa-Salguero_0_1562243847.html'
p2
aS'https://www.clarin.com/politica/Reves-Cristobal-Lopez-Comodoro-Rivadavia_0_1562243848.html'
p3
aS'https://www.clarin.com/ieco/economia/Elsztain-empresario-shoppings-campos-hoteles_0_1562243845.html'
p4
aS'https://www.clarin.com/sociedad/Cientificos-argentinos-investigaran-vacuna-zika_0_1562243859.html'
p5
aS'https://www.clarin.com/politica/Chueco-Buenos-Aires-Casanello-examenes_0_1562243852.html'
p6
a.