(lp0
S'https://www.clarin.com/politica/Video-Lanata-recorrio-funcionarios-kirchneristas_0_1661234038.html'
p1
aS'https://www.clarin.com/politica/Macri-Temer-agenda-Mercosur-Venezuela_0_1661233995.html'
p2
aS'https://www.clarin.com/politica/Interna-CGT-jueves-reunion-discutir_0_1661234025.html'
p3
aS'https://www.clarin.com/opinion/dias-octubre_0_1661234040.html'
p4
aS'https://www.clarin.com/ieco/economia/Empresas-creen-ventas-ganancias_0_1661234027.html'
p5
aS'https://www.clarin.com/ieco/economia/Macri-anuncia-campo-bajaria-retenciones_0_1661234029.html'
p6
aS'https://www.clarin.com/politica/Gobernadores-intendentes-alerta-bono-ano_0_1661234012.html'
p7
aS'https://www.clarin.com/politica/Santa-Cruz-situacion-limite-rechazan_0_1661234018.html'
p8
aS'https://www.clarin.com/politica/Frigerio-camionero-Dolina-peronista_0_1661234037.html'
p9
aS'https://www.clarin.com/politica/Iglesia-llamo-indiferentes-aumento-pobreza_0_1661234016.html'
p10
aS'https://www.clarin.com/politica/Empresarios-gobernadores-plata_0_1661833801.html'
p11
a.