(lp0
Vhttps://www.clarin.com/politica/legislador-diputado-jubilado-Congreso-chorros_0_1681631947.html
p1
aVhttps://www.clarin.com/politica/legislador-diputado-jubilado-Congreso-chorros_0_1681631947.html
p2
aVhttps://www.clarin.com/sociedad/Murio-adolescentes-apunalaron-plaza-Boca_0_1681631948.html
p3
aVhttps://www.clarin.com/sociedad/Murio-adolescentes-apunalaron-plaza-Boca_0_1681631948.html
p4
aVhttps://www.clarin.com/ieco/economia/YPF-vender-Metrogas-ordene-sector_0_1681032013.html
p5
aVhttps://www.clarin.com/ieco/economia/YPF-vender-Metrogas-ordene-sector_0_1681032013.html
p6
aVhttps://www.clarin.com/sociedad/pocos-dias-llega-superluna-daba_0_1681631942.html
p7
aVhttps://www.clarin.com/sociedad/pocos-dias-llega-superluna-daba_0_1681631942.html
p8
aVhttps://www.clarin.com/sociedad/argentinos-daran-vuelta-Gran-Manzana_0_1681631938.html
p9
aVhttps://www.clarin.com/sociedad/argentinos-daran-vuelta-Gran-Manzana_0_1681631938.html
p10
aVhttps://www.clarin.com/politica/Ritondo-Boudou-patas-traje-rayas_0_1681631936.html
p11
aVhttps://www.clarin.com/politica/Ritondo-Boudou-patas-traje-rayas_0_1681631936.html
p12
a.