(lp0
Vhttps://www.clarin.com/sociedad/tornado-Mar-Plata-destrozos-barrios_0_1508849584.html
p1
aVhttps://www.clarin.com/politica/Rechazan-liberar-Sala-jornada-piquetes_0_1508849574.html
p2
aVhttps://www.clarin.com/sociedad/incendio-Los_Alerces-Chubut-aviones_0_1508849558.html
p3
a.