(lp0
Vhttps://www.clarin.com/sociedad/Cierran-matadero-muestra-maltrato-animal_0_1549645271.html
p1
aVhttps://www.clarin.com/sociedad/Cierran-matadero-muestra-maltrato-animal_0_1549645271.html
p2
aVhttps://www.clarin.com/sociedad/Revocan-obligaba-prepaga-tratamiento-equinoterapia_0_1549645268.html
p3
aVhttps://www.clarin.com/sociedad/Revocan-obligaba-prepaga-tratamiento-equinoterapia_0_1549645268.html
p4
aVhttps://www.clarin.com/politica/Garavano-despego-pelea-Carrio-Angelici_0_1549645266.html
p5
aVhttps://www.clarin.com/politica/Garavano-despego-pelea-Carrio-Angelici_0_1549645266.html
p6
aVhttps://www.clarin.com/sociedad/Procesaron-Gigolo-estafa_0_1549645258.html
p7
aVhttps://www.clarin.com/sociedad/Procesaron-Gigolo-estafa_0_1549645258.html
p8
aVhttps://www.clarin.com/politica/Bonadio-manden-denuncia-Nisman-Cristina_0_1549645261.html
p9
aVhttps://www.clarin.com/politica/Bonadio-manden-denuncia-Nisman-Cristina_0_1549645261.html
p10
aVhttps://www.clarin.com/politica/polemica-Lazaro-Baez-debate-buitres_0_1549645257.html
p11
aVhttps://www.clarin.com/politica/polemica-Lazaro-Baez-debate-buitres_0_1549645257.html
p12
aVhttps://www.clarin.com/sociedad/nuevo-juego-visual-preguntas-campamento_0_1549645242.html
p13
aVhttps://www.clarin.com/sociedad/nuevo-juego-visual-preguntas-campamento_0_1549645242.html
p14
a.