(lp0
Vhttps://www.clarin.com/sociedad/magnate-Lewis-puerta-hidroelectrica-Bolson_0_1622237924.html
p1
aVhttps://www.clarin.com/sociedad/magnate-Lewis-puerta-hidroelectrica-Bolson_0_1622237924.html
p2
aVhttps://www.clarin.com/ieco/economia/Vidal-lanza-revaluo-inmobiliario-Provincia_0_1622237919.html
p3
aVhttps://www.clarin.com/politica/ARSAT-cierra-acuerdo-Telefonica_0_1622237916.html
p4
a.