(lp0
S'https://www.clarin.com/ieco/management/unica-certeza-incertidumbre_0_1681032053.html'
p1
aS'https://www.clarin.com/ieco/economia/Radiografia-salario-empleo-Argentina_0_1681032072.html'
p2
aS'https://www.clarin.com/ieco/management/busca-jovenes-creativos-vision_0_1681032051.html'
p3
aS'https://www.clarin.com/ieco/campus-ieco/Aprender-principal-objetivos-jovenes_0_1681032060.html'
p4
aS'https://www.clarin.com/opinion/prolongado-rito-iniciacion-Macri_0_1682231763.html'
p5
aS'https://www.clarin.com/ieco/management/Acompanar-empleados-inicio-carrera_0_1681032066.html'
p6
aS'https://www.clarin.com/ieco/management/gestion-talento-desarrollada_0_1681032056.html'
p7
aS'https://www.clarin.com/ieco/economia/corre-Clinton-Trump-derrame-blanqueo_0_1681032046.html'
p8
aS'https://www.clarin.com/ieco/management/desafio-asumir-proyectos_0_1681032054.html'
p9
aS'https://www.clarin.com/opinion/Trump-Malo_0_1682231761.html'
p10
aS'https://www.clarin.com/opinion/Macri-Massa-Cristina-distrito-clave_0_1682231762.html'
p11
aS'https://www.clarin.com/ieco/management/Tener-exito-aprovechar-vida-feliz_0_1681032045.html'
p12
aS'https://www.clarin.com/ieco/management/busca-futuro-mejor_0_1681032063.html'
p13
aS'https://www.clarin.com/opinion/ventaja-Macri-pensada_0_1682231764.html'
p14
aS'https://www.clarin.com/ieco/management/proposito-compartido_0_1681032047.html'
p15
a.