(lp0
Vhttps://www.clarin.com/sociedad/huelga-conviccion-decidieron-clase-igual_0_1637836391.html
p1
aVhttps://www.clarin.com/sociedad/huelga-conviccion-decidieron-clase-igual_0_1637836391.html
p2
aVhttps://www.clarin.com/politica/Investigan-preso-amenazo-Vidal-actuo_0_1637836387.html
p3
aVhttps://www.clarin.com/politica/Investigan-preso-amenazo-Vidal-actuo_0_1637836387.html
p4
aVhttps://www.clarin.com/politica/Agredieron-periodista-programa-Jorge-Lanata_0_1637836384.html
p5
aVhttps://www.clarin.com/politica/Agredieron-periodista-programa-Jorge-Lanata_0_1637836384.html
p6
aVhttps://www.clarin.com/sociedad/docente-Macri-fuerte-escuelas-publicas_0_1637836379.html
p7
aVhttps://www.clarin.com/sociedad/docente-Macri-fuerte-escuelas-publicas_0_1637836379.html
p8
a.