(lp0
S'https://www.clarin.com/politica/Ahora-procesaron-Boudou-compra-Economia_0_1643235836.html'
p1
aS'https://www.clarin.com/sociedad/Dicen-evitar-catastrofes-doble-guardaparques_0_1643235846.html'
p2
aS'https://www.clarin.com/politica/Negociaciones-Gobierno-CGT-PJ-Ganancias_0_1643235840.html'
p3
aS'https://www.clarin.com/sociedad/Crean-programa-nacional-cuidados-paliativos_0_1643235844.html'
p4
aS'https://www.clarin.com/sociedad/cumbre-mundial-criticas-represa-Sur_0_1643235848.html'
p5
aS'https://www.clarin.com/politica/Gobierno-recibio-CGT-medidas-fuerza_0_1643235842.html'
p6
aS'https://www.clarin.com/ieco/economia/Barrick-evalua-cambios-reabrir-Pascua-Lama_0_1643235839.html'
p7
a.