(lp0
S'https://www.clarin.com/politica/Lazaro-Baez-Tribunales-causa-Echegaray_0_1554444701.html'
p1
aS'https://www.clarin.com/politica/Lazaro-Baez-Tribunales-causa-Echegaray_0_1554444701.html'
p2
aS'https://www.clarin.com/ieco/recaudacion-Provincia-crecio-marzo_0_1554444706.html'
p3
aS'https://www.clarin.com/ieco/recaudacion-Provincia-crecio-marzo_0_1554444706.html'
p4
aS'https://www.clarin.com/ieco/venta-motos-cayo-marzo_0_1554444700.html'
p5
aS'https://www.clarin.com/ieco/venta-motos-cayo-marzo_0_1554444700.html'
p6
aS'https://www.clarin.com/sociedad/averiguar-pareja-infiel-Tinder_0_1554444696.html'
p7
aS'https://www.clarin.com/sociedad/averiguar-pareja-infiel-Tinder_0_1554444696.html'
p8
aS'https://www.clarin.com/politica/Denuncian-gobernador-frecuencia-secreto-Panama_0_1554444665.html'
p9
aS'https://www.clarin.com/politica/Denuncian-gobernador-frecuencia-secreto-Panama_0_1554444665.html'
p10
aS'https://www.clarin.com/politica/Dolar-Vanoli-Tribunales-miercoles-Cristina_0_1554444689.html'
p11
aS'https://www.clarin.com/politica/Dolar-Vanoli-Tribunales-miercoles-Cristina_0_1554444689.html'
p12
aS'https://www.clarin.com/ieco/acceder-tarifa-social-colectivos-trenes_0_1554444686.html'
p13
aS'https://www.clarin.com/ieco/acceder-tarifa-social-colectivos-trenes_0_1554444686.html'
p14
aS'https://www.clarin.com/politica/Piden-procesamiento-hija-Ricardo-Jaime_0_1554444685.html'
p15
aS'https://www.clarin.com/politica/Piden-procesamiento-hija-Ricardo-Jaime_0_1554444685.html'
p16
a.