(lp0
S'https://www.clarin.com/politica/Massa-terminen-paritarias-argentinos-perdido_0_1518448447.html'
p1
aS'https://www.clarin.com/politica/Frigerio-revisar-paritaria-inflacion-supera_0_1518448412.html'
p2
aS'https://www.clarin.com/politica/Gioja-superar-complicado-atraviesa-PJ_0_1518448395.html'
p3
aS'https://www.clarin.com/politica/Sigue-fuego-cruzado-PJ-Diputados_0_1518448441.html'
p4
aS'https://www.clarin.com/sociedad/ingles-vende-aire-fresco-chinos_0_1518448384.html'
p5
a.