(lp0
S'https://www.clarin.com/politica/Holdouts-desarrollo-inversiones-Macri-Chaco_0_1535246728.html'
p1
aS'https://www.clarin.com/politica/Scioli-hablo-momento-Karina-Rabolini_0_1535246752.html'
p2
aS'https://www.clarin.com/politica/Johnny-Allon-economia-Macri-peronista_0_1535246708.html'
p3
aS'https://www.clarin.com/sociedad/Piden-reconstruccion-turistas-argentinas-Ecuador_0_1535246737.html'
p4
a.