(lp0
Vhttps://www.clarin.com/politica/Gobierno-cuestiono-ley-impone_0_1654034779.html
p1
aVhttps://www.clarin.com/sociedad/llegada-primavera-gimnasio-muda-libre_0_1654034776.html
p2
aVhttps://www.clarin.com/sociedad/llegada-primavera-gimnasio-muda-libre_0_1654034776.html
p3
aVhttps://www.clarin.com/sociedad/nena-creo-abuela-alzheimer-recuerde_0_1654034775.html
p4
aVhttps://www.clarin.com/sociedad/nena-creo-abuela-alzheimer-recuerde_0_1654034775.html
p5
aVhttps://www.clarin.com/politica/Confirman-embargo-inhibicion-Lazaro-Baez_0_1654034774.html
p6
aVhttps://www.clarin.com/sociedad/entran-foto-celulares-vienen-camaras_0_1654034773.html
p7
aVhttps://www.clarin.com/sociedad/entran-foto-celulares-vienen-camaras_0_1654034773.html
p8
aVhttps://www.clarin.com/sociedad/Fuma-cigarrillos-fallo-ordeno-indemnizarlo_0_1654034772.html
p9
aVhttps://www.clarin.com/sociedad/Fuma-cigarrillos-fallo-ordeno-indemnizarlo_0_1654034772.html
p10
aVhttps://www.clarin.com/politica/Chubut-desanimado-Cristobal-busca-tiempo_0_1654034749.html
p11
aVhttps://www.clarin.com/politica/Chubut-desanimado-Cristobal-busca-tiempo_0_1654034749.html
p12
aVhttps://www.clarin.com/sociedad/gremios-docentes-haran-martes-proximo_0_1654034768.html
p13
aVhttps://www.clarin.com/ieco/economia/Gobierno-amplio-gastos-deuda-publica_0_1654034767.html
p14
a.