(lp0
S'https://www.clarin.com/sociedad/Facebook-detienen-ejecutivo-argentino-usuario_0_1532247186.html'
p1
aS'https://www.clarin.com/sociedad/Giro-intendente-Calera-detienen-comunal_0_1532846819.html'
p2
aS'https://www.clarin.com/politica/destaco-Berni-contaminar-escena-hecho_0_1532846728.html'
p3
aS'https://www.clarin.com/ieco/economia/aumentos-Gobierno-extiende-Precios-Cuidados_0_1532247208.html'
p4
aS'https://www.clarin.com/ieco/economia/combustibles-aumentan-proximo-fin-semana_0_1532846830.html'
p5
aS'https://www.clarin.com/sociedad/WhatsApp-retira-BlackBerry-cerca-final_0_1532247207.html'
p6
aS'https://www.clarin.com/ieco/economia/Autos-suben-precios-ofertas_0_1532247212.html'
p7
aS'https://www.clarin.com/politica/Tecnopolis-Macri-encabeza-Gabinete-simbolo_0_1532846815.html'
p8
aS'https://www.clarin.com/ieco/Abrupta-suba-tasas-Vanoli_0_1532247235.html'
p9
aS'https://www.clarin.com/opinion/sector-oposicion-elogio-discurso-medidas_0_1532846745.html'
p10
aS'https://www.clarin.com/ieco/economia/Deuda-Griesa-postergo-decision-bloqueo_0_1532247219.html'
p11
a.