(lp0
S'https://www.clarin.com/politica/Rivolo-imputo-Cristina-Kirchner-coimas_0_1575442605.html'
p1
aS'https://www.clarin.com/politica/Rivolo-imputo-Cristina-Kirchner-coimas_0_1575442605.html'
p2
aS'https://www.clarin.com/politica/Duro-Twitter-Anibal-Fernandez-Fantino_0_1575442661.html'
p3
aS'https://www.clarin.com/politica/Duro-Twitter-Anibal-Fernandez-Fantino_0_1575442661.html'
p4
aS'https://www.clarin.com/sociedad/peronista-lejos-kirchnerista_0_1575442667.html'
p5
aS'https://www.clarin.com/sociedad/peronista-lejos-kirchnerista_0_1575442667.html'
p6
a.