(lp0
S'https://www.clarin.com/politica/Santa-Cruz-empresas-Lazaro-Baez_0_1548445145.html'
p1
aS'https://www.clarin.com/politica/Crece-presion-sindical-impuesto-Ganancias_0_1547845589.html'
p2
aS'https://www.clarin.com/ieco/Fin-tradicion-Argentina-produce-ginebra_0_1546045597.html'
p3
aS'https://www.clarin.com/politica/Lilito-pavita-pocos_0_1547845568.html'
p4
aS'https://www.clarin.com/politica/oposicion-propone-elevar-minimo-pesos_0_1547845591.html'
p5
aS'https://www.clarin.com/opinion/Fascinados-amor-arte_0_1547845566.html'
p6
aS'https://www.clarin.com/politica/Telesur-costaba-garantizaba-pluralismo-informativo_0_1548445141.html'
p7
aS'https://www.clarin.com/politica/negocios-Cristina-Baez-contaba-SGI_0_1544845715.html'
p8
aS'https://www.clarin.com/politica/Atucha-contrato-financiacion-China-condiciones_0_1547845536.html'
p9
aS'https://www.clarin.com/sociedad/jovenes-exigen-horarios-vinculan-empleados_0_1547845583.html'
p10
aS'https://www.clarin.com/ieco/economia/Arba-multara-contribuyentes-Ingresos-Brutos_0_1547845555.html'
p11
a.