(lp0
Vhttps://www.clarin.com/politica/Critobal-Lopez-vende-petrolera-Oil_0_1683431777.html
p1
aVhttps://www.clarin.com/politica/Critobal-Lopez-vende-petrolera-Oil_0_1683431777.html
p2
aVhttps://www.clarin.com/politica/adicionales-negociaron-Presupuesto-suman-millones_0_1683431835.html
p3
aVhttps://www.clarin.com/ieco/economia/Anuncian-ARBA-saldra-evasores-Costa_0_1683431754.html
p4
aVhttps://www.clarin.com/ieco/economia/Anuncian-ARBA-saldra-evasores-Costa_0_1683431754.html
p5
aVhttps://www.clarin.com/opinion/Gils-Carbo-Sala-pleitos-Macri_0_1684031597.html
p6
aVhttps://www.clarin.com/opinion/Naturalizar-delito-embarrar-cancha_0_1684031595.html
p7
a.