(lp0
S'https://www.clarin.com/opinion/Gabriela_Gonzalez-desarrollo-conocimiento_0_1523247683.html'
p1
aS'https://www.clarin.com/politica/Gremios-Congreso-desafios-reales_0_1523247678.html'
p2
aS'https://www.clarin.com/opinion/ultima-multitud-acongojada_0_1523247677.html'
p3
aS'https://www.clarin.com/politica/Cambiemos-UCR-Gobierno-Oficialismo_0_1523247674.html'
p4
aS'https://www.clarin.com/politica/Inflacion-Oposicion-Precios-Indice_Congreso-INDEC_0_1523247673.html'
p5
aS'https://www.clarin.com/politica/Inflacion-Oposicion-Precios-Indice_Congreso-INDEC_0_1523247673.html'
p6
aS'https://www.clarin.com/sociedad/argentino-museos-modernos-impactantes-Brasil_0_1522648122.html'
p7
aS'https://www.clarin.com/sociedad/argentino-museos-modernos-impactantes-Brasil_0_1522648122.html'
p8
aS'https://www.clarin.com/politica/River-politico-Malcorra-arco_0_1523247664.html'
p9
aS'https://www.clarin.com/politica/River-politico-Malcorra-arco_0_1523247664.html'
p10
aS'https://www.clarin.com/sociedad/nuevas-familias-cambian-reglas-arquitectura_0_1522648121.html'
p11
aS'https://www.clarin.com/sociedad/nuevas-familias-cambian-reglas-arquitectura_0_1522648121.html'
p12
aS'https://www.clarin.com/politica/renzi-visita_0_1522648189.html'
p13
aS'https://www.clarin.com/politica/Mauricio_Macri-Casa_Militar-custodia-Jose_Luis_Yofre_0_1522648188.html'
p14
aS'https://www.clarin.com/politica/Mauricio_Macri-Casa_Militar-custodia-Jose_Luis_Yofre_0_1522648188.html'
p15
aS'https://www.clarin.com/politica/Mauricio_Macri-reforma_electoral-Adrian_Perez_0_1522648187.html'
p16
aS'https://www.clarin.com/politica/Mauricio_Macri-reforma_electoral-Adrian_Perez_0_1522648187.html'
p17
a.