(lp0
S'https://www.clarin.com/sociedad/Fresco-Batata-usaran-nanosatelites_0_1586241425.html'
p1
aS'https://www.clarin.com/politica/Dia-Ejercito-Macri-enfrentamientos-divisiones_0_1586241427.html'
p2
aS'https://www.clarin.com/politica/Ruta-Rio-Gallegos-nuevos-allanamientos_0_1586241418.html'
p3
aS'https://www.clarin.com/sociedad/castigo-dejaron-abandonado-bosque-desaparecido_0_1586241422.html'
p4
aS'https://www.clarin.com/ieco/Cristobal-Lopez-quiere-vender-Salamandra_0_1586241424.html'
p5
aS'https://www.clarin.com/ieco/CAME-pymes-industriales-invertira-ano_0_1586241419.html'
p6
a.