(lp0
S'https://www.clarin.com/politica/Investigan-propiedades-Lopez-obtenidas-ilicita_0_1625837419.html'
p1
aS'https://www.clarin.com/ieco/jueza-servicio-puede-cortarse-falta_0_1625837428.html'
p2
aS'https://www.clarin.com/politica/carta-Bonafini-juez-explica-declarar_0_1625837430.html'
p3
aS'https://www.clarin.com/politica/Aseguran-Hebe-Bonafini-declarar-publica_0_1625837423.html'
p4
a.