(lp0
S'https://www.clarin.com/ieco/coloquioidea/Stanley-teoria-derrame-demostro-incluye_0_1668433283.html'
p1
aS'https://www.clarin.com/ieco/economia/vuelve-caer-cantidad-puestos-trabajo_0_1668433270.html'
p2
aS'https://www.clarin.com/ieco/coloquioidea/Zarazaga-mitad-pobres-futuro-atroz_0_1668433279.html'
p3
aS'https://www.clarin.com/ieco/coloquioidea/Lacunza-ahora-previsto-bono-provincia_0_1668433272.html'
p4
aS'https://www.clarin.com/sociedad/tiendas-ropa-dicen-hacer-cambios_0_1668433274.html'
p5
aS'https://www.clarin.com/politica/Macri-Roma-Cambiemos-vuelve-timbrear_0_1668433281.html'
p6
a.