(lp0
Vhttps://www.clarin.com/sociedad/grados-Chile-sintio-San-Juan_0_1690630986.html
p1
aVhttps://www.clarin.com/sociedad/danza-para_la_ansiedad_y_el_estres_0_1690630983.html
p2
aVhttps://www.clarin.com/sociedad/danza-para_la_ansiedad_y_el_estres_0_1690630983.html
p3
aVhttps://www.clarin.com/politica/Pino-Solanas-mejor-opositor-gobierno_0_1690630980.html
p4
aVhttps://www.clarin.com/politica/Pino-Solanas-mejor-opositor-gobierno_0_1690630980.html
p5
aVhttps://www.clarin.com/politica/reforma-electoral-mano-gobernadores-peronistas_0_1690630978.html
p6
aVhttps://www.clarin.com/politica/reforma-electoral-mano-gobernadores-peronistas_0_1690630978.html
p7
aVhttps://www.clarin.com/sociedad/familiares-murio-ahogada-Brasil-siguen_0_1690630974.html
p8
aVhttps://www.clarin.com/sociedad/familiares-murio-ahogada-Brasil-siguen_0_1690630974.html
p9
a.