(lp0
Vhttps://www.clarin.com/politica/Gas-incrementos_0_1550844947.html
p1
aVhttps://www.clarin.com/politica/Agua-aumentos-llegan_0_1550844946.html
p2
aVhttps://www.clarin.com/politica/Subtes-viaje-costara-mayo_0_1550844943.html
p3
aVhttps://www.clarin.com/politica/Trenes-ramales-suben_0_1550844941.html
p4
aVhttps://www.clarin.com/politica/Colectivos-boleto-minimo-pasa_0_1550844940.html
p5
aVhttps://www.clarin.com/politica/Acoso-Clarin-procesamientos-Vanoli-Moreno_0_1550245427.html
p6
aVhttps://www.clarin.com/politica/Acoso-Clarin-procesamientos-Vanoli-Moreno_0_1550245427.html
p7
aVhttps://www.clarin.com/opinion/Preocupacion-empresaria-baja-actividad_0_1550245373.html
p8
aVhttps://www.clarin.com/opinion/Preocupacion-empresaria-baja-actividad_0_1550245373.html
p9
aVhttps://www.clarin.com/opinion/Indiferentes-horror-matanza-cristianos_0_1550245317.html
p10
aVhttps://www.clarin.com/opinion/Nueva-politica-basada-cooperacion_0_1550245314.html
p11
aVhttps://www.clarin.com/politica/gas-aumenta-hoy-promedio_0_1550245442.html
p12
aVhttps://www.clarin.com/politica/gas-aumenta-hoy-promedio_0_1550245442.html
p13
a.