(lp0
S'https://www.clarin.com/sociedad/Tucuman-confirman-murio-microcefalia-zika_0_1685831522.html'
p1
aS'https://www.clarin.com/sociedad/Tucuman-confirman-murio-microcefalia-zika_0_1685831522.html'
p2
aS'https://www.clarin.com/sociedad/podra-recargar-SUBE-traves-PagoMisCuentas_0_1685831521.html'
p3
aS'https://www.clarin.com/sociedad/podra-recargar-SUBE-traves-PagoMisCuentas_0_1685831521.html'
p4
aS'https://www.clarin.com/politica/Moyano-espera-modificiones-Ganancias-ano_0_1685831507.html'
p5
aS'https://www.clarin.com/politica/Moyano-espera-modificiones-Ganancias-ano_0_1685831507.html'
p6
aS'https://www.clarin.com/politica/Vidal-presidencia-Camara-Diputados-bonaerense_0_1685831505.html'
p7
aS'https://www.clarin.com/politica/Vidal-presidencia-Camara-Diputados-bonaerense_0_1685831505.html'
p8
a.