(lp0
S'https://www.clarin.com/sociedad/Furor-video-hombre-frena-acosador_0_1678032220.html'
p1
aS'https://www.clarin.com/sociedad/Furor-video-hombre-frena-acosador_0_1678032220.html'
p2
aS'https://www.clarin.com/politica/Cristina-Kirchner-distribucion-gobierno-horizontal_0_1678032217.html'
p3
aS'https://www.clarin.com/politica/Cristina-Kirchner-distribucion-gobierno-horizontal_0_1678032217.html'
p4
aS'https://www.clarin.com/politica/Indice-optimismo-numeros-Gobierno-Macri_0_1678032215.html'
p5
aS'https://www.clarin.com/politica/Indice-optimismo-numeros-Gobierno-Macri_0_1678032215.html'
p6
a.