(lp0
Vhttps://www.clarin.com/sociedad/Mar-Plata-tarda-media-volver_0_1506449766.html
p1
aVhttps://www.clarin.com/sociedad/sunsets-imponen-electronica-atardeceres-Punta_0_1506449768.html
p2
aVhttps://www.clarin.com/sociedad/sunsets-imponen-electronica-atardeceres-Punta_0_1506449768.html
p3
aVhttps://www.clarin.com/ieco/economia/aumentos-alimentos-articulos_de_limpieza_0_1506449809.html
p4
aVhttps://www.clarin.com/ieco/economia/aumentos-alimentos-articulos_de_limpieza_0_1506449809.html
p5
aVhttps://www.clarin.com/ieco/economia/foco-ona_0_1506449808.html
p6
aVhttps://www.clarin.com/politica/ENaCom-AFSCA-AFTIC-Macri-Aguad-De_Godoy-Sabbatella_0_1506449771.html
p7
aVhttps://www.clarin.com/politica/ENaCom-AFSCA-AFTIC-Macri-Aguad-De_Godoy-Sabbatella_0_1506449771.html
p8
a.