(lp0
Vhttps://www.clarin.com/sociedad/precio-garrafas-municipio-reparte-calefaccionar_0_1574242616.html
p1
aVhttps://www.clarin.com/sociedad/precio-garrafas-municipio-reparte-calefaccionar_0_1574242616.html
p2
aVhttps://www.clarin.com/ieco/Macri-mundo-pelea-empleo_0_1574242611.html
p3
aVhttps://www.clarin.com/ieco/Macri-mundo-pelea-empleo_0_1574242611.html
p4
aVhttps://www.clarin.com/ieco/medidas-Cabrera-anuncio-pymes_0_1574242609.html
p5
aVhttps://www.clarin.com/ieco/medidas-Cabrera-anuncio-pymes_0_1574242609.html
p6
aVhttps://www.clarin.com/sociedad/inquietante-ultimo-mensaje-chicos-perdidos_0_1574242602.html
p7
aVhttps://www.clarin.com/sociedad/inquietante-ultimo-mensaje-chicos-perdidos_0_1574242602.html
p8
aVhttps://www.clarin.com/sociedad/Vidal-importante-chicos-aprendan_0_1574242603.html
p9
aVhttps://www.clarin.com/sociedad/Vidal-importante-chicos-aprendan_0_1574242603.html
p10
aVhttps://www.clarin.com/sociedad/Parques-Nacionales-recorrer-Street-View_0_1574242600.html
p11
aVhttps://www.clarin.com/sociedad/Parques-Nacionales-recorrer-Street-View_0_1574242600.html
p12
a.