(lp0
Vhttps://www.clarin.com/politica/completo-Corte-Suprema-aumento-tarifas_0_1634236640.html
p1
aVhttps://www.clarin.com/politica/completo-Corte-Suprema-aumento-tarifas_0_1634236640.html
p2
aVhttps://www.clarin.com/sociedad/Intentan-controlar-incendio-Potrero-Funes_0_1634236639.html
p3
aVhttps://www.clarin.com/sociedad/Intentan-controlar-incendio-Potrero-Funes_0_1634236639.html
p4
aVhttps://www.clarin.com/politica/Corte-empresas-comercios-deberan-tarifazo_0_1634236638.html
p5
aVhttps://www.clarin.com/politica/Corte-empresas-comercios-deberan-tarifazo_0_1634236638.html
p6
aVhttps://www.clarin.com/ieco/economia/fallo-Corte-acciones-gasiferas-electricas_0_1634236632.html
p7
aVhttps://www.clarin.com/ieco/economia/fallo-Corte-acciones-gasiferas-electricas_0_1634236632.html
p8
aVhttps://www.clarin.com/sociedad/Insolito-CERN-sacrificio-sospechan-cientificos_0_1634236634.html
p9
aVhttps://www.clarin.com/sociedad/Insolito-CERN-sacrificio-sospechan-cientificos_0_1634236634.html
p10
aVhttps://www.clarin.com/politica/audiencias-tarifa-social-division-poderes_0_1634236628.html
p11
aVhttps://www.clarin.com/politica/audiencias-tarifa-social-division-poderes_0_1634236628.html
p12
aVhttps://www.clarin.com/ieco/Amplian-emision-millones-lanzan-Letras_0_1634236627.html
p13
aVhttps://www.clarin.com/ieco/Amplian-emision-millones-lanzan-Letras_0_1634236627.html
p14
a.