(lp0
S'https://www.clarin.com/politica/impuestos-ganancias-mauricio_macri-alberto_abad_0_1525647437.html'
p1
aS'https://www.clarin.com/politica/impuestos-ganancias-mauricio_macri-alberto_abad_0_1525647437.html'
p2
aS'https://www.clarin.com/politica/impuestos-ganancias-oposicion_0_1525647436.html'
p3
aS'https://www.clarin.com/politica/impuesto-ganancias-mauricio_macri_0_1525647435.html'
p4
aS'https://www.clarin.com/opinion/Hernan_Firpo-Pasiones_argentinas_0_1525647432.html'
p5
aS'https://www.clarin.com/ieco/economia/ganancias-dudas_0_1525047986.html'
p6
aS'https://www.clarin.com/ieco/economia/buitres-dia_clave_0_1525047985.html'
p7
aS'https://www.clarin.com/ieco/economia/balanza_comercial-deficit_0_1525047984.html'
p8
a.