(lp0
Vhttps://www.clarin.com/politica/Viene-mision-OCDE-evaluar-anticorrupcion_0_1664233739.html
p1
aVhttps://www.clarin.com/politica/Viene-mision-OCDE-evaluar-anticorrupcion_0_1664233739.html
p2
aVhttps://www.clarin.com/sociedad/ceremonia-adios-chau-Disparador_0_1664833645.html
p3
aVhttps://www.clarin.com/opinion/despegue-democracia_0_1664833644.html
p4
aVhttps://www.clarin.com/opinion/invertir-policia-seguridad-publica-ciudadania_0_1664833642.html
p5
aVhttps://www.clarin.com/opinion/invertir-policia-seguridad-publica-ciudadania_0_1664833642.html
p6
aVhttps://www.clarin.com/politica/Estructura-satisfaccion-politica_0_1664833640.html
p7
aVhttps://www.clarin.com/opinion/Alicia-Gustavo-Berti-perder-volver_0_1664833639.html
p8
aVhttps://www.clarin.com/opinion/Alicia-Gustavo-Berti-perder-volver_0_1664833639.html
p9
a.