(lp0
S'https://www.clarin.com/ieco/economia/Vajilla-hogarena-pintada-mano_0_1497450475.html'
p1
aS'https://www.clarin.com/ieco/economia/Mirando-millennials-hoteles-nuevas-marcas_0_1497450493.html'
p2
aS'https://www.clarin.com/ieco/economia/audiencias-tendencias_0_1497450472.html'
p3
aS'https://www.clarin.com/ieco/economia/ofrecen-promesas-diversion-mejores-servicios_0_1497450465.html'
p4
aS'https://www.clarin.com/ieco/economia/Recta-final-dolar-link_0_1497450491.html'
p5
aS'https://www.clarin.com/ieco/economia/mercado-busca-nuevo-equilibrio_0_1497450489.html'
p6
aS'https://www.clarin.com/ieco/economia/complejo-trabajo-enjaular-inflacion-desbocada_0_1497450462.html'
p7
aS'https://www.clarin.com/ieco/economia/planes-aplican-empresas-puestos-clave_0_1497450471.html'
p8
aS'https://www.clarin.com/ieco/economia/shale-quedando-recursos-resistir-presion_0_1497450459.html'
p9
aS'https://www.clarin.com/ieco/economia/mobile-estrella-marketing_0_1497450466.html'
p10
aS'https://www.clarin.com/ieco/economia/Redisenan-tiendas-atraer-consumidores_0_1497450467.html'
p11
aS'https://www.clarin.com/ieco/economia/Lecturas-verano-crear-crecer-inicia_0_1497450463.html'
p12
a.