(lp0
Vhttps://www.clarin.com/opinion/viento-sol-patria_0_1689431177.html
p1
aVhttps://www.clarin.com/politica/Gobierno-decidio-destino-Antonini-Wilson_0_1689431175.html
p2
aVhttps://www.clarin.com/politica/Gobierno-decidio-destino-Antonini-Wilson_0_1689431175.html
p3
aVhttps://www.clarin.com/opinion/Concursos-ingresar_0_1689431173.html
p4
aVhttps://www.clarin.com/sociedad/Bandejas-fanas-vinilo_0_1689431169.html
p5
aVhttps://www.clarin.com/sociedad/Bandejas-fanas-vinilo_0_1689431169.html
p6
aVhttps://www.clarin.com/politica/Dolar-Bonadio-rechazo-Cristina-juicio_0_1689431167.html
p7
aVhttps://www.clarin.com/politica/Dolar-Bonadio-rechazo-Cristina-juicio_0_1689431167.html
p8
aVhttps://www.clarin.com/politica/Schmid-trabajador-capitales-rebolea-millones_0_1689431168.html
p9
aVhttps://www.clarin.com/politica/Schmid-trabajador-capitales-rebolea-millones_0_1689431168.html
p10
aVhttps://www.clarin.com/politica/Mario-Negri-kirchnerismo-dinamita-Gobierno_0_1689431160.html
p11
aVhttps://www.clarin.com/politica/Mario-Negri-kirchnerismo-dinamita-Gobierno_0_1689431160.html
p12
a.