(lp0
S'https://www.clarin.com/politica/nisman-pinedo_0_1507049621.html'
p1
aS'https://www.clarin.com/ieco/economia/Bolsa-rebota-dolar-opera-estable_0_1507049517.html'
p2
aS'https://www.clarin.com/politica/Salvatierra-Indoamericano_0_1507049643.html'
p3
aS'https://www.clarin.com/ieco/emprendedores/escaner-celular_0_1507049615.html'
p4
aS'https://www.clarin.com/politica/Macri-Cameron-Malvinas-Argentina-Reino_Unido-Davos_0_1507049632.html'
p5
a.