(lp0
Vhttps://www.clarin.com/sociedad/Gracias-solidaria-sindrome-Down-festejar_0_1586241450.html
p1
aVhttps://www.clarin.com/sociedad/Gracias-solidaria-sindrome-Down-festejar_0_1586241450.html
p2
aVhttps://www.clarin.com/sociedad/madre-nene-metio-gorila-defiende_0_1586241457.html
p3
aVhttps://www.clarin.com/sociedad/madre-nene-metio-gorila-defiende_0_1586241457.html
p4
aVhttps://www.clarin.com/politica/Tucuman-DAIA-reclamo-Justicia-atentado_0_1586241451.html
p5
aVhttps://www.clarin.com/politica/Tucuman-DAIA-reclamo-Justicia-atentado_0_1586241451.html
p6
aVhttps://www.clarin.com/politica/estudiar-Massa-Paris_0_1586241448.html
p7
aVhttps://www.clarin.com/politica/estudiar-Massa-Paris_0_1586241448.html
p8
a.