(lp0
S'https://www.clarin.com/sociedad/Apartaron-Catamarca-docente-denunciado-alumno_0_1593440703.html'
p1
aS'https://www.clarin.com/sociedad/Apartaron-Catamarca-docente-denunciado-alumno_0_1593440703.html'
p2
aS'https://www.clarin.com/sociedad/Vuelos-cancelados-caos-Aeroparque-controladores_0_1593440699.html'
p3
aS'https://www.clarin.com/sociedad/Vuelos-cancelados-caos-Aeroparque-controladores_0_1593440699.html'
p4
aS'https://www.clarin.com/sociedad/gol-ingleses-cientifico-argentino-Antartida_0_1592840849.html'
p5
aS'https://www.clarin.com/sociedad/gol-ingleses-cientifico-argentino-Antartida_0_1592840849.html'
p6
aS'https://www.clarin.com/sociedad/Asesinan-EEUU-cantante-The-Voice_0_1593440693.html'
p7
a.