(lp0
S'https://www.clarin.com/politica/Gobierno-acusan-fiscal-fuga-barrabrava_0_1603639637.html'
p1
aS'https://www.clarin.com/politica/Suspenden-indagatoria-Milani-prevista-hoy_0_1603639645.html'
p2
aS'https://www.clarin.com/politica/Casanello-anos-ahora-quiere-presionar_0_1603639647.html'
p3
aS'https://www.clarin.com/politica/Reaparecio-Carta-Abierta-Lopez-arquetipo_0_1603639641.html'
p4
aS'https://www.clarin.com/ieco/economia/Creditos-hipotecarios-Nacion-pesos-anual_0_1603639640.html'
p5
aS'https://www.clarin.com/politica/cancelo-vuelo-Cobos-durmio-aeropuerto_0_1603639649.html'
p6
a.