(lp0
Vhttps://www.clarin.com/politica/Declaran-vecinos-Nisman-torre-Parc_0_1679232148.html
p1
aVhttps://www.clarin.com/politica/Declaran-vecinos-Nisman-torre-Parc_0_1679232148.html
p2
aVhttps://www.clarin.com/sociedad/hermanos-canadienses-Halloween-castillo-Dracula_0_1679232145.html
p3
aVhttps://www.clarin.com/sociedad/hermanos-canadienses-Halloween-castillo-Dracula_0_1679232145.html
p4
aVhttps://www.clarin.com/ieco/AYSA-servicio-cloacas-partidos-bonaerenses_0_1679232143.html
p5
aVhttps://www.clarin.com/ieco/AYSA-servicio-cloacas-partidos-bonaerenses_0_1679232143.html
p6
aVhttps://www.clarin.com/politica/paso-Cristina-Tribunales-actores-politicos_0_1679232129.html
p7
aVhttps://www.clarin.com/politica/paso-Cristina-Tribunales-actores-politicos_0_1679232129.html
p8
aVhttps://www.clarin.com/politica/Llegan-Canada-Zelanda-Corea-Malasia_0_1679232132.html
p9
aVhttps://www.clarin.com/politica/Llegan-Canada-Zelanda-Corea-Malasia_0_1679232132.html
p10
aVhttps://www.clarin.com/sociedad/Prohiben-uso-marca-protesis-mamarias_0_1679232131.html
p11
aVhttps://www.clarin.com/sociedad/Prohiben-uso-marca-protesis-mamarias_0_1679232131.html
p12
a.