(lp0
S'https://www.clarin.com/sociedad/ensenanza-centrada-capacidades_0_1647435444.html'
p1
aS'https://www.clarin.com/sociedad/plan-formar-educadores-solidos_0_1647435446.html'
p2
aS'https://www.clarin.com/sociedad/Mejorar-formacion-clave-prestigiar-docencia_0_1647435448.html'
p3
aS'https://www.clarin.com/sociedad/Ganaron-vuelve-trabajar-maestra-cancer_0_1647435440.html'
p4
aS'https://www.clarin.com/sociedad/Habilidades-aptitudes-aprender-toda-vida_0_1647435443.html'
p5
aS'https://www.clarin.com/sociedad/Proponen-actuales-materias-proyectos-educativos_0_1647435445.html'
p6
aS'https://www.clarin.com/sociedad/necesario-definir-espera-maestros_0_1647435447.html'
p7
a.