(lp0
S'https://www.clarin.com/ieco/economia/Creen-blanqueo-acelerara-inmuebles-capitales_0_1630037135.html'
p1
aS'https://www.clarin.com/politica/Hebe-Madres-respondio-Macri-desaparecidos_0_1630037158.html'
p2
aS'https://www.clarin.com/ieco/economia/Llegan-turistas-aumenta-viajeros-exterior_0_1630037145.html'
p3
aS'https://www.clarin.com/sociedad/Mira-video-recuerdo-amiga-Daiana_0_1630037164.html'
p4
aS'https://www.clarin.com/politica/Reintegraron-IVA-jubilados-tenedores-planes_0_1630037157.html'
p5
a.