(lp0
S'https://www.clarin.com/politica/Macri-Lifschitz-pactaran-envio-detectives_0_1648035280.html'
p1
aS'https://www.clarin.com/sociedad/estafaron-promocion-logro-empresa-castigada_0_1648635152.html'
p2
aS'https://www.clarin.com/ieco/economia/evolucion-pirotecnia_0_1648035299.html'
p3
aS'https://www.clarin.com/ieco/economia/super-optimista-pais-proximos-anos_0_1647435408.html'
p4
aS'https://www.clarin.com/sociedad/Facundo-Manes-entendemos-funciona-podemos_0_1648635129.html'
p5
aS'https://www.clarin.com/ieco/Innovacion-vision-futuro_0_1647435406.html'
p6
aS'https://www.clarin.com/sociedad/conocer-cerebro_0_1648635128.html'
p7
aS'https://www.clarin.com/ieco/economia/sirve-foro-pymes_0_1647435405.html'
p8
aS'https://www.clarin.com/ieco/economia/mundo-ve-positivamente-Argentina-cautela_0_1647435404.html'
p9
a.