(lp0
S'https://www.clarin.com/politica/Peronismo-Agosto-encuentro-gobernadores-intendentes_0_1638436185.html'
p1
aS'https://www.clarin.com/politica/Peronismo-Agosto-encuentro-gobernadores-intendentes_0_1638436185.html'
p2
aS'https://www.clarin.com/ieco/Gobierno-volvio-insistir-inflacion-bajando_0_1638436180.html'
p3
aS'https://www.clarin.com/ieco/Gobierno-volvio-insistir-inflacion-bajando_0_1638436180.html'
p4
aS'https://www.clarin.com/sociedad/ritual-Pachamama-realizara-primera-Obelisco_0_1637836404.html'
p5
aS'https://www.clarin.com/sociedad/ritual-Pachamama-realizara-primera-Obelisco_0_1637836404.html'
p6
aS'https://www.clarin.com/sociedad/Descubren-planeta-cercano-podria-vida_0_1638436178.html'
p7
aS'https://www.clarin.com/sociedad/Descubren-planeta-cercano-podria-vida_0_1638436178.html'
p8
aS'https://www.clarin.com/politica/Perla-conocera-sentencia-cometidos-detencion_0_1638436173.html'
p9
aS'https://www.clarin.com/politica/Perla-conocera-sentencia-cometidos-detencion_0_1638436173.html'
p10
a.