(lp0
Vhttps://www.clarin.com/sociedad/Esquiaron-bikini-intento-record-Guinness_0_1558044360.html
p1
aVhttps://www.clarin.com/sociedad/Esquiaron-bikini-intento-record-Guinness_0_1558044360.html
p2
aVhttps://www.clarin.com/ieco/Obtiene-dictamen-proyecto-endeudamientos-oficial_0_1558044357.html
p3
aVhttps://www.clarin.com/politica/faltaron-aguante-Cristina_0_1558044351.html
p4
aVhttps://www.clarin.com/politica/faltaron-aguante-Cristina_0_1558044351.html
p5
aVhttps://www.clarin.com/sociedad/Escandalo-Neuquen-cruzaron-escuela-denuncia_0_1558044350.html
p6
aVhttps://www.clarin.com/sociedad/Escandalo-Neuquen-cruzaron-escuela-denuncia_0_1558044350.html
p7
aVhttps://www.clarin.com/politica/Cristina-gobierno-Macri-Yrigoyen-Peron_0_1558044344.html
p8
aVhttps://www.clarin.com/politica/Cristina-gobierno-Macri-Yrigoyen-Peron_0_1558044344.html
p9
aVhttps://www.clarin.com/politica/llegada-Boudou-abrazos-militancia-Cristina_0_1558044341.html
p10
aVhttps://www.clarin.com/politica/llegada-Boudou-abrazos-militancia-Cristina_0_1558044341.html
p11
aVhttps://www.clarin.com/politica/Cristina-sonriente-insultos-Bonadio-edificio_0_1558044340.html
p12
aVhttps://www.clarin.com/politica/Cristina-sonriente-insultos-Bonadio-edificio_0_1558044340.html
p13
aVhttps://www.clarin.com/sociedad/firmas-pedir-decana-cerro-Facultad_0_1558044338.html
p14
aVhttps://www.clarin.com/sociedad/firmas-pedir-decana-cerro-Facultad_0_1558044338.html
p15
aVhttps://www.clarin.com/ieco/necesita-Plan-Marshall-refugiados_0_1558044335.html
p16
aVhttps://www.clarin.com/ieco/necesita-Plan-Marshall-refugiados_0_1558044335.html
p17
a.