(lp0
S'https://www.clarin.com/politica/ultimo-militar-Iglesia-sanar-pasado_0_1543645806.html'
p1
aS'https://www.clarin.com/politica/Guillermo-Moreno-Lazaro-Baez-conozco_0_1543645809.html'
p2
aS'https://www.clarin.com/politica/Maximo-Cristina-Kirchner-persecucion-notoria_0_1543645811.html'
p3
a.