(lp0
Vhttps://www.clarin.com/sociedad/farmaceuticos-remedios-subieron-ano_0_1582641905.html
p1
aVhttps://www.clarin.com/ieco/economia/Suspenden-meses-trabajadores-Gafa_0_1582641886.html
p2
aVhttps://www.clarin.com/politica/Vido-ahora-imputado-Santiago-Estero_0_1582641902.html
p3
aVhttps://www.clarin.com/politica/Vido-ahora-imputado-Santiago-Estero_0_1582641902.html
p4
aVhttps://www.clarin.com/politica/Indagatoria-Boudou-compra-autos-Economia_0_1582641898.html
p5
aVhttps://www.clarin.com/politica/Indagatoria-Boudou-compra-autos-Economia_0_1582641898.html
p6
aVhttps://www.clarin.com/politica/Presencia-argentina-foros-internacionales_0_1582641894.html
p7
aVhttps://www.clarin.com/politica/Presencia-argentina-foros-internacionales_0_1582641894.html
p8
aVhttps://www.clarin.com/politica/Insolito-Oyarbide-TV-bailar-coreografia_0_1582641896.html
p9
aVhttps://www.clarin.com/politica/Insolito-Oyarbide-TV-bailar-coreografia_0_1582641896.html
p10
aVhttps://www.clarin.com/politica/seminario-reforzaran-alianza-Israel-Seguridad_0_1582641875.html
p11
aVhttps://www.clarin.com/politica/seminario-reforzaran-alianza-Israel-Seguridad_0_1582641875.html
p12
a.