(lp0
Vhttps://www.clarin.com/sociedad/Condenaron-carcel-hombre-abuso-hijas_0_1604839701.html
p1
aVhttps://www.clarin.com/sociedad/Condenaron-carcel-hombre-abuso-hijas_0_1604839701.html
p2
aVhttps://www.clarin.com/politica/Investigan-intento-huir-avion_0_1604839685.html
p3
aVhttps://www.clarin.com/politica/Dura-critica-Auditoria-empresa-bonaerense_0_1604839688.html
p4
aVhttps://www.clarin.com/sociedad/trenes-Rawson-Ferrobaires-suspendio-servicios_0_1604839681.html
p5
aVhttps://www.clarin.com/sociedad/trenes-Rawson-Ferrobaires-suspendio-servicios_0_1604839681.html
p6
aVhttps://www.clarin.com/ieco/economia/futuro-Banco-Central-perdio-millones_0_1604839678.html
p7
aVhttps://www.clarin.com/ieco/economia/futuro-Banco-Central-perdio-millones_0_1604839678.html
p8
a.