(lp0
Vhttps://www.clarin.com/politica/Investigan-sciolismo-facturas-truchas-justificar_0_1661233987.html
p1
aVhttps://www.clarin.com/politica/Investigan-sciolismo-facturas-truchas-justificar_0_1661233987.html
p2
aVhttps://www.clarin.com/sociedad/grieta-casa-ordenado-desordenados-resisten_0_1661234010.html
p3
aVhttps://www.clarin.com/sociedad/grieta-casa-ordenado-desordenados-resisten_0_1661234010.html
p4
aVhttps://www.clarin.com/sociedad/Buscan-Puna-jesuitica-circuitos-turisticos_0_1661234009.html
p5
aVhttps://www.clarin.com/sociedad/pasado-ano-nuevos-casos-lepra_0_1661234005.html
p6
aVhttps://www.clarin.com/sociedad/pasado-ano-nuevos-casos-lepra_0_1661234005.html
p7
aVhttps://www.clarin.com/sociedad/Test-drogas-positivo-choferes-Bariloche_0_1661234000.html
p8
aVhttps://www.clarin.com/sociedad/Test-drogas-positivo-choferes-Bariloche_0_1661234000.html
p9
aVhttps://www.clarin.com/ieco/economia/Ley-Comunicaciones-Buscamos-calidad-accesibles_0_1661233997.html
p10
aVhttps://www.clarin.com/ieco/economia/Ley-Comunicaciones-Buscamos-calidad-accesibles_0_1661233997.html
p11
a.