(lp0
S'https://www.clarin.com/ieco/septiembre-desacelero-caida-consumo_0_1656434430.html'
p1
aS'https://www.clarin.com/opinion/Domingos-guardias-medicas-pueblan-historias_0_1656434431.html'
p2
aS'https://www.clarin.com/opinion/Domingos-guardias-medicas-pueblan-historias_0_1656434431.html'
p3
aS'https://www.clarin.com/politica/Duhalde-Alguien-creer-Scioli-sabia_0_1656434428.html'
p4
aS'https://www.clarin.com/politica/Duhalde-Alguien-creer-Scioli-sabia_0_1656434428.html'
p5
aS'https://www.clarin.com/opinion/buitres-significo-derrota-total-Argentina_0_1656434427.html'
p6
aS'https://www.clarin.com/opinion/buitres-significo-derrota-total-Argentina_0_1656434427.html'
p7
aS'https://www.clarin.com/politica/Ritondo-denunciar-tiempo-comisaria-detenido_0_1656434422.html'
p8
aS'https://www.clarin.com/politica/Ritondo-denunciar-tiempo-comisaria-detenido_0_1656434422.html'
p9
a.