(lp0
Vhttps://www.clarin.com/sociedad/uso-medicinal-debate-pendiente-Argentina_0_1522048203.html
p1
aVhttps://www.clarin.com/ieco/cara-dolorosa-inflacion_0_1522647789.html
p2
aVhttps://www.clarin.com/politica/Transicion-economica-costo-desconocido_0_1522647785.html
p3
aVhttps://www.clarin.com/opinion/sistema_educativo-ensenanza_primaria-ensenanza_media-calendario_escolar_0_1522647782.html
p4
aVhttps://www.clarin.com/opinion/sistema_educativo-ensenanza_primaria-ensenanza_media-calendario_escolar_0_1522647781.html
p5
aVhttps://www.clarin.com/opinion/Dialogo_politico-negociacion-acuerdos-Congreso_0_1522647780.html
p6
aVhttps://www.clarin.com/opinion/Alberto_Grimoldi-zapatos-industria_nacional_0_1522647779.html
p7
aVhttps://www.clarin.com/opinion/Alberto_Grimoldi-zapatos-industria_nacional_0_1522647779.html
p8
aVhttps://www.clarin.com/opinion/Costanera_Sur-camioneros-puerto-villa_Rodrigo_Bueno_0_1522647778.html
p9
aVhttps://www.clarin.com/opinion/Costanera_Sur-camioneros-puerto-villa_Rodrigo_Bueno_0_1522647778.html
p10
aVhttps://www.clarin.com/opinion/Carlos_Altschul-cambio_organizacional-liderazgo-nuevos_paradigmas_0_1522647776.html
p11
aVhttps://www.clarin.com/opinion/Carlos_Altschul-cambio_organizacional-liderazgo-nuevos_paradigmas_0_1522647776.html
p12
aVhttps://www.clarin.com/sociedad/marihuana-permite-vivir-hija_0_1522048201.html
p13
a.