(lp0
Vhttps://www.clarin.com/sociedad/Sorpresa-zoo-panda-luz-mellizos_0_1633036707.html
p1
aVhttps://www.clarin.com/sociedad/Sorpresa-zoo-panda-luz-mellizos_0_1633036707.html
p2
aVhttps://www.clarin.com/sociedad/hirio-joven-cuchillo-discusion-transito_0_1633036706.html
p3
aVhttps://www.clarin.com/sociedad/hirio-joven-cuchillo-discusion-transito_0_1633036706.html
p4
aVhttps://www.clarin.com/politica/Cristina-cerca-acusada-asociacion-ilicita_0_1632436881.html
p5
aVhttps://www.clarin.com/politica/Cristina-cerca-acusada-asociacion-ilicita_0_1632436881.html
p6
aVhttps://www.clarin.com/politica/Piden-indagatoria-Cristina-publica-Baez_0_1632436884.html
p7
aVhttps://www.clarin.com/politica/Piden-indagatoria-Cristina-publica-Baez_0_1632436884.html
p8
aVhttps://www.clarin.com/politica/Rosario-controlara-precursores-quimicos_0_1633036695.html
p9
aVhttps://www.clarin.com/politica/Rosario-controlara-precursores-quimicos_0_1633036695.html
p10
a.