(lp0
Vhttps://www.clarin.com/politica/Mauricio-Macri-descarto-reeleccion_0_1667233329.html
p1
aVhttps://www.clarin.com/politica/Mauricio-Macri-descarto-reeleccion_0_1667233329.html
p2
aVhttps://www.clarin.com/sociedad/Crean-medidor-gasto-monitorear-celular_0_1667233324.html
p3
aVhttps://www.clarin.com/sociedad/Crean-medidor-gasto-monitorear-celular_0_1667233324.html
p4
aVhttps://www.clarin.com/sociedad/Video-esfuerzo-ballena-liberar-madre_0_1667233313.html
p5
aVhttps://www.clarin.com/sociedad/Video-esfuerzo-ballena-liberar-madre_0_1667233313.html
p6
aVhttps://www.clarin.com/sociedad/triste-enojado-duplica-riesgo-infarto_0_1667233316.html
p7
aVhttps://www.clarin.com/sociedad/triste-enojado-duplica-riesgo-infarto_0_1667233316.html
p8
aVhttps://www.clarin.com/ieco/jubilados-podran-adherir-Reparacion-Historica_0_1667233315.html
p9
aVhttps://www.clarin.com/ieco/jubilados-podran-adherir-Reparacion-Historica_0_1667233315.html
p10
aVhttps://www.clarin.com/politica/Maria-Julia-Alsogaray-prision-domiciliaria_0_1667233312.html
p11
a.