(lp0
Vhttps://www.clarin.com/politica/Bonadio-Cristina-Kirchner-futuro-noviembre_0_1688831169.html
p1
aVhttps://www.clarin.com/politica/Bonadio-Cristina-Kirchner-futuro-noviembre_0_1688831169.html
p2
aVhttps://www.clarin.com/sociedad/arcangel-muerte-brutal-femicida-preso_0_1688831167.html
p3
a.