(lp0
S'https://www.clarin.com/politica/INADI-accionara-senador-Pichetto-inmigracion_0_1680432062.html'
p1
aS'https://www.clarin.com/politica/INADI-accionara-senador-Pichetto-inmigracion_0_1680432062.html'
p2
aS'https://www.clarin.com/politica/Confirmaron-embargo-millones-Florencia-Kirchner_0_1680432060.html'
p3
aS'https://www.clarin.com/politica/Confirmaron-embargo-millones-Florencia-Kirchner_0_1680432060.html'
p4
aS'https://www.clarin.com/politica/Cristina-catarata-proyecto-boleta-electronica_0_1680432055.html'
p5
aS'https://www.clarin.com/politica/Cristina-catarata-proyecto-boleta-electronica_0_1680432055.html'
p6
a.