(lp0
Vhttps://www.clarin.com/ieco/Audiencias-interior-escaso-publico-incidentes_0_1651634972.html
p1
aVhttps://www.clarin.com/ieco/Audiencias-interior-escaso-publico-incidentes_0_1651634972.html
p2
aVhttps://www.clarin.com/politica/Amor-Defensores-Pueblo-defendemos-personas_0_1651634970.html
p3
aVhttps://www.clarin.com/politica/Amor-Defensores-Pueblo-defendemos-personas_0_1651634970.html
p4
aVhttps://www.clarin.com/politica/Aerolineas-Macri-privado-Nueva-York_0_1651634969.html
p5
a.