(lp0
Vhttps://www.clarin.com/ieco/economia/escandalo-VW-revelan-irregularidades-marcas_0_1563443749.html
p1
aVhttps://www.clarin.com/ieco/economia/escandalo-VW-revelan-irregularidades-marcas_0_1563443749.html
p2
aVhttps://www.clarin.com/politica/blooper-Macri-bandera-argentina_0_1563443747.html
p3
aVhttps://www.clarin.com/politica/blooper-Macri-bandera-argentina_0_1563443747.html
p4
aVhttps://www.clarin.com/sociedad/justifico-Burlando-Adrian-Conci-profugo_0_1563443741.html
p5
aVhttps://www.clarin.com/sociedad/justifico-Burlando-Adrian-Conci-profugo_0_1563443741.html
p6
a.