(lp0
S'https://www.clarin.com/politica/Ordenan-resguardar-seguridad-Florencia-Kirchner_0_1612038982.html'
p1
aS'https://www.clarin.com/politica/Ordenan-resguardar-seguridad-Florencia-Kirchner_0_1612038982.html'
p2
aS'https://www.clarin.com/opinion/sobreviviente-A-7713-indiferencia_0_1612038940.html'
p3
aS'https://www.clarin.com/opinion/Auditoria-informacion-veraz_0_1612038915.html'
p4
aS'https://www.clarin.com/opinion/plan-economico-volver-crecer_0_1612038943.html'
p5
aS'https://www.clarin.com/opinion/plan-economico-volver-crecer_0_1612038943.html'
p6
aS'https://www.clarin.com/politica/Macri-triple-encrucijada_0_1612638724.html'
p7
aS'https://www.clarin.com/politica/Macri-triple-encrucijada_0_1612638724.html'
p8
aS'https://www.clarin.com/politica/Moyano-tiempo-salir-pelear-lejano_0_1612038979.html'
p9
aS'https://www.clarin.com/politica/Moyano-tiempo-salir-pelear-lejano_0_1612038979.html'
p10
aS'https://www.clarin.com/ieco/IPC-Congreso-jubilacion-minima-perdio-inflacion_0_1612038978.html'
p11
aS'https://www.clarin.com/politica/Pereyra-anuncio-deja-gremio-petroleros_0_1612038962.html'
p12
aS'https://www.clarin.com/politica/crisis-acabar_0_1612638723.html'
p13
aS'https://www.clarin.com/politica/Gestion-clave-Macri-Lorenzetti-tarifas_0_1612038981.html'
p14
aS'https://www.clarin.com/politica/Gestion-clave-Macri-Lorenzetti-tarifas_0_1612038981.html'
p15
aS'https://www.clarin.com/politica/hermanos-ligados-Vido-millonarios-record_0_1609039255.html'
p16
aS'https://www.clarin.com/politica/hermanos-ligados-Vido-millonarios-record_0_1609039255.html'
p17
aS'https://www.clarin.com/politica/Florencia-Kirchner-socia-empleada-sospechada_0_1612038909.html'
p18
aS'https://www.clarin.com/politica/Florencia-Kirchner-socia-empleada-sospechada_0_1612038909.html'
p19
a.