(lp0
S'https://www.clarin.com/sociedad/ocio-ordena-caos_0_1559244431.html'
p1
aS'https://www.clarin.com/sociedad/Evento-origen-aleman-convoca-multitudes_0_1559844176.html'
p2
aS'https://www.clarin.com/sociedad/Mundos-intimos-quedarme-quieta-desespera_0_1558044564.html'
p3
aS'https://www.clarin.com/sociedad/heridos-choque-multiple-autopista-Plata_0_1559844168.html'
p4
aS'https://www.clarin.com/sociedad/Academia-cervecera-lecciones-aprender-experto_0_1559244410.html'
p5
aS'https://www.clarin.com/sociedad/jovenes-muertos-electronica-Costa-Salguero_0_1559844158.html'
p6
a.