(lp0
Vhttps://www.clarin.com/sociedad/cantidad-muertos-Santa-Fe-Gripe_0_1603039804.html
p1
aVhttps://www.clarin.com/sociedad/cantidad-muertos-Santa-Fe-Gripe_0_1603039804.html
p2
aVhttps://www.clarin.com/sociedad/Time-Warp-procesaron-prefectos_0_1603039802.html
p3
aVhttps://www.clarin.com/sociedad/Time-Warp-procesaron-prefectos_0_1603039802.html
p4
aVhttps://www.clarin.com/politica/senadora-enojo-Cristina-dejo-llamarla_0_1603039799.html
p5
aVhttps://www.clarin.com/politica/senadora-enojo-Cristina-dejo-llamarla_0_1603039799.html
p6
aVhttps://www.clarin.com/ieco/economia/fuerte-demanda-bancos-salto-centavos_0_1603039783.html
p7
aVhttps://www.clarin.com/ieco/economia/fuerte-demanda-bancos-salto-centavos_0_1603039783.html
p8
aVhttps://www.clarin.com/ieco/economia/Segundo-impacto-Brexit-continuan-medida_0_1603039789.html
p9
aVhttps://www.clarin.com/ieco/economia/Segundo-impacto-Brexit-continuan-medida_0_1603039789.html
p10
a.