(lp0
Vhttps://www.clarin.com/ieco/Empiezan-llegar-facturas-pago-invierno_0_1654634710.html
p1
aVhttps://www.clarin.com/ieco/Empiezan-llegar-facturas-pago-invierno_0_1654634710.html
p2
aVhttps://www.clarin.com/ieco/economia/Retenciones-prometida-rebaja-figura-Presupuesto_0_1654634728.html
p3
aVhttps://www.clarin.com/ieco/economia/Retenciones-prometida-rebaja-figura-Presupuesto_0_1654634728.html
p4
aVhttps://www.clarin.com/ieco/economia/Paolo-Rocca-necesitamos-ausente_0_1654634727.html
p5
aVhttps://www.clarin.com/ieco/economia/Paolo-Rocca-necesitamos-ausente_0_1654634727.html
p6
aVhttps://www.clarin.com/politica/Inmuebles-dolar-tasas-reves_0_1654634653.html
p7
aVhttps://www.clarin.com/politica/Inmuebles-dolar-tasas-reves_0_1654634653.html
p8
aVhttps://www.clarin.com/opinion/macristas-apuros_0_1655234461.html
p9
aVhttps://www.clarin.com/politica/Moreno-Ocampo-Intratables-Cristina-Kirchner_0_1654634735.html
p10
aVhttps://www.clarin.com/politica/Moreno-Ocampo-Intratables-Cristina-Kirchner_0_1654634735.html
p11
aVhttps://www.clarin.com/politica/Carrio-Gobierno-Scioli-asociacion-ilicita_0_1654634729.html
p12
aVhttps://www.clarin.com/politica/Carrio-Gobierno-Scioli-asociacion-ilicita_0_1654634729.html
p13
aVhttps://www.clarin.com/politica/Presupuesto-peronismo-exige-cambios-clave_0_1654634726.html
p14
aVhttps://www.clarin.com/sociedad/Descontrol-muerte-fiesta-drogas-armas_0_1654634724.html
p15
aVhttps://www.clarin.com/sociedad/Descontrol-muerte-fiesta-drogas-armas_0_1654634724.html
p16
aVhttps://www.clarin.com/sociedad/Palermo-contracara-futbol-musica-alcohol_0_1654634725.html
p17
aVhttps://www.clarin.com/sociedad/Palermo-contracara-futbol-musica-alcohol_0_1654634725.html
p18
a.