(lp0
Vhttps://www.clarin.com/sociedad/apagon-dejo-gran-parte-Rosario_0_1532847087.html
p1
aVhttps://www.clarin.com/sociedad/Confirman-mil-casos-dengue-pais_0_1532847073.html
p2
aVhttps://www.clarin.com/sociedad/Confirman-mil-casos-dengue-pais_0_1532847073.html
p3
aVhttps://www.clarin.com/sociedad/Dengue-elevan-alerta-Provincia_0_1532847053.html
p4
aVhttps://www.clarin.com/sociedad/Dengue-elevan-alerta-Provincia_0_1532847053.html
p5
a.