(lp0
Vhttps://www.clarin.com/ieco/economia/malbec-francia_0_1515448917.html
p1
aVhttps://www.clarin.com/ieco/economia/tarifas-electricidad_0_1515448916.html
p2
aVhttps://www.clarin.com/ieco/economia/inflacion-enero_0_1515448915.html
p3
aVhttps://www.clarin.com/sociedad/Cumbre-ministros-Salud-region-tratar_0_1516048448.html
p4
aVhttps://www.clarin.com/sociedad/Cumbre-ministros-Salud-region-tratar_0_1516048448.html
p5
aVhttps://www.clarin.com/sociedad/realidad-virtual-bajar-web-visor-gratis_0_1515448864.html
p6
aVhttps://www.clarin.com/sociedad/realidad-virtual-bajar-web-visor-gratis_0_1515448864.html
p7
aVhttps://www.clarin.com/politica/carne-publico-dificilmente-baje_0_1516048421.html
p8
aVhttps://www.clarin.com/politica/medio-tension-PJ-comienza-eleccion_0_1516048422.html
p9
aVhttps://www.clarin.com/politica/cristal-mire_0_1516048417.html
p10
aVhttps://www.clarin.com/politica/peronismo-despereza_0_1516048414.html
p11
a.