(lp0
Vhttps://www.clarin.com/politica/Obama-elogio-Macri-Cristina-antiestadounidense_0_1540046351.html
p1
aVhttps://www.clarin.com/politica/Obama-elogio-Macri-Cristina-antiestadounidense_0_1540046351.html
p2
aVhttps://www.clarin.com/sociedad/asesino-punaladas-golpeaba-casco_0_1540046348.html
p3
aVhttps://www.clarin.com/sociedad/asesino-punaladas-golpeaba-casco_0_1540046348.html
p4
aVhttps://www.clarin.com/politica/AFIP-presento-denuncia-penal-Indalo_0_1540046340.html
p5
aVhttps://www.clarin.com/politica/Intendentes-distancia-Cristina-Randazzo-Pichetto_0_1540046338.html
p6
aVhttps://www.clarin.com/politica/presidente-EEUU-homenaje-Parque-Memoria_0_1540046337.html
p7
aVhttps://www.clarin.com/politica/presidente-EEUU-homenaje-Parque-Memoria_0_1540046337.html
p8
aVhttps://www.clarin.com/opinion/playas-infancia_0_1540046333.html
p9
aVhttps://www.clarin.com/politica/Piden-Obama-desclasifique-documentos-dictadura_0_1540046327.html
p10
aVhttps://www.clarin.com/ieco/economia/Consultora-privada-espera-inflacion-marzo_0_1540046311.html
p11
a.