(lp0
Vhttps://www.clarin.com/ieco/venta-autos-usados-cayo-julio_0_1632436771.html
p1
aVhttps://www.clarin.com/ieco/venta-autos-usados-cayo-julio_0_1632436771.html
p2
aVhttps://www.clarin.com/ieco/empresa-Bitcoin-comienza-creditos-usuarios_0_1632436770.html
p3
aVhttps://www.clarin.com/ieco/empresa-Bitcoin-comienza-creditos-usuarios_0_1632436770.html
p4
aVhttps://www.clarin.com/sociedad/Recoleta-clausuran-obligaban-empleadas-prostituirse_0_1632436767.html
p5
aVhttps://www.clarin.com/sociedad/Recoleta-clausuran-obligaban-empleadas-prostituirse_0_1632436767.html
p6
aVhttps://www.clarin.com/sociedad/Desesperada-chico-sufria-bullying-suicido_0_1632436765.html
p7
aVhttps://www.clarin.com/sociedad/Desesperada-chico-sufria-bullying-suicido_0_1632436765.html
p8
aVhttps://www.clarin.com/politica/detenidos-Macri-fiscal-observa-agresion_0_1632436762.html
p9
aVhttps://www.clarin.com/politica/detenidos-Macri-fiscal-observa-agresion_0_1632436762.html
p10
aVhttps://www.clarin.com/ieco/empresas-colocaron-US-millones-ano_0_1632436761.html
p11
aVhttps://www.clarin.com/ieco/empresas-colocaron-US-millones-ano_0_1632436761.html
p12
a.