(lp0
Vhttps://www.clarin.com/ieco/economia/fondo-dice-trabas-invertir-Argentina_0_1685231522.html
p1
aVhttps://www.clarin.com/ieco/economia/fondo-dice-trabas-invertir-Argentina_0_1685231522.html
p2
aVhttps://www.clarin.com/sociedad/Mendoza-suma-movida-festivales-gastronomicos_0_1685231518.html
p3
aVhttps://www.clarin.com/sociedad/Mendoza-suma-movida-festivales-gastronomicos_0_1685231518.html
p4
aVhttps://www.clarin.com/politica/Milani-candidato-aventura-Guillermo-Moreno_0_1685231509.html
p5
aVhttps://www.clarin.com/politica/Milani-candidato-aventura-Guillermo-Moreno_0_1685231509.html
p6
aVhttps://www.clarin.com/sociedad/reacciona-vegetariana-volvio-comer-despues_0_1685231511.html
p7
aVhttps://www.clarin.com/sociedad/reacciona-vegetariana-volvio-comer-despues_0_1685231511.html
p8
aVhttps://www.clarin.com/ieco/Alibaba-incluir-productos-argentinos-plataforma_0_1685231508.html
p9
aVhttps://www.clarin.com/ieco/Alibaba-incluir-productos-argentinos-plataforma_0_1685231508.html
p10
a.