(lp0
S'https://www.clarin.com/politica/salario-minimo-sube-partir-enero_0_1579642178.html'
p1
aS'https://www.clarin.com/politica/salario-minimo-sube-partir-enero_0_1579642178.html'
p2
aS'https://www.clarin.com/sociedad/muertes-gripe-promueven-vacunacion_0_1579642153.html'
p3
aS'https://www.clarin.com/sociedad/muertes-gripe-promueven-vacunacion_0_1579642153.html'
p4
aS'https://www.clarin.com/ieco/economia/retrocedio-levemente-nuevas-compras-oficiales_0_1579642164.html'
p5
aS'https://www.clarin.com/sociedad/trucos-imperdibles-perder-valija-viajar_0_1579642174.html'
p6
aS'https://www.clarin.com/sociedad/trucos-imperdibles-perder-valija-viajar_0_1579642174.html'
p7
aS'https://www.clarin.com/sociedad/Leila-Plata-ultimo-recital-McCartney_0_1579642171.html'
p8
aS'https://www.clarin.com/sociedad/Leila-Plata-ultimo-recital-McCartney_0_1579642171.html'
p9
aS'https://www.clarin.com/politica/Florencia-Kirchner-respondio-remodelacion-Olivos_0_1579642155.html'
p10
aS'https://www.clarin.com/politica/Florencia-Kirchner-respondio-remodelacion-Olivos_0_1579642155.html'
p11
a.