(lp0
S'https://www.clarin.com/ieco/economia/Macri-llego-China-inflacion-Sturzenegger_0_1645635545.html'
p1
aS'https://www.clarin.com/ieco/economia/Macri-llego-China-inflacion-Sturzenegger_0_1645635545.html'
p2
aS'https://www.clarin.com/ieco/economia/Lavandina-champu-productos-segundas-argentinos_0_1645635543.html'
p3
aS'https://www.clarin.com/ieco/economia/Lavandina-champu-productos-segundas-argentinos_0_1645635543.html'
p4
aS'https://www.clarin.com/sociedad/Murio-primera-mujer-recibio-trasplante_0_1645635530.html'
p5
aS'https://www.clarin.com/sociedad/Murio-primera-mujer-recibio-trasplante_0_1645635530.html'
p6
aS'https://www.clarin.com/sociedad/libros-pueden-comprar-Vicky-Xipolitakis_0_1645635542.html'
p7
aS'https://www.clarin.com/sociedad/libros-pueden-comprar-Vicky-Xipolitakis_0_1645635542.html'
p8
aS'https://www.clarin.com/politica/Corte-opinion-Gils-Carbo-Nisman_0_1645635541.html'
p9
aS'https://www.clarin.com/politica/Corte-opinion-Gils-Carbo-Nisman_0_1645635541.html'
p10
aS'https://www.clarin.com/ieco/economia/Bolsa-maximo-impulso-empresas-electricas_0_1645635538.html'
p11
aS'https://www.clarin.com/ieco/economia/Bolsa-maximo-impulso-empresas-electricas_0_1645635538.html'
p12
a.