(lp0
S'https://www.clarin.com/ieco/economia/kirchnerismo-insistir-Congreso-Macri-antidespidos_0_1574242633.html'
p1
aS'https://www.clarin.com/ieco/economia/kirchnerismo-insistir-Congreso-Macri-antidespidos_0_1574242633.html'
p2
aS'https://www.clarin.com/politica/Hector-Recalde-antidespidos-cerca-quorum_0_1574242631.html'
p3
aS'https://www.clarin.com/politica/Hector-Recalde-antidespidos-cerca-quorum_0_1574242631.html'
p4
aS'https://www.clarin.com/politica/Reunion-Macri-CGT-Calo-heladeras_0_1574242624.html'
p5
aS'https://www.clarin.com/politica/Reunion-Macri-CGT-Calo-heladeras_0_1574242624.html'
p6
aS'https://www.clarin.com/politica/Aparecio-Lazaro-Baez-ganado-millonario_0_1574242632.html'
p7
aS'https://www.clarin.com/politica/Aparecio-Lazaro-Baez-ganado-millonario_0_1574242632.html'
p8
aS'https://www.clarin.com/politica/UIF-querellante-causa-campana-CFK_0_1574242629.html'
p9
aS'https://www.clarin.com/politica/UIF-querellante-causa-campana-CFK_0_1574242629.html'
p10
aS'https://www.clarin.com/politica/Unidos-proximo-destino-Fragata_0_1574242623.html'
p11
aS'https://www.clarin.com/sociedad/mujer-anos-primer-hijo-India_0_1574242619.html'
p12
aS'https://www.clarin.com/sociedad/mujer-anos-primer-hijo-India_0_1574242619.html'
p13
aS'https://www.clarin.com/politica/Confirman-Hebe-Bonafini-Papa-Francisco_0_1574242618.html'
p14
aS'https://www.clarin.com/politica/Confirman-Hebe-Bonafini-Papa-Francisco_0_1574242618.html'
p15
a.