(lp0
Vhttps://www.clarin.com/sociedad/Llega-aprender-ingles-manera-divertida_0_1631236970.html
p1
aVhttps://www.clarin.com/sociedad/Llega-aprender-ingles-manera-divertida_0_1631236970.html
p2
aVhttps://www.clarin.com/sociedad/amigos-quiere-relanzar-TV-infancia_0_1631236966.html
p3
aVhttps://www.clarin.com/sociedad/amigos-quiere-relanzar-TV-infancia_0_1631236966.html
p4
aVhttps://www.clarin.com/politica/Massa-queremos-corrupcion-ajuste_0_1631236960.html
p5
aVhttps://www.clarin.com/politica/Massa-queremos-corrupcion-ajuste_0_1631236960.html
p6
aVhttps://www.clarin.com/politica/Carrio-eliminar-AFI-investigacion-inteligencia_0_1631236948.html
p7
aVhttps://www.clarin.com/politica/Carrio-eliminar-AFI-investigacion-inteligencia_0_1631236948.html
p8
a.