(lp0
Vhttps://www.clarin.com/politica/Boudou-Comodoro-Py-indagado-DNI_0_1591640853.html
p1
aVhttps://www.clarin.com/politica/Boudou-Comodoro-Py-indagado-DNI_0_1591640853.html
p2
aVhttps://www.clarin.com/ieco/empresas-y-negocios/Rever-Pass-presento-coleccion-Chevrolet_0_1591640847.html
p3
aVhttps://www.clarin.com/politica/habitacion-intendente-Malvinas-Argentinas-Municipalidad_0_1591640848.html
p4
aVhttps://www.clarin.com/politica/habitacion-intendente-Malvinas-Argentinas-Municipalidad_0_1591640848.html
p5
aVhttps://www.clarin.com/politica/peritaje-ultimas-declaraciones-juradas-Macri_0_1591640842.html
p6
aVhttps://www.clarin.com/politica/peritaje-ultimas-declaraciones-juradas-Macri_0_1591640842.html
p7
aVhttps://www.clarin.com/sociedad/Senado-define-incorpora-feriado-junio_0_1591640840.html
p8
aVhttps://www.clarin.com/sociedad/Senado-define-incorpora-feriado-junio_0_1591640840.html
p9
aVhttps://www.clarin.com/politica/Gobierno-Jujuy-cuarto-adelanto-millones_0_1591640837.html
p10
aVhttps://www.clarin.com/politica/Gobierno-Jujuy-cuarto-adelanto-millones_0_1591640837.html
p11
a.