(lp0
S'https://www.clarin.com/opinion/Cuantas-clases-inteligencia-desarrollar-usted_0_1630637100.html'
p1
aS'https://www.clarin.com/opinion/politica-equilibrada_0_1630637095.html'
p2
aS'https://www.clarin.com/opinion/psicologo-ahi-Scioli_0_1631236917.html'
p3
aS'https://www.clarin.com/opinion/subsidios-judo_0_1631236916.html'
p4
aS'https://www.clarin.com/sociedad/comprar-celular-pesos-impuestos_0_1630637115.html'
p5
aS'https://www.clarin.com/sociedad/comprar-celular-pesos-impuestos_0_1630637115.html'
p6
a.