(lp0
Vhttps://www.clarin.com/politica/Argentina-situacion-Derechos-Humanos-Venezuela_0_1584441644.html
p1
aVhttps://www.clarin.com/politica/Argentina-situacion-Derechos-Humanos-Venezuela_0_1584441644.html
p2
aVhttps://www.clarin.com/politica/Gonzalez-Fraga-empleado-celulares-exterior_0_1584441638.html
p3
aVhttps://www.clarin.com/politica/Gonzalez-Fraga-empleado-celulares-exterior_0_1584441638.html
p4
aVhttps://www.clarin.com/sociedad/YouTube-conto-despues-violaron-primos_0_1584441630.html
p5
aVhttps://www.clarin.com/sociedad/YouTube-conto-despues-violaron-primos_0_1584441630.html
p6
a.