(lp0
S'https://www.clarin.com/sociedad/Encuentran-muerto-mejor-chef-mundo_0_1514848665.html'
p1
aS'https://www.clarin.com/sociedad/Queria-hacerse-selfie-atropello-tren_0_1514848667.html'
p2
aS'https://www.clarin.com/ieco/economia/bancarios-paros-sorpresivos-despidos-Central_0_1514848661.html'
p3
aS'https://www.clarin.com/ieco/economia/Costantini-Aerolineas-deficit-millones-ano_0_1514848684.html'
p4
aS'https://www.clarin.com/politica/frases-dejo-Aranguren-aumento-tarifas_0_1514848686.html'
p5
a.