(lp0
S'https://www.clarin.com/ieco/economia/precios-suben-reabren-paritarias_0_1519048220.html'
p1
aS'https://www.clarin.com/ieco/economia/precios-suben-reabren-paritarias_0_1519048219.html'
p2
aS'https://www.clarin.com/sociedad/Confirman-primer-provincia-Buenos-Aires_0_1519048215.html'
p3
aS'https://www.clarin.com/sociedad/Confirman-primer-provincia-Buenos-Aires_0_1519048215.html'
p4
aS'https://www.clarin.com/politica/Gobierno-EEUU-Argentina-resolver-bonistas_0_1518448439.html'
p5
aS'https://www.clarin.com/politica/Gobierno-EEUU-Argentina-resolver-bonistas_0_1518448439.html'
p6
aS'https://www.clarin.com/ieco/economia/cepo-dolarizan-carteras-inversion_0_1519048149.html'
p7
aS'https://www.clarin.com/ieco/economia/cepo-dolarizan-carteras-inversion_0_1519048149.html'
p8
a.