(lp0
S'https://www.clarin.com/politica/Quieren-Nestor-Kirchner-terminal-Mendoza_0_1600640040.html'
p1
aS'https://www.clarin.com/politica/gremio-camioneros-cerro-suba-salarios_0_1600640051.html'
p2
aS'https://www.clarin.com/ieco/economia/Paritarias-gremio-petrolero-anuncio-lunes_0_1600640050.html'
p3
aS'https://www.clarin.com/sociedad/Crearon-chaleco-permite-hablar-perros_0_1600640042.html'
p4
aS'https://www.clarin.com/politica/kirchnerismo-noticias-dejaron-modelo-desnudo_0_1600640049.html'
p5
aS'https://www.clarin.com/sociedad/apostador-millones-casas-autos-camionetas_0_1600640045.html'
p6
a.