(lp0
S'https://www.clarin.com/sociedad/condenan-anos-carcel-embarazar-hija_0_1600040058.html'
p1
aS'https://www.clarin.com/politica/empresa-emblema-Baez-empleados-problemas_0_1600040031.html'
p2
aS'https://www.clarin.com/politica/empresa-emblema-Baez-empleados-problemas_0_1600040031.html'
p3
aS'https://www.clarin.com/ieco/economia/Aprueban-plan-mejorar-telefonia-movil_0_1600040050.html'
p4
aS'https://www.clarin.com/ieco/economia/Aprueban-plan-mejorar-telefonia-movil_0_1600040050.html'
p5
aS'https://www.clarin.com/ieco/economia/Miles-emprendedores-buscan-vender-ideas_0_1600040045.html'
p6
aS'https://www.clarin.com/ieco/economia/Miles-emprendedores-buscan-vender-ideas_0_1600040045.html'
p7
a.