(lp0
S'https://www.clarin.com/opinion/Movilidad_social-desarrollo_economico-empleo_publico_0_1510049036.html'
p1
aS'https://www.clarin.com/opinion/Calabria-Polistena-Giorgio_Macri-inmigracion_italiana_0_1510049035.html'
p2
aS'https://www.clarin.com/opinion/Calabria-Polistena-Giorgio_Macri-inmigracion_italiana_0_1510049035.html'
p3
aS'https://www.clarin.com/opinion/narcotrafico-penetracion_social-corrupcion_policial-lucha_anti-mafias_0_1510049034.html'
p4
aS'https://www.clarin.com/opinion/Crimen_organizado-lucha_anti-narcoticos-corrupcion-politicas_multidimensionales_0_1510049033.html'
p5
aS'https://www.clarin.com/opinion/Chef-La_Bottega_Trattoria-Paulo_Airaudo-Ginebra_0_1510049032.html'
p6
aS'https://www.clarin.com/opinion/UE-refugiados-inmigracion-derecho_de_asilo_0_1510049031.html'
p7
aS'https://www.clarin.com/opinion/UE-refugiados-inmigracion-derecho_de_asilo_0_1510049031.html'
p8
aS'https://www.clarin.com/politica/Carta-editor-columna-Roa_0_1510049030.html'
p9
aS'https://www.clarin.com/sociedad/Menu-Playa-calorias-dejar-huella_0_1509449426.html'
p10
aS'https://www.clarin.com/sociedad/Menu-Playa-calorias-dejar-huella_0_1509449426.html'
p11
aS'https://www.clarin.com/sociedad/Mar-Plata-comida-prohibida-playas_0_1509449430.html'
p12
a.