(lp0
Vhttps://www.clarin.com/sociedad/carreras-galgos-pasarian-hoy-ilegales_0_1688231168.html
p1
aVhttps://www.clarin.com/sociedad/carreras-galgos-pasarian-hoy-ilegales_0_1688231168.html
p2
aVhttps://www.clarin.com/ieco/economia/Principio-acuerdo-comisiones-compras-tarjeta_0_1687631384.html
p3
aVhttps://www.clarin.com/ieco/economia/Principio-acuerdo-comisiones-compras-tarjeta_0_1687631384.html
p4
aVhttps://www.clarin.com/ieco/JP-Morgan-Macri-capitalizo-US_0_1687631369.html
p5
aVhttps://www.clarin.com/ieco/JP-Morgan-Macri-capitalizo-US_0_1687631369.html
p6
aVhttps://www.clarin.com/politica/Viacom-gobierno-inversion-extranjera-crecimiento_0_1687631363.html
p7
aVhttps://www.clarin.com/politica/Viacom-gobierno-inversion-extranjera-crecimiento_0_1687631363.html
p8
aVhttps://www.clarin.com/opinion/escucha-hoy-FMI_0_1687631377.html
p9
aVhttps://www.clarin.com/politica/super-informaran-articulos-Precios-claros_0_1687631395.html
p10
aVhttps://www.clarin.com/politica/super-informaran-articulos-Precios-claros_0_1687631395.html
p11
aVhttps://www.clarin.com/opinion/huracan-Trump-altera-previsiones-Gobierno_0_1687631373.html
p12
aVhttps://www.clarin.com/ieco/economia/Pese-efecto-Trump-Central-Lebac_0_1687631355.html
p13
aVhttps://www.clarin.com/ieco/economia/Pese-efecto-Trump-Central-Lebac_0_1687631355.html
p14
aVhttps://www.clarin.com/ieco/economia/aumentos-salariales-suben-precios-construccion_0_1687631354.html
p15
aVhttps://www.clarin.com/ieco/economia/aumentos-salariales-suben-precios-construccion_0_1687631354.html
p16
a.