(lp0
S'https://www.clarin.com/sociedad/Francia-penaliza-clientes-prostitutas_0_1554444800.html'
p1
aS'https://www.clarin.com/sociedad/Humillan-redes-chica-tiempo-mundo_0_1554444805.html'
p2
aS'https://www.clarin.com/politica/Macri-distancia-polemica-jovenes-Misiones_0_1554444790.html'
p3
aS'https://www.clarin.com/politica/Auge-caida-Lazaro-Baez-numeros_0_1554444802.html'
p4
a.