(lp0
Vhttps://www.clarin.com/sociedad/Piden-embarazadas-viajen-lugares-circulacion_0_1687631243.html
p1
aVhttps://www.clarin.com/sociedad/Piden-embarazadas-viajen-lugares-circulacion_0_1687631243.html
p2
aVhttps://www.clarin.com/politica/Justicia-investiga-millones-entraron-Flor_0_1686431420.html
p3
aVhttps://www.clarin.com/politica/Justicia-investiga-millones-entraron-Flor_0_1686431420.html
p4
a.