(lp0
S'https://www.clarin.com/sociedad/redes-sexo-burlas-suicidio_0_1651634957.html'
p1
aS'https://www.clarin.com/sociedad/Pasajeros-varados-derechos-pueden-reclamar_0_1651634950.html'
p2
aS'https://www.clarin.com/sociedad/Pasajeros-varados-derechos-pueden-reclamar_0_1651634950.html'
p3
aS'https://www.clarin.com/politica/Ruta-dinero-Casanello-causa-Ercolini_0_1651634948.html'
p4
aS'https://www.clarin.com/politica/Ruta-dinero-Casanello-causa-Ercolini_0_1651634948.html'
p5
a.