(lp0
S'https://www.clarin.com/sociedad/Atropello-pareja-asistio-cuenta-emocionada_0_1580841977.html'
p1
aS'https://www.clarin.com/sociedad/Confirman-muertos-gripe-Santa-Fe_0_1580841974.html'
p2
aS'https://www.clarin.com/politica/confirmo-hallazgo-petroleo-Islas-Malvinas_0_1580841971.html'
p3
aS'https://www.clarin.com/politica/Hallan-propiedades-Baez-Tierra-Fuego_0_1580841976.html'
p4
aS'https://www.clarin.com/politica/Macri-cruces-Gobierno-opositores-antidespidos_0_1580841972.html'
p5
aS'https://www.clarin.com/sociedad/Dieron-Luciana-siamesa-meses-volvio_0_1580841964.html'
p6
aS'https://www.clarin.com/politica/Arroyo-Salgado-Lagomarsino-servicios-inteligencia_0_1580841968.html'
p7
a.