(lp0
S'https://www.clarin.com/politica/Plan_Qunita-La_Rioja_0_1524447718.html'
p1
aS'https://www.clarin.com/politica/UCR-Mauricio_Macri-Jose_Corral-Ernesto_Sanz_0_1524447696.html'
p2
aS'https://www.clarin.com/ieco/economia/clases-extienden-Ahora-articulos-libreria_0_1524447712.html'
p3
aS'https://www.clarin.com/politica/Macri-hablar-inflacion-polemica-INDEC_0_1524447726.html'
p4
aS'https://www.clarin.com/sociedad/Comienzan-normalizarse-servicios-Roca-demoras_0_1524447698.html'
p5
a.