(lp0
Vhttps://www.clarin.com/ieco/economia/empresas-EEUU-grandes-oportunidades-inversion_0_1583241689.html
p1
aVhttps://www.clarin.com/ieco/IPC-Congreso-inflacion-abril-anos_0_1583241687.html
p2
aVhttps://www.clarin.com/ieco/IPC-Congreso-inflacion-abril-anos_0_1583241687.html
p3
aVhttps://www.clarin.com/sociedad/pozo-trago-veinte-autos-Italia_0_1583241686.html
p4
aVhttps://www.clarin.com/sociedad/pozo-trago-veinte-autos-Italia_0_1583241686.html
p5
aVhttps://www.clarin.com/ieco/Estiman-crecimiento-menor-precios-octubre_0_1583241685.html
p6
aVhttps://www.clarin.com/politica/Macri-Tedeum-Catedral-ofrecera-Olivos_0_1583241678.html
p7
aVhttps://www.clarin.com/politica/Macri-Tedeum-Catedral-ofrecera-Olivos_0_1583241678.html
p8
a.