(lp0
S'https://www.clarin.com/opinion/administrar-publico-reglas-verdad_0_1637236431.html'
p1
aS'https://www.clarin.com/opinion/oficio-dar-pena-subte_0_1637236444.html'
p2
aS'https://www.clarin.com/sociedad/Naiara-intento-defenderse-redes-polemica_0_1637236477.html'
p3
aS'https://www.clarin.com/sociedad/Naiara-intento-defenderse-redes-polemica_0_1637236477.html'
p4
aS'https://www.clarin.com/politica/investiga-Macri-Corrio-integridad-presidente_0_1637236482.html'
p5
aS'https://www.clarin.com/politica/investiga-Macri-Corrio-integridad-presidente_0_1637236482.html'
p6
aS'https://www.clarin.com/sociedad/Subastaran-EEUU-escritor-Truman-Capote_0_1637236481.html'
p7
aS'https://www.clarin.com/sociedad/Subastaran-EEUU-escritor-Truman-Capote_0_1637236481.html'
p8
aS'https://www.clarin.com/politica/Panama-Papers-denuncia-Macri-evasion_0_1637236480.html'
p9
aS'https://www.clarin.com/politica/Recalde-Macri-denostar-justicia-laboral_0_1637236479.html'
p10
aS'https://www.clarin.com/ieco/economia/millones-personas-problemas-empleo_0_1637236446.html'
p11
aS'https://www.clarin.com/ieco/economia/millones-personas-problemas-empleo_0_1637236446.html'
p12
aS'https://www.clarin.com/sociedad/consigna-imperdonable_0_1637236476.html'
p13
a.