(lp0
Vhttps://www.clarin.com/politica/bloque-PJ-promete-debatir-proyecto_0_1531047246.html
p1
aVhttps://www.clarin.com/politica/bloque-PJ-promete-debatir-proyecto_0_1531047246.html
p2
aVhttps://www.clarin.com/sociedad/comparseros-dieron-medio-corsodromo_0_1531047242.html
p3
aVhttps://www.clarin.com/sociedad/comparseros-dieron-medio-corsodromo_0_1531047242.html
p4
a.