(lp0
Vhttps://www.clarin.com/sociedad/Video-enorme-caiman-devora-cria_0_1559244296.html
p1
aVhttps://www.clarin.com/sociedad/Video-enorme-caiman-devora-cria_0_1559244296.html
p2
aVhttps://www.clarin.com/sociedad/Cordoba-cayo-parte-techo-hospital_0_1559244287.html
p3
aVhttps://www.clarin.com/sociedad/Cordoba-cayo-parte-techo-hospital_0_1559244287.html
p4
aVhttps://www.clarin.com/ieco/economia/Grobocopatel-lluvias-perderan-millones-toneladas_0_1559244283.html
p5
aVhttps://www.clarin.com/ieco/economia/Grobocopatel-lluvias-perderan-millones-toneladas_0_1559244283.html
p6
aVhttps://www.clarin.com/sociedad/Provincia-desmiente-segunda-bacteria-Berazategui_0_1559244279.html
p7
aVhttps://www.clarin.com/sociedad/Provincia-desmiente-segunda-bacteria-Berazategui_0_1559244279.html
p8
aVhttps://www.clarin.com/ieco/Preocupacion-industria-electronica-Tierra-Fuego_0_1559244276.html
p9
aVhttps://www.clarin.com/politica/concejal-llama-derrocar-Macri_0_1559244257.html
p10
aVhttps://www.clarin.com/politica/concejal-llama-derrocar-Macri_0_1559244257.html
p11
aVhttps://www.clarin.com/ieco/Prat-Gay-G-20-busca-emision-deuda_0_1559244262.html
p12
aVhttps://www.clarin.com/ieco/Prat-Gay-G-20-busca-emision-deuda_0_1559244262.html
p13
a.