(lp0
S'https://www.clarin.com/politica/locreada-festejan-anos-Menem_0_1605439533.html'
p1
aS'https://www.clarin.com/politica/locreada-festejan-anos-Menem_0_1605439533.html'
p2
aS'https://www.clarin.com/sociedad/medidas-seguridad-nuevo-billete-pesos_0_1605439537.html'
p3
aS'https://www.clarin.com/sociedad/medidas-seguridad-nuevo-billete-pesos_0_1605439537.html'
p4
aS'https://www.clarin.com/sociedad/Mendoza-convertir-zoologico-ecoparque-online_0_1605439544.html'
p5
aS'https://www.clarin.com/sociedad/Mendoza-convertir-zoologico-ecoparque-online_0_1605439544.html'
p6
a.