(lp0
Vhttps://www.clarin.com/sociedad/Nobel-Academia-Sueca-Dylan-arrogante_0_1673232758.html
p1
aVhttps://www.clarin.com/sociedad/Nobel-Academia-Sueca-Dylan-arrogante_0_1673232758.html
p2
aVhttps://www.clarin.com/sociedad/anos-deslumbra-habla-idiomas_0_1673232756.html
p3
aVhttps://www.clarin.com/sociedad/anos-deslumbra-habla-idiomas_0_1673232756.html
p4
aVhttps://www.clarin.com/sociedad/Nueva-York-portal-alquileres-Airbnb_0_1673232755.html
p5
aVhttps://www.clarin.com/sociedad/Nueva-York-portal-alquileres-Airbnb_0_1673232755.html
p6
aVhttps://www.clarin.com/politica/Bonadio-nego-causas-CFK-paralizadas_0_1673232752.html
p7
aVhttps://www.clarin.com/politica/Bonadio-nego-causas-CFK-paralizadas_0_1673232752.html
p8
a.