(lp0
Vhttps://www.clarin.com/politica/Macri-anuncia-millonario-reintegro-sociales_0_1624037741.html
p1
aVhttps://www.clarin.com/politica/Macri-anuncia-millonario-reintegro-sociales_0_1624037741.html
p2
aVhttps://www.clarin.com/ieco/economia/Aerolineas-recibe-prestamo-comprar-aviones_0_1624037765.html
p3
aVhttps://www.clarin.com/ieco/economia/Aerolineas-recibe-prestamo-comprar-aviones_0_1624037765.html
p4
aVhttps://www.clarin.com/politica/Indagaron-tuiteros-amenazaron-Macri_0_1624037733.html
p5
aVhttps://www.clarin.com/politica/Indagaron-tuiteros-amenazaron-Macri_0_1624037733.html
p6
aVhttps://www.clarin.com/opinion/Lecciones-Atlantico-Sur_0_1624037696.html
p7
aVhttps://www.clarin.com/opinion/Energia-problema-solo-tarifas_0_1624037729.html
p8
aVhttps://www.clarin.com/opinion/Energia-problema-solo-tarifas_0_1624037729.html
p9
aVhttps://www.clarin.com/opinion/Brasil-tregua-olimpica_0_1624037694.html
p10
aVhttps://www.clarin.com/politica/AMIA-reabrir-denuncia-Nisman-Cristina_0_1624037754.html
p11
aVhttps://www.clarin.com/politica/AMIA-reabrir-denuncia-Nisman-Cristina_0_1624037754.html
p12
aVhttps://www.clarin.com/opinion/rescate-paciencia-perdida_0_1624637530.html
p13
aVhttps://www.clarin.com/politica/obras-publicas-camara-lenta_0_1624637529.html
p14
aVhttps://www.clarin.com/politica/Murio-Ongaro-dirigente-marco-sindicalismo_0_1624637528.html
p15
aVhttps://www.clarin.com/politica/Murio-Ongaro-dirigente-marco-sindicalismo_0_1624637528.html
p16
aVhttps://www.clarin.com/opinion/Marche-Nobel-Cristina_0_1624637526.html
p17
aVhttps://www.clarin.com/sociedad/maestra-alumno-sindrome-Down-huerfano_0_1624037742.html
p18
aVhttps://www.clarin.com/sociedad/maestra-alumno-sindrome-Down-huerfano_0_1624037742.html
p19
a.