(lp0
S'https://www.clarin.com/sociedad/juego-chicos-discapacidad-suenan-grande_0_1657034440.html'
p1
aS'https://www.clarin.com/sociedad/juego-chicos-discapacidad-suenan-grande_0_1657034440.html'
p2
aS'https://www.clarin.com/politica/Elecciones-Macri-quiere-ministros-candidatos_0_1657034436.html'
p3
aS'https://www.clarin.com/politica/Elecciones-Macri-quiere-ministros-candidatos_0_1657034436.html'
p4
aS'https://www.clarin.com/sociedad/Futbol-motorizado-sedes-apoyo-economico_0_1657034435.html'
p5
aS'https://www.clarin.com/sociedad/Futbol-motorizado-sedes-apoyo-economico_0_1657034435.html'
p6
aS'https://www.clarin.com/politica/Diputados-reforma-electoral-complica-Senado_0_1655834598.html'
p7
aS'https://www.clarin.com/politica/Diputados-reforma-electoral-complica-Senado_0_1655834598.html'
p8
aS'https://www.clarin.com/politica/Sergio-Massa-Colombia-acuerdo-FARC_0_1657034424.html'
p9
aS'https://www.clarin.com/politica/Sergio-Massa-Colombia-acuerdo-FARC_0_1657034424.html'
p10
aS'https://www.clarin.com/opinion/Shakespeare-arte-alla-prejuicios_0_1657034423.html'
p11
a.