(lp0
S'https://www.clarin.com/sociedad/Murio-Denzel-detectaba-despedido-honores_0_1584441678.html'
p1
aS'https://www.clarin.com/sociedad/Murio-Denzel-detectaba-despedido-honores_0_1584441678.html'
p2
aS'https://www.clarin.com/sociedad/Video-pisos-edificio-ayuda-aspiradoras_0_1584441676.html'
p3
aS'https://www.clarin.com/sociedad/Video-pisos-edificio-ayuda-aspiradoras_0_1584441676.html'
p4
aS'https://www.clarin.com/sociedad/mujer-batalla-legal-esperma-marido_0_1584441674.html'
p5
aS'https://www.clarin.com/sociedad/mujer-batalla-legal-esperma-marido_0_1584441674.html'
p6
aS'https://www.clarin.com/politica/historia-jubilados-hablaron-Macri-anuncios_0_1584441669.html'
p7
aS'https://www.clarin.com/sociedad/Salieron-campeonas-desnudaron-festejar_0_1584441667.html'
p8
aS'https://www.clarin.com/sociedad/Salieron-campeonas-desnudaron-festejar_0_1584441667.html'
p9
aS'https://www.clarin.com/sociedad/alumnos-drive-estudiar-encontraron-fotos_0_1584441665.html'
p10
aS'https://www.clarin.com/sociedad/alumnos-drive-estudiar-encontraron-fotos_0_1584441665.html'
p11
aS'https://www.clarin.com/sociedad/Facebook-Microsoft-tenderan-EEUU-Espana_0_1584441666.html'
p12
aS'https://www.clarin.com/sociedad/Facebook-Microsoft-tenderan-EEUU-Espana_0_1584441666.html'
p13
a.