(lp0
S'https://www.clarin.com/politica/Vidal-necesitan-condiciones-judiciales-inseguridad_0_1592240828.html'
p1
aS'https://www.clarin.com/politica/Bonadio-allanan-oficinas-Cristobal-Lopez_0_1592240822.html'
p2
aS'https://www.clarin.com/sociedad/Argentina-dia-descanso-trabajo_0_1592240829.html'
p3
aS'https://www.clarin.com/sociedad/argentinos-deslumbraron-EEUU-bailando-malambo_0_1592240823.html'
p4
a.