(lp0
Vhttps://www.clarin.com/sociedad/Provincia-inmobiliario-sube_0_1663633671.html
p1
aVhttps://www.clarin.com/sociedad/Rugbier-atacado-dicen-rivalidad-clubes_0_1663633666.html
p2
aVhttps://www.clarin.com/sociedad/Rugbier-atacado-dicen-rivalidad-clubes_0_1663633666.html
p3
aVhttps://www.clarin.com/ieco/Nueva-jornada-atencion-limitada-bancos_0_1663633664.html
p4
aVhttps://www.clarin.com/ieco/Nueva-jornada-atencion-limitada-bancos_0_1663633664.html
p5
a.