(lp0
Vhttps://www.clarin.com/ieco/economia/Modifican-declaracion-exportacion-productos-agricolas_0_1498050380.html
p1
aVhttps://www.clarin.com/ieco/economia/Monotributistas-primeras-tareas-ano_0_1498050377.html
p2
aVhttps://www.clarin.com/politica/Triple-Anibal-Julian-Dominguez-detenido_0_1498050376.html
p3
aVhttps://www.clarin.com/politica/Triple-Anibal-Julian-Dominguez-detenido_0_1498050376.html
p4
aVhttps://www.clarin.com/ieco/economia/AFIP-Abad-difunde-primeras-cifras_0_1498050372.html
p5
aVhttps://www.clarin.com/ieco/economia/AFIP-Abad-difunde-primeras-cifras_0_1498050372.html
p6
aVhttps://www.clarin.com/ieco/economia/liquidacion-divisas-campo-achico_0_1498050363.html
p7
aVhttps://www.clarin.com/politica/triple-Macri-muestra-Vidal-respaldo_0_1498050348.html
p8
aVhttps://www.clarin.com/politica/triple-Macri-muestra-Vidal-respaldo_0_1498050348.html
p9
aVhttps://www.clarin.com/sociedad/Paris-estudia-candados-retirados-puentes_0_1498050359.html
p10
aVhttps://www.clarin.com/sociedad/Paris-estudia-candados-retirados-puentes_0_1498050359.html
p11
aVhttps://www.clarin.com/politica/Anibal-Ritondo-llevando-seguridad-relacion_0_1498050362.html
p12
aVhttps://www.clarin.com/politica/Anibal-Ritondo-llevando-seguridad-relacion_0_1498050362.html
p13
a.