(lp0
Vhttps://www.clarin.com/politica/allanamiento-Chascomus-profugos_0_1499250412.html
p1
aVhttps://www.clarin.com/politica/allanamiento-Chascomus-profugos_0_1499250412.html
p2
aVhttps://www.clarin.com/ieco/economia/patentamiento-motos-cayo_0_1499250396.html
p3
aVhttps://www.clarin.com/politica/Alberto_Cantero-RTA_0_1499250392.html
p4
aVhttps://www.clarin.com/politica/Alberto_Cantero-RTA_0_1499250392.html
p5
aVhttps://www.clarin.com/politica/Carrio-presento-amparo-Echegaray-AGN_0_1499250367.html
p6
aVhttps://www.clarin.com/politica/Carrio-presento-amparo-Echegaray-AGN_0_1499250367.html
p7
aVhttps://www.clarin.com/sociedad/Tragedia-Punta-argentino-camioneta-personas_0_1499250377.html
p8
aVhttps://www.clarin.com/sociedad/Tragedia-Punta-argentino-camioneta-personas_0_1499250377.html
p9
a.