(lp0
S'https://www.clarin.com/politica/funcionarios-presento-declaracion-jurada-bienes_0_1617438276.html'
p1
aS'https://www.clarin.com/politica/Macri-Antonia-sobremesa-inflacion-inversores_0_1617438273.html'
p2
aS'https://www.clarin.com/sociedad/claves-nuevo-regimen-compra-online_0_1617438266.html'
p3
aS'https://www.clarin.com/politica/Beatriz-Sarlo-Macri-Donald-Trump_0_1617438278.html'
p4
aS'https://www.clarin.com/ieco/Gas-nuevas-boletas-pagaran-dias_0_1617438272.html'
p5
a.