(lp0
Vhttps://www.clarin.com/sociedad/Aumentan-casos-escarlatina-descartaron-brote_0_1661833849.html
p1
aVhttps://www.clarin.com/sociedad/Aumentan-casos-escarlatina-descartaron-brote_0_1661833849.html
p2
aVhttps://www.clarin.com/politica/Residentes-brasilenos-protestan-Olivos-Temer_0_1661833842.html
p3
aVhttps://www.clarin.com/politica/Residentes-brasilenos-protestan-Olivos-Temer_0_1661833842.html
p4
aVhttps://www.clarin.com/politica/Lifschitz-abre-paraguas-previsto-bono_0_1661833840.html
p5
aVhttps://www.clarin.com/politica/Lifschitz-abre-paraguas-previsto-bono_0_1661833840.html
p6
aVhttps://www.clarin.com/sociedad/ano-misterio-sabe-medicas-espacio_0_1661833839.html
p7
aVhttps://www.clarin.com/sociedad/ano-misterio-sabe-medicas-espacio_0_1661833839.html
p8
a.