(lp0
Vhttps://www.clarin.com/politica/Radio-Nacional-impulsan-realmente-federal_0_1680432113.html
p1
aVhttps://www.clarin.com/politica/Oficial-Cristina-debera-devolver-pension_0_1680432107.html
p2
aVhttps://www.clarin.com/politica/Oficial-Cristina-debera-devolver-pension_0_1680432107.html
p3
aVhttps://www.clarin.com/sociedad/Internet-bolsillo-primera-moviles-computadoras_0_1680432106.html
p4
aVhttps://www.clarin.com/sociedad/Internet-bolsillo-primera-moviles-computadoras_0_1680432106.html
p5
aVhttps://www.clarin.com/politica/dueno-mate-gigante-comparte-Congreso_0_1680432098.html
p6
aVhttps://www.clarin.com/politica/dueno-mate-gigante-comparte-Congreso_0_1680432098.html
p7
a.