(lp0
S'https://www.clarin.com/sociedad/OMS-recomienda-impuestos-bebidas-azucaradas_0_1666633373.html'
p1
aS'https://www.clarin.com/sociedad/OMS-recomienda-impuestos-bebidas-azucaradas_0_1666633373.html'
p2
aS'https://www.clarin.com/ieco/Blanqueo-AFIP-requisitos-registrar-terceros_0_1666633367.html'
p3
aS'https://www.clarin.com/ieco/Blanqueo-AFIP-requisitos-registrar-terceros_0_1666633367.html'
p4
aS'https://www.clarin.com/politica/reina-Maxima-Argentina-encontrara-Macri_0_1666633366.html'
p5
aS'https://www.clarin.com/politica/reina-Maxima-Argentina-encontrara-Macri_0_1666633366.html'
p6
aS'https://www.clarin.com/ieco/Jose-Urtubey-sector-industrial-cayo_0_1666633360.html'
p7
aS'https://www.clarin.com/ieco/Jose-Urtubey-sector-industrial-cayo_0_1666633360.html'
p8
a.