(lp0
S'https://www.clarin.com/politica/Pena-insiste-inflacion-fuerte-constante_0_1580841955.html'
p1
aS'https://www.clarin.com/opinion/va-Cristobal_0_1580841954.html'
p2
aS'https://www.clarin.com/sociedad/Habito-peligroso-empleados-saltea-almuerzo_0_1580242083.html'
p3
aS'https://www.clarin.com/opinion/Diseno-democratico-Justicia_0_1580242125.html'
p4
aS'https://www.clarin.com/sociedad/pesada-herencia_0_1580841956.html'
p5
aS'https://www.clarin.com/opinion/maestra-escuela-equipo-publico-maravillan_0_1580242124.html'
p6
aS'https://www.clarin.com/opinion/silbidos-indiferentes_0_1580841953.html'
p7
a.