(lp0
S'https://www.clarin.com/politica/Lanzaran-plan-millones-ferrocarriles_0_1594640697.html'
p1
aS'https://www.clarin.com/politica/Hugo-Moyano-Gobierno-argentinos-cumplir_0_1594640728.html'
p2
aS'https://www.clarin.com/politica/Macri-recibio-lider-opositor-Venezuela_0_1594640720.html'
p3
aS'https://www.clarin.com/ieco/economia/primera-dan-informacion-importacion-gas_0_1594640725.html'
p4
aS'https://www.clarin.com/sociedad/marido-tragedia-Flores-autorizan-madre_0_1594640675.html'
p5
aS'https://www.clarin.com/politica/Afirman-Macri-trajo-millones-Bahamas_0_1594640715.html'
p6
aS'https://www.clarin.com/sociedad/Vinculan-referente-AMIA-red-trata_0_1594640718.html'
p7
a.