(lp0
S'https://www.clarin.com/politica/Oficina-Anticorrupcion-actuacion-sociedades-Macri_0_1553244833.html'
p1
aS'https://www.clarin.com/politica/Marcos-Pena-offshore-Macri-ocultar_0_1553244825.html'
p2
aS'https://www.clarin.com/sociedad/condenaron-vender-virginidad-hija-anos_0_1553244814.html'
p3
aS'https://www.clarin.com/ieco/Podrian-presentar-proyecto-devolucion-IVA_0_1553244829.html'
p4
aS'https://www.clarin.com/politica/PanamaPapers-llego-tener-menciones-minuto_0_1553244817.html'
p5
aS'https://www.clarin.com/politica/Panama-Papers-Macri-Cordoba-Pena_0_1553244802.html'
p6
a.