(lp0
Vhttps://www.clarin.com/politica/Iglesia-denuncio-subordinacion-politica-economia_0_1575442666.html
p1
aVhttps://www.clarin.com/politica/Iglesia-denuncio-subordinacion-politica-economia_0_1575442666.html
p2
a.