(lp0
Vhttps://www.clarin.com/politica/funcionarios-politicos-podran-blanqueo-capitales_0_1586841401.html
p1
aVhttps://www.clarin.com/politica/funcionarios-politicos-podran-blanqueo-capitales_0_1586841401.html
p2
aVhttps://www.clarin.com/politica/Falta-merito-Boudou-reicibido-dadivas_0_1586841399.html
p3
aVhttps://www.clarin.com/politica/Falta-merito-Boudou-reicibido-dadivas_0_1586841399.html
p4
aVhttps://www.clarin.com/sociedad/hermanas-demencial-competencia-adelgaza_0_1586841396.html
p5
aVhttps://www.clarin.com/sociedad/hermanas-demencial-competencia-adelgaza_0_1586841396.html
p6
aVhttps://www.clarin.com/politica/Segundo-dia-allanamientos-Santa-Cruz_0_1586841393.html
p7
aVhttps://www.clarin.com/politica/Segundo-dia-allanamientos-Santa-Cruz_0_1586841393.html
p8
aVhttps://www.clarin.com/politica/periodista-corrupcion-defendio-polemica-postura_0_1586841390.html
p9
aVhttps://www.clarin.com/politica/periodista-corrupcion-defendio-polemica-postura_0_1586841390.html
p10
a.