(lp0
Vhttps://www.clarin.com/politica/Cristina-denunciado-amenazaron-carta_0_1628237171.html
p1
aVhttps://www.clarin.com/politica/Cristina-denunciado-amenazaron-carta_0_1628237171.html
p2
aVhttps://www.clarin.com/ieco/Aseguran-carne-podria-aumentar_0_1628237169.html
p3
aVhttps://www.clarin.com/ieco/Aseguran-carne-podria-aumentar_0_1628237169.html
p4
aVhttps://www.clarin.com/politica/Cristina-Kirchner-Stobizer-denuncia-Presidenta_0_1627637375.html
p5
aVhttps://www.clarin.com/politica/Cristina-Kirchner-Stobizer-denuncia-Presidenta_0_1627637375.html
p6
aVhttps://www.clarin.com/ieco/economia/Corrupcion-apuran-ley-sanciona-empresas_0_1627637383.html
p7
aVhttps://www.clarin.com/ieco/economia/Corrupcion-apuran-ley-sanciona-empresas_0_1627637383.html
p8
aVhttps://www.clarin.com/ieco/Reunion-Argentina-principales-CEOs-mundo_0_1627637382.html
p9
aVhttps://www.clarin.com/ieco/Reunion-Argentina-principales-CEOs-mundo_0_1627637382.html
p10
aVhttps://www.clarin.com/politica/anos-Tratado-Libre-Comercio-Argentina_0_1627637378.html
p11
aVhttps://www.clarin.com/politica/anos-Tratado-Libre-Comercio-Argentina_0_1627637378.html
p12
aVhttps://www.clarin.com/politica/Suenos-Compartidos-Vido-declara-Hebe_0_1627637346.html
p13
aVhttps://www.clarin.com/politica/Suenos-Compartidos-Vido-declara-Hebe_0_1627637346.html
p14
aVhttps://www.clarin.com/politica/duenos-originales-Alto-Calafalte-rentable_0_1627637329.html
p15
aVhttps://www.clarin.com/politica/duenos-originales-Alto-Calafalte-rentable_0_1627637329.html
p16
aVhttps://www.clarin.com/politica/Denuncian-espionaje-oposicion-Santiago-Estero_0_1627637365.html
p17
aVhttps://www.clarin.com/politica/Denuncian-espionaje-oposicion-Santiago-Estero_0_1627637365.html
p18
aVhttps://www.clarin.com/politica/Denunciaran-borrado-registro-Olivos-Justicia_0_1627637341.html
p19
aVhttps://www.clarin.com/politica/Suenos-Compartidos-esperan-Vido-Hebe_0_1628237166.html
p20
aVhttps://www.clarin.com/politica/Suenos-Compartidos-esperan-Vido-Hebe_0_1628237166.html
p21
aVhttps://www.clarin.com/opinion/blanqueo-gigantesca-economia-negro_0_1627637320.html
p22
aVhttps://www.clarin.com/politica/Hotesur-testimonios-nuevas-sospechas_0_1628237165.html
p23
aVhttps://www.clarin.com/politica/Hotesur-testimonios-nuevas-sospechas_0_1628237165.html
p24
a.