(lp0
S'https://www.clarin.com/politica/Macri-felicito-Trump-Espero-trabajar_0_1684031614.html'
p1
aS'https://www.clarin.com/sociedad/Time-Warp-legendaria-electronica-Kraftwerk_0_1684031612.html'
p2
aS'https://www.clarin.com/sociedad/California-aprobo-legalizacion-marihuana_0_1684031607.html'
p3
a.