(lp0
S'https://www.clarin.com/politica/Detienen-Vido-enterrando-dolares-fondo_0_1595240499.html'
p1
aS'https://www.clarin.com/politica/Crisis-Santa-Cruz-docentes-clases_0_1594640670.html'
p2
aS'https://www.clarin.com/politica/Cortan-rutas-nacionales-precio-yerba_0_1595240493.html'
p3
aS'https://www.clarin.com/politica/Ceden-presiones-Camioneros-resumenes-distribuyendo_0_1595240494.html'
p4
aS'https://www.clarin.com/sociedad/consejos-mejor-chef-mundo_0_1595240491.html'
p5
a.