(lp0
Vhttps://www.clarin.com/sociedad/estafa-anunciada_0_1618038353.html
p1
aVhttps://www.clarin.com/sociedad/Sol-chicos-extiende_0_1618038350.html
p2
aVhttps://www.clarin.com/sociedad/Sol-chicos-extiende_0_1618038350.html
p3
aVhttps://www.clarin.com/ieco/juez-rechazo-pedido-suspender-gas_0_1618038345.html
p4
aVhttps://www.clarin.com/ieco/juez-rechazo-pedido-suspender-gas_0_1618038345.html
p5
aVhttps://www.clarin.com/sociedad/jovenes-ilusion-propia-temor-inflacion_0_1617438418.html
p6
aVhttps://www.clarin.com/sociedad/jovenes-ilusion-propia-temor-inflacion_0_1617438418.html
p7
aVhttps://www.clarin.com/ieco/economia/familia-necesita-llegar-fin-mes_0_1618038344.html
p8
aVhttps://www.clarin.com/sociedad/hombres-eligen-novias-edad-hijas_0_1618038343.html
p9
aVhttps://www.clarin.com/sociedad/hombres-eligen-novias-edad-hijas_0_1618038343.html
p10
aVhttps://www.clarin.com/sociedad/echaban-lados-escuela-trans-cambio_0_1618038337.html
p11
aVhttps://www.clarin.com/sociedad/echaban-lados-escuela-trans-cambio_0_1618038337.html
p12
a.