(lp0
S'https://www.clarin.com/ieco/creditos-empresas-bajaron-marzo_0_1555044752.html'
p1
aS'https://www.clarin.com/politica/cabeza-dirigente-partido-Lilita-Carrio_0_1555044751.html'
p2
aS'https://www.clarin.com/politica/cabeza-dirigente-partido-Lilita-Carrio_0_1555044751.html'
p3
aS'https://www.clarin.com/politica/AFIP-Justicia-intervino-C5N-Radio_0_1555044744.html'
p4
aS'https://www.clarin.com/politica/AFIP-Justicia-intervino-C5N-Radio_0_1555044744.html'
p5
aS'https://www.clarin.com/sociedad/Polemicas-leyes-medios-audiovisuales_0_1555044741.html'
p6
aS'https://www.clarin.com/politica/Avance-PRO-Rio-Negro-Cipolletti_0_1555044738.html'
p7
aS'https://www.clarin.com/ieco/economia/Lousteau-Argentina-exportar-limones-EEUU_0_1555044731.html'
p8
aS'https://www.clarin.com/ieco/economia/Lousteau-Argentina-exportar-limones-EEUU_0_1555044731.html'
p9
aS'https://www.clarin.com/sociedad/peon-encontro-avion-gracias-viento_0_1555044722.html'
p10
aS'https://www.clarin.com/sociedad/peon-encontro-avion-gracias-viento_0_1555044722.html'
p11
a.