(lp0
Vhttps://www.clarin.com/sociedad/plan-arranca-prueba-piloto-provincias_0_1620438141.html
p1
aVhttps://www.clarin.com/sociedad/Buscan-violencia-monitoreo-electronico-agresores_0_1620438140.html
p2
aVhttps://www.clarin.com/sociedad/Buscan-violencia-monitoreo-electronico-agresores_0_1620438140.html
p3
aVhttps://www.clarin.com/sociedad/respuesta-frente-reclamo-llevaba-espera_0_1620438143.html
p4
aVhttps://www.clarin.com/politica/Pese-oposicion-Gobierno-defendio-personales_0_1620438113.html
p5
aVhttps://www.clarin.com/politica/Pese-oposicion-Gobierno-defendio-personales_0_1620438113.html
p6
aVhttps://www.clarin.com/politica/Tomarian-deuda-dan-Fondo-Conurbano_0_1620438126.html
p7
aVhttps://www.clarin.com/politica/Tomarian-deuda-dan-Fondo-Conurbano_0_1620438126.html
p8
aVhttps://www.clarin.com/politica/Macri-Tinelli-tratar-aplacar-polemica_0_1620438123.html
p9
aVhttps://www.clarin.com/politica/Macri-Tinelli-tratar-aplacar-polemica_0_1620438123.html
p10
aVhttps://www.clarin.com/politica/Oposicion-especialistas-Defensor-Pueblo-datos_0_1620438134.html
p11
aVhttps://www.clarin.com/opinion/piletas-tiempo-feliz_0_1620438106.html
p12
aVhttps://www.clarin.com/ieco/Derrumbando-mito-inversor-millonario_0_1616238438.html
p13
aVhttps://www.clarin.com/ieco/Derrumbando-mito-inversor-millonario_0_1616238438.html
p14
a.