(lp0
Vhttps://www.clarin.com/politica/CTA-suman-CGT-impulsan-nacional_0_1647435427.html
p1
aVhttps://www.clarin.com/politica/Gomez-Centurion-judicializado-comienzo_0_1647435424.html
p2
aVhttps://www.clarin.com/politica/Gomez-Centurion-judicializado-comienzo_0_1647435424.html
p3
aVhttps://www.clarin.com/politica/Argentina-perder-organismo-nuclear-mundial_0_1647435423.html
p4
aVhttps://www.clarin.com/politica/Argentina-perder-organismo-nuclear-mundial_0_1647435423.html
p5
aVhttps://www.clarin.com/ieco/economia/Vaca-Muerta-energias-renovables-autoabastecimiento_0_1647435421.html
p6
aVhttps://www.clarin.com/ieco/economia/Vaca-Muerta-energias-renovables-autoabastecimiento_0_1647435421.html
p7
aVhttps://www.clarin.com/sociedad/Prueban-remedios-colesterol-beneficios-riesgos_0_1647435414.html
p8
aVhttps://www.clarin.com/ieco/economia/comenzaron-debates-precio-dolar_0_1647435412.html
p9
aVhttps://www.clarin.com/ieco/economia/comenzaron-debates-precio-dolar_0_1647435412.html
p10
aVhttps://www.clarin.com/ieco/economia/gustaria-empresariado-piense-pais-grande_0_1647435409.html
p11
aVhttps://www.clarin.com/ieco/economia/gustaria-empresariado-piense-pais-grande_0_1647435409.html
p12
aVhttps://www.clarin.com/ieco/economia/gran-hito-Argentina_0_1647435407.html
p13
aVhttps://www.clarin.com/ieco/economia/gran-hito-Argentina_0_1647435407.html
p14
aVhttps://www.clarin.com/sociedad/puerta-duplico-llegada-paquetes-pais_0_1647435402.html
p15
aVhttps://www.clarin.com/sociedad/puerta-duplico-llegada-paquetes-pais_0_1647435402.html
p16
a.