(lp0
S'https://www.clarin.com/politica/SIP-destaco-avances-prensa-pais_0_1672032907.html'
p1
aS'https://www.clarin.com/politica/SIP-destaco-avances-prensa-pais_0_1672032907.html'
p2
aS'https://www.clarin.com/sociedad/discusion-control-termino-anciano-geriatrico_0_1672032910.html'
p3
aS'https://www.clarin.com/sociedad/Ole-Tiki-historia-River-Boca_0_1672032905.html'
p4
aS'https://www.clarin.com/sociedad/Ole-Tiki-historia-River-Boca_0_1672032905.html'
p5
aS'https://www.clarin.com/ieco/economia/Blanqueo-efectivo-podra-depositar-noviembre_0_1672032908.html'
p6
aS'https://www.clarin.com/ieco/economia/Blanqueo-efectivo-podra-depositar-noviembre_0_1672032908.html'
p7
aS'https://www.clarin.com/ieco/canasta-basica-alimentaria-subio-septiembre_0_1672032903.html'
p8
aS'https://www.clarin.com/ieco/canasta-basica-alimentaria-subio-septiembre_0_1672032903.html'
p9
aS'https://www.clarin.com/politica/Comercio-cerro-paritaria-negociar-bono_0_1672032902.html'
p10
aS'https://www.clarin.com/politica/Comercio-cerro-paritaria-negociar-bono_0_1672032902.html'
p11
aS'https://www.clarin.com/politica/Acorralado-Magistratura-renuncio-Rozanski-kirchenrismo_0_1672032899.html'
p12
aS'https://www.clarin.com/politica/Acorralado-Magistratura-renuncio-Rozanski-kirchenrismo_0_1672032899.html'
p13
aS'https://www.clarin.com/sociedad/Encuentran-nazi-secreta-anos-despues_0_1672032897.html'
p14
aS'https://www.clarin.com/sociedad/Encuentran-nazi-secreta-anos-despues_0_1672032897.html'
p15
a.