(lp0
S'https://www.clarin.com/sociedad/docentes-universitarios-marchan-mejoras-salariales_0_1575442542.html'
p1
aS'https://www.clarin.com/sociedad/docentes-universitarios-marchan-mejoras-salariales_0_1575442542.html'
p2
aS'https://www.clarin.com/politica/Polemica-Zarate-terminal-Nestor-Kirchner_0_1575442548.html'
p3
aS'https://www.clarin.com/politica/Polemica-Zarate-terminal-Nestor-Kirchner_0_1575442548.html'
p4
aS'https://www.clarin.com/politica/Cristina-Maximo-Kirchner-imputados-cohecho_0_1575442543.html'
p5
aS'https://www.clarin.com/politica/Cristina-Maximo-Kirchner-imputados-cohecho_0_1575442543.html'
p6
aS'https://www.clarin.com/politica/Iglesia-Papa-Bonafini-Ano-misericordia_0_1575442539.html'
p7
aS'https://www.clarin.com/politica/Iglesia-Papa-Bonafini-Ano-misericordia_0_1575442539.html'
p8
aS'https://www.clarin.com/sociedad/fiesta-cultura-Acercarte-llega-Tandil_0_1575442516.html'
p9
a.