(lp0
S'https://www.clarin.com/politica/Fuerte-PJ-auditores-Echegaray-AGN_0_1587441292.html'
p1
aS'https://www.clarin.com/politica/Fuerte-PJ-auditores-Echegaray-AGN_0_1587441292.html'
p2
aS'https://www.clarin.com/politica/Baez-allanado-jacuzzi-gimnasio-escosesa_0_1587441297.html'
p3
aS'https://www.clarin.com/politica/Baez-allanado-jacuzzi-gimnasio-escosesa_0_1587441297.html'
p4
aS'https://www.clarin.com/politica/Ahora-allanan-mayor-Lazaro-Baez_0_1587441293.html'
p5
aS'https://www.clarin.com/politica/Ahora-allanan-mayor-Lazaro-Baez_0_1587441293.html'
p6
aS'https://www.clarin.com/ieco/recesion-agravo-Brasil-primer-trimestre_0_1587441286.html'
p7
aS'https://www.clarin.com/ieco/recesion-agravo-Brasil-primer-trimestre_0_1587441286.html'
p8
aS'https://www.clarin.com/ieco/denuncia-AFIP-Samid-ahora-funcionario_0_1587441277.html'
p9
aS'https://www.clarin.com/ieco/denuncia-AFIP-Samid-ahora-funcionario_0_1587441277.html'
p10
aS'https://www.clarin.com/sociedad/Muerte-gorila-ahora-investigar-padres_0_1587441284.html'
p11
aS'https://www.clarin.com/sociedad/Muerte-gorila-ahora-investigar-padres_0_1587441284.html'
p12
a.