(lp0
S'https://www.clarin.com/ieco/septiembre-superavit-US-millones_0_1675032622.html'
p1
aS'https://www.clarin.com/ieco/actividad-economica-cayo-agosto_0_1675032608.html'
p2
aS'https://www.clarin.com/ieco/actividad-economica-cayo-agosto_0_1675032608.html'
p3
aS'https://www.clarin.com/opinion/Pasa-extraordinario-reservas-dolares-pesos_0_1675032578.html'
p4
aS'https://www.clarin.com/politica/Maximo-Kirchner-reaparece-Villa-Palito_0_1675032616.html'
p5
aS'https://www.clarin.com/politica/Maximo-Kirchner-reaparece-Villa-Palito_0_1675032616.html'
p6
aS'https://www.clarin.com/politica/Hackearon-pagina-web-Ocana_0_1675032618.html'
p7
aS'https://www.clarin.com/politica/Hackearon-pagina-web-Ocana_0_1675032618.html'
p8
aS'https://www.clarin.com/politica/OA-penalmente-programa-Maximo-Kirchner_0_1675032613.html'
p9
aS'https://www.clarin.com/politica/OA-penalmente-programa-Maximo-Kirchner_0_1675032613.html'
p10
a.