(lp0
S'https://www.clarin.com/ieco/economia/Importaciones-trasfondo-economia-recesion_0_1646835481.html'
p1
aS'https://www.clarin.com/ieco/Rogelio-Frigerio-apertura-indiscriminada-importaciones_0_1646835470.html'
p2
aS'https://www.clarin.com/ieco/economia/Crisis-OCA-sueldos-empresa-paralizada_0_1646835452.html'
p3
aS'https://www.clarin.com/politica/CGT-consenso-endurecerse-frente-Macri_0_1646835486.html'
p4
aS'https://www.clarin.com/politica/Macri-China-relanzan-Santa-Cruz_0_1646835394.html'
p5
aS'https://www.clarin.com/sociedad/Polemica-Noruega-Facebook-censuro-napalm_0_1647435267.html'
p6
a.