(lp0
Vhttps://www.clarin.com/ieco/economia/Enviaran-proximo-Congreso-rebaja-Ganancias_0_1638436147.html
p1
aVhttps://www.clarin.com/ieco/economia/Enviaran-proximo-Congreso-rebaja-Ganancias_0_1638436147.html
p2
aVhttps://www.clarin.com/sociedad/Cualquier-edificio-publico-sirve-cualquier_0_1638436146.html
p3
aVhttps://www.clarin.com/politica/piden-perinola-tarifas-precios_0_1638436145.html
p4
aVhttps://www.clarin.com/politica/Comodoro-Py-jardin-senderos-unifican_0_1638436144.html
p5
aVhttps://www.clarin.com/politica/Argentina-pais-generoso_0_1638436143.html
p6
aVhttps://www.clarin.com/opinion/juicios-crimenes-dictadura_0_1637836353.html
p7
aVhttps://www.clarin.com/opinion/Figura-arrepentido-presuncion-inocencia_0_1637836354.html
p8
aVhttps://www.clarin.com/opinion/reforma-politica-precisa-amplio-consenso_0_1637836358.html
p9
aVhttps://www.clarin.com/opinion/reforma-politica-precisa-amplio-consenso_0_1637836358.html
p10
aVhttps://www.clarin.com/politica/diputado-pide-aviones-lleven-Malvinas_0_1637836339.html
p11
aVhttps://www.clarin.com/politica/diputado-pide-aviones-lleven-Malvinas_0_1637836339.html
p12
aVhttps://www.clarin.com/politica/Negocios-Venezuela-Vido-empresario-acusado_0_1637836366.html
p13
aVhttps://www.clarin.com/politica/Negocios-Venezuela-Vido-empresario-acusado_0_1637836366.html
p14
a.