(lp0
S'https://www.clarin.com/ieco/economia/Aerolineas-Gobierno-pone-freno-competidores_0_1594040727.html'
p1
aS'https://www.clarin.com/politica/Moyano-descarto-Camioneros-descuenten-salarios_0_1594040617.html'
p2
aS'https://www.clarin.com/politica/Melconian-argentinos-dinero-guardado-exterior_0_1594640533.html'
p3
aS'https://www.clarin.com/politica/Jubilados-blanqueo-PRO-busca-llegar_0_1594040722.html'
p4
a.