(lp0
S'https://www.clarin.com/sociedad/primera-vez-trans-frente-ministerio_0_1652834773.html'
p1
aS'https://www.clarin.com/sociedad/Bullying-Zarate-filmaron-alumno-pegaba_0_1652834767.html'
p2
aS'https://www.clarin.com/sociedad/pastilla-podria-reemplazar-actividad-gimnasio_0_1652834769.html'
p3
aS'https://www.clarin.com/sociedad/Conmueve-version-Himno-Nacional-lenguaje_0_1651035028.html'
p4
a.