(lp0
S'https://www.clarin.com/opinion/revertir-fracaso-sociedad_0_1685231610.html'
p1
aS'https://www.clarin.com/opinion/Eleccion-memorable-alianza-perenne_0_1685231609.html'
p2
aS'https://www.clarin.com/opinion/Eleccion-memorable-alianza-perenne_0_1685231609.html'
p3
aS'https://www.clarin.com/politica/denuncia-anonima-Gomez-Centurion-economico_0_1685231603.html'
p4
aS'https://www.clarin.com/politica/denuncia-anonima-Gomez-Centurion-economico_0_1685231603.html'
p5
a.