(lp0
S'https://www.clarin.com/sociedad/Emociona-verlos-remar_0_1612038966.html'
p1
aS'https://www.clarin.com/sociedad/Mundos-intimos-cancer-peleando-futuro_0_1612038963.html'
p2
aS'https://www.clarin.com/sociedad/Mundos-intimos-cancer-peleando-futuro_0_1612038963.html'
p3
aS'https://www.clarin.com/politica/Macri-ofrenda-floral-victima-AMIA_0_1613238807.html'
p4
aS'https://www.clarin.com/politica/AMIA-Gobierno-convenio-polemico-dirigente_0_1613838749.html'
p5
aS'https://www.clarin.com/politica/AMIA-Gobierno-convenio-polemico-dirigente_0_1613838749.html'
p6
a.