(lp0
S'https://www.clarin.com/politica/bicicleta-Macri-regalo-Obama_0_1545445866.html'
p1
aS'https://www.clarin.com/politica/bicicleta-Macri-regalo-Obama_0_1545445866.html'
p2
aS'https://www.clarin.com/ieco/economia/dolar-subio-centavos-cara-feriados_0_1545445853.html'
p3
aS'https://www.clarin.com/ieco/economia/riesgos-desafios-chance-salir-default_0_1545445846.html'
p4
aS'https://www.clarin.com/ieco/economia/riesgos-desafios-chance-salir-default_0_1545445846.html'
p5
aS'https://www.clarin.com/sociedad/Mendoza-cuerpos-jovenes-asesinadas-Ecuador_0_1545445840.html'
p6
aS'https://www.clarin.com/sociedad/Mendoza-cuerpos-jovenes-asesinadas-Ecuador_0_1545445840.html'
p7
aS'https://www.clarin.com/ieco/economia/Michelle-Obama-hijas-recorrieron-Malba_0_1545445799.html'
p8
a.