(lp0
S'https://www.clarin.com/sociedad/Suba-tarifas-portenos-cambiando-habitos_0_1609039304.html'
p1
aS'https://www.clarin.com/sociedad/Suba-tarifas-portenos-cambiando-habitos_0_1609039304.html'
p2
aS'https://www.clarin.com/sociedad/Comienza-gran-fiesta-bicentenario_0_1609039302.html'
p3
aS'https://www.clarin.com/sociedad/Comienza-gran-fiesta-bicentenario_0_1609039302.html'
p4
aS'https://www.clarin.com/ieco/AFIP-actualizo-valores-informar-inmuebles_0_1609039297.html'
p5
aS'https://www.clarin.com/ieco/AFIP-actualizo-valores-informar-inmuebles_0_1609039297.html'
p6
aS'https://www.clarin.com/politica/Cristina-ironica-denuncio-Policia-pusieron_0_1609039299.html'
p7
aS'https://www.clarin.com/politica/Cristina-ironica-denuncio-Policia-pusieron_0_1609039299.html'
p8
aS'https://www.clarin.com/sociedad/Femicidio-Cordoba-mujer-luego-suicidio_0_1609039292.html'
p9
aS'https://www.clarin.com/ieco/Premio-iEco-Cannes_0_1609039286.html'
p10
a.