(lp0
Vhttps://www.clarin.com/politica/monumento-Colon-agenda-Renzi_0_1523847604.html
p1
aVhttps://www.clarin.com/politica/monumento-Colon-agenda-Renzi_0_1523847604.html
p2
aVhttps://www.clarin.com/politica/Magistratura-imponer-Tonelli-juro_0_1523847602.html
p3
aVhttps://www.clarin.com/sociedad/Belleza-XL-modelo-impuso-verano_0_1523248101.html
p4
aVhttps://www.clarin.com/sociedad/Belleza-XL-modelo-impuso-verano_0_1523248101.html
p5
aVhttps://www.clarin.com/ieco/economia/comercio_de_autos-mercosur_0_1523248130.html
p6
a.