(lp0
Vhttps://www.clarin.com/politica/amigable-Malvinas-Macri-encontro-britanica_0_1654034711.html
p1
aVhttps://www.clarin.com/politica/amigable-Malvinas-Macri-encontro-britanica_0_1654034711.html
p2
aVhttps://www.clarin.com/politica/Despues-manzanazo-verdurazo-viene-cuadernazo_0_1654034708.html
p3
aVhttps://www.clarin.com/politica/Despues-manzanazo-verdurazo-viene-cuadernazo_0_1654034708.html
p4
aVhttps://www.clarin.com/politica/Discurso-completo-Mauricio-Macri-ONU_0_1654034706.html
p5
aVhttps://www.clarin.com/politica/Discurso-completo-Mauricio-Macri-ONU_0_1654034706.html
p6
aVhttps://www.clarin.com/politica/Ritondo-puerta-giratoria-problema-seguridad_0_1654034703.html
p7
aVhttps://www.clarin.com/politica/Ritondo-puerta-giratoria-problema-seguridad_0_1654034703.html
p8
aVhttps://www.clarin.com/politica/Macri-Awada-ONU-difundido-Presidencia_0_1654034700.html
p9
aVhttps://www.clarin.com/politica/Macri-Awada-ONU-difundido-Presidencia_0_1654034700.html
p10
a.