(lp0
Vhttps://www.clarin.com/sociedad/jovenes-salvaron-pasajero-ACV-colectivo_0_1617438436.html
p1
aVhttps://www.clarin.com/sociedad/jovenes-salvaron-pasajero-ACV-colectivo_0_1617438436.html
p2
aVhttps://www.clarin.com/sociedad/primera-pareja-sordos-lengua-senas_0_1617438435.html
p3
aVhttps://www.clarin.com/sociedad/primera-pareja-sordos-lengua-senas_0_1617438435.html
p4
aVhttps://www.clarin.com/ieco/trabas-Justicia-discutida-suba-tarifas_0_1617438431.html
p5
a.