(lp0
S'https://www.clarin.com/opinion/apertura-cuestion_0_1677432245.html'
p1
aS'https://www.clarin.com/sociedad/ilusion-hace-andar_0_1676832459.html'
p2
aS'https://www.clarin.com/opinion/Maduro-Papa-oposicion-cree-milagros_0_1677432246.html'
p3
aS'https://www.clarin.com/opinion/Boca-River-Macri-DOnofrio_0_1677432244.html'
p4
aS'https://www.clarin.com/opinion/falsa-opcion-populismoentre-justicia-libertad_0_1677432243.html'
p5
aS'https://www.clarin.com/politica/Cristina-planteo-Casacion-denegacion-justicia_0_1676832511.html'
p6
aS'https://www.clarin.com/politica/Presidenta-descansa-Calafate-declarar-corrupcion_0_1676832468.html'
p7
aS'https://www.clarin.com/politica/oficialismo-limite-electronico-advierte-oposicion_0_1676832510.html'
p8
aS'https://www.clarin.com/opinion/hombre-escucha-Macri_0_1677432248.html'
p9
aS'https://www.clarin.com/sociedad/Poliomielitis-problema-silla-ruedas-diferente_0_1676832455.html'
p10
a.