(lp0
S'https://www.clarin.com/sociedad/Condenados-Cromanon-comienzan-recuperar-libertad_0_1613838634.html'
p1
aS'https://www.clarin.com/politica/Massa-CARI-candidatura-Malcorra-ONU_0_1613838623.html'
p2
a.