(lp0
S'https://www.clarin.com/politica/Casanello-llamo-indagatoria-Vido-Skanska_0_1641435970.html'
p1
aS'https://www.clarin.com/politica/Casanello-llamo-indagatoria-Vido-Skanska_0_1641435970.html'
p2
aS'https://www.clarin.com/sociedad/UTA-terminal-Retiro-reclamos-seguridad_0_1641435964.html'
p3
aS'https://www.clarin.com/sociedad/UTA-terminal-Retiro-reclamos-seguridad_0_1641435964.html'
p4
aS'https://www.clarin.com/politica/Macri-recibio-Gomez-Centurion_0_1641435963.html'
p5
aS'https://www.clarin.com/politica/Macri-recibio-Gomez-Centurion_0_1641435963.html'
p6
aS'https://www.clarin.com/sociedad/Misterio-masacre-Puede-matar-animales_0_1641435961.html'
p7
aS'https://www.clarin.com/sociedad/Misterio-masacre-Puede-matar-animales_0_1641435961.html'
p8
aS'https://www.clarin.com/opinion/riesgo-policias-on-line_0_1641435960.html'
p9
a.