(lp0
S'https://www.clarin.com/politica/Macri-karma-abrazo-Circulo-Rojo_0_1667233472.html'
p1
aS'https://www.clarin.com/politica/Macri-karma-abrazo-Circulo-Rojo_0_1667233472.html'
p2
aS'https://www.clarin.com/politica/diciembre-bono-millones-personas_0_1667233470.html'
p3
aS'https://www.clarin.com/politica/diciembre-bono-millones-personas_0_1667233470.html'
p4
aS'https://www.clarin.com/sociedad/asambleas-temprano-Aeroparque-aeropuerto-Ezeiza_0_1667233469.html'
p5
aS'https://www.clarin.com/sociedad/asambleas-temprano-Aeroparque-aeropuerto-Ezeiza_0_1667233469.html'
p6
aS'https://www.clarin.com/politica/Guino-plus-privados-reapertura-paritarias_0_1667233468.html'
p7
aS'https://www.clarin.com/ieco/economia/Creen-economia-dejo-caer-inversiones_0_1667233467.html'
p8
aS'https://www.clarin.com/ieco/economia/Creen-economia-dejo-caer-inversiones_0_1667233467.html'
p9
aS'https://www.clarin.com/politica/Scioli-Cristina-cuestiono-datos-pobreza_0_1667233459.html'
p10
aS'https://www.clarin.com/politica/Scioli-Cristina-cuestiono-datos-pobreza_0_1667233459.html'
p11
aS'https://www.clarin.com/politica/Fernando-Rua-Quinta-Olivos-Macri_0_1667233462.html'
p12
aS'https://www.clarin.com/politica/Fernando-Rua-Quinta-Olivos-Macri_0_1667233462.html'
p13
a.