(lp0
S'https://www.clarin.com/politica/comunicado-Iglesia-comprometio-esclarecer-corrupcion_0_1606039492.html'
p1
aS'https://www.clarin.com/sociedad/Hallaron-nene-anos-solo-yerbatales_0_1606039497.html'
p2
aS'https://www.clarin.com/sociedad/Manuel-Wirtz-director-Republica-Ninos_0_1606039493.html'
p3
a.