(lp0
Vhttps://www.clarin.com/sociedad/meses-acosan-llamados-mensajes-calle_0_1553244864.html
p1
aVhttps://www.clarin.com/sociedad/meses-acosan-llamados-mensajes-calle_0_1553244864.html
p2
aVhttps://www.clarin.com/politica/intendente-pide-hagan-rinoscopias-jueces_0_1553244866.html
p3
aVhttps://www.clarin.com/sociedad/ultimo-visual-Facebook-tigres-imagen_0_1553244862.html
p4
aVhttps://www.clarin.com/sociedad/ultimo-visual-Facebook-tigres-imagen_0_1553244862.html
p5
aVhttps://www.clarin.com/sociedad/Misterio-muerte-conocida-actriz-porno_0_1553244858.html
p6
aVhttps://www.clarin.com/sociedad/Misterio-muerte-conocida-actriz-porno_0_1553244858.html
p7
aVhttps://www.clarin.com/ieco/Estudian-IVA-mitad-pollo-cerdo_0_1552645014.html
p8
aVhttps://www.clarin.com/ieco/anos-negocio-liebre-redujo-mitad_0_1553244838.html
p9
aVhttps://www.clarin.com/ieco/anos-negocio-liebre-redujo-mitad_0_1553244838.html
p10
aVhttps://www.clarin.com/ieco/economia/represas-Santa-Cruz-orbita-Aranguren_0_1553244854.html
p11
aVhttps://www.clarin.com/ieco/economia/represas-Santa-Cruz-orbita-Aranguren_0_1553244854.html
p12
aVhttps://www.clarin.com/sociedad/azafatas-confiesan-vuelo-enganos-pasajeros_0_1553244831.html
p13
aVhttps://www.clarin.com/sociedad/azafatas-confiesan-vuelo-enganos-pasajeros_0_1553244831.html
p14
a.