(lp0
Vhttps://www.clarin.com/sociedad/Chile-Brasil-reservas-vacaciones-invierno_0_1600640118.html
p1
aVhttps://www.clarin.com/sociedad/Chile-Brasil-reservas-vacaciones-invierno_0_1600640118.html
p2
aVhttps://www.clarin.com/politica/Cristina-denuncio-violento-intimidatorio-Kirchner_0_1600640113.html
p3
aVhttps://www.clarin.com/politica/Cristina-denuncio-violento-intimidatorio-Kirchner_0_1600640113.html
p4
aVhttps://www.clarin.com/politica/corrupcion-retumba-fuerza_0_1600640111.html
p5
aVhttps://www.clarin.com/politica/Carrio-Quiero-Justicia-Kirchner-Cristina_0_1600640109.html
p6
aVhttps://www.clarin.com/politica/Carrio-Quiero-Justicia-Kirchner-Cristina_0_1600640109.html
p7
aVhttps://www.clarin.com/politica/Procesaron-lavado-recaudadores-Cristina_0_1600640102.html
p8
aVhttps://www.clarin.com/politica/Procesaron-lavado-recaudadores-Cristina_0_1600640102.html
p9
aVhttps://www.clarin.com/politica/ojo-dolar-empresarios-advierten-pobreza_0_1600640105.html
p10
aVhttps://www.clarin.com/politica/Ciccone-Lijo-descarta-citar-funcionarios_0_1600640095.html
p11
aVhttps://www.clarin.com/politica/Ciccone-Lijo-descarta-citar-funcionarios_0_1600640095.html
p12
a.