(lp0
Vhttps://www.clarin.com/sociedad/Furor-video-hombre-frena-acosador_0_1678032220.html
p1
aVhttps://www.clarin.com/sociedad/Furor-video-hombre-frena-acosador_0_1678032220.html
p2
aVhttps://www.clarin.com/politica/Cristina-Kirchner-distribucion-gobierno-horizontal_0_1678032217.html
p3
aVhttps://www.clarin.com/politica/Cristina-Kirchner-distribucion-gobierno-horizontal_0_1678032217.html
p4
aVhttps://www.clarin.com/politica/Indice-optimismo-numeros-Gobierno-Macri_0_1678032215.html
p5
aVhttps://www.clarin.com/politica/Indice-optimismo-numeros-Gobierno-Macri_0_1678032215.html
p6
a.