(lp0
Vhttps://www.clarin.com/politica/Hebe-Bonafini-escribio-Francisco-ayudanos_0_1689431129.html
p1
aVhttps://www.clarin.com/politica/Hebe-Bonafini-escribio-Francisco-ayudanos_0_1689431129.html
p2
aVhttps://www.clarin.com/politica/Presion-oficialista-gobernadores-PJ-electoral_0_1689431128.html
p3
aVhttps://www.clarin.com/politica/Presion-oficialista-gobernadores-PJ-electoral_0_1689431128.html
p4
aVhttps://www.clarin.com/ieco/ARBA-calificar-contribuyentes-Ingresos-Brutos_0_1689431127.html
p5
aVhttps://www.clarin.com/ieco/ARBA-calificar-contribuyentes-Ingresos-Brutos_0_1689431127.html
p6
aVhttps://www.clarin.com/ieco/Blanqueo-plazo-depositar-dinero-efectivo_0_1689431125.html
p7
aVhttps://www.clarin.com/ieco/Blanqueo-plazo-depositar-dinero-efectivo_0_1689431125.html
p8
aVhttps://www.clarin.com/politica/Elaskar-manejar-dinero-traves-bancos_0_1689431115.html
p9
aVhttps://www.clarin.com/politica/Elaskar-manejar-dinero-traves-bancos_0_1689431115.html
p10
a.