(lp0
Vhttps://www.clarin.com/sociedad/Difunden-desechan-cloacales-Nahuel-Huapi_0_1558644292.html
p1
aVhttps://www.clarin.com/sociedad/Difunden-desechan-cloacales-Nahuel-Huapi_0_1558644292.html
p2
aVhttps://www.clarin.com/sociedad/microchip-permite-tetraplejico-recuperar-control_0_1558644277.html
p3
aVhttps://www.clarin.com/sociedad/microchip-permite-tetraplejico-recuperar-control_0_1558644277.html
p4
aVhttps://www.clarin.com/sociedad/estrellas-ensena-secretos-redes-sociales_0_1558644274.html
p5
aVhttps://www.clarin.com/sociedad/estrellas-ensena-secretos-redes-sociales_0_1558644274.html
p6
aVhttps://www.clarin.com/politica/Cristina-palos-prensa-pedido-Milagro_0_1558644267.html
p7
aVhttps://www.clarin.com/politica/Cristina-palos-prensa-pedido-Milagro_0_1558644267.html
p8
aVhttps://www.clarin.com/ieco/economia/deficit-fiscal-llegaria_0_1558644268.html
p9
aVhttps://www.clarin.com/politica/Macri-renuncia-Oyarbide-Tinelli-Carrio_0_1558644266.html
p10
aVhttps://www.clarin.com/politica/Macri-renuncia-Oyarbide-Tinelli-Carrio_0_1558644266.html
p11
a.