(lp0
S'https://www.clarin.com/sociedad/Letras-lunares-test-desafia-Internet_0_1586841382.html'
p1
aS'https://www.clarin.com/sociedad/Letras-lunares-test-desafia-Internet_0_1586841382.html'
p2
aS'https://www.clarin.com/sociedad/Time-Warp-Casanello-funcionarios-portenos_0_1586841381.html'
p3
aS'https://www.clarin.com/sociedad/Time-Warp-Casanello-funcionarios-portenos_0_1586841381.html'
p4
aS'https://www.clarin.com/sociedad/Michetti-Macri-podria-feriado-junio_0_1586841377.html'
p5
aS'https://www.clarin.com/sociedad/Michetti-Macri-podria-feriado-junio_0_1586841377.html'
p6
aS'https://www.clarin.com/sociedad/nuevo-video-muestra-gorila-dandole_0_1586841372.html'
p7
aS'https://www.clarin.com/sociedad/nuevo-video-muestra-gorila-dandole_0_1586841372.html'
p8
a.