(lp0
S'https://www.clarin.com/ieco/economia/empreas-EEUU-brechas-profundizar-integracion_0_1545445672.html'
p1
aS'https://www.clarin.com/ieco/economia/empreas-EEUU-brechas-profundizar-integracion_0_1545445672.html'
p2
aS'https://www.clarin.com/sociedad/Junta-firmas-Change-salga-libertad_0_1545445667.html'
p3
aS'https://www.clarin.com/sociedad/Junta-firmas-Change-salga-libertad_0_1545445667.html'
p4
aS'https://www.clarin.com/politica/Insolito-Alicia-Lazaro-Baez-familia_0_1545445662.html'
p5
aS'https://www.clarin.com/politica/Insolito-Alicia-Lazaro-Baez-familia_0_1545445662.html'
p6
aS'https://www.clarin.com/politica/Crece-tension-conflicto-Tierra-Fuego_0_1545445590.html'
p7
aS'https://www.clarin.com/politica/Crece-tension-conflicto-Tierra-Fuego_0_1545445590.html'
p8
aS'https://www.clarin.com/sociedad/Bariloche-gigante-chocolate-record-Obama_0_1545445650.html'
p9
aS'https://www.clarin.com/sociedad/Bariloche-gigante-chocolate-record-Obama_0_1545445650.html'
p10
aS'https://www.clarin.com/ieco/economia/intercambio-comercial-EEUU-niveles-bajos_0_1545445644.html'
p11
aS'https://www.clarin.com/sociedad/Vuelve-Espacio-Clarin-Semana-Santa_0_1545445614.html'
p12
aS'https://www.clarin.com/sociedad/Vuelve-Espacio-Clarin-Semana-Santa_0_1545445614.html'
p13
aS'https://www.clarin.com/politica/Mira-Fotogaleria-HD_0_1545445634.html'
p14
aS'https://www.clarin.com/politica/Mira-Fotogaleria-HD_0_1545445634.html'
p15
a.