(lp0
S'https://www.clarin.com/ieco/economia/Banco-Mundial-US-George-Soros_0_1688231223.html'
p1
aS'https://www.clarin.com/politica/Pena-Cristina-Kirchner-dedicamos-perseguir_0_1688231230.html'
p2
aS'https://www.clarin.com/sociedad/Video-llueve-nene-conduce-autopista_0_1688231224.html'
p3
a.