(lp0
S'https://www.clarin.com/ieco/familia-Capital-ganar-vivienda-propia_0_1616838365.html'
p1
aS'https://www.clarin.com/ieco/familia-Capital-ganar-vivienda-propia_0_1616838365.html'
p2
aS'https://www.clarin.com/sociedad/Reprodujeron-primera-vez-cautiverio-Dory_0_1616838362.html'
p3
aS'https://www.clarin.com/sociedad/Reprodujeron-primera-vez-cautiverio-Dory_0_1616838362.html'
p4
aS'https://www.clarin.com/sociedad/aventurero-vuelta-mundo-cruzo-Argentina_0_1616838361.html'
p5
aS'https://www.clarin.com/sociedad/aventurero-vuelta-mundo-cruzo-Argentina_0_1616838361.html'
p6
aS'https://www.clarin.com/sociedad/Vidal-confirmo-paritaria-docente-reabrira_0_1616838349.html'
p7
aS'https://www.clarin.com/sociedad/Vidal-confirmo-paritaria-docente-reabrira_0_1616838349.html'
p8
a.