(lp0
S'https://www.clarin.com/politica/Desconcierto-enojo-Casa-Rosada_0_1625237658.html'
p1
aS'https://www.clarin.com/sociedad/Primer-Empleo-logra-avanzar-Congreso_0_1625237665.html'
p2
aS'https://www.clarin.com/sociedad/Primer-Empleo-logra-avanzar-Congreso_0_1625237665.html'
p3
aS'https://www.clarin.com/sociedad/Debemos-orientarlos-educacion_0_1625237662.html'
p4
aS'https://www.clarin.com/sociedad/Advierten-Pokemon-Go-accede-personales_0_1625237659.html'
p5
aS'https://www.clarin.com/sociedad/Advierten-Pokemon-Go-accede-personales_0_1625237659.html'
p6
aS'https://www.clarin.com/politica/Moreno-insulto-economista-pregunto-inflacion_0_1625237654.html'
p7
aS'https://www.clarin.com/politica/Moreno-insulto-economista-pregunto-inflacion_0_1625237654.html'
p8
a.