(lp0
Vhttps://www.clarin.com/politica/marcha-Justicia-siente-grandes-ciudades_0_1666633478.html
p1
aVhttps://www.clarin.com/politica/marcha-Justicia-siente-grandes-ciudades_0_1666633478.html
p2
aVhttps://www.clarin.com/ieco/economia/Contrato-YPF-Chevron-advierten-sociedades-shore_0_1666633476.html
p3
aVhttps://www.clarin.com/ieco/economia/Contrato-YPF-Chevron-advierten-sociedades-shore_0_1666633476.html
p4
aVhttps://www.clarin.com/sociedad/Polemica-Mendoza-administrador-Daniel-Vila_0_1666633471.html
p5
aVhttps://www.clarin.com/politica/criticas-DAIA-archivo-denuncia-Nisman_0_1666633467.html
p6
aVhttps://www.clarin.com/politica/criticas-DAIA-archivo-denuncia-Nisman_0_1666633467.html
p7
aVhttps://www.clarin.com/politica/Guino-Massa-corazon-peronista-gobernar_0_1666633470.html
p8
aVhttps://www.clarin.com/politica/Guino-Massa-corazon-peronista-gobernar_0_1666633470.html
p9
aVhttps://www.clarin.com/ieco/economia/Banco-Central-volvio-dejar-quietas_0_1666633463.html
p10
aVhttps://www.clarin.com/sociedad/dias-liberan-ballena-billete-pesos_0_1666633465.html
p11
aVhttps://www.clarin.com/sociedad/dias-liberan-ballena-billete-pesos_0_1666633465.html
p12
a.