(lp0
S'https://www.clarin.com/politica/Arranca-dialogo-CGT-pide-bono_0_1670833064.html'
p1
aS'https://www.clarin.com/politica/Arranca-dialogo-CGT-pide-bono_0_1670833064.html'
p2
aS'https://www.clarin.com/sociedad/Aprender-seguira-manana-alumnos-secundario_0_1670833052.html'
p3
aS'https://www.clarin.com/sociedad/Aprender-seguira-manana-alumnos-secundario_0_1670833052.html'
p4
aS'https://www.clarin.com/sociedad/Detienen-madre-asesinato-hijo_0_1670833051.html'
p5
aS'https://www.clarin.com/sociedad/Detienen-madre-asesinato-hijo_0_1670833051.html'
p6
aS'https://www.clarin.com/politica/Misteriosa-Malvinas-Reparan-perdido-Campora_0_1670833035.html'
p7
aS'https://www.clarin.com/politica/Misteriosa-Malvinas-Reparan-perdido-Campora_0_1670833035.html'
p8
aS'https://www.clarin.com/politica/Misiles-confirman-Argentina-primer-ejercicio_0_1670832955.html'
p9
aS'https://www.clarin.com/politica/Misiles-confirman-Argentina-primer-ejercicio_0_1670832955.html'
p10
a.