(lp0
Vhttps://www.clarin.com/ieco/economia/Crisis-productores-pidieron-millones-Buryaile_0_1639036181.html
p1
aVhttps://www.clarin.com/ieco/economia/Crisis-productores-pidieron-millones-Buryaile_0_1639036181.html
p2
aVhttps://www.clarin.com/politica/Macri-Circulo-Rojo-salones-Alvear_0_1639036180.html
p3
aVhttps://www.clarin.com/politica/Macri-Circulo-Rojo-salones-Alvear_0_1639036180.html
p4
aVhttps://www.clarin.com/opinion/enfrentar-Potro-podria-cruzarlo-segunda_0_1639036179.html
p5
aVhttps://www.clarin.com/opinion/enfrentar-Potro-podria-cruzarlo-segunda_0_1639036179.html
p6
aVhttps://www.clarin.com/sociedad/escandalo-simbolos-siguio-provocadores-antisemitas_0_1639036165.html
p7
aVhttps://www.clarin.com/sociedad/escandalo-simbolos-siguio-provocadores-antisemitas_0_1639036165.html
p8
aVhttps://www.clarin.com/sociedad/Pide-ayuda-recuperar-cuadro-abuelo_0_1639036173.html
p9
aVhttps://www.clarin.com/sociedad/Pide-ayuda-recuperar-cuadro-abuelo_0_1639036173.html
p10
aVhttps://www.clarin.com/sociedad/viajes-Gulliver-vuelve-kioscos_0_1639036168.html
p11
aVhttps://www.clarin.com/sociedad/viajes-Gulliver-vuelve-kioscos_0_1639036168.html
p12
aVhttps://www.clarin.com/politica/Gobierno-San-Juan-Plaza-Mayo_0_1639036169.html
p13
aVhttps://www.clarin.com/politica/Gobierno-San-Juan-Plaza-Mayo_0_1639036169.html
p14
aVhttps://www.clarin.com/sociedad/Paso-tramite-AFIP-compras-puerta_0_1639036167.html
p15
aVhttps://www.clarin.com/sociedad/Paso-tramite-AFIP-compras-puerta_0_1639036167.html
p16
aVhttps://www.clarin.com/politica/Respaldo-Ritondo-Lopez-Macri-Vidal_0_1639036166.html
p17
a.