(lp0
S'https://www.clarin.com/politica/Zaffaroni-Bonadio-procese-Cristina-encarcelarla_0_1560444289.html'
p1
aS'https://www.clarin.com/politica/Zaffaroni-Bonadio-procese-Cristina-encarcelarla_0_1560444289.html'
p2
aS'https://www.clarin.com/ieco/economia/Venta-autos-usados-primer-trimestre_0_1560444258.html'
p3
aS'https://www.clarin.com/sociedad/Piden-asistencia-psicologica-internada-tragica_0_1560444249.html'
p4
aS'https://www.clarin.com/sociedad/Piden-asistencia-psicologica-internada-tragica_0_1560444249.html'
p5
aS'https://www.clarin.com/politica/Triaca-personas-aguantar-pedimos-esfuerzo_0_1560444236.html'
p6
aS'https://www.clarin.com/politica/Triaca-personas-aguantar-pedimos-esfuerzo_0_1560444236.html'
p7
aS'https://www.clarin.com/sociedad/victimas-tragedia-Costa-Salguero_0_1560444234.html'
p8
aS'https://www.clarin.com/sociedad/victimas-tragedia-Costa-Salguero_0_1560444234.html'
p9
aS'https://www.clarin.com/sociedad/padres-internada-Qatar-autorizaron-desconectarla_0_1560444232.html'
p10
aS'https://www.clarin.com/sociedad/padres-internada-Qatar-autorizaron-desconectarla_0_1560444232.html'
p11
aS'https://www.clarin.com/politica/Gobierno-emision-millones-dolares-fondos_0_1560444218.html'
p12
aS'https://www.clarin.com/politica/Gobierno-emision-millones-dolares-fondos_0_1560444218.html'
p13
a.