(lp0
S'https://www.clarin.com/politica/imputaron-Sbatella-usurpacion_de_cargo_0_1527447467.html'
p1
aS'https://www.clarin.com/politica/Macri-puede-funcionar-aguantadero-politica_0_1527447445.html'
p2
aS'https://www.clarin.com/politica/estatales-haran-piquetes-paro-miercoles_0_1527447451.html'
p3
aS'https://www.clarin.com/ieco/economia/Central-pronostica-horizonte-precios-deprimidos_0_1527447457.html'
p4
a.