(lp0
Vhttps://www.clarin.com/sociedad/Salen-subasta-corbatas-Adolf-Hitler_0_1592840775.html
p1
aVhttps://www.clarin.com/sociedad/Salen-subasta-corbatas-Adolf-Hitler_0_1592840775.html
p2
aVhttps://www.clarin.com/politica/Difunden-imagenes-celda-Milagro-Sala_0_1592840767.html
p3
aVhttps://www.clarin.com/politica/Difunden-imagenes-celda-Milagro-Sala_0_1592840767.html
p4
aVhttps://www.clarin.com/ieco/economia/restricciones-gas-industrias-extenderan-lunes_0_1592840765.html
p5
aVhttps://www.clarin.com/ieco/economia/restricciones-gas-industrias-extenderan-lunes_0_1592840765.html
p6
aVhttps://www.clarin.com/ieco/economia/Camioneros-bloquea-refineria-YPF-faltar_0_1592840763.html
p7
aVhttps://www.clarin.com/ieco/economia/Camioneros-bloquea-refineria-YPF-faltar_0_1592840763.html
p8
aVhttps://www.clarin.com/politica/Conflicto-Ministerio-Trabajo-conciliacion-obligatoria_0_1592840762.html
p9
aVhttps://www.clarin.com/politica/Conflicto-Ministerio-Trabajo-conciliacion-obligatoria_0_1592840762.html
p10
aVhttps://www.clarin.com/politica/Majul-intratable-Polimeni-deanalfabeto-politico_0_1592840756.html
p11
aVhttps://www.clarin.com/politica/Majul-intratable-Polimeni-deanalfabeto-politico_0_1592840756.html
p12
aVhttps://www.clarin.com/politica/Macri-meses-Gobierno-transicion-costando_0_1592840758.html
p13
aVhttps://www.clarin.com/politica/Macri-meses-Gobierno-transicion-costando_0_1592840758.html
p14
aVhttps://www.clarin.com/sociedad/Creen-atropellada-privada-relaciones-consentidas_0_1592840757.html
p15
aVhttps://www.clarin.com/sociedad/Creen-atropellada-privada-relaciones-consentidas_0_1592840757.html
p16
a.