(lp0
S'https://www.clarin.com/ieco/economia/INDEC-difundira-evolucion-PIB-correciones_0_1547245629.html'
p1
aS'https://www.clarin.com/ieco/economia/INDEC-difundira-evolucion-PIB-correciones_0_1547245629.html'
p2
aS'https://www.clarin.com/politica/Saenz-importante-Nisman-fuero-federal_0_1547245620.html'
p3
aS'https://www.clarin.com/politica/Saenz-importante-Nisman-fuero-federal_0_1547245620.html'
p4
a.