(lp0
S'https://www.clarin.com/politica/Bonadio-Sauces-inmobiliaria-Cristina-Kirchner_0_1678632159.html'
p1
aS'https://www.clarin.com/politica/Patricia-Bullrich-Parece-Escobar-Comodoro_0_1678632152.html'
p2
aS'https://www.clarin.com/politica/Macri-indagatoria-Cristina-Kirchner-argentinos_0_1678632153.html'
p3
aS'https://www.clarin.com/sociedad/manana-viajar-exterior-DNI-libreta_0_1678632155.html'
p4
aS'https://www.clarin.com/ieco/Banco-Cordoba-obtuvo-ganancias_0_1678632162.html'
p5
aS'https://www.clarin.com/ieco/saldo-comercial-mejoro-US-millones_0_1678632157.html'
p6
a.