(lp0
Vhttps://www.clarin.com/politica/gobierno-investiga-supuesta-sensibles-terroristas_0_1657034438.html
p1
aVhttps://www.clarin.com/politica/gobierno-investiga-supuesta-sensibles-terroristas_0_1657034438.html
p2
aVhttps://www.clarin.com/politica/Rumores-datos-marchas-contramarchas-Gobierno_0_1657034452.html
p3
aVhttps://www.clarin.com/politica/Rumores-datos-marchas-contramarchas-Gobierno_0_1657034452.html
p4
aVhttps://www.clarin.com/politica/Lanata-DElia-dirigente-ninguneo-Twitter_0_1657034456.html
p5
aVhttps://www.clarin.com/politica/Lanata-DElia-dirigente-ninguneo-Twitter_0_1657034456.html
p6
aVhttps://www.clarin.com/politica/Denuncian-Cristobal-Lopez-controlaba-mismo_0_1657034432.html
p7
aVhttps://www.clarin.com/politica/Denuncian-Cristobal-Lopez-controlaba-mismo_0_1657034432.html
p8
aVhttps://www.clarin.com/sociedad/multitud-congregarse-Virgen-San-Nicolas_0_1657034453.html
p9
aVhttps://www.clarin.com/sociedad/multitud-congregarse-Virgen-San-Nicolas_0_1657034453.html
p10
aVhttps://www.clarin.com/sociedad/China-buscar-extraterrestre-telescopio-grande_0_1657034451.html
p11
aVhttps://www.clarin.com/sociedad/China-buscar-extraterrestre-telescopio-grande_0_1657034451.html
p12
aVhttps://www.clarin.com/sociedad/Empezaron-burlarse-epoca-fotolog_0_1657034450.html
p13
aVhttps://www.clarin.com/politica/Bullrich-Vidal-negocian-gendarmes_0_1657034449.html
p14
aVhttps://www.clarin.com/politica/Bullrich-Vidal-negocian-gendarmes_0_1657034449.html
p15
aVhttps://www.clarin.com/sociedad/Ciberbullying-maestros-aula-mitad-intervino_0_1657034447.html
p16
aVhttps://www.clarin.com/sociedad/Ciberbullying-maestros-aula-mitad-intervino_0_1657034447.html
p17
a.