(lp0
Vhttps://www.clarin.com/sociedad/Mato-mujer-jardin-infantes-enfermo_0_1636636398.html
p1
aVhttps://www.clarin.com/sociedad/Mato-mujer-jardin-infantes-enfermo_0_1636636398.html
p2
aVhttps://www.clarin.com/politica/Fugas-accidentado-Congreso-CGT-reunificacion_0_1636636395.html
p3
aVhttps://www.clarin.com/politica/Fugas-accidentado-Congreso-CGT-reunificacion_0_1636636395.html
p4
aVhttps://www.clarin.com/politica/Abogado-profesor-perfil-nuevo-Corte_0_1636036518.html
p5
aVhttps://www.clarin.com/politica/Abogado-profesor-perfil-nuevo-Corte_0_1636036518.html
p6
aVhttps://www.clarin.com/ieco/Gobierno-Argentina-oportunidades-inversion-US_0_1636636390.html
p7
aVhttps://www.clarin.com/ieco/Gobierno-Argentina-oportunidades-inversion-US_0_1636636390.html
p8
aVhttps://www.clarin.com/sociedad/mision-simula-Marte-lograr-objetivo_0_1636636387.html
p9
aVhttps://www.clarin.com/sociedad/mision-simula-Marte-lograr-objetivo_0_1636636387.html
p10
a.