(lp0
Vhttps://www.clarin.com/sociedad/aerolinea-confundio-ninos-ciudades-equivocadas_0_1643235709.html
p1
aVhttps://www.clarin.com/sociedad/aerolinea-confundio-ninos-ciudades-equivocadas_0_1643235709.html
p2
aVhttps://www.clarin.com/politica/Lilita-Margarita-marketing-honestidad_0_1643235707.html
p3
aVhttps://www.clarin.com/politica/Lilita-Margarita-marketing-honestidad_0_1643235707.html
p4
aVhttps://www.clarin.com/ieco/preocupante-democracia-importancia-America-Latina_0_1643235705.html
p5
aVhttps://www.clarin.com/ieco/preocupante-democracia-importancia-America-Latina_0_1643235705.html
p6
aVhttps://www.clarin.com/politica/G20-Macri-negocios-empresarios-chinos_0_1643235698.html
p7
aVhttps://www.clarin.com/politica/G20-Macri-negocios-empresarios-chinos_0_1643235698.html
p8
aVhttps://www.clarin.com/politica/Nuevos-Lazaro-Ciudad-Provincia-Buenos_0_1643235692.html
p9
aVhttps://www.clarin.com/politica/Nuevos-Lazaro-Ciudad-Provincia-Buenos_0_1643235692.html
p10
aVhttps://www.clarin.com/ieco/venta-vehiculos-Km-subio-agosto_0_1643235699.html
p11
aVhttps://www.clarin.com/ieco/venta-vehiculos-Km-subio-agosto_0_1643235699.html
p12
aVhttps://www.clarin.com/sociedad/Autorizan-aumento-prepagas-acumula-ano_0_1643235696.html
p13
aVhttps://www.clarin.com/sociedad/Autorizan-aumento-prepagas-acumula-ano_0_1643235696.html
p14
a.