(lp0
S'https://www.clarin.com/sociedad/quiero-prostituta_0_1592240859.html'
p1
aS'https://www.clarin.com/sociedad/quiero-prostituta_0_1592240859.html'
p2
aS'https://www.clarin.com/sociedad/Crean-alimentacion-saludable-coordinara-Cormillot_0_1592240856.html'
p3
aS'https://www.clarin.com/sociedad/Crean-alimentacion-saludable-coordinara-Cormillot_0_1592240856.html'
p4
a.