(lp0
S'https://www.clarin.com/sociedad/noviembre-DNI-viajar-Brasil-Uruguay_0_1660633940.html'
p1
aS'https://www.clarin.com/politica/Daer-destaco-avances-Gobierno-latente_0_1660633944.html'
p2
aS'https://www.clarin.com/sociedad/sorprende-boleros-antimachistas-cantan-verdulerias_0_1659434177.html'
p3
aS'https://www.clarin.com/politica/Bahiano-puso-primera-experiencia-funcionario_0_1660633943.html'
p4
aS'https://www.clarin.com/politica/Maximo-pueblo-muestra-dientes-llevar_0_1660633945.html'
p5
a.