(lp0
S'https://www.clarin.com/politica/Abrieron-datos-Panama-Papers-publico_0_1573642686.html'
p1
aS'https://www.clarin.com/politica/estrategia-desesperada-despegar-Lazaro-Kirchner_0_1573642679.html'
p2
aS'https://www.clarin.com/ieco/economia/Tregua-despidos-Macri-empresarios-sindicatos_0_1573642676.html'
p3
aS'https://www.clarin.com/sociedad/ruta-cerveza-Masticar_0_1573642684.html'
p4
aS'https://www.clarin.com/sociedad/muestra-desaparecida-Bahia-Blanca-hombre_0_1573642673.html'
p5
aS'https://www.clarin.com/politica/Tapan-pintura-obras-gobiernos-anteriores_0_1573642682.html'
p6
a.