(lp0
S'https://www.clarin.com/politica/Triple_Fuga-Eugenio_Burzaco-Anibal_Fernandez-Patricia_Bullrich-Cristian_Ritondo_0_1502849884.html'
p1
aS'https://www.clarin.com/politica/Luis_Patti-Cesar_Alejandro_Enciso_0_1502849875.html'
p2
aS'https://www.clarin.com/sociedad/podra-comer-papas-fritas-Marte_0_1502849878.html'
p3
aS'https://www.clarin.com/ieco/economia/estatales-bonaerenses-suspension-paritarias-municipales_0_1502849882.html'
p4
aS'https://www.clarin.com/sociedad/Vargas-Llosa-gano-Rey-Espana_0_1502849873.html'
p5
a.