(lp0
S'https://www.clarin.com/politica/Lanata-difundio-DElia-dirigente-Twitter_0_1652834873.html'
p1
aS'https://www.clarin.com/politica/Investigan-estatua-sospechas-fraude-administracion_0_1652834838.html'
p2
aS'https://www.clarin.com/politica/Vidal-depurar-policias-servicio-penitenciario_0_1653434644.html'
p3
aS'https://www.clarin.com/opinion/hacemos-audiencia-publica-inseguridad_0_1652834871.html'
p4
aS'https://www.clarin.com/ieco/economia/oficial-crecio-deuda-llega-PBI_0_1652834825.html'
p5
aS'https://www.clarin.com/ieco/economia/Dificil-apuesta-meganegociacion_0_1653434642.html'
p6
aS'https://www.clarin.com/politica/Laspina-presupuesto-federal-ultimos-anos_0_1652834821.html'
p7
a.