(lp0
S'https://www.clarin.com/sociedad/Llena-Isla-Maciel-romper-estigmas_0_1631836884.html'
p1
aS'https://www.clarin.com/politica/Vido-calento-encuentro-Aranguren-Diputados_0_1631836887.html'
p2
aS'https://www.clarin.com/sociedad/sindicalista-detenido-imponer-fueros-quedar_0_1631836892.html'
p3
aS'https://www.clarin.com/sociedad/Vecinos-rescate-viejos-buzones-portenos_0_1631836890.html'
p4
a.