(lp0
S'https://www.clarin.com/ieco/economia/juicios-Gobierno-impulsa-cambiar-ART_0_1594640685.html'
p1
aS'https://www.clarin.com/ieco/economia/juicios-Gobierno-impulsa-cambiar-ART_0_1594640685.html'
p2
aS'https://www.clarin.com/politica/Carrio-Jorge-Macri-presuntos-vinculos_0_1594640682.html'
p3
aS'https://www.clarin.com/politica/Carrio-Jorge-Macri-presuntos-vinculos_0_1594640682.html'
p4
aS'https://www.clarin.com/ieco/economia/millones-pasajeros-tarifa-social-SUBE_0_1594640665.html'
p5
aS'https://www.clarin.com/ieco/economia/millones-pasajeros-tarifa-social-SUBE_0_1594640665.html'
p6
a.