(lp0
Vhttps://www.clarin.com/sociedad/argentinas-quejan-dolores_0_1510649331.html
p1
aVhttps://www.clarin.com/sociedad/Playas-clases-gratuitas-furor-Pinamar_0_1510649332.html
p2
aVhttps://www.clarin.com/sociedad/Apps-celular-aliado-Mar-Plata_0_1510649329.html
p3
aVhttps://www.clarin.com/politica/Echaron-500-Empleados-Ministerio-Justicia-La_Campora-Garavano_0_1511248889.html
p4
aVhttps://www.clarin.com/ieco/Radio-Nacional-678-Contratos_0_1511248888.html
p5
aVhttps://www.clarin.com/politica/Jujuy-Milagro_Sala-Gerardo_Morales-noqui_0_1511248887.html
p6
aVhttps://www.clarin.com/politica/Jujuy-_Milagro_Sala-Gerardo_Morales-Tupac_Amaru_0_1511248886.html
p7
aVhttps://www.clarin.com/ieco/Aerolineas-Costantini-La_Campora_0_1511248885.html
p8
aVhttps://www.clarin.com/politica/Mauricio_Macri-Juan_Schiaretti-Cordoba-Cura_Brochero_0_1511248884.html
p9
aVhttps://www.clarin.com/politica/Urtubey-paralelo-Milagro-Sala-dano_0_1511248867.html
p10
aVhttps://www.clarin.com/sociedad/Intentaba-cruzar-Antartida-faltaban-kilometros_0_1510649347.html
p11
aVhttps://www.clarin.com/sociedad/Intentaba-cruzar-Antartida-faltaban-kilometros_0_1510649347.html
p12
a.