(lp0
Vhttps://www.clarin.com/politica/Investigan-cajas-Kirchner-origino-publica_0_1614438661.html
p1
aVhttps://www.clarin.com/politica/Investigan-cajas-Kirchner-origino-publica_0_1614438661.html
p2
aVhttps://www.clarin.com/politica/fundador-Quebracho-ministra-aristocratica-inesperado_0_1614438648.html
p3
aVhttps://www.clarin.com/politica/fundador-Quebracho-ministra-aristocratica-inesperado_0_1614438648.html
p4
aVhttps://www.clarin.com/politica/Descubren-obras-adjudicadas-Lazaro-Baez_0_1614438664.html
p5
aVhttps://www.clarin.com/opinion/Mentir-herida-cierra_0_1614438633.html
p6
aVhttps://www.clarin.com/opinion/Hagamos-brillar-Argentina_0_1614438632.html
p7
aVhttps://www.clarin.com/opinion/Hagamos-brillar-Argentina_0_1614438632.html
p8
aVhttps://www.clarin.com/ieco/ajuste-tarifas-oculta-distorsiones-sistema_0_1613838731.html
p9
aVhttps://www.clarin.com/politica/documento-detalles-herencia-Nestor-Kirchner_0_1614438640.html
p10
aVhttps://www.clarin.com/politica/documento-detalles-herencia-Nestor-Kirchner_0_1614438640.html
p11
aVhttps://www.clarin.com/ieco/economia/puntos-dudosos-nuevo-blanqueo_0_1613838735.html
p12
aVhttps://www.clarin.com/ieco/economia/perdedores-globalizacion_0_1613838739.html
p13
aVhttps://www.clarin.com/ieco/economia/Brexit-regresan-anos_0_1614438652.html
p14
aVhttps://www.clarin.com/sociedad/Murio-dibujante-Carlos-Nine_0_1614438667.html
p15
aVhttps://www.clarin.com/sociedad/Murio-dibujante-Carlos-Nine_0_1614438667.html
p16
aVhttps://www.clarin.com/sociedad/choque-culturas-chorrea-sangre_0_1614438631.html
p17
a.