(lp0
S'https://www.clarin.com/sociedad/Vigilia-gusto-argentino-Roma-Brochero_0_1669033155.html'
p1
aS'https://www.clarin.com/politica/Amenazaron-Gerardo-Morales-gente-jurada_0_1668433358.html'
p2
aS'https://www.clarin.com/sociedad/pleno-tiraron-pimienta-desalojar-teatro_0_1669033143.html'
p3
aS'https://www.clarin.com/ieco/coloquioidea/frases-conmovieron-IDEA_0_1669033151.html'
p4
aS'https://www.clarin.com/ieco/coloquioidea/politicos-gente-exige-fin-corrupcion_0_1669033146.html'
p5
a.