(lp0
Vhttps://www.clarin.com/politica/Puede-entregue-Perez-Corradi-abogado_0_1503449792.html
p1
aVhttps://www.clarin.com/politica/Puede-entregue-Perez-Corradi-abogado_0_1503449792.html
p2
aVhttps://www.clarin.com/politica/Mauricio_Macri-Cristina_Kirchner_0_1503449781.html
p3
aVhttps://www.clarin.com/politica/Mauricio_Macri-Cristina_Kirchner_0_1503449781.html
p4
aVhttps://www.clarin.com/ieco/economia/Banco-Central-ahora-absorbio-millones_0_1503449776.html
p5
aVhttps://www.clarin.com/ieco/Gobierno-aumento-gastos-Presupuesto-millones_0_1503449764.html
p6
aVhttps://www.clarin.com/ieco/economia/inflacion_portena_0_1502850190.html
p7
aVhttps://www.clarin.com/ieco/economia/precios_cuidados-arranque_0_1502850191.html
p8
a.