(lp0
S'https://www.clarin.com/ieco/campus-ieco/Pocas-mujeres-dedican-informatica-numero_0_1609039231.html'
p1
aS'https://www.clarin.com/ieco/campus-ieco/Pocas-mujeres-dedican-informatica-numero_0_1609039231.html'
p2
aS'https://www.clarin.com/ieco/campus-ieco/Premian-proyectos-investigacion-Enfermedad-Huntington_0_1609039238.html'
p3
aS'https://www.clarin.com/ieco/campus-ieco/Premian-proyectos-investigacion-Enfermedad-Huntington_0_1609039238.html'
p4
aS'https://www.clarin.com/politica/Justicia-Martin-Baez-Rio-Gallegos_0_1610838960.html'
p5
aS'https://www.clarin.com/politica/Justicia-Martin-Baez-Rio-Gallegos_0_1610838960.html'
p6
aS'https://www.clarin.com/politica/Cansado-extenuante-Macri-desfile-Palermo_0_1610838921.html'
p7
aS'https://www.clarin.com/politica/Cansado-extenuante-Macri-desfile-Palermo_0_1610838921.html'
p8
aS'https://www.clarin.com/politica/Comenzaron-festejos-Bicentenario-desfile-Palermo_0_1610838919.html'
p9
aS'https://www.clarin.com/politica/Comenzaron-festejos-Bicentenario-desfile-Palermo_0_1610838919.html'
p10
aS'https://www.clarin.com/politica/Bicentenario-presencia-Macri-Palermo-festejos_0_1610838918.html'
p11
aS'https://www.clarin.com/politica/Bicentenario-presencia-Macri-Palermo-festejos_0_1610838918.html'
p12
aS'https://www.clarin.com/politica/Marcos-Pena-admitio-judicial-complicado_0_1610838916.html'
p13
aS'https://www.clarin.com/politica/Marcos-Pena-admitio-judicial-complicado_0_1610838916.html'
p14
a.