(lp0
Vhttps://www.clarin.com/opinion/Ciencia-tecnologia-romance-recien-empieza_0_1541246287.html
p1
aVhttps://www.clarin.com/opinion/Obama-Buen-Vecino-visita-Argentina_0_1541246284.html
p2
aVhttps://www.clarin.com/opinion/Obama-Buen-Vecino-visita-Argentina_0_1541246284.html
p3
aVhttps://www.clarin.com/opinion/Corrupcion-padres-hijos_0_1541845822.html
p4
aVhttps://www.clarin.com/politica/AFIP-impuesto-evadido-Cristobal-Lopez_0_1541246294.html
p5
aVhttps://www.clarin.com/politica/AFIP-impuesto-evadido-Cristobal-Lopez_0_1541246294.html
p6
aVhttps://www.clarin.com/sociedad/hijo-atropello-mato-borracho-chicas_0_1541246323.html
p7
aVhttps://www.clarin.com/sociedad/hijo-atropello-mato-borracho-chicas_0_1541246323.html
p8
aVhttps://www.clarin.com/politica/Gobierno-Cristobal-Lopez-declare-insolvente_0_1541246197.html
p9
aVhttps://www.clarin.com/politica/Carrio-retomo-denuncia-asociacion-ilicita_0_1541246328.html
p10
aVhttps://www.clarin.com/politica/Carrio-retomo-denuncia-asociacion-ilicita_0_1541246328.html
p11
aVhttps://www.clarin.com/sociedad/nuevo-stent-biodegradable-corazon-desaparece_0_1541246344.html
p12
aVhttps://www.clarin.com/politica/Detectaron-irregularidades-medios-Cristobal-Lopez_0_1541246326.html
p13
aVhttps://www.clarin.com/sociedad/alcohol-afecta-sentidos-tiempos-reaccion_0_1541246324.html
p14
aVhttps://www.clarin.com/politica/Derrota-Echegaray-AGN-Cristina-Macri_0_1541845813.html
p15
aVhttps://www.clarin.com/politica/Derrota-Echegaray-AGN-Cristina-Macri_0_1541845813.html
p16
a.