(lp0
S'https://www.clarin.com/sociedad/aerolineas-seguras-mundo_0_1499850247.html'
p1
aS'https://www.clarin.com/sociedad/aerolineas-seguras-mundo_0_1499850247.html'
p2
aS'https://www.clarin.com/politica/Bullrich-suspendio-Gendarmeria-Santa-Fe_0_1499850245.html'
p3
aS'https://www.clarin.com/politica/Bullrich-suspendio-Gendarmeria-Santa-Fe_0_1499850245.html'
p4
aS'https://www.clarin.com/sociedad/internado-grave-ataque-golpes-rugbiers_0_1499850234.html'
p5
aS'https://www.clarin.com/sociedad/internado-grave-ataque-golpes-rugbiers_0_1499850234.html'
p6
aS'https://www.clarin.com/politica/Senado-Miguel_Pichetto-bloque_0_1499850236.html'
p7
aS'https://www.clarin.com/politica/Senado-Miguel_Pichetto-bloque_0_1499850236.html'
p8
aS'https://www.clarin.com/sociedad/Confirman-brote-dengue-Misiones_0_1499850232.html'
p9
aS'https://www.clarin.com/sociedad/Confirman-brote-dengue-Misiones_0_1499850232.html'
p10
aS'https://www.clarin.com/politica/Macri-visito-Tandanor-Colonia-Tabare_0_1499850154.html'
p11
aS'https://www.clarin.com/politica/Macri-visito-Tandanor-Colonia-Tabare_0_1499850154.html'
p12
a.