(lp0
S'https://www.clarin.com/ieco/economia/frena-economia-global_0_1522647921.html'
p1
aS'https://www.clarin.com/ieco/economia/Ferias-premios-jovenes_0_1522647930.html'
p2
aS'https://www.clarin.com/ieco/economia/whatsapp-empresas_0_1522647939.html'
p3
aS'https://www.clarin.com/ieco/economia/cautela-impera-mercado_0_1522647958.html'
p4
aS'https://www.clarin.com/ieco/economia/inversion-extranjera-directa-caida-libre_0_1522647924.html'
p5
aS'https://www.clarin.com/ieco/economia/iman-mundo-gamer_0_1522647960.html'
p6
aS'https://www.clarin.com/ieco/economia/inversores-locales-resisten-crisis_0_1522647956.html'
p7
aS'https://www.clarin.com/ieco/economia/cervezas-cambian-formula_0_1522647936.html'
p8
aS'https://www.clarin.com/ieco/economia/practicas-home-office-expanden-empresas_0_1522647934.html'
p9
aS'https://www.clarin.com/ieco/economia/emprendedores-mira-universidades-posgrados_0_1522647929.html'
p10
aS'https://www.clarin.com/ieco/economia/anos-impuesto-cheque_0_1522647927.html'
p11
a.