(lp0
Vhttps://www.clarin.com/politica/Macri-Davos-resultados-concretos-holdouts_0_1508849271.html
p1
aVhttps://www.clarin.com/politica/Macri-Davos-resultados-concretos-holdouts_0_1508849271.html
p2
aVhttps://www.clarin.com/politica/efedrina-FIFAgate-compleja-trama-abogados_0_1508849269.html
p3
aVhttps://www.clarin.com/ieco/empresas-y-negocios/precios-regalan-tiran-Alto-Valle_0_1508849273.html
p4
aVhttps://www.clarin.com/politica/Rige-declaracion-emergencia-aviones-organizado_0_1508849266.html
p5
aVhttps://www.clarin.com/politica/Rige-declaracion-emergencia-aviones-organizado_0_1508849266.html
p6
aVhttps://www.clarin.com/politica/Macri-negociaciones-holdouts-yendo-bien_0_1508849254.html
p7
aVhttps://www.clarin.com/politica/Macri-negociaciones-holdouts-yendo-bien_0_1508849254.html
p8
a.