(lp0
Vhttps://www.clarin.com/politica/Macri-pedira-Obama-archivos-dictadura_0_1538846324.html
p1
aVhttps://www.clarin.com/politica/Macri-pedira-Obama-archivos-dictadura_0_1538846324.html
p2
aVhttps://www.clarin.com/sociedad/acampes-canticos-callejero-ricoteros-Tandil_0_1538846303.html
p3
aVhttps://www.clarin.com/sociedad/acampes-canticos-callejero-ricoteros-Tandil_0_1538846303.html
p4
aVhttps://www.clarin.com/sociedad/Emocion-diversidad-talento-Clarin-Mujer_0_1538846302.html
p5
aVhttps://www.clarin.com/sociedad/Emocion-diversidad-talento-Clarin-Mujer_0_1538846302.html
p6
aVhttps://www.clarin.com/sociedad/patrullero-choco-termino-incrustado-casa_0_1538846293.html
p7
aVhttps://www.clarin.com/sociedad/patrullero-choco-termino-incrustado-casa_0_1538846293.html
p8
aVhttps://www.clarin.com/sociedad/Quieren-cerrar-boliches-Hurlingham-ataque_0_1538846298.html
p9
aVhttps://www.clarin.com/sociedad/Quieren-cerrar-boliches-Hurlingham-ataque_0_1538846298.html
p10
aVhttps://www.clarin.com/sociedad/Quemaron-colectivo-atropello-mato-joven_0_1538846290.html
p11
aVhttps://www.clarin.com/sociedad/Quemaron-colectivo-atropello-mato-joven_0_1538846290.html
p12
aVhttps://www.clarin.com/sociedad/clave-ayudar-chicos-nueva-Matematica_0_1538846283.html
p13
a.