(lp0
Vhttps://www.clarin.com/sociedad/Vuelven-retirar-intendente-manejando-borracho_0_1634836606.html
p1
aVhttps://www.clarin.com/sociedad/Vuelven-retirar-intendente-manejando-borracho_0_1634836606.html
p2
aVhttps://www.clarin.com/sociedad/Depresion-encierro-lado-duro-psoriasis_0_1634836593.html
p3
aVhttps://www.clarin.com/sociedad/Depresion-encierro-lado-duro-psoriasis_0_1634836593.html
p4
a.