(lp0
Vhttps://www.clarin.com/sociedad/Tragedia-Delta-hablo-conductor-lanchas_0_1577242282.html
p1
aVhttps://www.clarin.com/sociedad/Tragedia-Delta-hablo-conductor-lanchas_0_1577242282.html
p2
aVhttps://www.clarin.com/politica/Macri-confiar-Gobierno-Vamos-mejor_0_1577242281.html
p3
aVhttps://www.clarin.com/politica/Macri-confiar-Gobierno-Vamos-mejor_0_1577242281.html
p4
a.