(lp0
Vhttps://www.clarin.com/sociedad/anos-cubrio-asesinato-Internet-criticaron_0_1554444877.html
p1
aVhttps://www.clarin.com/sociedad/anos-cubrio-asesinato-Internet-criticaron_0_1554444877.html
p2
aVhttps://www.clarin.com/sociedad/inundaciones-dejaron-muertos_0_1554444869.html
p3
aVhttps://www.clarin.com/sociedad/inundaciones-dejaron-muertos_0_1554444869.html
p4
aVhttps://www.clarin.com/ieco/economia/Vanoli-futuro-Central-perdio-devaluacion_0_1554444863.html
p5
aVhttps://www.clarin.com/ieco/economia/Vanoli-futuro-Central-perdio-devaluacion_0_1554444863.html
p6
aVhttps://www.clarin.com/sociedad/Hallan-cadaver-exesposa-preso-Bolivia_0_1554444844.html
p7
aVhttps://www.clarin.com/sociedad/Hallan-cadaver-exesposa-preso-Bolivia_0_1554444844.html
p8
aVhttps://www.clarin.com/politica/Oyarbide-renuncia-Jamas-tipo-presion_0_1554444861.html
p9
aVhttps://www.clarin.com/politica/Oyarbide-renuncia-Jamas-tipo-presion_0_1554444861.html
p10
aVhttps://www.clarin.com/sociedad/Lanzan-campana-nacional-detectar-enfermedad_0_1554444859.html
p11
aVhttps://www.clarin.com/sociedad/Lanzan-campana-nacional-detectar-enfermedad_0_1554444859.html
p12
aVhttps://www.clarin.com/ieco/economia/Cuarta-baja-dolar-cae-centavos_0_1554444755.html
p13
aVhttps://www.clarin.com/ieco/economia/Cuarta-baja-dolar-cae-centavos_0_1554444755.html
p14
aVhttps://www.clarin.com/sociedad/Ciudad-fantasma-construyeron-millon-personas_0_1554444852.html
p15
aVhttps://www.clarin.com/sociedad/Ciudad-fantasma-construyeron-millon-personas_0_1554444852.html
p16
aVhttps://www.clarin.com/sociedad/Volcan-Chimborazo-alejado-centro-Tierra_0_1554444838.html
p17
aVhttps://www.clarin.com/sociedad/Volcan-Chimborazo-alejado-centro-Tierra_0_1554444838.html
p18
a.