(lp0
S'https://www.clarin.com/politica/Anitidespidos-fracaso-Diputados-impulso-kirchnerismo_0_1575442510.html'
p1
aS'https://www.clarin.com/politica/Anitidespidos-fracaso-Diputados-impulso-kirchnerismo_0_1575442510.html'
p2
aS'https://www.clarin.com/sociedad/construye-telescopio-poderoso-historia_0_1575442509.html'
p3
aS'https://www.clarin.com/sociedad/construye-telescopio-poderoso-historia_0_1575442509.html'
p4
aS'https://www.clarin.com/sociedad/condenaran-padrastro-violador-Vivi-infierno_0_1575442504.html'
p5
aS'https://www.clarin.com/sociedad/condenaran-padrastro-violador-Vivi-infierno_0_1575442504.html'
p6
aS'https://www.clarin.com/sociedad/Video-prueban-primera-Hyperloop-transporte_0_1575442503.html'
p7
aS'https://www.clarin.com/sociedad/Video-prueban-primera-Hyperloop-transporte_0_1575442503.html'
p8
a.