(lp0
S'https://www.clarin.com/ieco/Representantes-jubilados-supervisaran-inversiones-ANSES_0_1528047393.html'
p1
aS'https://www.clarin.com/sociedad/Ahora-pequeno-tiburon-tomarse-fotos_0_1528047369.html'
p2
aS'https://www.clarin.com/ieco/economia/claves-cambios-Ganancias_0_1528047356.html'
p3
aS'https://www.clarin.com/ieco/Abad-reconocio-presion-tributaria-alta_0_1528047365.html'
p4
aS'https://www.clarin.com/politica/izquierda-marcha-ATE-protocolo-antipiquetes_0_1528047379.html'
p5
aS'https://www.clarin.com/politica/Gobierno-aplicara-protocolo-incluidos-protestas_0_1528047357.html'
p6
aS'https://www.clarin.com/sociedad/Reina-Carnaval-infartante-policia-militante_0_1528047366.html'
p7
a.