(lp0
S'https://www.clarin.com/sociedad/papelon-FUBA-tercer-ano-elecciones_0_1595240699.html'
p1
aS'https://www.clarin.com/sociedad/papelon-FUBA-tercer-ano-elecciones_0_1595240699.html'
p2
aS'https://www.clarin.com/politica/Sorprendido-Macri-califico-episodio-bochornoso_0_1595240686.html'
p3
aS'https://www.clarin.com/sociedad/Congreso-discute-marihuana-tratar-enfermedades_0_1595240693.html'
p4
aS'https://www.clarin.com/sociedad/Congreso-discute-marihuana-tratar-enfermedades_0_1595240693.html'
p5
aS'https://www.clarin.com/sociedad/agujeros-legales-reforma-Codigo-Civil_0_1594640709.html'
p6
aS'https://www.clarin.com/politica/Rafecas-indagara-Lopez-enriquecimiento-ilicito_0_1595240690.html'
p7
aS'https://www.clarin.com/sociedad/Robots-furor-amigos-novios-imaginarios_0_1595240682.html'
p8
aS'https://www.clarin.com/sociedad/Robots-furor-amigos-novios-imaginarios_0_1595240682.html'
p9
a.