(lp0
S'https://www.clarin.com/politica/intimidad-paseo-Macri-Awada-Roma_0_1529847333.html'
p1
aS'https://www.clarin.com/politica/intimidad-paseo-Macri-Awada-Roma_0_1529847333.html'
p2
aS'https://www.clarin.com/sociedad/delfin_0_1529847325.html'
p3
aS'https://www.clarin.com/sociedad/delfin_0_1529847325.html'
p4
aS'https://www.clarin.com/politica/Bonadio-indagatoria-Cristina-Kirchner-futuro_0_1529847309.html'
p5
aS'https://www.clarin.com/politica/titular-Macri-disputa-despacho-Maximo_0_1529847308.html'
p6
aS'https://www.clarin.com/politica/titular-Macri-disputa-despacho-Maximo_0_1529847308.html'
p7
aS'https://www.clarin.com/politica/Oyarbide-proceso-Jaime-malversacion-publicos_0_1529847297.html'
p8
aS'https://www.clarin.com/politica/Oyarbide-proceso-Jaime-malversacion-publicos_0_1529847297.html'
p9
a.