(lp0
Vhttps://www.clarin.com/politica/firma-escribana-departamentos-Kirchner_0_1643835704.html
p1
aVhttps://www.clarin.com/politica/Prat-Gay-inflacion-discuta-bajando_0_1643835700.html
p2
aVhttps://www.clarin.com/politica/Prat-Gay-inflacion-discuta-bajando_0_1643835700.html
p3
aVhttps://www.clarin.com/sociedad/Cambio-Pamela-Anderson-condena-pornografia_0_1643835689.html
p4
aVhttps://www.clarin.com/sociedad/Cambio-Pamela-Anderson-condena-pornografia_0_1643835689.html
p5
aVhttps://www.clarin.com/politica/Jorge-Triaca-Marcha-Federal-politica_0_1643835699.html
p6
aVhttps://www.clarin.com/politica/Jorge-Triaca-Marcha-Federal-politica_0_1643835699.html
p7
aVhttps://www.clarin.com/politica/Milagro-Jose-Lopez-Lazaro-Baez_0_1643835698.html
p8
aVhttps://www.clarin.com/politica/Milagro-Jose-Lopez-Lazaro-Baez_0_1643835698.html
p9
aVhttps://www.clarin.com/sociedad/Misterio-Delta-circular-mueve-sola_0_1643835696.html
p10
aVhttps://www.clarin.com/sociedad/Misterio-Delta-circular-mueve-sola_0_1643835696.html
p11
a.