(lp0
Vhttps://www.clarin.com/politica/fracturo-bloque-FPV-Ciudad_0_1645635577.html
p1
aVhttps://www.clarin.com/ieco/economia/marcas-baratas-ganan-limpieza-hogar_0_1645635581.html
p2
aVhttps://www.clarin.com/sociedad/Autocritica-conductores-comete-faltas-maneja_0_1645635576.html
p3
aVhttps://www.clarin.com/sociedad/Autocritica-conductores-comete-faltas-maneja_0_1645635576.html
p4
aVhttps://www.clarin.com/politica/Stolbizer-defendio-Massa-Carrio-destruccion_0_1645635573.html
p5
aVhttps://www.clarin.com/politica/Stolbizer-defendio-Massa-Carrio-destruccion_0_1645635573.html
p6
aVhttps://www.clarin.com/politica/Scioli-Gioja-Insfran-renovacion-PJ_0_1645635575.html
p7
aVhttps://www.clarin.com/politica/Scioli-Gioja-Insfran-renovacion-PJ_0_1645635575.html
p8
aVhttps://www.clarin.com/sociedad/Piden-evaluaciones-enfoques-mejorar-ensenanza_0_1645635571.html
p9
aVhttps://www.clarin.com/sociedad/Piden-evaluaciones-enfoques-mejorar-ensenanza_0_1645635571.html
p10
aVhttps://www.clarin.com/sociedad/hecho-paises_0_1645635570.html
p11
aVhttps://www.clarin.com/sociedad/promover-curiosidad-deseo-aprender_0_1645635569.html
p12
a.