(lp0
Vhttps://www.clarin.com/sociedad/Van-juicio-acusados-argentinas-Ecuador_0_1600639952.html
p1
aVhttps://www.clarin.com/sociedad/Van-juicio-acusados-argentinas-Ecuador_0_1600639952.html
p2
aVhttps://www.clarin.com/sociedad/desierto-Atacama-primera-Via-Lactea_0_1600639949.html
p3
aVhttps://www.clarin.com/sociedad/desierto-Atacama-primera-Via-Lactea_0_1600639949.html
p4
aVhttps://www.clarin.com/politica/maniobra-campana-Fernandez-Kirchner-Cobos_0_1600639945.html
p5
aVhttps://www.clarin.com/politica/maniobra-campana-Fernandez-Kirchner-Cobos_0_1600639945.html
p6
aVhttps://www.clarin.com/sociedad/San-Juan-joven-asesinada-novio_0_1600639943.html
p7
aVhttps://www.clarin.com/politica/Despues-procesan-funcionarios-empresarios-Cristina_0_1600639937.html
p8
aVhttps://www.clarin.com/politica/Despues-procesan-funcionarios-empresarios-Cristina_0_1600639937.html
p9
a.