(lp0
S'https://www.clarin.com/sociedad/Amenaza-Santa-Fe-simbolos-ISIS_0_1606039479.html'
p1
aS'https://www.clarin.com/sociedad/Amenaza-Santa-Fe-simbolos-ISIS_0_1606039479.html'
p2
aS'https://www.clarin.com/politica/Ligan-jardinero-Kirchner-Monos_0_1606039478.html'
p3
a.