(lp0
Vhttps://www.clarin.com/ieco/septiembre-paritarias-FMI-inflacion-Presupuesto_0_1627037465.html
p1
aVhttps://www.clarin.com/ieco/Suben-jubilaciones-asignacion-hijo_0_1627037464.html
p2
aVhttps://www.clarin.com/sociedad/Portabilidad-numerica-rapida-ampliaria-lineas_0_1627037459.html
p3
aVhttps://www.clarin.com/sociedad/Portabilidad-numerica-rapida-ampliaria-lineas_0_1627037459.html
p4
a.