(lp0
S'https://www.clarin.com/politica/Cristina-conduce-dijo-intendente-GBA_0_1561643961.html'
p1
aS'https://www.clarin.com/politica/Cristina-conduce-dijo-intendente-GBA_0_1561643961.html'
p2
aS'https://www.clarin.com/ieco/economia/Bolsa-empujada-contexto-internacional-favorable_0_1561643944.html'
p3
aS'https://www.clarin.com/sociedad/trasplantaron-anos-ahora-rompe-silencio_0_1561643956.html'
p4
aS'https://www.clarin.com/sociedad/trasplantaron-anos-ahora-rompe-silencio_0_1561643956.html'
p5
aS'https://www.clarin.com/sociedad/Video-insolita-pelea-excavadoras-China_0_1561643953.html'
p6
aS'https://www.clarin.com/sociedad/Video-insolita-pelea-excavadoras-China_0_1561643953.html'
p7
aS'https://www.clarin.com/sociedad/conmovedor-mensaje-perdio-Time-Warp_0_1561643948.html'
p8
aS'https://www.clarin.com/sociedad/conmovedor-mensaje-perdio-Time-Warp_0_1561643948.html'
p9
a.