(lp0
Vhttps://www.clarin.com/sociedad/reconocen-madre-ovulos-gesto-bebe_0_1682831782.html
p1
aVhttps://www.clarin.com/sociedad/reconocen-madre-ovulos-gesto-bebe_0_1682831782.html
p2
aVhttps://www.clarin.com/sociedad/sangrienta-lucha-pinguino-amante-pareja_0_1682831779.html
p3
aVhttps://www.clarin.com/sociedad/sangrienta-lucha-pinguino-amante-pareja_0_1682831779.html
p4
aVhttps://www.clarin.com/politica/Imputan-Rocio-Garcia-Argentina-Sonrie_0_1682831772.html
p5
aVhttps://www.clarin.com/politica/Imputan-Rocio-Garcia-Argentina-Sonrie_0_1682831772.html
p6
a.