(lp0
S'https://www.clarin.com/opinion/regocijo-vivir-dia_0_1651634980.html'
p1
aS'https://www.clarin.com/politica/Audiencia-gente-discursos-politicos-tecnicos_0_1652234874.html'
p2
aS'https://www.clarin.com/politica/Audiencia-gente-discursos-politicos-tecnicos_0_1652234874.html'
p3
aS'https://www.clarin.com/politica/gremios-cruzaron-Gobierno-reabran-paritarias_0_1652234869.html'
p4
aS'https://www.clarin.com/politica/gremios-cruzaron-Gobierno-reabran-paritarias_0_1652234869.html'
p5
aS'https://www.clarin.com/sociedad/festejo-Santiago-Estero-detenidos-policias_0_1652234864.html'
p6
aS'https://www.clarin.com/sociedad/primera-mundo-aplicaron-eutanasia-nene_0_1652234868.html'
p7
aS'https://www.clarin.com/sociedad/primera-mundo-aplicaron-eutanasia-nene_0_1652234868.html'
p8
a.