(lp0
Vhttps://www.clarin.com/sociedad/Insolito-sacaron-navajas-estomago_0_1637236382.html
p1
aVhttps://www.clarin.com/sociedad/Insolito-sacaron-navajas-estomago_0_1637236382.html
p2
aVhttps://www.clarin.com/politica/Corte-concurso-Oil-Combustibles-Chubut_0_1637236369.html
p3
aVhttps://www.clarin.com/politica/Corte-concurso-Oil-Combustibles-Chubut_0_1637236369.html
p4
a.