(lp0
Vhttps://www.clarin.com/sociedad/Asesino-hija-nietitos-mate-liberarlos_0_1526847465.html
p1
aVhttps://www.clarin.com/sociedad/Asesino-hija-nietitos-mate-liberarlos_0_1526847465.html
p2
aVhttps://www.clarin.com/sociedad/epidemias-superbacterias_0_1526847372.html
p3
aVhttps://www.clarin.com/sociedad/epidemias-superbacterias_0_1526847372.html
p4
aVhttps://www.clarin.com/opinion/dura-guerra-Milagro-Sala_0_1526847362.html
p5
aVhttps://www.clarin.com/opinion/dura-guerra-Milagro-Sala_0_1526847362.html
p6
aVhttps://www.clarin.com/politica/Macri-equilibrista-apuros_0_1526847359.html
p7
aVhttps://www.clarin.com/sociedad/chicos-escriben-mal-ensenan-pensar_0_1526247735.html
p8
aVhttps://www.clarin.com/sociedad/chicos-escriben-mal-ensenan-pensar_0_1526247735.html
p9
a.