(lp0
S'https://www.clarin.com/sociedad/Mar-Plata-turistas-sol_0_1546645619.html'
p1
aS'https://www.clarin.com/sociedad/Mar-Plata-turistas-sol_0_1546645619.html'
p2
aS'https://www.clarin.com/sociedad/Atropello-San-Martin-alcohol-permitido_0_1546645617.html'
p3
aS'https://www.clarin.com/sociedad/Atropello-San-Martin-alcohol-permitido_0_1546645617.html'
p4
a.