(lp0
Vhttps://www.clarin.com/ieco/AFIP-impidiendo-facturar-informaron-operaciones_0_1540046199.html
p1
aVhttps://www.clarin.com/ieco/AFIP-impidiendo-facturar-informaron-operaciones_0_1540046199.html
p2
aVhttps://www.clarin.com/politica/presentaron-denuncias-Cristobal-Lopez_0_1540046155.html
p3
aVhttps://www.clarin.com/politica/presentaron-denuncias-Cristobal-Lopez_0_1540046155.html
p4
aVhttps://www.clarin.com/politica/Fondos-Justicialista-ratifico-quorum-Diputados_0_1540046182.html
p5
aVhttps://www.clarin.com/politica/Fondos-Justicialista-ratifico-quorum-Diputados_0_1540046182.html
p6
aVhttps://www.clarin.com/sociedad/conto-Indio-Solari-sufre-Parkinson_0_1540046179.html
p7
aVhttps://www.clarin.com/sociedad/conto-Indio-Solari-sufre-Parkinson_0_1540046179.html
p8
aVhttps://www.clarin.com/ieco/Ordenan-YPF-divulgue-clausulas-Chevron_0_1540046177.html
p9
aVhttps://www.clarin.com/ieco/Ordenan-YPF-divulgue-clausulas-Chevron_0_1540046177.html
p10
aVhttps://www.clarin.com/sociedad/joven-asesinada-punaladas-frente-hospital_0_1540046171.html
p11
aVhttps://www.clarin.com/sociedad/joven-asesinada-punaladas-frente-hospital_0_1540046171.html
p12
a.