(lp0
Vhttps://www.clarin.com/sociedad/Montanita-nuevos-detalles-violenta-mendocinas_0_1630636945.html
p1
aVhttps://www.clarin.com/sociedad/Montanita-nuevos-detalles-violenta-mendocinas_0_1630636945.html
p2
aVhttps://www.clarin.com/sociedad/Video-filmo-paseador-maltrataba-perros_0_1630636946.html
p3
aVhttps://www.clarin.com/sociedad/Video-filmo-paseador-maltrataba-perros_0_1630636946.html
p4
aVhttps://www.clarin.com/sociedad/Revelan-chico-tobogan-alto-mundo_0_1630636944.html
p5
aVhttps://www.clarin.com/sociedad/Revelan-chico-tobogan-alto-mundo_0_1630636944.html
p6
aVhttps://www.clarin.com/politica/represion-ilegal-alguna-represor-Menendez_0_1630037202.html
p7
aVhttps://www.clarin.com/politica/represion-ilegal-alguna-represor-Menendez_0_1630037202.html
p8
a.