(lp0
Vhttps://www.clarin.com/sociedad/Rolling-Stones-armaron-fiesta-despiden_0_1522647873.html
p1
aVhttps://www.clarin.com/sociedad/Rolling-Stones-armaron-fiesta-despiden_0_1522647873.html
p2
aVhttps://www.clarin.com/sociedad/historias-parejas-hicieron-amor-negocio_0_1522048218.html
p3
aVhttps://www.clarin.com/sociedad/historias-parejas-hicieron-amor-negocio_0_1522048218.html
p4
aVhttps://www.clarin.com/politica/historia-traicion_0_1522647803.html
p5
aVhttps://www.clarin.com/politica/historia-traicion_0_1522647803.html
p6
aVhttps://www.clarin.com/politica/retroceso-stalinismo-fracasado_0_1522647794.html
p7
aVhttps://www.clarin.com/politica/retroceso-stalinismo-fracasado_0_1522647794.html
p8
aVhttps://www.clarin.com/sociedad/oficial-comparar-precios-articulos-basicos_0_1522048212.html
p9
aVhttps://www.clarin.com/sociedad/oficial-comparar-precios-articulos-basicos_0_1522048212.html
p10
aVhttps://www.clarin.com/sociedad/sociedad-media-escasa-kirchnerismo_0_1522048208.html
p11
aVhttps://www.clarin.com/politica/Macri-mide-costo-politico-subir_0_1522647791.html
p12
a.