(lp0
S'https://www.clarin.com/sociedad/Afirman-erectus-caminaba-hombre-moderno_0_1612038824.html'
p1
aS'https://www.clarin.com/politica/empresario-famoso-llegaron-denuncio-Twitter_0_1612038829.html'
p2
aS'https://www.clarin.com/politica/parodia-agrupacion-macrista-corrupcion_0_1612038819.html'
p3
aS'https://www.clarin.com/ieco/economia/Cordoba-subsidiara-beneficios-impositivos-Nissan_0_1612038832.html'
p4
a.