(lp0
Vhttps://www.clarin.com/sociedad/Apunalo-sana-pareja-delante-hijos_0_1527447439.html
p1
aVhttps://www.clarin.com/sociedad/Apunalo-sana-pareja-delante-hijos_0_1527447439.html
p2
aVhttps://www.clarin.com/politica/gobernador-rebelo-PJ-monobloque-Diputados_0_1527447438.html
p3
aVhttps://www.clarin.com/politica/gobernador-rebelo-PJ-monobloque-Diputados_0_1527447438.html
p4
aVhttps://www.clarin.com/politica/estatales-haran-piquetes-paro-miercoles_0_1527447434.html
p5
aVhttps://www.clarin.com/politica/estatales-haran-piquetes-paro-miercoles_0_1527447434.html
p6
aVhttps://www.clarin.com/sociedad/Pagaron-mechon-pelo-John-Lennon_0_1527447431.html
p7
aVhttps://www.clarin.com/sociedad/Pagaron-mechon-pelo-John-Lennon_0_1527447431.html
p8
aVhttps://www.clarin.com/ieco/economia/Gobierno-busca-bancos-entren-Procrear_0_1527447429.html
p9
aVhttps://www.clarin.com/politica/Diputados-Sergio_Massa-Hermes_Binner-Jorge_Triaca_0_1527447426.html
p10
aVhttps://www.clarin.com/politica/Diputados-Sergio_Massa-Hermes_Binner-Jorge_Triaca_0_1527447426.html
p11
aVhttps://www.clarin.com/sociedad/omnibus-enigma-ninos-desafia-adultos_0_1527447420.html
p12
aVhttps://www.clarin.com/sociedad/omnibus-enigma-ninos-desafia-adultos_0_1527447420.html
p13
aVhttps://www.clarin.com/sociedad/yarara-mordio-chica-anos-Nunez_0_1527447409.html
p14
aVhttps://www.clarin.com/sociedad/yarara-mordio-chica-anos-Nunez_0_1527447409.html
p15
aVhttps://www.clarin.com/politica/Cristina-confesion-dirigentes-gremiales-preferidos_0_1527447407.html
p16
aVhttps://www.clarin.com/politica/Cristina-confesion-dirigentes-gremiales-preferidos_0_1527447407.html
p17
aVhttps://www.clarin.com/ieco/economia/Optimismo-PRO-Congreso-Ley-Cerrojo_0_1527447408.html
p18
a.