(lp0
Vhttps://www.clarin.com/ieco/economia/absorcion-lebacs-cara-licitacion-Bonar_0_1507049713.html
p1
aVhttps://www.clarin.com/sociedad/Hawking-humana-sobrevivira-conquista-planeta_0_1507049718.html
p2
aVhttps://www.clarin.com/sociedad/Hawking-humana-sobrevivira-conquista-planeta_0_1507049718.html
p3
a.