(lp0
S'https://www.clarin.com/sociedad/dispararon-internaciones-enfermedades-respiratorias-crecieron_0_1608439257.html'
p1
aS'https://www.clarin.com/sociedad/dispararon-internaciones-enfermedades-respiratorias-crecieron_0_1608439257.html'
p2
aS'https://www.clarin.com/sociedad/historia-Jorge-Alfredo-Gandur_0_1608439256.html'
p3
aS'https://www.clarin.com/sociedad/historia-Jorge-Alfredo-Gandur_0_1608439256.html'
p4
aS'https://www.clarin.com/sociedad/Gripe-comienzan-repartir-vacunas-apuntan_0_1608439252.html'
p5
aS'https://www.clarin.com/sociedad/Gripe-comienzan-repartir-vacunas-apuntan_0_1608439252.html'
p6
aS'https://www.clarin.com/politica/Cristina-Comodoro-Py-Poder-Judicial_0_1608439251.html'
p7
aS'https://www.clarin.com/politica/Cristina-Comodoro-Py-Poder-Judicial_0_1608439251.html'
p8
aS'https://www.clarin.com/politica/Cristina-denuncia-Stolbizer-calumnias-injurias_0_1608439246.html'
p9
aS'https://www.clarin.com/politica/Cristina-denuncia-Stolbizer-calumnias-injurias_0_1608439246.html'
p10
aS'https://www.clarin.com/politica/intendente-PJ-nego-vuelta-massismo_0_1608439243.html'
p11
aS'https://www.clarin.com/politica/intendente-PJ-nego-vuelta-massismo_0_1608439243.html'
p12
aS'https://www.clarin.com/politica/Bonadio-inhibicion-Cristina-Fernandez-Kirchner_0_1608439242.html'
p13
aS'https://www.clarin.com/politica/Bonadio-inhibicion-Cristina-Fernandez-Kirchner_0_1608439242.html'
p14
a.