(lp0
Vhttps://www.clarin.com/sociedad/reencuentro-bomberito-heroe-beba-salvo_0_1520848129.html
p1
aVhttps://www.clarin.com/sociedad/reencuentro-bomberito-heroe-beba-salvo_0_1520848129.html
p2
aVhttps://www.clarin.com/sociedad/Peru-mueren-chicos-mordidos-murcielagos_0_1520848200.html
p3
aVhttps://www.clarin.com/sociedad/Peru-mueren-chicos-mordidos-murcielagos_0_1520848200.html
p4
aVhttps://www.clarin.com/politica/Crisis-Santa-Cruz-despidos-polemica_0_1520848197.html
p5
aVhttps://www.clarin.com/politica/Crisis-Santa-Cruz-despidos-polemica_0_1520848197.html
p6
aVhttps://www.clarin.com/ieco/economia/dolar-sigue-escalando-sube-centavos_0_1520848119.html
p7
a.