(lp0
S'https://www.clarin.com/politica/Baez-unifican-defensa-quieren-presos_0_1602439900.html'
p1
aS'https://www.clarin.com/politica/Ruta-dinero-fiscal-lavado-Unidos_0_1602439897.html'
p2
aS'https://www.clarin.com/politica/Avanza-Diputados-proyecto-Gils-Carbo_0_1602439859.html'
p3
aS'https://www.clarin.com/opinion/vida-late-detras-futbol_0_1602439909.html'
p4
aS'https://www.clarin.com/politica/Lanatta-carcel-recaudaba-Anibal-Fernandez_0_1602439882.html'
p5
aS'https://www.clarin.com/politica/Creen-Lopez-hablo-mujer-preso_0_1602439907.html'
p6
a.