(lp0
S'https://www.clarin.com/sociedad/Afirman-anglicismos-tecno-empobrecen-castellano_0_1589841145.html'
p1
aS'https://www.clarin.com/sociedad/problema-todas-lenguas_0_1589841143.html'
p2
aS'https://www.clarin.com/sociedad/Dragones-final-miedos-lucha-cosmica_0_1589841136.html'
p3
aS'https://www.clarin.com/sociedad/dragon-primera-filman-cria-cueva_0_1589841130.html'
p4
aS'https://www.clarin.com/sociedad/dragon-primera-filman-cria-cueva_0_1589841130.html'
p5
a.