(lp0
Vhttps://www.clarin.com/ieco/economia/super-quejan-caida-rentabilidad_0_1688231276.html
p1
aVhttps://www.clarin.com/ieco/economia/super-quejan-caida-rentabilidad_0_1688231276.html
p2
aVhttps://www.clarin.com/politica/Estudian-perdonar-deuda-electricas-provinciales_0_1688231340.html
p3
aVhttps://www.clarin.com/politica/Sturzenegger-manera-Argentina-crezca-inflacion_0_1688231237.html
p4
aVhttps://www.clarin.com/politica/Sturzenegger-manera-Argentina-crezca-inflacion_0_1688231237.html
p5
aVhttps://www.clarin.com/politica/Datos-oficiales-perdieron-empleos-formales_0_1688231309.html
p6
aVhttps://www.clarin.com/politica/Datos-oficiales-perdieron-empleos-formales_0_1688231309.html
p7
aVhttps://www.clarin.com/ieco/transferencias-cheques-prestamos-pesos_0_1688231305.html
p8
aVhttps://www.clarin.com/ieco/transferencias-cheques-prestamos-pesos_0_1688231305.html
p9
aVhttps://www.clarin.com/politica/Gobierno-negocia-desembarco-Suez-Argentina_0_1688231312.html
p10
aVhttps://www.clarin.com/ieco/economia/empresarios-recalculan-Argentina-atractiva-invertir_0_1688231301.html
p11
aVhttps://www.clarin.com/ieco/economia/empresarios-recalculan-Argentina-atractiva-invertir_0_1688231301.html
p12
aVhttps://www.clarin.com/politica/Ahora-Fuerzas-Armadas-recortar-personal_0_1688831107.html
p13
aVhttps://www.clarin.com/politica/Ahora-Fuerzas-Armadas-recortar-personal_0_1688831107.html
p14
aVhttps://www.clarin.com/opinion/Italia-referendum-temblores_0_1688831106.html
p15
aVhttps://www.clarin.com/opinion/Defensoria-internas-mentiras-bocado-millones_0_1688831105.html
p16
aVhttps://www.clarin.com/opinion/Divorcios-conveniencia_0_1688831104.html
p17
aVhttps://www.clarin.com/sociedad/Tomas-Salvagni-perdida-imprevista-irreparable_0_1688831103.html
p18
aVhttps://www.clarin.com/sociedad/Tomas-Salvagni-perdida-imprevista-irreparable_0_1688831103.html
p19
aVhttps://www.clarin.com/sociedad/tension-polemica-prohibieron-carreras-galgos_0_1688831101.html
p20
aVhttps://www.clarin.com/sociedad/tension-polemica-prohibieron-carreras-galgos_0_1688831101.html
p21
a.