(lp0
S'https://www.clarin.com/politica/dinero-detenido-hablar-Camara-Federal_0_1592240801.html'
p1
aS'https://www.clarin.com/politica/dinero-detenido-hablar-Camara-Federal_0_1592240801.html'
p2
aS'https://www.clarin.com/sociedad/dias-abandonado-descampado-encuentra-estable_0_1592240799.html'
p3
aS'https://www.clarin.com/sociedad/dias-abandonado-descampado-encuentra-estable_0_1592240799.html'
p4
aS'https://www.clarin.com/ieco/empresas-y-negocios/Dan-Schulman-empresas-convertirse-fuerzas_0_1592240794.html'
p5
aS'https://www.clarin.com/politica/Pichetto-PJ-territorial-apoyo-presiones_0_1592240795.html'
p6
aS'https://www.clarin.com/politica/Pichetto-PJ-territorial-apoyo-presiones_0_1592240795.html'
p7
aS'https://www.clarin.com/sociedad/automotriz-polemico-manual-usar-auto_0_1592240786.html'
p8
aS'https://www.clarin.com/sociedad/automotriz-polemico-manual-usar-auto_0_1592240786.html'
p9
aS'https://www.clarin.com/politica/Cristina-Facebook-Jubilados-autentico-legislativo_0_1592240781.html'
p10
aS'https://www.clarin.com/politica/Cristina-Facebook-Jubilados-autentico-legislativo_0_1592240781.html'
p11
a.