(lp0
S'https://www.clarin.com/politica/Siguen-allanamientos-ahora-toco-convento_0_1597640344.html'
p1
aS'https://www.clarin.com/politica/esposa-Lopez-matrimonios-ricos-Provincia_0_1597640359.html'
p2
aS'https://www.clarin.com/politica/vecinos-Lopez-perfil-quejaban-perros_0_1597640342.html'
p3
aS'https://www.clarin.com/politica/entrevista-Marcos-Pena-confeso-alguna_0_1597640345.html'
p4
aS'https://www.clarin.com/politica/dia-Lopez-entregar-Fatimovil-convento_0_1597640347.html'
p5
a.