(lp0
Vhttps://www.clarin.com/politica/Nisman-denuncio-Fein-justicia-federal_0_1532247179.html
p1
aVhttps://www.clarin.com/politica/Nisman-denuncio-Fein-justicia-federal_0_1532247179.html
p2
aVhttps://www.clarin.com/politica/Stiuso-Nisman-relacionado-Gobierno-Cristina_0_1532247233.html
p3
aVhttps://www.clarin.com/politica/Stiuso-Nisman-relacionado-Gobierno-Cristina_0_1532247233.html
p4
aVhttps://www.clarin.com/sociedad/Crearon-heladera-compartir-comida-tirarla_0_1532247215.html
p5
aVhttps://www.clarin.com/sociedad/Crearon-heladera-compartir-comida-tirarla_0_1532247215.html
p6
aVhttps://www.clarin.com/politica/Macri-pidio-responsabilidad-acuerdo-buitres_0_1532247159.html
p7
aVhttps://www.clarin.com/politica/Macri-pidio-responsabilidad-acuerdo-buitres_0_1532247159.html
p8
aVhttps://www.clarin.com/politica/Congreso-Macri-herencia-despilfarro-corrupcion_0_1532247222.html
p9
aVhttps://www.clarin.com/politica/Congreso-Macri-herencia-despilfarro-corrupcion_0_1532247222.html
p10
aVhttps://www.clarin.com/politica/Massa-Libres-Sur-ganaron-diputados_0_1532247210.html
p11
aVhttps://www.clarin.com/politica/Massa-Libres-Sur-ganaron-diputados_0_1532247210.html
p12
aVhttps://www.clarin.com/politica/Gritos-pancartas-Presidente-bancada_0_1532247205.html
p13
aVhttps://www.clarin.com/politica/pregunta-millon-tomaria-Comodoro-Py_0_1532247232.html
p14
aVhttps://www.clarin.com/politica/pregunta-millon-tomaria-Comodoro-Py_0_1532247232.html
p15
aVhttps://www.clarin.com/opinion/fuego-amistad_0_1532247180.html
p16
aVhttps://www.clarin.com/politica/puede-coro-macrista-tapar-kirchnerismo_0_1532247225.html
p17
aVhttps://www.clarin.com/sociedad/casos-dengue-autoctono-Capital-Provincia_0_1532247229.html
p18
aVhttps://www.clarin.com/sociedad/casos-dengue-autoctono-Capital-Provincia_0_1532247229.html
p19
a.