(lp0
S'https://www.clarin.com/sociedad/Detuvieron-tercer-sospechoso-Lucia-Perez_0_1669633049.html'
p1
aS'https://www.clarin.com/ieco/ventas-Dia-Madre-cayeron_0_1669633107.html'
p2
aS'https://www.clarin.com/ieco/economia/Argentina-estrella-regional_0_1669633042.html'
p3
aS'https://www.clarin.com/ieco/economia/comunicacion-interna-segmenta-efectiva_0_1669633054.html'
p4
aS'https://www.clarin.com/politica/oficial-Vaticano-visita-Macri-Papa_0_1669633115.html'
p5
aS'https://www.clarin.com/politica/Juan-Manuel-Urtubey-peronismo-Argentina_0_1669633114.html'
p6
a.