(lp0
S'https://www.clarin.com/politica/Bergoglio-enfurecio-Kirchner-Anibal-Fernandez_0_1583241691.html'
p1
aS'https://www.clarin.com/politica/Mayo-sitiada-chocolate-caliente-pocos_0_1583241700.html'
p2
aS'https://www.clarin.com/sociedad/Hallazgo-arqueologico-Jujuy-encontraron-esqueleto_0_1583241692.html'
p3
aS'https://www.clarin.com/politica/Mira-espectaculo-desfile-Granderos_0_1583241693.html'
p4
aS'https://www.clarin.com/sociedad/Labiales-forma-pene-nueva-tendencia_0_1583241698.html'
p5
aS'https://www.clarin.com/politica/Detienen-personas-violencia-Patricia-Bullrich_0_1583241690.html'
p6
aS'https://www.clarin.com/sociedad/Detienen-trabajo-seguridad-Time-Warp_0_1583241706.html'
p7
aS'https://www.clarin.com/ieco/Europa-alivio-Grecia-aplazando-reestructuracion_0_1583241701.html'
p8
aS'https://www.clarin.com/politica/Papa-intendentes-argentinos-narcotrafico-violencia_0_1583241694.html'
p9
a.