(lp0
S'https://www.clarin.com/sociedad/Federico-Storani-lanchas-fatalidad-accidente_0_1552045012.html'
p1
aS'https://www.clarin.com/sociedad/Federico-Storani-lanchas-fatalidad-accidente_0_1552045012.html'
p2
aS'https://www.clarin.com/sociedad/Salta-joven-murio-dengue-hemorragico_0_1552045002.html'
p3
aS'https://www.clarin.com/sociedad/Salta-joven-murio-dengue-hemorragico_0_1552045002.html'
p4
aS'https://www.clarin.com/sociedad/Derrape-machista-academico-espanol_0_1552044994.html'
p5
aS'https://www.clarin.com/ieco/economia/Vuelve-manipulacion-cuentas-publicas_0_1552044934.html'
p6
aS'https://www.clarin.com/ieco/economia/Vuelve-manipulacion-cuentas-publicas_0_1552044934.html'
p7
aS'https://www.clarin.com/ieco/economia/Recuperar-marina-mercante_0_1552044939.html'
p8
aS'https://www.clarin.com/ieco/economia/Recuperar-marina-mercante_0_1552044939.html'
p9
aS'https://www.clarin.com/ieco/economia/Festejos-anos-rock_0_1552044948.html'
p10
aS'https://www.clarin.com/ieco/economia/Festejos-anos-rock_0_1552044948.html'
p11
a.