(lp0
S'https://www.clarin.com/politica/PAMI-encontro-Rioja-urnas-escondidas_0_1509449451.html'
p1
aS'https://www.clarin.com/ieco/economia/Lousteau-trabajar-rapido-cambiar-imagen_0_1509449449.html'
p2
aS'https://www.clarin.com/ieco/economia/Lousteau-trabajar-rapido-cambiar-imagen_0_1509449449.html'
p3
aS'https://www.clarin.com/ieco/economia/frutos-tropicales-negocio-US300-millones_0_1510049251.html'
p4
aS'https://www.clarin.com/ieco/economia/frutos-tropicales-negocio-US300-millones_0_1510049251.html'
p5
aS'https://www.clarin.com/ieco/economia/Tradicionales-exoticos_0_1510049250.html'
p6
aS'https://www.clarin.com/ieco/economia/Tradicionales-exoticos_0_1510049250.html'
p7
aS'https://www.clarin.com/ieco/economia/Bonos-viento-marea_0_1510049247.html'
p8
aS'https://www.clarin.com/ieco/economia/Marchand-vinos-premium_0_1510049229.html'
p9
aS'https://www.clarin.com/ieco/economia/Marchand-vinos-premium_0_1510049229.html'
p10
aS'https://www.clarin.com/ieco/economia/disyuntiva-ruedas_0_1510049228.html'
p11
aS'https://www.clarin.com/ieco/economia/empresas-disenan-sociales-propias-interno_0_1510049225.html'
p12
aS'https://www.clarin.com/ieco/economia/temo-equivocando_0_1510049221.html'
p13
aS'https://www.clarin.com/ieco/economia/temo-equivocando_0_1510049221.html'
p14
aS'https://www.clarin.com/ieco/economia/Quiero-viralizar-creatividad-Buenos-Aires_0_1510049217.html'
p15
aS'https://www.clarin.com/ieco/economia/Quiero-viralizar-creatividad-Buenos-Aires_0_1510049217.html'
p16
aS'https://www.clarin.com/ieco/economia/Coca-Cola-avisos-argentinos_0_1510049216.html'
p17
aS'https://www.clarin.com/ieco/economia/perderse-jungla-Foro-Davos_0_1510049215.html'
p18
aS'https://www.clarin.com/ieco/economia/perderse-jungla-Foro-Davos_0_1510049215.html'
p19
aS'https://www.clarin.com/ieco/economia/Argentina-busca-lugar-mundo-problemas_0_1510049214.html'
p20
aS'https://www.clarin.com/ieco/economia/Argentina-busca-lugar-mundo-problemas_0_1510049214.html'
p21
aS'https://www.clarin.com/ieco/economia/inflacion-INDEC-perjudico-jubilados_0_1510049212.html'
p22
aS'https://www.clarin.com/ieco/economia/inflacion-INDEC-perjudico-jubilados_0_1510049212.html'
p23
aS'https://www.clarin.com/ieco/economia/prestar-manera-planificada_0_1510049209.html'
p24
a.