(lp0
S'https://www.clarin.com/opinion/Explosion-Nueva-Delhi-muerte-Ganges_0_1567643423.html'
p1
aS'https://www.clarin.com/opinion/Explosion-Nueva-Delhi-muerte-Ganges_0_1567643423.html'
p2
aS'https://www.clarin.com/opinion/Leopoldo-Teuco-Castilla-poesia-regalo_0_1567643425.html'
p3
aS'https://www.clarin.com/opinion/Leopoldo-Teuco-Castilla-poesia-regalo_0_1567643425.html'
p4
aS'https://www.clarin.com/opinion/Cuidar-instituciones-democraticas_0_1567643427.html'
p5
aS'https://www.clarin.com/opinion/crean-pocos-puestos-abandona-busqueda_0_1567643426.html'
p6
aS'https://www.clarin.com/opinion/Persisten-asimetrias-mandatos-patriarcales_0_1567643424.html'
p7
aS'https://www.clarin.com/opinion/culpa-tasa-interes_0_1568243211.html'
p8
aS'https://www.clarin.com/opinion/Enorme-acto-quiera-oir-oiga_0_1568243210.html'
p9
aS'https://www.clarin.com/opinion/regreso-Gallardo-goles_0_1568243209.html'
p10
aS'https://www.clarin.com/opinion/Gobierno-entrando-boxes_0_1568243208.html'
p11
aS'https://www.clarin.com/sociedad/Ahora-Lewis-venderle-electricidad-Bolson_0_1567643392.html'
p12
aS'https://www.clarin.com/sociedad/Ahora-Lewis-venderle-electricidad-Bolson_0_1567643392.html'
p13
a.