(lp0
Vhttps://www.clarin.com/ieco/empresas-y-negocios/Sol-suspenden-despidos-dan-vacaciones_0_1507649440.html
p1
aVhttps://www.clarin.com/ieco/empresas-y-negocios/Sol-suspenden-despidos-dan-vacaciones_0_1507649440.html
p2
aVhttps://www.clarin.com/politica/Caso-Chubut-descuentan-diputados-kirchneristas_0_1507649546.html
p3
aVhttps://www.clarin.com/politica/Caso-Chubut-descuentan-diputados-kirchneristas_0_1507649546.html
p4
aVhttps://www.clarin.com/politica/Gobierno-Sersale-Cerisano-Bretana-Irlanda_0_1507649545.html
p5
aVhttps://www.clarin.com/politica/Gobierno-Sersale-Cerisano-Bretana-Irlanda_0_1507649545.html
p6
a.