(lp0
Vhttps://www.clarin.com/sociedad/joven-unico-sobreviviente-accidente-avioneta_0_1537046593.html
p1
aVhttps://www.clarin.com/sociedad/joven-unico-sobreviviente-accidente-avioneta_0_1537046593.html
p2
aVhttps://www.clarin.com/politica/Primera-oficialismo-rechazan-DNU-Ganancias_0_1537046588.html
p3
aVhttps://www.clarin.com/politica/Primera-oficialismo-rechazan-DNU-Ganancias_0_1537046588.html
p4
aVhttps://www.clarin.com/sociedad/Violencia-condenaron-pintar-Principito-azulejo_0_1537046583.html
p5
aVhttps://www.clarin.com/politica/Macri-convoco-campo-trabajar_0_1537046585.html
p6
aVhttps://www.clarin.com/politica/Macri-convoco-campo-trabajar_0_1537046585.html
p7
aVhttps://www.clarin.com/sociedad/funcionaria-Ecuador-mochileras-seguro-pasar_0_1537046586.html
p8
aVhttps://www.clarin.com/sociedad/funcionaria-Ecuador-mochileras-seguro-pasar_0_1537046586.html
p9
a.