(lp0
S'https://www.clarin.com/sociedad/Afirman-destina-dinero-prevenir-adicciones_0_1586241542.html'
p1
aS'https://www.clarin.com/politica/PJ-conduccion-Pichetto-Uribarri-Perotti_0_1586241526.html'
p2
aS'https://www.clarin.com/politica/Camara-cito-Baez-audiencia-pedido_0_1586241529.html'
p3
aS'https://www.clarin.com/politica/presion-Casanello-aumento-varias-libras_0_1586241527.html'
p4
aS'https://www.clarin.com/sociedad/disparo-escopeta-salvo-dieron-prision_0_1586241528.html'
p5
aS'https://www.clarin.com/politica/auditoria-apunta-Boudou-administracion-Camara_0_1586241523.html'
p6
aS'https://www.clarin.com/sociedad/calor-frio-escalas-otono-pais_0_1586241547.html'
p7
aS'https://www.clarin.com/sociedad/Revelan-Gran-Barrera-Coral-calentamiento_0_1586241532.html'
p8
aS'https://www.clarin.com/politica/Barrios-Pie-moviliza-reclamar-alimentos_0_1586241543.html'
p9
a.