(lp0
Vhttps://www.clarin.com/sociedad/Piedrazos-vecinos-policias-polemico-circo_0_1604839623.html
p1
aVhttps://www.clarin.com/sociedad/Piedrazos-vecinos-policias-polemico-circo_0_1604839623.html
p2
aVhttps://www.clarin.com/politica/Auditaran-juzgados-federales-causas-corrupcion_0_1604839603.html
p3
aVhttps://www.clarin.com/politica/Cristina-furiosa-allanamientos-Conmigo-podran_0_1604839619.html
p4
aVhttps://www.clarin.com/politica/Cristina-furiosa-allanamientos-Conmigo-podran_0_1604839619.html
p5
aVhttps://www.clarin.com/politica/Camara-Federal-procesamiento-Baez-Cristina_0_1604839612.html
p6
aVhttps://www.clarin.com/politica/Camara-Federal-procesamiento-Baez-Cristina_0_1604839612.html
p7
a.