(lp0
S'https://www.clarin.com/politica/Cristobal-Lopez-embargos-pedido-AFIP_0_1543046029.html'
p1
aS'https://www.clarin.com/sociedad/Carpooling-compartir-auto-viajes-largos_0_1543046066.html'
p2
aS'https://www.clarin.com/politica/Massa-laburante-esperando-equilibren-balanza_0_1543645630.html'
p3
aS'https://www.clarin.com/opinion/Obstinadamente-quedo-aca_0_1543046060.html'
p4
aS'https://www.clarin.com/politica/Elaskar-custodia-podria-declarar_0_1543046074.html'
p5
aS'https://www.clarin.com/politica/inhibicion-Gobierno-pedido-embargar-Baez_0_1543046075.html'
p6
aS'https://www.clarin.com/politica/vi_0_1543046073.html'
p7
aS'https://www.clarin.com/opinion/Cuba-espera-hoy-Obama_0_1543046070.html'
p8
aS'https://www.clarin.com/sociedad/Rutas-Argentinas-revelan-pesimo_0_1543046089.html'
p9
aS'https://www.clarin.com/politica/Pichetto-necesaria-aumentode-precios-desproporcionado_0_1543046081.html'
p10
a.