(lp0
Vhttps://www.clarin.com/politica/Massa-aumento-tarifas-quirofano-motosierra_0_1550845156.html
p1
aVhttps://www.clarin.com/politica/Massa-aumento-tarifas-quirofano-motosierra_0_1550845156.html
p2
aVhttps://www.clarin.com/politica/Mendoza-intendente-renuncio-carcel_0_1550845145.html
p3
aVhttps://www.clarin.com/politica/intendente-Malvinas-Argentinas-Onetto-municipio_0_1550845141.html
p4
aVhttps://www.clarin.com/politica/intendente-Malvinas-Argentinas-Onetto-municipio_0_1550845141.html
p5
aVhttps://www.clarin.com/politica/Macri-reencontro-Obama-Casa-Blanca_0_1550845139.html
p6
aVhttps://www.clarin.com/politica/Macri-reencontro-Obama-Casa-Blanca_0_1550845139.html
p7
aVhttps://www.clarin.com/sociedad/lugar-accidente-cruce-peligroso_0_1550845135.html
p8
aVhttps://www.clarin.com/sociedad/lugar-accidente-cruce-peligroso_0_1550845135.html
p9
a.