(lp0
S'https://www.clarin.com/politica/Mauricio-Macri-descarto-reeleccion_0_1667233329.html'
p1
aS'https://www.clarin.com/politica/Mauricio-Macri-descarto-reeleccion_0_1667233329.html'
p2
aS'https://www.clarin.com/sociedad/Crean-medidor-gasto-monitorear-celular_0_1667233324.html'
p3
aS'https://www.clarin.com/sociedad/Crean-medidor-gasto-monitorear-celular_0_1667233324.html'
p4
aS'https://www.clarin.com/sociedad/Video-esfuerzo-ballena-liberar-madre_0_1667233313.html'
p5
aS'https://www.clarin.com/sociedad/Video-esfuerzo-ballena-liberar-madre_0_1667233313.html'
p6
aS'https://www.clarin.com/sociedad/triste-enojado-duplica-riesgo-infarto_0_1667233316.html'
p7
aS'https://www.clarin.com/sociedad/triste-enojado-duplica-riesgo-infarto_0_1667233316.html'
p8
aS'https://www.clarin.com/ieco/jubilados-podran-adherir-Reparacion-Historica_0_1667233315.html'
p9
aS'https://www.clarin.com/ieco/jubilados-podran-adherir-Reparacion-Historica_0_1667233315.html'
p10
aS'https://www.clarin.com/politica/Maria-Julia-Alsogaray-prision-domiciliaria_0_1667233312.html'
p11
a.