(lp0
S'https://www.clarin.com/ieco/economia/mitos-tercerizacion_0_1581441880.html'
p1
aS'https://www.clarin.com/ieco/economia/Mandados-celular_0_1581441882.html'
p2
aS'https://www.clarin.com/ieco/economia/Destri-Lobo-agencias-medios-sufrir_0_1581441867.html'
p3
aS'https://www.clarin.com/ieco/economia/mejores-empresas-trabajar-America-Latina_0_1581441878.html'
p4
aS'https://www.clarin.com/ieco/economia/Convenio-promover-insercion-laboral-jovenes_0_1581441879.html'
p5
aS'https://www.clarin.com/ieco/economia/BCRA-comenzo-bajar-tasas-Lebac_0_1581441907.html'
p6
aS'https://www.clarin.com/ieco/economia/Argentina-contexto-regional_0_1581441875.html'
p7
aS'https://www.clarin.com/ieco/economia/explotar-oportunidades-mobile-marketing-local_0_1581441868.html'
p8
aS'https://www.clarin.com/ieco/economia/Varias-alternativas_0_1581441866.html'
p9
aS'https://www.clarin.com/ieco/economia/On-demand_0_1581441881.html'
p10
aS'https://www.clarin.com/ieco/economia/peor-paso-dicen-industria_0_1581441865.html'
p11
aS'https://www.clarin.com/ieco/economia/Comedia-musical_0_1581441908.html'
p12
aS'https://www.clarin.com/ieco/economia/espera-definiciones-materia-fiscal-monetaria_0_1581441905.html'
p13
aS'https://www.clarin.com/ieco/economia/Convocatoria_0_1581441877.html'
p14
aS'https://www.clarin.com/ieco/economia/Infraestructura-tema-pendiente_0_1581441870.html'
p15
a.