(lp0
S'https://www.clarin.com/politica/Hablo-Martin-Baez-aca-disponible_0_1556244598.html'
p1
aS'https://www.clarin.com/politica/Hablo-Lazaro-Baez-allanamiento-preocupado_0_1556244568.html'
p2
aS'https://www.clarin.com/sociedad/enfermedad-criolla-elegir-delincuentes_0_1555644794.html'
p3
aS'https://www.clarin.com/politica/imputacion-Cristina-impacto-medios-mundo_0_1556244544.html'
p4
aS'https://www.clarin.com/ieco/economia/tercios-renta-agricola-parar-bolsillo_0_1555044920.html'
p5
aS'https://www.clarin.com/sociedad/madreejecuto-balazos-Iphone-hijos_0_1556244600.html'
p6
aS'https://www.clarin.com/politica/kirchnerismo-defender-Cristina-convocatoria-Tribunales_0_1556244611.html'
p7
aS'https://www.clarin.com/ieco/economia/arte-redisena-marcas_0_1556244593.html'
p8
a.