(lp0
S'https://www.clarin.com/politica/Elisa-Carrio-Sergio-Massa-Corradi_0_1645035567.html'
p1
aS'https://www.clarin.com/politica/Elisa-Carrio-Sergio-Massa-Corradi_0_1645035567.html'
p2
aS'https://www.clarin.com/sociedad/odisea-maestros-rurales-atrapados-nieve_0_1645035564.html'
p3
aS'https://www.clarin.com/sociedad/odisea-maestros-rurales-atrapados-nieve_0_1645035564.html'
p4
aS'https://www.clarin.com/ieco/cheques-podran-depositarse-celular_0_1645035560.html'
p5
aS'https://www.clarin.com/ieco/cheques-podran-depositarse-celular_0_1645035560.html'
p6
aS'https://www.clarin.com/sociedad/vino-soda-invento-mendocino_0_1645035559.html'
p7
aS'https://www.clarin.com/sociedad/vino-soda-invento-mendocino_0_1645035559.html'
p8
aS'https://www.clarin.com/sociedad/Japon-reanuda-polemica-caza-ballenas_0_1645035553.html'
p9
aS'https://www.clarin.com/sociedad/Japon-reanuda-polemica-caza-ballenas_0_1645035553.html'
p10
aS'https://www.clarin.com/politica/saludo-Macri-presidente-cuestionado_0_1645035557.html'
p11
aS'https://www.clarin.com/politica/saludo-Macri-presidente-cuestionado_0_1645035557.html'
p12
a.