(lp0
S'https://www.clarin.com/politica/Baez-entrego-Mausoleo-Cristina-Kirchner_0_1570043142.html'
p1
aS'https://www.clarin.com/sociedad/poder-encuesta_0_1570043180.html'
p2
aS'https://www.clarin.com/politica/Dan-proyecto-reintegro-IVA-alimentos_0_1570043135.html'
p3
aS'https://www.clarin.com/ieco/suba-gasoil-dolor-cabeza-productores_0_1570043098.html'
p4
aS'https://www.clarin.com/ieco/economia/inmuebles-sigue-recuperandose-subio-marzo_0_1570043059.html'
p5
aS'https://www.clarin.com/ieco/Pampa-Energia-quedo-Petrobras_0_1570043199.html'
p6
aS'https://www.clarin.com/politica/Stolbizer-acuso-Cristina-ganancias-millonarias_0_1570642928.html'
p7
a.