(lp0
S'https://www.clarin.com/politica/allanadas-propiedades-clave-Lazaro-Baez_0_1573042820.html'
p1
aS'https://www.clarin.com/politica/allanadas-propiedades-clave-Lazaro-Baez_0_1573042820.html'
p2
aS'https://www.clarin.com/politica/Victor-Hugo-Morales-Pongo-Cristina_0_1573042819.html'
p3
aS'https://www.clarin.com/politica/Victor-Hugo-Morales-Pongo-Cristina_0_1573042819.html'
p4
aS'https://www.clarin.com/sociedad/Dolor-calmantes-tardia-rescatar-Prince_0_1573042815.html'
p5
aS'https://www.clarin.com/sociedad/Dolor-calmantes-tardia-rescatar-Prince_0_1573042815.html'
p6
aS'https://www.clarin.com/sociedad/beatificacion-servidores-Virgen-Lujan-marcha_0_1573042809.html'
p7
aS'https://www.clarin.com/sociedad/beatificacion-servidores-Virgen-Lujan-marcha_0_1573042809.html'
p8
aS'https://www.clarin.com/politica/Iglesia-inclusion-social-unidad-nacional_0_1573042807.html'
p9
aS'https://www.clarin.com/ieco/economia/Presidente-HSBC-crecimiento-inflacion-declinante_0_1573042802.html'
p10
aS'https://www.clarin.com/ieco/economia/Mendiguren-afirmo-atraviesan-tormenta-perfecta_0_1573042799.html'
p11
a.