(lp0
S'https://www.clarin.com/sociedad/Antartida-abastecen-base-argentina-austral_0_1521448064.html'
p1
aS'https://www.clarin.com/sociedad/sonido-ondas-gravitacionales-celular_0_1521448083.html'
p2
aS'https://www.clarin.com/politica/rechazaron-denuncia-Macri-DNU_0_1521448080.html'
p3
aS'https://www.clarin.com/ieco/temperatura-importarian-energia-Brasil-Uruguay_0_1521448062.html'
p4
aS'https://www.clarin.com/politica/Macri-San-Juan-peronismo-retenciones_0_1521448076.html'
p5
a.