(lp0
Vhttps://www.clarin.com/politica/Mensaje-Macri-Massa-Invito-kirchnerismo_0_1570043020.html
p1
aVhttps://www.clarin.com/sociedad/Lanzan-detector-casos-bullying_0_1570043008.html
p2
aVhttps://www.clarin.com/sociedad/Lanzan-detector-casos-bullying_0_1570043008.html
p3
aVhttps://www.clarin.com/sociedad/Time-Warp-dealer-podria-proveedores_0_1570043015.html
p4
aVhttps://www.clarin.com/sociedad/Time-Warp-dealer-podria-proveedores_0_1570043015.html
p5
aVhttps://www.clarin.com/politica/Presunto-Jaime-Kirchner-Espana-Portugal_0_1570043017.html
p6
aVhttps://www.clarin.com/politica/Presunto-Jaime-Kirchner-Espana-Portugal_0_1570043017.html
p7
aVhttps://www.clarin.com/ieco/Ruralistas-cruzan-Moyano-pagando-retenciones_0_1570043014.html
p8
aVhttps://www.clarin.com/politica/Gobierno-descarto-aumento-transporte-publico_0_1570043012.html
p9
aVhttps://www.clarin.com/politica/Gobierno-descarto-aumento-transporte-publico_0_1570043012.html
p10
aVhttps://www.clarin.com/ieco/economia/brasilena-Unipar-negocios-Solvay-Argentina_0_1570043010.html
p11
aVhttps://www.clarin.com/ieco/economia/brasilena-Unipar-negocios-Solvay-Argentina_0_1570043010.html
p12
a.