(lp0
Vhttps://www.clarin.com/politica/Urtubey-Scioli-conducir-peronismo-perdio_0_1552045187.html
p1
aVhttps://www.clarin.com/politica/Urtubey-Scioli-conducir-peronismo-perdio_0_1552045187.html
p2
aVhttps://www.clarin.com/politica/Polemica-bar-telefono-Randazzo_0_1552045197.html
p3
aVhttps://www.clarin.com/politica/Polemica-bar-telefono-Randazzo_0_1552045197.html
p4
aVhttps://www.clarin.com/politica/proyecto-recuperar-plata-bienes-corrupcion_0_1552045108.html
p5
aVhttps://www.clarin.com/politica/proyecto-recuperar-plata-bienes-corrupcion_0_1552045108.html
p6
aVhttps://www.clarin.com/opinion/Lagrimas-amigo-ausente_0_1552045181.html
p7
aVhttps://www.clarin.com/sociedad/fatalidad-accidente-dijo-Storani-hijo_0_1552045169.html
p8
aVhttps://www.clarin.com/sociedad/fatalidad-accidente-dijo-Storani-hijo_0_1552045169.html
p9
aVhttps://www.clarin.com/politica/Stolbizer-denuncia-sociedad-Cristina_0_1552045176.html
p10
aVhttps://www.clarin.com/sociedad/Luche-viento-marea-festejar-logre_0_1552045171.html
p11
aVhttps://www.clarin.com/sociedad/Luche-viento-marea-festejar-logre_0_1552045171.html
p12
aVhttps://www.clarin.com/politica/escandalo-salpica-politicos-empresarios-deportistas_0_1552045214.html
p13
aVhttps://www.clarin.com/politica/escandalo-salpica-politicos-empresarios-deportistas_0_1552045214.html
p14
aVhttps://www.clarin.com/politica/Kirchner-despegan-aprovechan-pegarle-Macri_0_1552045204.html
p15
a.