(lp0
S'https://www.clarin.com/politica/jueves-dictara-historica-sentencia-Perla_0_1637836307.html'
p1
aS'https://www.clarin.com/politica/jueves-dictara-historica-sentencia-Perla_0_1637836307.html'
p2
aS'https://www.clarin.com/sociedad/Gobierno-denunciar-monsenor-Aguer-Inadi_0_1637836300.html'
p3
aS'https://www.clarin.com/sociedad/Gobierno-denunciar-monsenor-Aguer-Inadi_0_1637836300.html'
p4
a.