(lp0
S'https://www.clarin.com/politica/Pena-bajarle-pedidos-reapertura-paritarias_0_1625237531.html'
p1
aS'https://www.clarin.com/politica/Pena-bajarle-pedidos-reapertura-paritarias_0_1625237531.html'
p2
aS'https://www.clarin.com/ieco/Aguad-Pretendemos-empresas-rentabilidad_0_1625237530.html'
p3
aS'https://www.clarin.com/ieco/Aguad-Pretendemos-empresas-rentabilidad_0_1625237530.html'
p4
aS'https://www.clarin.com/politica/Hablo-tuiteros-amenaza-Macri-culpo_0_1625237520.html'
p5
aS'https://www.clarin.com/politica/Hablo-tuiteros-amenaza-Macri-culpo_0_1625237520.html'
p6
aS'https://www.clarin.com/sociedad/Polemica-madre-abuela-dio-luz-anos_0_1625237521.html'
p7
aS'https://www.clarin.com/sociedad/Polemica-madre-abuela-dio-luz-anos_0_1625237521.html'
p8
aS'https://www.clarin.com/sociedad/ministro-Salud-despenalizacion-aborto_0_1625237517.html'
p9
aS'https://www.clarin.com/sociedad/ministro-Salud-despenalizacion-aborto_0_1625237517.html'
p10
a.