(lp0
Vhttps://www.clarin.com/politica/Tarifazo-funcionaria-organizadoras-cacerolazo_0_1613238682.html
p1
aVhttps://www.clarin.com/politica/Tarifazo-funcionaria-organizadoras-cacerolazo_0_1613238682.html
p2
aVhttps://www.clarin.com/politica/confesion-Macri-desmentir-embarazo-Juliana_0_1613238683.html
p3
aVhttps://www.clarin.com/politica/confesion-Macri-desmentir-embarazo-Juliana_0_1613238683.html
p4
aVhttps://www.clarin.com/ieco/inflacion-portena-junio-acumula-anual_0_1613238680.html
p5
aVhttps://www.clarin.com/ieco/inflacion-portena-junio-acumula-anual_0_1613238680.html
p6
aVhttps://www.clarin.com/sociedad/Ab-peligrosa-difunde-redes-sociales_0_1613238678.html
p7
aVhttps://www.clarin.com/sociedad/Ab-peligrosa-difunde-redes-sociales_0_1613238678.html
p8
aVhttps://www.clarin.com/sociedad/primer-animal-llego-Rural_0_1613238679.html
p9
aVhttps://www.clarin.com/sociedad/primer-animal-llego-Rural_0_1613238679.html
p10
a.