(lp0
S'https://www.clarin.com/sociedad/docentes-realizaran-viernes-nuevo-paro_0_1640835923.html'
p1
aS'https://www.clarin.com/sociedad/heridos-explosion-derrumbe-Mar-Plata_0_1640835919.html'
p2
aS'https://www.clarin.com/sociedad/rayo-mato-renos_0_1640835914.html'
p3
aS'https://www.clarin.com/politica/Mauricio-Macri-realizo-rodilla-operada_0_1640835921.html'
p4
a.