(lp0
S'https://www.clarin.com/politica/Facundo-Moyano-acuerdo-empresarios_0_1573642762.html'
p1
aS'https://www.clarin.com/sociedad/playa-empezaron-demoler-balnearios-Pinamar_0_1573642765.html'
p2
aS'https://www.clarin.com/politica/Militantes-Pablo-Micheli-CTA-Cuba_0_1573642756.html'
p3
aS'https://www.clarin.com/sociedad/Violencia-genero-denuncio-gendarme-vida_0_1573642760.html'
p4
aS'https://www.clarin.com/politica/Ercolini-hagan-autopsia-psicologica-Nisman_0_1573642754.html'
p5
aS'https://www.clarin.com/sociedad/Santiago-Estero-murio-ahogada-dentro_0_1573642703.html'
p6
aS'https://www.clarin.com/sociedad/vuelta-loa-aplazos-evaluaran-alumnos_0_1573642768.html'
p7
a.