(lp0
S'https://www.clarin.com/sociedad/Bahia-Blanca-todavia-quedan-personas_0_1500450273.html'
p1
aS'https://www.clarin.com/sociedad/Bahia-Blanca-todavia-quedan-personas_0_1500450273.html'
p2
aS'https://www.clarin.com/sociedad/Video-monos-hicieron-llorar-nena_0_1500450264.html'
p3
aS'https://www.clarin.com/sociedad/Video-monos-hicieron-llorar-nena_0_1500450264.html'
p4
aS'https://www.clarin.com/politica/AFSCA-rechazan-intento-anular-intervencion_0_1500450253.html'
p5
a.