(lp0
Vhttps://www.clarin.com/sociedad/queriamos-pelear-siguieron-afuera-pegaron_0_1642035989.html
p1
aVhttps://www.clarin.com/sociedad/queriamos-pelear-siguieron-afuera-pegaron_0_1642035989.html
p2
aVhttps://www.clarin.com/politica/Conformaron-bicameral-Defensor-Pueblo_0_1642035986.html
p3
a.