(lp0
S'https://www.clarin.com/ieco/economia/Nueva-emision-deuda-millones-euros_0_1663033752.html'
p1
aS'https://www.clarin.com/ieco/economia/Nueva-emision-deuda-millones-euros_0_1663033752.html'
p2
aS'https://www.clarin.com/sociedad/mensaje-oculto-esconde-perfecta-Instagram_0_1663033717.html'
p3
aS'https://www.clarin.com/sociedad/mensaje-oculto-esconde-perfecta-Instagram_0_1663033717.html'
p4
aS'https://www.clarin.com/politica/Macri-Lifschitz-Buenos-Aires-Santa_0_1663033749.html'
p5
aS'https://www.clarin.com/politica/Macri-Lifschitz-Buenos-Aires-Santa_0_1663033749.html'
p6
aS'https://www.clarin.com/politica/Alicia-Kirchner-economica-Santa-Cruz_0_1663033713.html'
p7
aS'https://www.clarin.com/politica/Alicia-Kirchner-economica-Santa-Cruz_0_1663033713.html'
p8
aS'https://www.clarin.com/politica/sciolista-encuesta-Cristina-Kirchner-siempre_0_1663033743.html'
p9
aS'https://www.clarin.com/politica/sciolista-encuesta-Cristina-Kirchner-siempre_0_1663033743.html'
p10
aS'https://www.clarin.com/sociedad/clientes-Personal-problemas-comunicarse-voz_0_1663033744.html'
p11
aS'https://www.clarin.com/sociedad/clientes-Personal-problemas-comunicarse-voz_0_1663033744.html'
p12
aS'https://www.clarin.com/politica/juez-Oyarbide-tino-pelo-Messi_0_1663033740.html'
p13
aS'https://www.clarin.com/politica/juez-Oyarbide-tino-pelo-Messi_0_1663033740.html'
p14
a.