(lp0
Vhttps://www.clarin.com/politica/Solo-podra-convocar-peronista-presidente_0_1607239385.html
p1
aVhttps://www.clarin.com/politica/Solo-podra-convocar-peronista-presidente_0_1607239385.html
p2
aVhttps://www.clarin.com/politica/demoras-ley-arrepentido-harian-retoques_0_1607239383.html
p3
aVhttps://www.clarin.com/sociedad/Eligen-ilusion-optica-extrana-ano_0_1607239373.html
p4
aVhttps://www.clarin.com/sociedad/Eligen-ilusion-optica-extrana-ano_0_1607239373.html
p5
a.