(lp0
S'https://www.clarin.com/politica/Carrio-respaldo-politica-economica-Macri_0_1591040887.html'
p1
aS'https://www.clarin.com/politica/Carrio-respaldo-politica-economica-Macri_0_1591040887.html'
p2
aS'https://www.clarin.com/sociedad/Puso-inmobiliaria-acusan-liderar-trata_0_1590441096.html'
p3
aS'https://www.clarin.com/sociedad/Puso-inmobiliaria-acusan-liderar-trata_0_1590441096.html'
p4
aS'https://www.clarin.com/ieco/dolar-volvio-bajar-Gobierno-preocupacion_0_1590441113.html'
p5
aS'https://www.clarin.com/ieco/dolar-volvio-bajar-Gobierno-preocupacion_0_1590441113.html'
p6
aS'https://www.clarin.com/politica/aguinaldo-sube-descuento-Ganancias-junio_0_1590441110.html'
p7
aS'https://www.clarin.com/politica/aguinaldo-sube-descuento-Ganancias-junio_0_1590441110.html'
p8
aS'https://www.clarin.com/sociedad/paro-medicos-podran-jubilarse-anos_0_1590441118.html'
p9
aS'https://www.clarin.com/sociedad/paro-medicos-podran-jubilarse-anos_0_1590441118.html'
p10
aS'https://www.clarin.com/opinion/espias-siempre-primer-plano_0_1591040885.html'
p11
aS'https://www.clarin.com/opinion/espias-siempre-primer-plano_0_1591040885.html'
p12
aS'https://www.clarin.com/sociedad/falta-boletines-notas-tiritas-papel_0_1590441115.html'
p13
aS'https://www.clarin.com/sociedad/falta-boletines-notas-tiritas-papel_0_1590441115.html'
p14
a.