(lp0
S'https://www.clarin.com/sociedad/dolar-abajo-viajar-exterior-cuesta_0_1600640117.html'
p1
aS'https://www.clarin.com/sociedad/dolar-abajo-viajar-exterior-cuesta_0_1600640117.html'
p2
aS'https://www.clarin.com/ieco/economia/asesor-Prat-Gay-subira-medida_0_1600640037.html'
p3
aS'https://www.clarin.com/ieco/economia/asesor-Prat-Gay-subira-medida_0_1600640037.html'
p4
aS'https://www.clarin.com/politica/Camioneros-cerro-aumento-levanta-huelga_0_1600640096.html'
p5
aS'https://www.clarin.com/ieco/Fin-pelea-Monsanto-controles-cargo_0_1600640017.html'
p6
aS'https://www.clarin.com/ieco/Fin-pelea-Monsanto-controles-cargo_0_1600640017.html'
p7
aS'https://www.clarin.com/opinion/jueces-primeros-arrepentidos_0_1601239878.html'
p8
aS'https://www.clarin.com/opinion/derrite-blindaje-kirchnerista_0_1601239877.html'
p9
a.