(lp0
Vhttps://www.clarin.com/sociedad/UBA-aprobo-presupuesto-medio-protestas_0_1566443463.html
p1
aVhttps://www.clarin.com/sociedad/UBA-aprobo-presupuesto-medio-protestas_0_1566443463.html
p2
aVhttps://www.clarin.com/politica/excavaron-estancias-Lazaro-Baez_0_1566443468.html
p3
aVhttps://www.clarin.com/politica/excavaron-estancias-Lazaro-Baez_0_1566443468.html
p4
aVhttps://www.clarin.com/ieco/economia/volumen-ventas-exportadores-dolar-centavos_0_1566443456.html
p5
aVhttps://www.clarin.com/ieco/Documento-empresario-frente-ley-despidos_0_1566443464.html
p6
aVhttps://www.clarin.com/ieco/Documento-empresario-frente-ley-despidos_0_1566443464.html
p7
aVhttps://www.clarin.com/politica/Martin-Luciana-Leandro-Melina-Justicia_0_1566443459.html
p8
aVhttps://www.clarin.com/politica/Martin-Luciana-Leandro-Melina-Justicia_0_1566443459.html
p9
aVhttps://www.clarin.com/sociedad/Femicidio-pareja-policias-intento-suicidarse_0_1566443461.html
p10
aVhttps://www.clarin.com/sociedad/Femicidio-pareja-policias-intento-suicidarse_0_1566443461.html
p11
a.