(lp0
Vhttps://www.clarin.com/sociedad/trenes-Chascomus-tiempo-indeterminado_0_1637836222.html
p1
aVhttps://www.clarin.com/sociedad/trenes-Chascomus-tiempo-indeterminado_0_1637836222.html
p2
aVhttps://www.clarin.com/sociedad/Cayo-Rimolo-Villa-Lynch-ejercia_0_1637836220.html
p3
aVhttps://www.clarin.com/sociedad/Cayo-Rimolo-Villa-Lynch-ejercia_0_1637836220.html
p4
aVhttps://www.clarin.com/politica/Debuta-tarde-triunvirato-CGT_0_1637836219.html
p5
aVhttps://www.clarin.com/politica/Debuta-tarde-triunvirato-CGT_0_1637836219.html
p6
aVhttps://www.clarin.com/politica/Martin-Lanatta-triple-voltear-Vidal_0_1637836216.html
p7
aVhttps://www.clarin.com/politica/Martin-Lanatta-triple-voltear-Vidal_0_1637836216.html
p8
a.