(lp0
Vhttps://www.clarin.com/politica/Triple_Fuga-video-Eugenio_Burzaco_0_1504049823.html
p1
aVhttps://www.clarin.com/politica/Triple_Fuga-video-Eugenio_Burzaco_0_1504049823.html
p2
aVhttps://www.clarin.com/politica/Faraon-Melnyk-volvio-pedir-excarcelacion_0_1504049819.html
p3
aVhttps://www.clarin.com/politica/Faraon-Melnyk-volvio-pedir-excarcelacion_0_1504049819.html
p4
aVhttps://www.clarin.com/sociedad/chancho-calles-Rosario-atrapado-taxistas_0_1504049802.html
p5
aVhttps://www.clarin.com/sociedad/chancho-calles-Rosario-atrapado-taxistas_0_1504049802.html
p6
aVhttps://www.clarin.com/sociedad/tiempo-Costa-segunda-quincena_0_1504049803.html
p7
aVhttps://www.clarin.com/sociedad/tiempo-Costa-segunda-quincena_0_1504049803.html
p8
aVhttps://www.clarin.com/politica/Carlos_Zannini-Santa_Cruz_0_1504049796.html
p9
aVhttps://www.clarin.com/politica/Carlos_Zannini-Santa_Cruz_0_1504049796.html
p10
aVhttps://www.clarin.com/politica/salpicado-llamo-petiso-Ottavis-apoyo_0_1504049781.html
p11
aVhttps://www.clarin.com/politica/salpicado-llamo-petiso-Ottavis-apoyo_0_1504049781.html
p12
aVhttps://www.clarin.com/sociedad/Australia-cazan-tiburones-metros-liberan_0_1504049784.html
p13
aVhttps://www.clarin.com/sociedad/Australia-cazan-tiburones-metros-liberan_0_1504049784.html
p14
a.