(lp0
Vhttps://www.clarin.com/sociedad/Indignacion-Francia-maltrato-animal-ecologica_0_1529847291.html
p1
aVhttps://www.clarin.com/sociedad/Indignacion-Francia-maltrato-animal-ecologica_0_1529847291.html
p2
aVhttps://www.clarin.com/politica/Macri-desembarca-Tecnopolis-Gabinete-XL_0_1529847292.html
p3
aVhttps://www.clarin.com/politica/Macri-desembarca-Tecnopolis-Gabinete-XL_0_1529847292.html
p4
aVhttps://www.clarin.com/sociedad/escarabajos-invadieron-playas-Mar-Ajo_0_1529847275.html
p5
aVhttps://www.clarin.com/sociedad/escarabajos-invadieron-playas-Mar-Ajo_0_1529847275.html
p6
a.