(lp0
S'https://www.clarin.com/ieco/economia/Beldent-invertira-millones-ampliar-produccion_0_1596440425.html'
p1
aS'https://www.clarin.com/sociedad/Misiones-matrimonio-murio-gripe_0_1596440427.html'
p2
aS'https://www.clarin.com/sociedad/Arqueologos-amateur-encontraron-tesoro-vikingos_0_1596440418.html'
p3
aS'https://www.clarin.com/politica/Piden-Rafecas-enriquecimiento-Jose-Lopez_0_1596440426.html'
p4
aS'https://www.clarin.com/politica/Ricardo-Forster-Creo-Cristina-honorable_0_1596440422.html'
p5
a.