(lp0
S'https://www.clarin.com/politica/dolares-Vidal-sale-seducir-intendentes_0_1542445956.html'
p1
aS'https://www.clarin.com/politica/buitres-Cristina-hermano-Pinedo-reorganizar_0_1542445963.html'
p2
aS'https://www.clarin.com/sociedad/Aseguran-cambiara-forma-consumimos-TV_0_1542445968.html'
p3
aS'https://www.clarin.com/sociedad/Zuckerberg-correr-Tiananmen-llovieron-criticas_0_1542445964.html'
p4
aS'https://www.clarin.com/ieco/bonistas-acordo-Gobierno-US-millones_0_1542445976.html'
p5
aS'https://www.clarin.com/sociedad/ministro-Justicia-despenalizacion-absoluta-drogas_0_1542445951.html'
p6
a.