(lp0
Vhttps://www.clarin.com/politica/nuevo-menu-Casa-Rosada_0_1525647726.html
p1
aVhttps://www.clarin.com/politica/nuevo-menu-Casa-Rosada_0_1525647726.html
p2
aVhttps://www.clarin.com/sociedad/empresario-investigado-presunto-manteros-Once_0_1525647704.html
p3
aVhttps://www.clarin.com/sociedad/empresario-investigado-presunto-manteros-Once_0_1525647704.html
p4
a.