(lp0
Vhttps://www.clarin.com/politica/gesto-Obama-esposa-impulsar-acuerdos_0_1600640132.html
p1
aVhttps://www.clarin.com/politica/gesto-Obama-esposa-impulsar-acuerdos_0_1600640132.html
p2
aVhttps://www.clarin.com/politica/Aranguren-division-bloque-PJ-SIDE_0_1600640128.html
p3
aVhttps://www.clarin.com/sociedad/parteras-podran-atender-pacientes-recetar_0_1600640127.html
p4
a.