(lp0
S'https://www.clarin.com/sociedad/dia-mujeres-brutalmente-atacadas-parejas_0_1536446808.html'
p1
aS'https://www.clarin.com/sociedad/dia-mujeres-brutalmente-atacadas-parejas_0_1536446808.html'
p2
aS'https://www.clarin.com/sociedad/Enigma-cientifico-final-decepcionante_0_1536446771.html'
p3
aS'https://www.clarin.com/sociedad/Enigma-cientifico-final-decepcionante_0_1536446771.html'
p4
aS'https://www.clarin.com/ieco/Expoagro-renuevan-expectativas-ruralismo_0_1536446818.html'
p5
aS'https://www.clarin.com/ieco/Expoagro-renuevan-expectativas-ruralismo_0_1536446818.html'
p6
aS'https://www.clarin.com/politica/comenzara-comprar-quiere-exportarla-Venezuela_0_1536446810.html'
p7
aS'https://www.clarin.com/politica/comenzara-comprar-quiere-exportarla-Venezuela_0_1536446810.html'
p8
aS'https://www.clarin.com/politica/importante-perdimos-miedo_0_1536446773.html'
p9
aS'https://www.clarin.com/politica/importante-perdimos-miedo_0_1536446773.html'
p10
aS'https://www.clarin.com/sociedad/Solo-argentinos-brillaron-campamento-intelectual_0_1536446768.html'
p11
aS'https://www.clarin.com/sociedad/Solo-argentinos-brillaron-campamento-intelectual_0_1536446768.html'
p12
aS'https://www.clarin.com/politica/Toma-daca-karma-PRO_0_1536446858.html'
p13
aS'https://www.clarin.com/politica/Toma-daca-karma-PRO_0_1536446858.html'
p14
aS'https://www.clarin.com/politica/Acuerdo-Diputados-ley-salir-default_0_1536446856.html'
p15
aS'https://www.clarin.com/politica/Acuerdo-Diputados-ley-salir-default_0_1536446856.html'
p16
aS'https://www.clarin.com/opinion/Axel-ventaja-macrismo_0_1537046292.html'
p17
aS'https://www.clarin.com/opinion/Negociacion-consecuencias_0_1537046290.html'
p18
aS'https://www.clarin.com/politica/Gobierno-apuesta-acuerdo-buitres-plan_0_1536446748.html'
p19
aS'https://www.clarin.com/politica/Gobierno-renuncia-Galuccio-frente-YPF_0_1537046282.html'
p20
aS'https://www.clarin.com/politica/Gobierno-renuncia-Galuccio-frente-YPF_0_1537046282.html'
p21
a.