(lp0
Vhttps://www.clarin.com/sociedad/Adonde-gato-nuevo-agudeza-visual_0_1534046828.html
p1
aVhttps://www.clarin.com/sociedad/Adonde-gato-nuevo-agudeza-visual_0_1534046828.html
p2
aVhttps://www.clarin.com/ieco/Samsung-LG-Motorola-smartphones-Argentina_0_1534046825.html
p3
aVhttps://www.clarin.com/ieco/Samsung-LG-Motorola-smartphones-Argentina_0_1534046825.html
p4
aVhttps://www.clarin.com/ieco/economia/Moodys-acuerdo-buitres-insuficiente_0_1534046819.html
p5
aVhttps://www.clarin.com/ieco/economia/Moodys-acuerdo-buitres-insuficiente_0_1534046819.html
p6
aVhttps://www.clarin.com/sociedad/Hubble-descubrio-galaxia-lejana-conocida_0_1534046817.html
p7
aVhttps://www.clarin.com/sociedad/Hubble-descubrio-galaxia-lejana-conocida_0_1534046817.html
p8
aVhttps://www.clarin.com/sociedad/escandalo-formula-fama-show-politica_0_1534046816.html
p9
aVhttps://www.clarin.com/sociedad/escandalo-formula-fama-show-politica_0_1534046816.html
p10
aVhttps://www.clarin.com/politica/Intendente-invita-Vidal-gobernadora-Gabinete_0_1534046808.html
p11
aVhttps://www.clarin.com/politica/Intendente-invita-Vidal-gobernadora-Gabinete_0_1534046808.html
p12
a.