(lp0
S'https://www.clarin.com/politica/gremios-extienden-tregua-paro-nacional_0_1659434248.html'
p1
aS'https://www.clarin.com/politica/gremios-extienden-tregua-paro-nacional_0_1659434248.html'
p2
aS'https://www.clarin.com/politica/Milani-Verbitsky-debe-explicar-dictadura_0_1659434212.html'
p3
aS'https://www.clarin.com/sociedad/comprar-vivienda-invertir-sueldos-trabajo_0_1659434246.html'
p4
aS'https://www.clarin.com/sociedad/comprar-vivienda-invertir-sueldos-trabajo_0_1659434246.html'
p5
aS'https://www.clarin.com/sociedad/familias-propietarias-minimo-historico_0_1659434245.html'
p6
aS'https://www.clarin.com/politica/Presidente-Sanz-Carrio-nacional-Cambiemos_0_1659434237.html'
p7
aS'https://www.clarin.com/politica/Presidente-Sanz-Carrio-nacional-Cambiemos_0_1659434237.html'
p8
aS'https://www.clarin.com/sociedad/sueno-casa-propia-resignacion-imposible_0_1659434243.html'
p9
aS'https://www.clarin.com/sociedad/sueno-casa-propia-resignacion-imposible_0_1659434243.html'
p10
aS'https://www.clarin.com/politica/Cancilleria-Luis-Juez-Cristina-Kirchner_0_1659434213.html'
p11
aS'https://www.clarin.com/politica/Cancilleria-Luis-Juez-Cristina-Kirchner_0_1659434213.html'
p12
a.