(lp0
S'https://www.clarin.com/politica/Argentina-rendira-ONU-situacion-mujeres_0_1676232425.html'
p1
aS'https://www.clarin.com/politica/Argentina-rendira-ONU-situacion-mujeres_0_1676232425.html'
p2
aS'https://www.clarin.com/politica/Massa-defendio-Congreso-mayorias-automaticas_0_1676232428.html'
p3
aS'https://www.clarin.com/politica/Massa-defendio-Congreso-mayorias-automaticas_0_1676232428.html'
p4
aS'https://www.clarin.com/politica/Vidal-insiste-cuero-pagar-bono_0_1676232427.html'
p5
aS'https://www.clarin.com/politica/Vidal-insiste-cuero-pagar-bono_0_1676232427.html'
p6
aS'https://www.clarin.com/sociedad/hermanos-atacados-triple-femicidio-pasaron_0_1676232426.html'
p7
aS'https://www.clarin.com/sociedad/hermanos-atacados-triple-femicidio-pasaron_0_1676232426.html'
p8
a.