(lp0
Vhttps://www.clarin.com/opinion/Nisman-thriller-psicologico_0_1644435651.html
p1
aVhttps://www.clarin.com/opinion/Nisman-thriller-psicologico_0_1644435651.html
p2
aVhttps://www.clarin.com/politica/Senador-Carlos-Caserio-Michetti-FpV_0_1644435649.html
p3
aVhttps://www.clarin.com/politica/Senador-Carlos-Caserio-Michetti-FpV_0_1644435649.html
p4
aVhttps://www.clarin.com/sociedad/Advierten-gorilas-borde-extincion_0_1644435647.html
p5
aVhttps://www.clarin.com/sociedad/Advierten-gorilas-borde-extincion_0_1644435647.html
p6
aVhttps://www.clarin.com/politica/Lazaro-Baez-incursiono-carreras-ultimos_0_1644435639.html
p7
aVhttps://www.clarin.com/politica/Lazaro-Baez-incursiono-carreras-ultimos_0_1644435639.html
p8
a.