(lp0
Vhttps://www.clarin.com/politica/Malcorra-repaso-Obama-acuerdo-comercio_0_1544245877.html
p1
aVhttps://www.clarin.com/politica/Larcher-nego-orden-pista-irani_0_1544245956.html
p2
aVhttps://www.clarin.com/sociedad/Filosofia-Twitter_0_1544245952.html
p3
aVhttps://www.clarin.com/sociedad/Filosofia-Twitter_0_1544245952.html
p4
a.