(lp0
S'https://www.clarin.com/sociedad/Detienen-acusado-abusar-nenes-anos_0_1609039159.html'
p1
aS'https://www.clarin.com/politica/Dolar-Bonadio-congelo-cuentas-Cristina_0_1609039170.html'
p2
aS'https://www.clarin.com/politica/Alarma-Ministerio-Interior-oficinas-incendio_0_1609039169.html'
p3
aS'https://www.clarin.com/politica/Servini-denuncia-Cristina-Bonadio-Stolbizer_0_1609039165.html'
p4
aS'https://www.clarin.com/politica/Pidieron-indagatoria-Vido-Lopez-Skanska_0_1609039162.html'
p5
aS'https://www.clarin.com/politica/panelista-volvio-Olivan-trato-cobarde_0_1609039167.html'
p6
aS'https://www.clarin.com/sociedad/pidio-matrimonio-estudio-cientifico-mejillones_0_1609039163.html'
p7
a.