(lp0
S'https://www.clarin.com/sociedad/mismos-reclamos-escuela-abre_0_1684631694.html'
p1
aS'https://www.clarin.com/politica/Piden-EEUU-secretario-Nestor-Kirchner_0_1684631650.html'
p2
aS'https://www.clarin.com/politica/Estalla-Luis-DElia-durisimo-Kicillof_0_1684631696.html'
p3
aS'https://www.clarin.com/sociedad/familia-gastara-mil-quincena-playa_0_1684631687.html'
p4
aS'https://www.clarin.com/sociedad/Afirman-lentas-reservas-verano-Costa_0_1684631684.html'
p5
aS'https://www.clarin.com/sociedad/paros-cupo-colegios-privados_0_1684631692.html'
p6
a.