(lp0
S'https://www.clarin.com/sociedad/General-Madrid-cultivar-marihuana-medicinal_0_1550245123.html'
p1
aS'https://www.clarin.com/politica/Ahora-Scioli-elogia-Elisa-Carrio_0_1550245120.html'
p2
aS'https://www.clarin.com/politica/Pichetto-votacion-Recupere-capacidad-pienso_0_1550245102.html'
p3
aS'https://www.clarin.com/ieco/economia/Extienden-meses-programa-Ahora_0_1550245135.html'
p4
aS'https://www.clarin.com/politica/protesta-estatales-suspendio-anuncio-colectivos_0_1550245116.html'
p5
aS'https://www.clarin.com/sociedad/jubilada-nado-horas-alcanzar-crucero_0_1550245100.html'
p6
a.