(lp0
S'https://www.clarin.com/sociedad/peruano-restaurante-porteno-Panama-Papers_0_1553244869.html'
p1
aS'https://www.clarin.com/ieco/economia/Represas-Energia-renegociar-reactivarlas-brevedad_0_1553244887.html'
p2
aS'https://www.clarin.com/ieco/economia/UIA-habla-despidos-regimen-especial_0_1553244883.html'
p3
aS'https://www.clarin.com/politica/Sigue-desfile-Jaime-Tribunales_0_1553244874.html'
p4
a.