(lp0
S'https://www.clarin.com/ieco/economia/mercados-globales-desincronizando-bueno_0_1526847505.html'
p1
aS'https://www.clarin.com/ieco/economia/Polemica-manera-medir-suba-precios_0_1526847504.html'
p2
aS'https://www.clarin.com/ieco/economia/Polemica-manera-medir-suba-precios_0_1526847504.html'
p3
aS'https://www.clarin.com/ieco/economia/inflacion-ceja_0_1526847503.html'
p4
aS'https://www.clarin.com/ieco/economia/inflacion-ceja_0_1526847503.html'
p5
a.