(lp0
S'https://www.clarin.com/politica/Conurbano-Vidal-fondos-Macri-obras_0_1610839033.html'
p1
aS'https://www.clarin.com/sociedad/Vacaciones-reservas-apuntan-viajero-espontaneo_0_1610839036.html'
p2
aS'https://www.clarin.com/politica/Detectan-fraude-millonario-Alicia-ministra_0_1610839024.html'
p3
aS'https://www.clarin.com/sociedad/epoca-gente-alquilaba-balcones_0_1610839040.html'
p4
aS'https://www.clarin.com/politica/Cogobierno-legislativo_0_1610839015.html'
p5
aS'https://www.clarin.com/sociedad/Ides-Kihlen-pintando-energia-adolescente_0_1610839045.html'
p6
aS'https://www.clarin.com/sociedad/Historica-ovacion-Malvinas-desfile-Bicentenario_0_1610839038.html'
p7
aS'https://www.clarin.com/sociedad/orgullo-desfilar-multitudes-vivaron-Videla_0_1610839039.html'
p8
aS'https://www.clarin.com/ieco/economia/venta-usados-sigue-frenada-junio_0_1610839003.html'
p9
aS'https://www.clarin.com/politica/Santa-Cruz-podra-tomar-deuda_0_1610838991.html'
p10
aS'https://www.clarin.com/politica/Moratoria-podrian-ahorrar-intereses-multas_0_1610839032.html'
p11
aS'https://www.clarin.com/politica/Dejaron-pais-bancarrota-macrismo-agrava_0_1610839013.html'
p12
aS'https://www.clarin.com/politica/peor-factura-segundo-semestre_0_1611438843.html'
p13
aS'https://www.clarin.com/politica/Gobierno-logro-voten-leyes-espera_0_1610839011.html'
p14
a.