(lp0
Vhttps://www.clarin.com/sociedad/marcha-Congreso-vista-drone_0_1689431230.html
p1
aVhttps://www.clarin.com/sociedad/marcha-Congreso-vista-drone_0_1689431230.html
p2
aVhttps://www.clarin.com/politica/quiebra-colofon-sueno-financiero-Elaskar_0_1689431220.html
p3
aVhttps://www.clarin.com/politica/quiebra-colofon-sueno-financiero-Elaskar_0_1689431220.html
p4
aVhttps://www.clarin.com/ieco/economia/Limpieza-alimentos-congelados-sufrieron-octubre_0_1689431216.html
p5
aVhttps://www.clarin.com/ieco/economia/Limpieza-alimentos-congelados-sufrieron-octubre_0_1689431216.html
p6
a.