(lp0
S'https://www.clarin.com/opinion/otono-traiga-batalla-ganada-discriminacion_0_1542446134.html'
p1
aS'https://www.clarin.com/sociedad/personas-cambiaron-sexo-pais_0_1542446182.html'
p2
aS'https://www.clarin.com/sociedad/personas-cambiaron-sexo-pais_0_1542446182.html'
p3
aS'https://www.clarin.com/politica/Rosadita-Martin-Baez-Santa-Cruz_0_1542446170.html'
p4
aS'https://www.clarin.com/politica/Rosadita-Martin-Baez-Santa-Cruz_0_1542446170.html'
p5
aS'https://www.clarin.com/politica/Gobierno-empleo-caida-hablan-medidas_0_1542446200.html'
p6
aS'https://www.clarin.com/opinion/Mirar-futbol-twittear-vez_0_1542446095.html'
p7
aS'https://www.clarin.com/politica/Macri-principal-problema-inflacion-buitres_0_1542446238.html'
p8
aS'https://www.clarin.com/politica/Macri-anuncio-prestamos-infraestructura-AUH_0_1542446229.html'
p9
a.