(lp0
Vhttps://www.clarin.com/sociedad/viven-voluntarios-encerraron-simular-Marte_0_1555044772.html
p1
aVhttps://www.clarin.com/sociedad/viven-voluntarios-encerraron-simular-Marte_0_1555044772.html
p2
aVhttps://www.clarin.com/ieco/economia/fideicomiso-ciego-Macri-pondra-fortuna_0_1555044771.html
p3
aVhttps://www.clarin.com/ieco/economia/fideicomiso-ciego-Macri-pondra-fortuna_0_1555044771.html
p4
aVhttps://www.clarin.com/politica/Sel-silencio-contesto-Dady-Brieva_0_1555044715.html
p5
aVhttps://www.clarin.com/politica/Sel-silencio-contesto-Dady-Brieva_0_1555044715.html
p6
aVhttps://www.clarin.com/sociedad/Logran-secuenciar-cromosoma-hombre-Neandertal_0_1555044767.html
p7
aVhttps://www.clarin.com/sociedad/Logran-secuenciar-cromosoma-hombre-Neandertal_0_1555044767.html
p8
aVhttps://www.clarin.com/sociedad/Degustaciones-shows-descuentos-Semana-Malbec_0_1555044768.html
p9
aVhttps://www.clarin.com/sociedad/Degustaciones-shows-descuentos-Semana-Malbec_0_1555044768.html
p10
aVhttps://www.clarin.com/sociedad/Video-impactantes-imagenes-lanzallamas-camara_0_1555044763.html
p11
aVhttps://www.clarin.com/sociedad/Video-impactantes-imagenes-lanzallamas-camara_0_1555044763.html
p12
a.