(lp0
S'https://www.clarin.com/sociedad/trabajo-felicidad_0_1547245646.html'
p1
aS'https://www.clarin.com/ieco/economia/Canasta-electronica-precios-bajan-demanda_0_1547845333.html'
p2
aS'https://www.clarin.com/ieco/economia/Iniciamos-conversaciones-renegociar-financiacion-China_0_1547245623.html'
p3
aS'https://www.clarin.com/ieco/economia/restoran-nube_0_1547845344.html'
p4
aS'https://www.clarin.com/ieco/economia/China-bolsas-estilo-casino_0_1547845329.html'
p5
aS'https://www.clarin.com/ieco/economia/ejes-definiran-educacion-ejecutiva-futuro_0_1547845330.html'
p6
aS'https://www.clarin.com/opinion/encanto-orilla_0_1547245556.html'
p7
aS'https://www.clarin.com/ieco/economia/universidad-mercado-laboral-autonomia_0_1547845332.html'
p8
aS'https://www.clarin.com/sociedad/Hace-discutia-pais-correr-bien_0_1547245641.html'
p9
aS'https://www.clarin.com/ieco/economia/tasa-resto_0_1547845356.html'
p10
aS'https://www.clarin.com/ieco/economia/Diversificar-carteras-aumentar-ganancia_0_1547845357.html'
p11
aS'https://www.clarin.com/ieco/economia/juegos-llegaron-RRHH-seleccion-capacitacion_0_1547845339.html'
p12
aS'https://www.clarin.com/ieco/economia/Washington-poner-megabonificaciones-Wall-Street_0_1547845326.html'
p13
aS'https://www.clarin.com/sociedad/Locura-Espacio-Clarin-Semana-Santa_0_1547245658.html'
p14
aS'https://www.clarin.com/ieco/economia/Pelea-Eurnekian-sobrino-gestion-empresa_0_1547245663.html'
p15
a.