(lp0
S'https://www.clarin.com/ieco/Gobierno-empresarios-pensando-adelantar-despidos_0_1567643286.html'
p1
aS'https://www.clarin.com/ieco/Gobierno-empresarios-pensando-adelantar-despidos_0_1567643286.html'
p2
aS'https://www.clarin.com/sociedad/emocionante-reaccion-glaucoma-madre-primera_0_1567643275.html'
p3
aS'https://www.clarin.com/sociedad/emocionante-reaccion-glaucoma-madre-primera_0_1567643275.html'
p4
aS'https://www.clarin.com/sociedad/detras-fiestas-electronicas-contado-conoce_0_1562843870.html'
p5
aS'https://www.clarin.com/sociedad/detras-fiestas-electronicas-contado-conoce_0_1562843870.html'
p6
aS'https://www.clarin.com/politica/Allanaron-Austral-Construcciones-Lazaro-Baez_0_1567643285.html'
p7
aS'https://www.clarin.com/politica/Allanaron-Austral-Construcciones-Lazaro-Baez_0_1567643285.html'
p8
aS'https://www.clarin.com/politica/Macri-Bajar-inflacion-generar-inversiones_0_1567643284.html'
p9
aS'https://www.clarin.com/politica/Macri-Bajar-inflacion-generar-inversiones_0_1567643284.html'
p10
aS'https://www.clarin.com/ieco/Ley-antidespidos-dicen-proyectos_0_1567643282.html'
p11
aS'https://www.clarin.com/sociedad/Bahia-Blanca-marcha-aparicion-falta_0_1567643273.html'
p12
aS'https://www.clarin.com/sociedad/Bahia-Blanca-marcha-aparicion-falta_0_1567643273.html'
p13
aS'https://www.clarin.com/sociedad/Prohiben-fiestas-Ciudad-Buenos-Aires_0_1567643271.html'
p14
aS'https://www.clarin.com/sociedad/Prohiben-fiestas-Ciudad-Buenos-Aires_0_1567643271.html'
p15
a.