(lp0
S'https://www.clarin.com/politica/intendente-Massa-distancia-Frente-Renovador_0_1549045233.html'
p1
aS'https://www.clarin.com/politica/Maduro-criticar-Macri-desvincularse-Telesur_0_1549045219.html'
p2
aS'https://www.clarin.com/politica/Maduro-criticar-Macri-desvincularse-Telesur_0_1549045219.html'
p3
aS'https://www.clarin.com/ieco/Suben-aportes-personal-domestico_0_1549045215.html'
p4
aS'https://www.clarin.com/ieco/Suben-aportes-personal-domestico_0_1549045215.html'
p5
aS'https://www.clarin.com/ieco/partir-junio-aumenta-cuota-monotributo_0_1549045212.html'
p6
aS'https://www.clarin.com/politica/fiscal-indagar-Moreno-manejo-INDEC_0_1549045210.html'
p7
aS'https://www.clarin.com/politica/fiscal-indagar-Moreno-manejo-INDEC_0_1549045210.html'
p8
aS'https://www.clarin.com/ieco/Monotributo-siguen-actualizar-ingresos-maximos_0_1549045209.html'
p9
a.