(lp0
S'https://www.clarin.com/politica/Kicillof-despegarse-manejos-sospechosos-Baez_0_1606639458.html'
p1
aS'https://www.clarin.com/politica/primera-vez-declaran-hijos-Baez_0_1606639466.html'
p2
aS'https://www.clarin.com/sociedad/Genes-zombies-intentan-revivir-despues_0_1606639455.html'
p3
a.