(lp0
Vhttps://www.clarin.com/politica/ministros-dejaron-Kirchner-corrupcion-publica_0_1595840457.html
p1
aVhttps://www.clarin.com/politica/ministros-dejaron-Kirchner-corrupcion-publica_0_1595840457.html
p2
aVhttps://www.clarin.com/politica/Rafecas-decreto-secreto-sumario-allanamientos_0_1595840456.html
p3
aVhttps://www.clarin.com/politica/Rafecas-decreto-secreto-sumario-allanamientos_0_1595840456.html
p4
aVhttps://www.clarin.com/sociedad/cortaron-encontro-creativa-solucion-banarse_0_1595840454.html
p5
aVhttps://www.clarin.com/sociedad/cortaron-encontro-creativa-solucion-banarse_0_1595840454.html
p6
aVhttps://www.clarin.com/ieco/economia/empleados-jubilados-Ganancias-Bienes-Personales_0_1595840455.html
p7
aVhttps://www.clarin.com/ieco/economia/empleados-jubilados-Ganancias-Bienes-Personales_0_1595840455.html
p8
aVhttps://www.clarin.com/politica/PIden-determinar-Lopez-Vido-Once_0_1595840452.html
p9
aVhttps://www.clarin.com/politica/PIden-determinar-Lopez-Vido-Once_0_1595840452.html
p10
aVhttps://www.clarin.com/ieco/economia/mayo-inflacion-portena-llego_0_1595840449.html
p11
aVhttps://www.clarin.com/politica/peronista-termino-destrabar-discusion-Gobierno_0_1595840445.html
p12
aVhttps://www.clarin.com/politica/peronista-termino-destrabar-discusion-Gobierno_0_1595840445.html
p13
aVhttps://www.clarin.com/sociedad/Pistorius-camino-munones-mostrarse-debil_0_1595840444.html
p14
aVhttps://www.clarin.com/sociedad/Pistorius-camino-munones-mostrarse-debil_0_1595840444.html
p15
aVhttps://www.clarin.com/politica/Allanan-casa-Jose-Lopez-Tigre_0_1595840443.html
p16
aVhttps://www.clarin.com/politica/Allanan-casa-Jose-Lopez-Tigre_0_1595840443.html
p17
a.