(lp0
S'https://www.clarin.com/sociedad/miss-Argentina-atropello-inspector-transito_0_1515448755.html'
p1
aS'https://www.clarin.com/politica/lujosa-vida-Milagro-Sala_0_1515448737.html'
p2
aS'https://www.clarin.com/sociedad/impresionante-caida-surfer-ola-gigante_0_1515448746.html'
p3
aS'https://www.clarin.com/sociedad/Primer-caso-sospechoso-zika-Corrientes_0_1515448761.html'
p4
a.