(lp0
S'https://www.clarin.com/politica/Baez-Casanello-amenazas-buscar-silenciarlo_0_1628837224.html'
p1
aS'https://www.clarin.com/politica/Baez-Casanello-amenazas-buscar-silenciarlo_0_1628837224.html'
p2
aS'https://www.clarin.com/opinion/Andar-siempre-veredas-opuestas_0_1628837274.html'
p3
aS'https://www.clarin.com/politica/Malvinas-Buenos-Aires-Londres-petroleo_0_1628837239.html'
p4
aS'https://www.clarin.com/politica/Malvinas-Buenos-Aires-Londres-petroleo_0_1628837239.html'
p5
aS'https://www.clarin.com/sociedad/reserva-natural-fin-mundo_0_1628837316.html'
p6
aS'https://www.clarin.com/sociedad/reserva-natural-fin-mundo_0_1628837316.html'
p7
aS'https://www.clarin.com/politica/Michetti-respondio-kirchnerismo-Gobierno-violencia_0_1628837332.html'
p8
aS'https://www.clarin.com/politica/Michetti-respondio-kirchnerismo-Gobierno-violencia_0_1628837332.html'
p9
aS'https://www.clarin.com/politica/Lanata-Leuco-Longobardi-respondieron-Moreno_0_1628837330.html'
p10
aS'https://www.clarin.com/politica/Lanata-Leuco-Longobardi-respondieron-Moreno_0_1628837330.html'
p11
aS'https://www.clarin.com/politica/Ex-SIDE-oposicion-daria-condiciones_0_1628837329.html'
p12
aS'https://www.clarin.com/politica/Ex-SIDE-oposicion-daria-condiciones_0_1628837329.html'
p13
a.