(lp0
Vhttps://www.clarin.com/politica/Ritondo-importante-gente-presencia-efectivos_0_1662433925.html
p1
aVhttps://www.clarin.com/politica/Ritondo-importante-gente-presencia-efectivos_0_1662433925.html
p2
aVhttps://www.clarin.com/politica/Oyarbide-citado-declarar-investiga-Angelici_0_1662433923.html
p3
aVhttps://www.clarin.com/politica/Oyarbide-citado-declarar-investiga-Angelici_0_1662433923.html
p4
aVhttps://www.clarin.com/sociedad/dolar-esperan-verano-argentino-Punta_0_1662433920.html
p5
aVhttps://www.clarin.com/sociedad/dolar-esperan-verano-argentino-Punta_0_1662433920.html
p6
aVhttps://www.clarin.com/politica/fallo-Lijo-beneficia-Gomez-Centurion_0_1662433911.html
p7
aVhttps://www.clarin.com/politica/fallo-Lijo-beneficia-Gomez-Centurion_0_1662433911.html
p8
aVhttps://www.clarin.com/sociedad/Nobel-trabajo-ayudaria-computadoras-veloces_0_1662433917.html
p9
aVhttps://www.clarin.com/sociedad/Nobel-trabajo-ayudaria-computadoras-veloces_0_1662433917.html
p10
aVhttps://www.clarin.com/ieco/economia/Inversion-millonaria-Petronas-lubricantes_0_1662433916.html
p11
aVhttps://www.clarin.com/ieco/economia/Inversion-millonaria-Petronas-lubricantes_0_1662433916.html
p12
aVhttps://www.clarin.com/sociedad/record-viajes-exterior-reservas-adelantaron_0_1662433882.html
p13
aVhttps://www.clarin.com/sociedad/record-viajes-exterior-reservas-adelantaron_0_1662433882.html
p14
aVhttps://www.clarin.com/sociedad/Demoraron-choferes-drogas-casos-semana_0_1662433914.html
p15
aVhttps://www.clarin.com/sociedad/celular-saber-quiere-hacer-usuario_0_1662433913.html
p16
aVhttps://www.clarin.com/sociedad/celular-saber-quiere-hacer-usuario_0_1662433913.html
p17
a.