(lp0
Vhttps://www.clarin.com/sociedad/ofrecieron-trabajo-empleada-domestica-robaron_0_1643235830.html
p1
aVhttps://www.clarin.com/sociedad/ofrecieron-trabajo-empleada-domestica-robaron_0_1643235830.html
p2
aVhttps://www.clarin.com/sociedad/docentes-alumnos-impacta-fuerte-aprendizaje_0_1643235824.html
p3
aVhttps://www.clarin.com/sociedad/docentes-alumnos-impacta-fuerte-aprendizaje_0_1643235824.html
p4
aVhttps://www.clarin.com/sociedad/ausencia-profesores-refuerza-inequidad_0_1643235823.html
p5
aVhttps://www.clarin.com/sociedad/Mejoramos-presentismo-gente_0_1643235822.html
p6
aVhttps://www.clarin.com/sociedad/Debate-nacional-garantizar-derecho-conocimiento_0_1643235819.html
p7
aVhttps://www.clarin.com/sociedad/Debate-nacional-garantizar-derecho-conocimiento_0_1643235819.html
p8
aVhttps://www.clarin.com/sociedad/escaso-reclamo-calidad-educativa_0_1643235817.html
p9
aVhttps://www.clarin.com/sociedad/Trabajamos-junto-ministros-solucionar-problemas_0_1643235814.html
p10
aVhttps://www.clarin.com/sociedad/entrega-masiva-computadoras-mejoro-aprendizaje_0_1643235811.html
p11
aVhttps://www.clarin.com/sociedad/entrega-masiva-computadoras-mejoro-aprendizaje_0_1643235811.html
p12
a.