(lp0
S'https://www.clarin.com/sociedad/Luchaban-hijita-trasplantada-aparecieron-muertos_0_1628837138.html'
p1
aS'https://www.clarin.com/sociedad/Luchaban-hijita-trasplantada-aparecieron-muertos_0_1628837138.html'
p2
aS'https://www.clarin.com/politica/numeros-encuesta-pueden-preocupar-Macri_0_1628837137.html'
p3
aS'https://www.clarin.com/politica/numeros-encuesta-pueden-preocupar-Macri_0_1628837137.html'
p4
aS'https://www.clarin.com/ieco/huelga-petrolera-yacimientos-parados-Chubut_0_1628837132.html'
p5
aS'https://www.clarin.com/ieco/huelga-petrolera-yacimientos-parados-Chubut_0_1628837132.html'
p6
aS'https://www.clarin.com/sociedad/pareja-abuelos-conmueve-toda-Italia_0_1628837131.html'
p7
aS'https://www.clarin.com/sociedad/pareja-abuelos-conmueve-toda-Italia_0_1628837131.html'
p8
a.