(lp0
S'https://www.clarin.com/politica/Iglesia-insiste-llamado-concertacion-nacional_0_1635436605.html'
p1
aS'https://www.clarin.com/sociedad/mujeres-dia-congelan-ovulos-pais_0_1635436591.html'
p2
aS'https://www.clarin.com/politica/Cavallo-tarifazo-propone-utilizar-bisturi_0_1635436609.html'
p3
aS'https://www.clarin.com/sociedad/Inspiradas-Warhol-Gogh-selfies-pueden_0_1635436598.html'
p4
aS'https://www.clarin.com/sociedad/mundo-chicos-ojos-grandes_0_1635436599.html'
p5
aS'https://www.clarin.com/politica/Macri-volvio-timbreo-blindaje-protestas_0_1635436565.html'
p6
a.