(lp0
S'https://www.clarin.com/sociedad/Mision-ExoMars-juego-apenas-minutos_0_1671432895.html'
p1
aS'https://www.clarin.com/sociedad/asesinada-Mar-Plata-marcha-Lucias_0_1671432894.html'
p2
aS'https://www.clarin.com/politica/Arrepentidos-corrupcion-claves-aprobara-hoy_0_1671432902.html'
p3
aS'https://www.clarin.com/sociedad/Espero-ex-saliera-trabajo-mato_0_1671432900.html'
p4
aS'https://www.clarin.com/sociedad/argentino-pieza-clave-mision-ExoMars_0_1671432904.html'
p5
aS'https://www.clarin.com/politica/negociacion-CGT-Gobierno-incorporara-empleados_0_1671432896.html'
p6
a.