(lp0
S'https://www.clarin.com/politica/Gobierno-quiere-ponerle-limites-superpoderes_0_1672632917.html'
p1
aS'https://www.clarin.com/politica/Gobierno-quiere-ponerle-limites-superpoderes_0_1672632917.html'
p2
aS'https://www.clarin.com/politica/Macri-Gabinete-festejo-Colegio-Newman_0_1672632921.html'
p3
aS'https://www.clarin.com/politica/Investigan-firma-primo-Macri-evasion_0_1672632887.html'
p4
aS'https://www.clarin.com/politica/Investigan-firma-primo-Macri-evasion_0_1672632887.html'
p5
aS'https://www.clarin.com/sociedad/domingos-nueva-historieta-Clarin_0_1672632918.html'
p6
aS'https://www.clarin.com/sociedad/domingos-nueva-historieta-Clarin_0_1672632918.html'
p7
aS'https://www.clarin.com/politica/Impulsa-Gobierno-cambios-riesgos-trabajo_0_1672632910.html'
p8
a.