(lp0
Vhttps://www.clarin.com/sociedad/gendarme-formosena-convertirse-Miss-Mundo_0_1627637244.html
p1
aVhttps://www.clarin.com/sociedad/gendarme-formosena-convertirse-Miss-Mundo_0_1627637244.html
p2
aVhttps://www.clarin.com/politica/Bonafini-ratifico-declarar-Martinez-Giorgi_0_1627637282.html
p3
aVhttps://www.clarin.com/politica/Bonafini-ratifico-declarar-Martinez-Giorgi_0_1627637282.html
p4
aVhttps://www.clarin.com/sociedad/Dias-antorcha-olimipica-Ivo-Pitanguy_0_1627637241.html
p5
aVhttps://www.clarin.com/sociedad/Dias-antorcha-olimipica-Ivo-Pitanguy_0_1627637241.html
p6
aVhttps://www.clarin.com/politica/Macri-convoco-construir-juntos-sistema_0_1627637239.html
p7
aVhttps://www.clarin.com/politica/Macri-convoco-construir-juntos-sistema_0_1627637239.html
p8
aVhttps://www.clarin.com/politica/Arranco-recorrera-kilometros-Plaza-Mayo_0_1627637238.html
p9
aVhttps://www.clarin.com/politica/Arranco-recorrera-kilometros-Plaza-Mayo_0_1627637238.html
p10
a.