(lp0
Vhttps://www.clarin.com/opinion/Plan_Belgrano_atraso_economico_deuda_social_Norte_argentino_economias_regionales_inversiones_Frigerio_Cano_belgrano_cargas_0_1496850673.html
p1
aVhttps://www.clarin.com/sociedad/concordia-noreste-litoral-inundaciones-rio-uruguay_0_1496850635.html
p2
aVhttps://www.clarin.com/sociedad/concordia-noreste-litoral-inundaciones-rio-uruguay_0_1496850635.html
p3
aVhttps://www.clarin.com/sociedad/imputan-empresarios-noche-muerte-chica-fiesta-clandestina_0_1496850630.html
p4
aVhttps://www.clarin.com/sociedad/Familiares-desesperacion-Alejandro-Yani-Rejas_0_1496850621.html
p5
aVhttps://www.clarin.com/sociedad/Familiares-desesperacion-Alejandro-Yani-Rejas_0_1496850621.html
p6
aVhttps://www.clarin.com/sociedad/chico-4_anos-jugaba-con-arma-se-mato_0_1496850613.html
p7
a.