(lp0
Vhttps://www.clarin.com/ieco/exportaciones-autopartes-cayeron-primer-semestre_0_1647435300.html
p1
aVhttps://www.clarin.com/ieco/exportaciones-autopartes-cayeron-primer-semestre_0_1647435300.html
p2
aVhttps://www.clarin.com/sociedad/mujer-metio-contramano-avenida-choco_0_1647435295.html
p3
aVhttps://www.clarin.com/sociedad/mujer-metio-contramano-avenida-choco_0_1647435295.html
p4
aVhttps://www.clarin.com/ieco/inflacion-agosto-apenas-Cordoba_0_1647435290.html
p5
aVhttps://www.clarin.com/ieco/inflacion-agosto-apenas-Cordoba_0_1647435290.html
p6
aVhttps://www.clarin.com/ieco/Marcos-Pena-transicion-dolorosa-cambiado_0_1647435286.html
p7
aVhttps://www.clarin.com/ieco/Marcos-Pena-transicion-dolorosa-cambiado_0_1647435286.html
p8
a.