(lp0
S'https://www.clarin.com/ieco/economia/YPF-juega-destino_0_1581441941.html'
p1
aS'https://www.clarin.com/sociedad/sacudio-Bolivia-cerca-frontera-Argentina_0_1581441954.html'
p2
aS'https://www.clarin.com/politica/desafio-monitorear-sensacion-termica-sociedad_0_1581441952.html'
p3
aS'https://www.clarin.com/ieco/economia/camioneros-pidieron-aumento-salarial_0_1581441944.html'
p4
a.