(lp0
Vhttps://www.clarin.com/sociedad/espectacular-video-alud-Alpes_0_1506449641.html
p1
aVhttps://www.clarin.com/sociedad/espectacular-video-alud-Alpes_0_1506449641.html
p2
aVhttps://www.clarin.com/sociedad/avalancha-dejo-muertos-Alpes_0_1506449631.html
p3
aVhttps://www.clarin.com/sociedad/avalancha-dejo-muertos-Alpes_0_1506449631.html
p4
aVhttps://www.clarin.com/sociedad/fracaso-SpaceX-estallo-ultimo-momento_0_1506449625.html
p5
a.