(lp0
S'https://www.clarin.com/sociedad/expectativa-mejorar-lado-alumnos_0_1531047293.html'
p1
aS'https://www.clarin.com/opinion/impacto-jubilacion-salud_0_1531047212.html'
p2
aS'https://www.clarin.com/opinion/Europa-camina-distintas-velocidades_0_1531047214.html'
p3
aS'https://www.clarin.com/opinion/Incomodidad-Roma_0_1531646873.html'
p4
aS'https://www.clarin.com/ieco/economia/esperaba-empresarios-mejor-animo-Macri_0_1531047273.html'
p5
aS'https://www.clarin.com/opinion/salarios-docentes-eterno-retorno_0_1531047210.html'
p6
a.