(lp0
S'https://www.clarin.com/sociedad/Petting-franeleo-diferentes-escalas_0_1637836376.html'
p1
aS'https://www.clarin.com/sociedad/Petting-franeleo-diferentes-escalas_0_1637836376.html'
p2
aS'https://www.clarin.com/politica/Cristina-Macri-desmantelar-Derechos-Humanos_0_1637836364.html'
p3
aS'https://www.clarin.com/politica/Cristina-Macri-desmantelar-Derechos-Humanos_0_1637836364.html'
p4
aS'https://www.clarin.com/ieco/Gobernadores-funcionarios-Council-the-Americas_0_1637836367.html'
p5
aS'https://www.clarin.com/ieco/economia/Comercio-exterior-superavit-US-millones_0_1637836360.html'
p6
aS'https://www.clarin.com/politica/frente-judicial-Cristina-tormenta-perfecta_0_1637836357.html'
p7
aS'https://www.clarin.com/politica/Cristina-laberinto-escabroso-creado-Nestor_0_1637836349.html'
p8
aS'https://www.clarin.com/politica/Cristina-laberinto-escabroso-creado-Nestor_0_1637836349.html'
p9
a.