(lp0
S'https://www.clarin.com/sociedad/Encontraron-adolescente-desaparecida-lunes_0_1521448299.html'
p1
aS'https://www.clarin.com/sociedad/Encontraron-adolescente-desaparecida-lunes_0_1521448299.html'
p2
a.