(lp0
Vhttps://www.clarin.com/politica/Quieren-limitar-reelecciones-gobernadores-intendentes_0_1601839968.html
p1
aVhttps://www.clarin.com/sociedad/hicieron-deseo-animaron-salir-closet_0_1601839958.html
p2
aVhttps://www.clarin.com/sociedad/hicieron-deseo-animaron-salir-closet_0_1601839958.html
p3
aVhttps://www.clarin.com/politica/fantasia-Macri-interponen-camino_0_1601839952.html
p4
a.