(lp0
S'https://www.clarin.com/sociedad/desafio-tiempos-lanzara-metros-paracaidas_0_1613238723.html'
p1
aS'https://www.clarin.com/politica/Hugo-Moyano-frente-CGT-agosto_0_1613238706.html'
p2
aS'https://www.clarin.com/sociedad/argentinos-reserva-compra-entradas-Internet_0_1613238692.html'
p3
aS'https://www.clarin.com/ieco/economia/Todesca-preocupado-fuertes-aumentos-privado_0_1613238715.html'
p4
aS'https://www.clarin.com/politica/fiscal-Delgado-pensar-Lopez-empantanarse_0_1613238711.html'
p5
a.