(lp0
S'https://www.clarin.com/politica/Respaldo-Buenos-Aires-incertidumbre-Brasilia_0_1582041957.html'
p1
aS'https://www.clarin.com/politica/Respaldo-Buenos-Aires-incertidumbre-Brasilia_0_1582041957.html'
p2
a.