(lp0
Vhttps://www.clarin.com/sociedad/Villa-Paranacito-aislada-unica-farmacia_0_1560444388.html
p1
aVhttps://www.clarin.com/sociedad/Villa-Paranacito-aislada-unica-farmacia_0_1560444388.html
p2
aVhttps://www.clarin.com/politica/Despidos-oposicion-insiste-rechaza-Gobierno_0_1560444371.html
p3
aVhttps://www.clarin.com/politica/Despidos-oposicion-insiste-rechaza-Gobierno_0_1560444371.html
p4
aVhttps://www.clarin.com/politica/Diputados-PJ-impulsan-indice-desempleo_0_1560444369.html
p5
aVhttps://www.clarin.com/politica/Diputados-PJ-impulsan-indice-desempleo_0_1560444369.html
p6
aVhttps://www.clarin.com/ieco/Cayeron-ventas-autos-usados-marzo_0_1560444362.html
p7
aVhttps://www.clarin.com/politica/Scioli-horas-tele-Marcos-Pena_0_1560444331.html
p8
aVhttps://www.clarin.com/politica/Scioli-horas-tele-Marcos-Pena_0_1560444331.html
p9
aVhttps://www.clarin.com/sociedad/Costa-Salguero-polemico-concesion-cuestionada_0_1560444381.html
p10
aVhttps://www.clarin.com/sociedad/Costa-Salguero-polemico-concesion-cuestionada_0_1560444381.html
p11
aVhttps://www.clarin.com/sociedad/ano-aumentos-micros-escolares_0_1560444361.html
p12
a.