(lp0
S'https://www.clarin.com/sociedad/Alerta-drones-Unidos-reportan-incidentes_0_1548445401.html'
p1
aS'https://www.clarin.com/politica/funcionario-combatientes-ganaban-pantalones-delante_0_1548445380.html'
p2
aS'https://www.clarin.com/politica/Crece-millonario-Lewis-Radio-Nacional_0_1548445396.html'
p3
aS'https://www.clarin.com/politica/Reflotan-proyecto-dividir-Matanza_0_1548445406.html'
p4
aS'https://www.clarin.com/politica/Robo-oficinas-Barolo-llevaron-SIDE_0_1548445393.html'
p5
a.