(lp0
Vhttps://www.clarin.com/politica/Lazaro-Baez-informacion-confidencial-licitaciones_0_1657634240.html
p1
aVhttps://www.clarin.com/politica/Lazaro-Baez-informacion-confidencial-licitaciones_0_1657634240.html
p2
aVhttps://www.clarin.com/ieco/Banco-Central-presenta-regimen-inflacion_0_1657634277.html
p3
aVhttps://www.clarin.com/ieco/Banco-Central-presenta-regimen-inflacion_0_1657634277.html
p4
aVhttps://www.clarin.com/politica/Macri-busto-Cordoba-lado-Cristina_0_1657634275.html
p5
aVhttps://www.clarin.com/politica/Macri-busto-Cordoba-lado-Cristina_0_1657634275.html
p6
aVhttps://www.clarin.com/sociedad/burkini-ahora-polemica-Paris-nudistas_0_1657634272.html
p7
aVhttps://www.clarin.com/sociedad/burkini-ahora-polemica-Paris-nudistas_0_1657634272.html
p8
a.