(lp0
Vhttps://www.clarin.com/ieco/empresas-y-negocios/Sielecki-compran-petroquimica-Petroken_0_1517848492.html
p1
aVhttps://www.clarin.com/sociedad/Dolor-Playboy-conejita-Katie-May_0_1517848447.html
p2
aVhttps://www.clarin.com/sociedad/Dolor-Playboy-conejita-Katie-May_0_1517848447.html
p3
aVhttps://www.clarin.com/politica/Macri-pidio-prudencia-negociaciones-paritarias_0_1517848444.html
p4
a.