(lp0
Vhttps://www.clarin.com/sociedad/evacuados-crecidas-Litoral_0_1496250533.html
p1
aVhttps://www.clarin.com/sociedad/evacuados-crecidas-Litoral_0_1496250533.html
p2
aVhttps://www.clarin.com/sociedad/Policias-saltenos-salvaron-ahogaba-plena_0_1496250515.html
p3
a.