(lp0
Vhttps://www.clarin.com/ieco/economia/Malcorra-cambios-todavia-pendientes_0_1649835197.html
p1
aVhttps://www.clarin.com/ieco/economia/Malcorra-cambios-todavia-pendientes_0_1649835197.html
p2
aVhttps://www.clarin.com/politica/Servini-hacerse-chequeo-internada-trombosis_0_1649835195.html
p3
aVhttps://www.clarin.com/politica/Servini-hacerse-chequeo-internada-trombosis_0_1649835195.html
p4
aVhttps://www.clarin.com/sociedad/clima-escolar-amigable-clave-aprender_0_1649835189.html
p5
aVhttps://www.clarin.com/sociedad/inclusion-exige-compromiso-toda-sociedad_0_1649835188.html
p6
aVhttps://www.clarin.com/politica/Macri-Mini-Davos-Juliana-Awada_0_1649835186.html
p7
aVhttps://www.clarin.com/politica/Macri-Mini-Davos-Juliana-Awada_0_1649835186.html
p8
aVhttps://www.clarin.com/opinion/cultura-cerrar-grieta-norte-Ciudad_0_1649835187.html
p9
aVhttps://www.clarin.com/opinion/Cooperativas-sueno-blanqueo-dinero-politico_0_1649835185.html
p10
aVhttps://www.clarin.com/opinion/Cooperativas-sueno-blanqueo-dinero-politico_0_1649835185.html
p11
aVhttps://www.clarin.com/politica/perfil-Cristina-regreso-Capital-campana_0_1649835132.html
p12
aVhttps://www.clarin.com/politica/perfil-Cristina-regreso-Capital-campana_0_1649835132.html
p13
aVhttps://www.clarin.com/opinion/lecciones-Nietzsche-salud_0_1649835182.html
p14
aVhttps://www.clarin.com/ieco/Globant-interes-invertir-Argentina_0_1649835179.html
p15
aVhttps://www.clarin.com/ieco/Globant-interes-invertir-Argentina_0_1649835179.html
p16
a.