(lp0
Vhttps://www.clarin.com/opinion/Cristina-frente-espejismo-poder_0_1559244096.html
p1
aVhttps://www.clarin.com/opinion/PJ-metaboliza-derrota_0_1559244094.html
p2
aVhttps://www.clarin.com/politica/Pediran-Milagro-Sala-amenazar-Morales_0_1559244092.html
p3
aVhttps://www.clarin.com/politica/Pediran-Milagro-Sala-amenazar-Morales_0_1559244092.html
p4
aVhttps://www.clarin.com/opinion/Uber-repensar-sistema-movilidad_0_1558644481.html
p5
aVhttps://www.clarin.com/opinion/boleta-unica-sistema-votacion-viciado_0_1558644512.html
p6
a.