(lp0
Vhttps://www.clarin.com/politica/segundo-Bullrich-Gomez-Centurion-efedrina_0_1647435311.html
p1
aVhttps://www.clarin.com/politica/segundo-Bullrich-Gomez-Centurion-efedrina_0_1647435311.html
p2
aVhttps://www.clarin.com/sociedad/Desfilo-NY-Fashion-Week-sobrevivio_0_1647435309.html
p3
aVhttps://www.clarin.com/sociedad/Desfilo-NY-Fashion-Week-sobrevivio_0_1647435309.html
p4
aVhttps://www.clarin.com/politica/CTA-suman-CGT-impulsan-nacional_0_1647435306.html
p5
aVhttps://www.clarin.com/politica/CTA-suman-CGT-impulsan-nacional_0_1647435306.html
p6
a.