(lp0
S'https://www.clarin.com/sociedad/Indecente-publicidad-lenceria-censuraron-EEUU_0_1540046241.html'
p1
aS'https://www.clarin.com/sociedad/jubila-astronauta-record_0_1540046234.html'
p2
aS'https://www.clarin.com/sociedad/Arte-segundos-videos-creativos_0_1540046244.html'
p3
aS'https://www.clarin.com/ieco/Empate-Monsanto-Mesa-Enlace-controles_0_1540046225.html'
p4
aS'https://www.clarin.com/ieco/Oficializan-regreso-importaciones-puerta_0_1540046143.html'
p5
a.