(lp0
S'https://www.clarin.com/sociedad/estudio-personas-amigos-toleran-dolor_0_1567043454.html'
p1
aS'https://www.clarin.com/sociedad/estudio-personas-amigos-toleran-dolor_0_1567043454.html'
p2
aS'https://www.clarin.com/politica/Unificaron-hoteles-Cristina-manejara-Ercolini_0_1567043452.html'
p3
aS'https://www.clarin.com/politica/Unificaron-hoteles-Cristina-manejara-Ercolini_0_1567043452.html'
p4
aS'https://www.clarin.com/sociedad/Cromanon-condenan-inspector-habilito-local_0_1567043451.html'
p5
aS'https://www.clarin.com/sociedad/Cromanon-condenan-inspector-habilito-local_0_1567043451.html'
p6
aS'https://www.clarin.com/sociedad/pleno-parto-encontraron-bolsa-marihuana_0_1567043448.html'
p7
aS'https://www.clarin.com/ieco/Sturzenegger-admite-expectativas-inflacion-siguen_0_1567043440.html'
p8
aS'https://www.clarin.com/ieco/economia/jornada-volumen-dolar-mayorista-centavos_0_1567043428.html'
p9
a.