(lp0
S'https://www.clarin.com/politica/Lijo-acelera-investiga-patrimonio-Boudou_0_1572442874.html'
p1
aS'https://www.clarin.com/politica/Lijo-acelera-investiga-patrimonio-Boudou_0_1572442874.html'
p2
aS'https://www.clarin.com/ieco/economia/Gobierno-apura-empresarios-tregua-despidos_0_1572442892.html'
p3
aS'https://www.clarin.com/ieco/economia/Gobierno-apura-empresarios-tregua-despidos_0_1572442892.html'
p4
aS'https://www.clarin.com/politica/Massa-insiste-antidespidos-requiere-modificaciones_0_1572442888.html'
p5
aS'https://www.clarin.com/ieco/economia/Perros-gatos-salvo-ajuste_0_1573042755.html'
p6
aS'https://www.clarin.com/ieco/economia/Comienza-aterrizaje-tasas-interes_0_1573042753.html'
p7
aS'https://www.clarin.com/ieco/economia/Comienza-aterrizaje-tasas-interes_0_1573042753.html'
p8
aS'https://www.clarin.com/ieco/economia/trabajo-mundo-digital_0_1573042727.html'
p9
aS'https://www.clarin.com/ieco/economia/trabajo-mundo-digital_0_1573042727.html'
p10
aS'https://www.clarin.com/ieco/economia/Tactica-estrategia-futbolisticas-capacitar-liderazgo_0_1573042725.html'
p11
aS'https://www.clarin.com/ieco/economia/Tactica-estrategia-futbolisticas-capacitar-liderazgo_0_1573042725.html'
p12
aS'https://www.clarin.com/ieco/economia/formula-disruptiva-Quilmes_0_1573042721.html'
p13
aS'https://www.clarin.com/ieco/economia/formula-disruptiva-Quilmes_0_1573042721.html'
p14
aS'https://www.clarin.com/ieco/economia/campanas-iEco-ganan-premios-globales_0_1573042719.html'
p15
aS'https://www.clarin.com/ieco/economia/campanas-iEco-ganan-premios-globales_0_1573042719.html'
p16
aS'https://www.clarin.com/ieco/economia/Ironicamente-dificil-cambiar-mentes-creativas_0_1573042718.html'
p17
aS'https://www.clarin.com/ieco/economia/Ironicamente-dificil-cambiar-mentes-creativas_0_1573042718.html'
p18
aS'https://www.clarin.com/ieco/economia/inclinacion-crecimiento-objetivo-pseudo-religioso_0_1573042716.html'
p19
aS'https://www.clarin.com/ieco/economia/inclinacion-crecimiento-objetivo-pseudo-religioso_0_1573042716.html'
p20
aS'https://www.clarin.com/ieco/economia/crear-startups-mirar-cuantas-mueren_0_1573042713.html'
p21
aS'https://www.clarin.com/ieco/economia/crear-startups-mirar-cuantas-mueren_0_1573042713.html'
p22
aS'https://www.clarin.com/ieco/economia/Transferencia-tecnologica-laboratorio-mundo-productivo_0_1573042712.html'
p23
aS'https://www.clarin.com/ieco/economia/Transferencia-tecnologica-laboratorio-mundo-productivo_0_1573042712.html'
p24
aS'https://www.clarin.com/ieco/economia/Argentina-despierta-expectativas-Europa_0_1573042711.html'
p25
aS'https://www.clarin.com/ieco/economia/Argentina-despierta-expectativas-Europa_0_1573042711.html'
p26
aS'https://www.clarin.com/ieco/economia/Dudas-polemicas-monetaria-Banco-Central_0_1573042710.html'
p27
aS'https://www.clarin.com/ieco/economia/Dudas-polemicas-monetaria-Banco-Central_0_1573042710.html'
p28
a.