(lp0
S'https://www.clarin.com/politica/Indice-optimismo-confianza-Macri-Presupuesto_0_1682231806.html'
p1
aS'https://www.clarin.com/politica/Indice-optimismo-confianza-Macri-Presupuesto_0_1682231806.html'
p2
aS'https://www.clarin.com/sociedad/clase-busca-escuelas-excelencia-relaciones_0_1681032039.html'
p3
aS'https://www.clarin.com/sociedad/clase-busca-escuelas-excelencia-relaciones_0_1681032039.html'
p4
aS'https://www.clarin.com/politica/Iglesia-declare-emergencia-nacional-adicciones_0_1682231801.html'
p5
aS'https://www.clarin.com/politica/Iglesia-declare-emergencia-nacional-adicciones_0_1682231801.html'
p6
aS'https://www.clarin.com/sociedad/Francisco-respete-condicion-humana-carceles_0_1682231799.html'
p7
aS'https://www.clarin.com/sociedad/Francisco-respete-condicion-humana-carceles_0_1682231799.html'
p8
aS'https://www.clarin.com/ieco/impacta-inflacion-salarios_0_1682231800.html'
p9
aS'https://www.clarin.com/ieco/salario-real-terminara_0_1682231798.html'
p10
aS'https://www.clarin.com/politica/Duhalde-chiste-Cristina-pueda-candidata_0_1682231795.html'
p11
aS'https://www.clarin.com/politica/Duhalde-chiste-Cristina-pueda-candidata_0_1682231795.html'
p12
aS'https://www.clarin.com/politica/Denuncian-Rodriguez-INADI-San-Luis_0_1682231793.html'
p13
aS'https://www.clarin.com/politica/Denuncian-Rodriguez-INADI-San-Luis_0_1682231793.html'
p14
a.