(lp0
S'https://www.clarin.com/sociedad/iglesia-hombre-recibio-corazon-padre_0_1628237184.html'
p1
aS'https://www.clarin.com/ieco/Edenor-confirmo-llegar-facturas-saldos_0_1628237187.html'
p2
aS'https://www.clarin.com/sociedad/Prohiben-cremas-depilatorias-denuncias-reacciones_0_1628237179.html'
p3
aS'https://www.clarin.com/ieco/corrupcion-revolear-bolsos-paraisos-fiscales_0_1628237173.html'
p4
aS'https://www.clarin.com/ieco/contribuyentes-pueden-consultar-AFIP-sabe_0_1628237188.html'
p5
aS'https://www.clarin.com/politica/Cynthia-Garcia-denuncio-desvalijaron-computadora_0_1628237172.html'
p6
aS'https://www.clarin.com/politica/Denuncian-juez-vive-lujo-asiatico_0_1628237174.html'
p7
a.