(lp0
Vhttps://www.clarin.com/sociedad/comadreja-dejo-medio-Bragado-luz_0_1535846659.html
p1
aVhttps://www.clarin.com/sociedad/comadreja-dejo-medio-Bragado-luz_0_1535846659.html
p2
aVhttps://www.clarin.com/sociedad/madonna-justicia-hijo-rocco_0_1535846670.html
p3
aVhttps://www.clarin.com/sociedad/madonna-justicia-hijo-rocco_0_1535846670.html
p4
aVhttps://www.clarin.com/sociedad/como-primera-vez-hija-igualdad-genero_0_1535846664.html
p5
aVhttps://www.clarin.com/sociedad/como-primera-vez-hija-igualdad-genero_0_1535846664.html
p6
aVhttps://www.clarin.com/sociedad/Pediran-perpetua-joven-mato-ladrillazo_0_1535846642.html
p7
aVhttps://www.clarin.com/sociedad/Pediran-perpetua-joven-mato-ladrillazo_0_1535846642.html
p8
aVhttps://www.clarin.com/sociedad/Transformo-canchas-grandes-metegoles-escala_0_1535846640.html
p9
aVhttps://www.clarin.com/sociedad/Transformo-canchas-grandes-metegoles-escala_0_1535846640.html
p10
aVhttps://www.clarin.com/politica/Intelectuales-artistas-piden-CONADEP-AMIA_0_1535846643.html
p11
aVhttps://www.clarin.com/politica/Intelectuales-artistas-piden-CONADEP-AMIA_0_1535846643.html
p12
a.