(lp0
Vhttps://www.clarin.com/sociedad/gato-mono-desato-polemica-Facebook_0_1498050486.html
p1
aVhttps://www.clarin.com/sociedad/gato-mono-desato-polemica-Facebook_0_1498050486.html
p2
aVhttps://www.clarin.com/sociedad/barba-Cipolletti-empleados_municipales-Rio_Negro-prohibe-afeitar_0_1498050443.html
p3
aVhttps://www.clarin.com/sociedad/barba-Cipolletti-empleados_municipales-Rio_Negro-prohibe-afeitar_0_1498050443.html
p4
aVhttps://www.clarin.com/sociedad/presentadora-tiempo-disparo-rating_0_1498050454.html
p5
aVhttps://www.clarin.com/sociedad/presentadora-tiempo-disparo-rating_0_1498050454.html
p6
a.