(lp0
Vhttps://www.clarin.com/sociedad/Hoy-dejo-salir-The-Independet_0_1547245447.html
p1
aVhttps://www.clarin.com/sociedad/Hoy-dejo-salir-The-Independet_0_1547245447.html
p2
aVhttps://www.clarin.com/politica/Lazaro-Baez-Echegaray-Alicia-Kirchner_0_1547245446.html
p3
aVhttps://www.clarin.com/politica/Lazaro-Baez-Echegaray-Alicia-Kirchner_0_1547245446.html
p4
aVhttps://www.clarin.com/politica/Murio-gremialista-Mary-Sanchez-impulsoras_0_1547245432.html
p5
aVhttps://www.clarin.com/politica/Detectan-sobreprecios-Aerolineas-ligada-SIDE_0_1546645642.html
p6
aVhttps://www.clarin.com/politica/Detectan-sobreprecios-Aerolineas-ligada-SIDE_0_1546645642.html
p7
aVhttps://www.clarin.com/politica/Suspenden-division-empresas-Lopez_0_1547245418.html
p8
aVhttps://www.clarin.com/sociedad/Mundos-intimos-Empece-hablar-politica_0_1545445877.html
p9
aVhttps://www.clarin.com/sociedad/Mundos-intimos-Empece-hablar-politica_0_1545445877.html
p10
aVhttps://www.clarin.com/sociedad/pensadora-infancia_0_1545445880.html
p11
a.