(lp0
S'https://www.clarin.com/politica/Acuerdo-Massa-PRO-cambiar-antidespidos_0_1570043196.html'
p1
aS'https://www.clarin.com/politica/CGT-canasta-pobreza-cuesta_0_1570043200.html'
p2
aS'https://www.clarin.com/sociedad/Quedo-detenido-mediatico-imputado-organizado_0_1570043206.html'
p3
aS'https://www.clarin.com/sociedad/Quedo-detenido-mediatico-imputado-organizado_0_1570043206.html'
p4
aS'https://www.clarin.com/politica/Macri-dijo-crearon-empleos-ano_0_1570043198.html'
p5
aS'https://www.clarin.com/politica/Macri-dijo-crearon-empleos-ano_0_1570043198.html'
p6
aS'https://www.clarin.com/ieco/Banco-Central-cedio-final-tasas_0_1570043190.html'
p7
aS'https://www.clarin.com/politica/Macri-apura-pagos-provincias_0_1570043183.html'
p8
aS'https://www.clarin.com/politica/cupula-PJ-reforzo-perfil-opositor_0_1570043201.html'
p9
aS'https://www.clarin.com/politica/cupula-PJ-reforzo-perfil-opositor_0_1570043201.html'
p10
aS'https://www.clarin.com/politica/Tierra-Fuego-vicegobernador-sindicalistas-detenidos_0_1570043193.html'
p11
a.