(lp0
Vhttps://www.clarin.com/ieco/ventas-pick-siguen-alza-competencia_0_1607239432.html
p1
aVhttps://www.clarin.com/ieco/ventas-pick-siguen-alza-competencia_0_1607239432.html
p2
aVhttps://www.clarin.com/ieco/economia/devolucion-IVA-jubilados-arranca-mes_0_1607239445.html
p3
aVhttps://www.clarin.com/ieco/economia/devolucion-IVA-jubilados-arranca-mes_0_1607239445.html
p4
aVhttps://www.clarin.com/politica/Perez-Corradi-Anibal-Fernandez-Echegaray_0_1607239406.html
p5
aVhttps://www.clarin.com/politica/Perez-Corradi-Anibal-Fernandez-Echegaray_0_1607239406.html
p6
aVhttps://www.clarin.com/sociedad/Produciran-cerdos-trasplantes-humanos-pais_0_1607239454.html
p7
aVhttps://www.clarin.com/politica/Desmadre-patetico-tormenta-perfecta_0_1607839202.html
p8
aVhttps://www.clarin.com/politica/Desmadre-patetico-tormenta-perfecta_0_1607839202.html
p9
aVhttps://www.clarin.com/opinion/escuela-negocios-Santa-Cruz_0_1607839201.html
p10
aVhttps://www.clarin.com/sociedad/veinte-oveja-dolly-clonaron-especies_0_1607239453.html
p11
aVhttps://www.clarin.com/sociedad/veinte-oveja-dolly-clonaron-especies_0_1607239453.html
p12
aVhttps://www.clarin.com/politica/detalles-reunion-Casanello-Cristina-Olivos_0_1607239440.html
p13
aVhttps://www.clarin.com/politica/detalles-reunion-Casanello-Cristina-Olivos_0_1607239440.html
p14
aVhttps://www.clarin.com/politica/Desmadre-patetico-tormenta-perfecta_0_1607239437.html
p15
aVhttps://www.clarin.com/opinion/maravilloso-arte-cuelgue_0_1607239427.html
p16
a.