(lp0
Vhttps://www.clarin.com/sociedad/Costa-febrero-vivir-experiencias-secretas_0_1513648943.html
p1
aVhttps://www.clarin.com/sociedad/Costa-febrero-vivir-experiencias-secretas_0_1513648943.html
p2
aVhttps://www.clarin.com/politica/Causa_Efedrina-Juan_Jose_Ribelli-Anibal_fernandez-Ibar_Perez_Corradi_0_1514248604.html
p3
aVhttps://www.clarin.com/politica/Causa_Efedrina-Juan_Jose_Ribelli-Anibal_fernandez-Ibar_Perez_Corradi_0_1514248604.html
p4
aVhttps://www.clarin.com/politica/Triple_Fuga-Martin_Lanatta-Cristian_Lanatta-Victor_Schillaci-Efedrina-Anibal_Fernandez_0_1514248603.html
p5
aVhttps://www.clarin.com/politica/Triple_Fuga-Martin_Lanatta-Cristian_Lanatta-Victor_Schillaci-Efedrina-Anibal_Fernandez_0_1514248603.html
p6
aVhttps://www.clarin.com/ieco/tarifas-iniciativa-necesaria-gadano_0_1514248602.html
p7
aVhttps://www.clarin.com/ieco/subsidios-tarifas-luz-energia_electrica-aumento_0_1514248601.html
p8
aVhttps://www.clarin.com/ieco/subsidios-tarifas-luz-energia_electrica-aumento_0_1514248601.html
p9
aVhttps://www.clarin.com/politica/Fuerzas_Armadas-salario-juicios-reclamos_sindicales_0_1514248600.html
p10
aVhttps://www.clarin.com/politica/salarios-precios-paritarias-Congreso_nacional-AUH-IVA-Ganancias_0_1514248599.html
p11
a.