(lp0
S'https://www.clarin.com/politica/Hollande-Macri-Francia-ayudara-Gobierno_0_1529247171.html'
p1
aS'https://www.clarin.com/ieco/fondos-buitre-duros-acuerdo-Argentina_0_1528647658.html'
p2
aS'https://www.clarin.com/ieco/economia/Alivio-Ganancias-descuentos-retroactivos-pagaran_0_1528647355.html'
p3
aS'https://www.clarin.com/opinion/Decision-repercute-Argentina_0_1529247094.html'
p4
aS'https://www.clarin.com/ieco/campus-ieco/Estudiantes-UTN-desarrollan-deportiva-inteligente_0_1528647508.html'
p5
aS'https://www.clarin.com/politica/Hollande-Quiero-solidaridad-Francia-dictadura_0_1529247175.html'
p6
aS'https://www.clarin.com/ieco/economia/Ex-gobernador-Nueva-York-renovable_0_1528647592.html'
p7
aS'https://www.clarin.com/politica/Apuran-negociacion-acordar-docentes_0_1529247102.html'
p8
aS'https://www.clarin.com/politica/Fuerte-debate-PJ-distancia-kirchnerismo_0_1529247164.html'
p9
a.