(lp0
S'https://www.clarin.com/politica/Casanello-Baez-procesaria-empresario-Martin_0_1585041633.html'
p1
aS'https://www.clarin.com/politica/carta-Macri-jubilados-estafo_0_1585641436.html'
p2
aS'https://www.clarin.com/politica/Vidal-intendentes-pobreza-empezo-diciembre_0_1585641446.html'
p3
a.