(lp0
S'https://www.clarin.com/opinion/Victimas-chorros-paso_0_1606639428.html'
p1
aS'https://www.clarin.com/politica/Trafico-Corradi-Anibal-Echegaray-Granero_0_1606639474.html'
p2
aS'https://www.clarin.com/politica/Trafico-Corradi-Anibal-Echegaray-Granero_0_1606639474.html'
p3
aS'https://www.clarin.com/politica/Desfile-Tribunales-casos-graves-corrupcion_0_1606639444.html'
p4
aS'https://www.clarin.com/politica/Desfile-Tribunales-casos-graves-corrupcion_0_1606639444.html'
p5
aS'https://www.clarin.com/politica/Cristina-relacion-Baez-Cristobal-inmuebles_0_1606639473.html'
p6
aS'https://www.clarin.com/politica/Cristina-relacion-Baez-Cristobal-inmuebles_0_1606639473.html'
p7
aS'https://www.clarin.com/politica/sospechas-Scholas-Ocurrentes-obra-millonaria_0_1606639472.html'
p8
aS'https://www.clarin.com/politica/sospechas-Scholas-Ocurrentes-obra-millonaria_0_1606639472.html'
p9
aS'https://www.clarin.com/politica/Conti-on-fire-Maximo-pasto_0_1606639469.html'
p10
aS'https://www.clarin.com/politica/Conti-on-fire-Maximo-pasto_0_1606639469.html'
p11
aS'https://www.clarin.com/politica/Cristina-victimizo-pego-oposicion_0_1606639470.html'
p12
aS'https://www.clarin.com/politica/Cristina-victimizo-pego-oposicion_0_1606639470.html'
p13
a.