(lp0
S'https://www.clarin.com/politica/Macri-Vidal-Antonia-sorprendidos-Boca_0_1656434386.html'
p1
aS'https://www.clarin.com/politica/Juan-Manuel-Urtubey-Isabel-Macedo_0_1656434383.html'
p2
aS'https://www.clarin.com/sociedad/Murio-Max-Mannheimer-sobreviviente-extermino_0_1656434364.html'
p3
aS'https://www.clarin.com/politica/Barrionuevo-mejor-pais-hacer-paro_0_1656434382.html'
p4
aS'https://www.clarin.com/sociedad/Union-Civil-italiana-intendente-Napoles_0_1656434387.html'
p5
a.