(lp0
S'https://www.clarin.com/ieco/economia/dolar-centavos-arrastrado-oferta-exportadores_0_1603639744.html'
p1
aS'https://www.clarin.com/ieco/Rebotaron-mercados-mundiales-Merval-subio_0_1603639743.html'
p2
aS'https://www.clarin.com/politica/Perez-Corradi-policias-paraguayos-protegian_0_1603639742.html'
p3
a.