(lp0
S'https://www.clarin.com/politica/Baez-millones-dolares-cuentas-Suiza_0_1601240065.html'
p1
aS'https://www.clarin.com/politica/Baez-millones-dolares-cuentas-Suiza_0_1601240065.html'
p2
aS'https://www.clarin.com/opinion/caracter-vernaculo_0_1601240001.html'
p3
aS'https://www.clarin.com/politica/inflacion-atraso-tarifazo-exitoso-pendiente_0_1601240057.html'
p4
a.