(lp0
Vhttps://www.clarin.com/sociedad/Sale-remate-hoteles-famosos-mundo_0_1542446047.html
p1
aVhttps://www.clarin.com/sociedad/Sale-remate-hoteles-famosos-mundo_0_1542446047.html
p2
aVhttps://www.clarin.com/politica/abuelito-amarrete-Baez-ofendido-parejo_0_1542446071.html
p3
a.