(lp0
Vhttps://www.clarin.com/opinion/hombre-escucha-Macri_0_1677432248.html
p1
aVhttps://www.clarin.com/politica/Presidenta-descansa-Calafate-declarar-corrupcion_0_1676832468.html
p2
aVhttps://www.clarin.com/politica/Presidenta-descansa-Calafate-declarar-corrupcion_0_1676832468.html
p3
aVhttps://www.clarin.com/opinion/Maduro-Papa-oposicion-cree-milagros_0_1677432246.html
p4
aVhttps://www.clarin.com/opinion/apertura-cuestion_0_1677432245.html
p5
aVhttps://www.clarin.com/opinion/Boca-River-Macri-DOnofrio_0_1677432244.html
p6
aVhttps://www.clarin.com/opinion/falsa-opcion-populismoentre-justicia-libertad_0_1677432243.html
p7
aVhttps://www.clarin.com/sociedad/Poliomielitis-problema-silla-ruedas-diferente_0_1676832455.html
p8
aVhttps://www.clarin.com/sociedad/Poliomielitis-problema-silla-ruedas-diferente_0_1676832455.html
p9
aVhttps://www.clarin.com/sociedad/ilusion-hace-andar_0_1676832459.html
p10
aVhttps://www.clarin.com/politica/Cristina-planteo-Casacion-denegacion-justicia_0_1676832511.html
p11
aVhttps://www.clarin.com/politica/Cristina-planteo-Casacion-denegacion-justicia_0_1676832511.html
p12
aVhttps://www.clarin.com/politica/oficialismo-limite-electronico-advierte-oposicion_0_1676832510.html
p13
a.