(lp0
Vhttps://www.clarin.com/sociedad/Arte-segundos-videos-creativos_0_1540046244.html
p1
aVhttps://www.clarin.com/sociedad/Arte-segundos-videos-creativos_0_1540046244.html
p2
aVhttps://www.clarin.com/sociedad/Indecente-publicidad-lenceria-censuraron-EEUU_0_1540046241.html
p3
aVhttps://www.clarin.com/sociedad/Indecente-publicidad-lenceria-censuraron-EEUU_0_1540046241.html
p4
aVhttps://www.clarin.com/ieco/Empate-Monsanto-Mesa-Enlace-controles_0_1540046225.html
p5
aVhttps://www.clarin.com/ieco/Empate-Monsanto-Mesa-Enlace-controles_0_1540046225.html
p6
aVhttps://www.clarin.com/sociedad/jubila-astronauta-record_0_1540046234.html
p7
aVhttps://www.clarin.com/sociedad/jubila-astronauta-record_0_1540046234.html
p8
aVhttps://www.clarin.com/ieco/Oficializan-regreso-importaciones-puerta_0_1540046143.html
p9
a.