(lp0
Vhttps://www.clarin.com/politica/locreada-festejan-anos-Menem_0_1605439533.html
p1
aVhttps://www.clarin.com/politica/locreada-festejan-anos-Menem_0_1605439533.html
p2
aVhttps://www.clarin.com/sociedad/medidas-seguridad-nuevo-billete-pesos_0_1605439537.html
p3
aVhttps://www.clarin.com/sociedad/medidas-seguridad-nuevo-billete-pesos_0_1605439537.html
p4
aVhttps://www.clarin.com/sociedad/Mendoza-convertir-zoologico-ecoparque-online_0_1605439544.html
p5
aVhttps://www.clarin.com/sociedad/Mendoza-convertir-zoologico-ecoparque-online_0_1605439544.html
p6
a.