(lp0
Vhttps://www.clarin.com/politica/Desalojo-incidentes-Ushuaia-prenden-protesta_0_1586841333.html
p1
aVhttps://www.clarin.com/politica/Desalojo-incidentes-Ushuaia-prenden-protesta_0_1586841333.html
p2
aVhttps://www.clarin.com/politica/Obra-empresas-investigar-Lazaro-Baez_0_1586841330.html
p3
aVhttps://www.clarin.com/politica/Obra-empresas-investigar-Lazaro-Baez_0_1586841330.html
p4
aVhttps://www.clarin.com/sociedad/Video-jugaban-sorprendio-inmenso-cocodrilo_0_1586841329.html
p5
aVhttps://www.clarin.com/sociedad/Video-jugaban-sorprendio-inmenso-cocodrilo_0_1586841329.html
p6
aVhttps://www.clarin.com/ieco/economia/Argentina-mejora-lugar-ranking-competitividad_0_1586841328.html
p7
aVhttps://www.clarin.com/ieco/economia/Leve-caida-expectativas-politica-economia_0_1586841326.html
p8
aVhttps://www.clarin.com/politica/Descontrol-malversacion-falsificacion-intendente-sabbatellista_0_1586841324.html
p9
aVhttps://www.clarin.com/politica/Descontrol-malversacion-falsificacion-intendente-sabbatellista_0_1586841324.html
p10
aVhttps://www.clarin.com/ieco/economia/Monsanto-negociacion-pedido-Macri_0_1586841321.html
p11
aVhttps://www.clarin.com/sociedad/Datos-oficiales-muertos-gripe-pais_0_1586841320.html
p12
aVhttps://www.clarin.com/sociedad/Datos-oficiales-muertos-gripe-pais_0_1586841320.html
p13
aVhttps://www.clarin.com/ieco/economia/Cambio-millonario-manos-distribuidoras-electricas_0_1586841319.html
p14
a.