(lp0
S'https://www.clarin.com/politica/Mujica-Quisiera-Argentina-barbaro-Macri_0_1677432251.html'
p1
aS'https://www.clarin.com/sociedad/bomberos-necesitan-custodia-policial-incendios_0_1677432252.html'
p2
aS'https://www.clarin.com/sociedad/spinning-bicicleta-clases-gimnasio_0_1675632535.html'
p3
a.