(lp0
Vhttps://www.clarin.com/sociedad/Exploto-churreria-dueno-quemo-cuerpo_0_1574242711.html
p1
aVhttps://www.clarin.com/sociedad/Exploto-churreria-dueno-quemo-cuerpo_0_1574242711.html
p2
aVhttps://www.clarin.com/politica/titular-Austral-Construcciones-rechazo-dinero_0_1574242707.html
p3
aVhttps://www.clarin.com/politica/titular-Austral-Construcciones-rechazo-dinero_0_1574242707.html
p4
aVhttps://www.clarin.com/politica/Larishka-detecto-dinero-financista-Greppi_0_1574242706.html
p5
aVhttps://www.clarin.com/politica/Larishka-detecto-dinero-financista-Greppi_0_1574242706.html
p6
aVhttps://www.clarin.com/politica/Envian-EEUU-Panama-offshore-Macri_0_1574242704.html
p7
aVhttps://www.clarin.com/politica/Envian-EEUU-Panama-offshore-Macri_0_1574242704.html
p8
aVhttps://www.clarin.com/politica/Corrientes-detienen-ex-gobernador_0_1574242703.html
p9
aVhttps://www.clarin.com/politica/Corrientes-detienen-ex-gobernador_0_1574242703.html
p10
aVhttps://www.clarin.com/ieco/economia/Misiones-diferencia-aumento-cantidad-Paraguay_0_1574242697.html
p11
aVhttps://www.clarin.com/ieco/economia/Misiones-diferencia-aumento-cantidad-Paraguay_0_1574242697.html
p12
a.