(lp0
Vhttps://www.clarin.com/politica/Lazaro-debera-ratificar-compromete-Juez_0_1598240298.html
p1
aVhttps://www.clarin.com/politica/Lazaro-debera-ratificar-compromete-Juez_0_1598240298.html
p2
aVhttps://www.clarin.com/sociedad/robots-ocupan-puestos-trabajo-pais_0_1598240296.html
p3
aVhttps://www.clarin.com/sociedad/robots-ocupan-puestos-trabajo-pais_0_1598240296.html
p4
aVhttps://www.clarin.com/politica/mueble-Vido-desayuno-Macri_0_1598240314.html
p5
aVhttps://www.clarin.com/politica/mueble-Vido-desayuno-Macri_0_1598240314.html
p6
aVhttps://www.clarin.com/politica/abogado-Bina-recompensa-Perez-Corradi_0_1598240313.html
p7
aVhttps://www.clarin.com/sociedad/pitbull-raza-recomendable-mascota_0_1598240305.html
p8
a.