(lp0
S'https://www.clarin.com/ieco/economia/Basavilbaso-oficinas-ANSES-coptada-politica_0_1538246397.html'
p1
aS'https://www.clarin.com/ieco/economia/Basavilbaso-oficinas-ANSES-coptada-politica_0_1538246397.html'
p2
aS'https://www.clarin.com/politica/Bullrich-gobierno-represor-generar-cierto_0_1538246377.html'
p3
aS'https://www.clarin.com/politica/Bullrich-gobierno-represor-generar-cierto_0_1538246377.html'
p4
aS'https://www.clarin.com/sociedad/viaje-Peninsula-Valdes-filmadas-drone_0_1538246387.html'
p5
aS'https://www.clarin.com/sociedad/viaje-Peninsula-Valdes-filmadas-drone_0_1538246387.html'
p6
aS'https://www.clarin.com/sociedad/Perez-Companc-familias-ricas-pais_0_1538246388.html'
p7
aS'https://www.clarin.com/sociedad/condenaron-abusar-hijastra-sigue-libre_0_1538246372.html'
p8
a.