(lp0
S'https://www.clarin.com/politica/Desmentida-Banco-Provincia-denuncia-millonarios_0_1624637637.html'
p1
aS'https://www.clarin.com/politica/Usina-Rio-Turbio-nuevamente-trabajadores_0_1624637645.html'
p2
aS'https://www.clarin.com/sociedad/Piloto-American-Airlines-pasajero-borracho_0_1624637622.html'
p3
aS'https://www.clarin.com/sociedad/Desesperada-busqueda-Brasil-desaparecidas-Corrientes_0_1624637640.html'
p4
aS'https://www.clarin.com/ieco/economia/Aumentan-capitales-minimos-aseguradoras_0_1624637648.html'
p5
a.