(lp0
Vhttps://www.clarin.com/sociedad/Misiones-volvera-cargo-intendente-atropello_0_1630637090.html
p1
aVhttps://www.clarin.com/politica/Massa-Alfonsin-repudiaron-Macri-Vidal_0_1630637087.html
p2
aVhttps://www.clarin.com/politica/Massa-Alfonsin-repudiaron-Macri-Vidal_0_1630637087.html
p3
a.