(lp0
S'https://www.clarin.com/sociedad/prohibicion-realizara-Kraftwerk-Luna-Park_0_1685231615.html'
p1
aS'https://www.clarin.com/sociedad/pudo-rescatar-mujeres-explotadas-sexualmente_0_1685231644.html'
p2
aS'https://www.clarin.com/opinion/Populismo-made-in-USA_0_1685231614.html'
p3
aS'https://www.clarin.com/ieco/Inversores-rearman-carteras-dolares-pesos_0_1685231619.html'
p4
aS'https://www.clarin.com/politica/Agredieron-periodista-Nicolas-Winazki_0_1685231636.html'
p5
aS'https://www.clarin.com/sociedad/Quieren-desalojar-discapacitados-Villa-Madero_0_1685231628.html'
p6
aS'https://www.clarin.com/politica/Cuidado-Trump-llevamos-dentro_0_1685231638.html'
p7
aS'https://www.clarin.com/sociedad/Cataratas-record-turistas-extranjeros_0_1685231642.html'
p8
a.