(lp0
S'https://www.clarin.com/ieco/economia/construccion-cayo-perdieron-empleos-abril_0_1604839640.html'
p1
aS'https://www.clarin.com/ieco/economia/construccion-cayo-perdieron-empleos-abril_0_1604839640.html'
p2
aS'https://www.clarin.com/politica/Macri-acelerar-Mercosur-Alianza-Pacifico_0_1604839644.html'
p3
aS'https://www.clarin.com/ieco/economia/Gobierno-lanza-prestamos-Pymes-tasas_0_1604839642.html'
p4
aS'https://www.clarin.com/ieco/economia/Gobierno-lanza-prestamos-Pymes-tasas_0_1604839642.html'
p5
aS'https://www.clarin.com/ieco/Acuerdan-construccion-centrales-nucleares-US_0_1604839626.html'
p6
aS'https://www.clarin.com/ieco/Acuerdan-construccion-centrales-nucleares-US_0_1604839626.html'
p7
a.