(lp0
Vhttps://www.clarin.com/sociedad/Crean-pulsera-castiga-gastos-tarjeta_0_1580242017.html
p1
aVhttps://www.clarin.com/sociedad/Crean-pulsera-castiga-gastos-tarjeta_0_1580242017.html
p2
aVhttps://www.clarin.com/politica/peronismo-Macri-quedaremos-perjudique-trabajadores_0_1580242019.html
p3
aVhttps://www.clarin.com/politica/peronismo-Macri-quedaremos-perjudique-trabajadores_0_1580242019.html
p4
aVhttps://www.clarin.com/sociedad/Paro-Tierra-Fuego-vicedirectores-secretarios_0_1580242013.html
p5
aVhttps://www.clarin.com/sociedad/Paro-Tierra-Fuego-vicedirectores-secretarios_0_1580242013.html
p6
aVhttps://www.clarin.com/sociedad/Tierra-Fuego-conflicto-siguen-clases_0_1580242009.html
p7
aVhttps://www.clarin.com/politica/Allanan-Gallegos-Mausoleo-Nestor-Kirchner_0_1580242008.html
p8
aVhttps://www.clarin.com/politica/Allanan-Gallegos-Mausoleo-Nestor-Kirchner_0_1580242008.html
p9
aVhttps://www.clarin.com/sociedad/Costantini-records-compro-cuadro-latinoamericano_0_1580242007.html
p10
aVhttps://www.clarin.com/sociedad/Costantini-records-compro-cuadro-latinoamericano_0_1580242007.html
p11
aVhttps://www.clarin.com/sociedad/reconocido-artista-denuncia-propia-hija_0_1580242003.html
p12
aVhttps://www.clarin.com/sociedad/reconocido-artista-denuncia-propia-hija_0_1580242003.html
p13
aVhttps://www.clarin.com/politica/Macri-anuncia-veto-total-antidespidos_0_1580242001.html
p14
aVhttps://www.clarin.com/politica/Macri-anuncia-veto-total-antidespidos_0_1580242001.html
p15
a.