(lp0
S'https://www.clarin.com/politica/Macri-llega-madrugada-Colombia_0_1595240648.html'
p1
aS'https://www.clarin.com/politica/Macri-llega-madrugada-Colombia_0_1595240648.html'
p2
aS'https://www.clarin.com/sociedad/festejar-anos-Rural-feria-XL_0_1595240649.html'
p3
aS'https://www.clarin.com/sociedad/festejar-anos-Rural-feria-XL_0_1595240649.html'
p4
aS'https://www.clarin.com/politica/Macri-detencion-Lopez-episodio-bochornoso_0_1595240639.html'
p5
aS'https://www.clarin.com/politica/Macri-detencion-Lopez-episodio-bochornoso_0_1595240639.html'
p6
aS'https://www.clarin.com/politica/ministro-Macri-lapidario-Aca-curro_0_1595240638.html'
p7
aS'https://www.clarin.com/politica/ministro-Macri-lapidario-Aca-curro_0_1595240638.html'
p8
aS'https://www.clarin.com/politica/Trasladan-Jose-Lopez-Departamental-Moreno_0_1595240632.html'
p9
aS'https://www.clarin.com/politica/Trasladan-Jose-Lopez-Departamental-Moreno_0_1595240632.html'
p10
aS'https://www.clarin.com/politica/Apartan-Lopez-PJ-Tucuman_0_1595240631.html'
p11
aS'https://www.clarin.com/politica/Apartan-Lopez-PJ-Tucuman_0_1595240631.html'
p12
a.