(lp0
Vhttps://www.clarin.com/sociedad/Ratatouille-ratas-invadio-cocina-restaurante_0_1579042144.html
p1
aVhttps://www.clarin.com/sociedad/Ratatouille-ratas-invadio-cocina-restaurante_0_1579042144.html
p2
aVhttps://www.clarin.com/politica/Piden-procesar-Vido-presuntas-repuestos_0_1579042152.html
p3
aVhttps://www.clarin.com/politica/Piden-procesar-Vido-presuntas-repuestos_0_1579042152.html
p4
aVhttps://www.clarin.com/sociedad/nene-adulto-selfies-minutos_0_1579042149.html
p5
aVhttps://www.clarin.com/sociedad/nene-adulto-selfies-minutos_0_1579042149.html
p6
aVhttps://www.clarin.com/ieco/economia/Gobierno-admitio-colapso-telefonia-celular_0_1579042143.html
p7
aVhttps://www.clarin.com/ieco/economia/Gobierno-admitio-colapso-telefonia-celular_0_1579042143.html
p8
a.