(lp0
S'https://www.clarin.com/ieco/Empresarios-avalan-pacto-social-reactivacion_0_1642035928.html'
p1
aS'https://www.clarin.com/ieco/derrumbo-actividad-construccion-julio_0_1642035916.html'
p2
aS'https://www.clarin.com/politica/subsidios-energia-llegaran-millones_0_1642035968.html'
p3
aS'https://www.clarin.com/ieco/Puerto-Buenos-Ares-vinculado-Moyano_0_1642035925.html'
p4
aS'https://www.clarin.com/ieco/economia/Samsung-fabricara-heladeras-Canuelas_0_1642035943.html'
p5
aS'https://www.clarin.com/ieco/economia/Nacion-presta-anual-pymes_0_1642035994.html'
p6
aS'https://www.clarin.com/sociedad/Premio-Clarin-cobertura-digital-Nisman_0_1642635731.html'
p7
aS'https://www.clarin.com/ieco/economia/Interna-bancos-denuncia-oficial-Visa_0_1642036007.html'
p8
a.