(lp0
Vhttps://www.clarin.com/politica/niegan-excarcelacion-Juan-Suris-Farina_0_1648035243.html
p1
aVhttps://www.clarin.com/politica/niegan-excarcelacion-Juan-Suris-Farina_0_1648035243.html
p2
aVhttps://www.clarin.com/politica/Pidieron-Angelici-indagatoria-presunto-influencia_0_1648035242.html
p3
aVhttps://www.clarin.com/politica/Pidieron-Angelici-indagatoria-presunto-influencia_0_1648035242.html
p4
aVhttps://www.clarin.com/politica/pedido-inhibicion-CFK-Gobierno-perseguirla_0_1648035234.html
p5
aVhttps://www.clarin.com/politica/pedido-inhibicion-CFK-Gobierno-perseguirla_0_1648035234.html
p6
aVhttps://www.clarin.com/politica/Importaciones-nuevo-cruce-massismo-Gobierno_0_1648035232.html
p7
aVhttps://www.clarin.com/politica/Importaciones-nuevo-cruce-massismo-Gobierno_0_1648035232.html
p8
a.