(lp0
S'https://www.clarin.com/politica/Alejandro-Rozitchner-gobierno-conservador-transgresor_0_1627037452.html'
p1
aS'https://www.clarin.com/politica/Alejandro-Rozitchner-gobierno-conservador-transgresor_0_1627037452.html'
p2
aS'https://www.clarin.com/politica/Frigerio-valentia-Vidal-reclamar-millones_0_1627037420.html'
p3
aS'https://www.clarin.com/politica/Frigerio-valentia-Vidal-reclamar-millones_0_1627037420.html'
p4
aS'https://www.clarin.com/sociedad/Pokemon-salio-calle-historica-lucha_0_1627037449.html'
p5
aS'https://www.clarin.com/sociedad/Pokemon-salio-calle-historica-lucha_0_1627037449.html'
p6
aS'https://www.clarin.com/sociedad/fiesta-privada-termino-detenidos_0_1627037442.html'
p7
aS'https://www.clarin.com/sociedad/millennials-apuro-afirman-sexo-cree_0_1627037441.html'
p8
aS'https://www.clarin.com/sociedad/millennials-apuro-afirman-sexo-cree_0_1627037441.html'
p9
aS'https://www.clarin.com/sociedad/Gauchos-mar-surfistas-defienden-naturaleza_0_1627037439.html'
p10
aS'https://www.clarin.com/sociedad/Gauchos-mar-surfistas-defienden-naturaleza_0_1627037439.html'
p11
aS'https://www.clarin.com/sociedad/originalisima-sociedad-alla_0_1627037431.html'
p12
a.