(lp0
S'https://www.clarin.com/politica/Nisman-piden-declare-custodia-Chavez_0_1659434109.html'
p1
aS'https://www.clarin.com/politica/Nisman-piden-declare-custodia-Chavez_0_1659434109.html'
p2
aS'https://www.clarin.com/sociedad/blogger-revelo-claves-WIFI-aeropuertos_0_1659434090.html'
p3
aS'https://www.clarin.com/sociedad/blogger-revelo-claves-WIFI-aeropuertos_0_1659434090.html'
p4
aS'https://www.clarin.com/sociedad/inmensa-obra-decora-Torre-Eiffel_0_1659434105.html'
p5
aS'https://www.clarin.com/sociedad/inmensa-obra-decora-Torre-Eiffel_0_1659434105.html'
p6
aS'https://www.clarin.com/politica/Gobierno-CGT-seguiran-negociando-suspenso_0_1659434104.html'
p7
aS'https://www.clarin.com/politica/Gobierno-CGT-seguiran-negociando-suspenso_0_1659434104.html'
p8
aS'https://www.clarin.com/politica/Echegaray-Ercolini-Cristobal-Lopez-AFIP_0_1659434102.html'
p9
aS'https://www.clarin.com/politica/Echegaray-Ercolini-Cristobal-Lopez-AFIP_0_1659434102.html'
p10
aS'https://www.clarin.com/politica/Cristobal-Lopez-espejo-Lazaro-Baez_0_1658834285.html'
p11
aS'https://www.clarin.com/politica/Cristobal-Lopez-espejo-Lazaro-Baez_0_1658834285.html'
p12
a.