(lp0
S'https://www.clarin.com/sociedad/Feroz-pelea-chicas-salida-escuela_0_1655234557.html'
p1
aS'https://www.clarin.com/sociedad/Feroz-pelea-chicas-salida-escuela_0_1655234557.html'
p2
aS'https://www.clarin.com/politica/Cristina-Kirchner-Sergio-Massa-acercamiento_0_1655234558.html'
p3
aS'https://www.clarin.com/politica/Cristina-Kirchner-Sergio-Massa-acercamiento_0_1655234558.html'
p4
aS'https://www.clarin.com/sociedad/hombre-piernas-brazos-charlas-motivacionales_0_1655234555.html'
p5
aS'https://www.clarin.com/sociedad/hombre-piernas-brazos-charlas-motivacionales_0_1655234555.html'
p6
aS'https://www.clarin.com/politica/Corte-apuesta-superavit-defender-autonomia_0_1655234552.html'
p7
aS'https://www.clarin.com/politica/Corte-apuesta-superavit-defender-autonomia_0_1655234552.html'
p8
a.