(lp0
Vhttps://www.clarin.com/ieco/economia/juicios-Gobierno-impulsa-cambiar-ART_0_1594640685.html
p1
aVhttps://www.clarin.com/ieco/economia/juicios-Gobierno-impulsa-cambiar-ART_0_1594640685.html
p2
aVhttps://www.clarin.com/politica/Carrio-Jorge-Macri-presuntos-vinculos_0_1594640682.html
p3
aVhttps://www.clarin.com/politica/Carrio-Jorge-Macri-presuntos-vinculos_0_1594640682.html
p4
aVhttps://www.clarin.com/ieco/economia/millones-pasajeros-tarifa-social-SUBE_0_1594640665.html
p5
aVhttps://www.clarin.com/ieco/economia/millones-pasajeros-tarifa-social-SUBE_0_1594640665.html
p6
a.