(lp0
Vhttps://www.clarin.com/sociedad/Aerolineas-aumenta-pasajes-cabotaje_0_1516648584.html
p1
aVhttps://www.clarin.com/sociedad/Aerolineas-aumenta-pasajes-cabotaje_0_1516648584.html
p2
aVhttps://www.clarin.com/sociedad/Rescatan-operativo-atacada-perros-municipal_0_1516648581.html
p3
aVhttps://www.clarin.com/sociedad/Rescatan-operativo-atacada-perros-municipal_0_1516648581.html
p4
aVhttps://www.clarin.com/sociedad/Presentaron-pais-camion-facilita-sobrepasos_0_1516648567.html
p5
aVhttps://www.clarin.com/sociedad/Presentaron-pais-camion-facilita-sobrepasos_0_1516648567.html
p6
aVhttps://www.clarin.com/sociedad/ultramachistas-cancelaron-reunion-mundial_0_1516648577.html
p7
aVhttps://www.clarin.com/sociedad/ultramachistas-cancelaron-reunion-mundial_0_1516648577.html
p8
aVhttps://www.clarin.com/sociedad/Video-cuidar-abuela-Alzheimer-golpeaba_0_1516648490.html
p9
aVhttps://www.clarin.com/sociedad/Video-cuidar-abuela-Alzheimer-golpeaba_0_1516648490.html
p10
aVhttps://www.clarin.com/ieco/empresas-y-negocios/argentina-Sinteplast-compro-pinturas-Brasil_0_1516648569.html
p11
aVhttps://www.clarin.com/ieco/empresas-y-negocios/argentina-Sinteplast-compro-pinturas-Brasil_0_1516648569.html
p12
aVhttps://www.clarin.com/ieco/economia/Regazzoni-denuncio-PAMI-remedios-afiliados_0_1516648564.html
p13
aVhttps://www.clarin.com/politica/Campora-Facebook-Bossio-llenaron-amenazas_0_1516648561.html
p14
aVhttps://www.clarin.com/politica/Campora-Facebook-Bossio-llenaron-amenazas_0_1516648561.html
p15
a.