(lp0
S'https://www.clarin.com/sociedad/Mira-tiempo-real-hundio-Titanic_0_1562843807.html'
p1
aS'https://www.clarin.com/sociedad/Mira-tiempo-real-hundio-Titanic_0_1562843807.html'
p2
aS'https://www.clarin.com/sociedad/Costa-Salguero-Marley-Hernan-Caire_0_1562843808.html'
p3
aS'https://www.clarin.com/sociedad/Costa-Salguero-Marley-Hernan-Caire_0_1562843808.html'
p4
aS'https://www.clarin.com/sociedad/funcionaria-remataron-duenos-viviendo-living_0_1562843806.html'
p5
aS'https://www.clarin.com/sociedad/funcionaria-remataron-duenos-viviendo-living_0_1562843806.html'
p6
aS'https://www.clarin.com/politica/Bonadio-recusacion-Cristina-solida_0_1562843805.html'
p7
aS'https://www.clarin.com/politica/Bonadio-recusacion-Cristina-solida_0_1562843805.html'
p8
aS'https://www.clarin.com/sociedad/youtubers-argentinos-famosos-reunidos-festival_0_1562843803.html'
p9
aS'https://www.clarin.com/sociedad/youtubers-argentinos-famosos-reunidos-festival_0_1562843803.html'
p10
aS'https://www.clarin.com/sociedad/detenidos-acusados-vender-Costa-Salguero_0_1562843801.html'
p11
aS'https://www.clarin.com/sociedad/detenidos-acusados-vender-Costa-Salguero_0_1562843801.html'
p12
aS'https://www.clarin.com/politica/ordeno-inmediata-revision-medica-Chueco_0_1562843798.html'
p13
aS'https://www.clarin.com/politica/ordeno-inmediata-revision-medica-Chueco_0_1562843798.html'
p14
a.