(lp0
Vhttps://www.clarin.com/ieco/Aseguran-hogares-paga-solo-luz_0_1649235089.html
p1
aVhttps://www.clarin.com/ieco/Aseguran-hogares-paga-solo-luz_0_1649235089.html
p2
aVhttps://www.clarin.com/sociedad/puntos-negros-ilusion-optica-rompe_0_1649235086.html
p3
aVhttps://www.clarin.com/sociedad/puntos-negros-ilusion-optica-rompe_0_1649235086.html
p4
aVhttps://www.clarin.com/politica/Confirman-Papa-recibira-Macri-Vaticano_0_1649235080.html
p5
aVhttps://www.clarin.com/politica/Confirman-Papa-recibira-Macri-Vaticano_0_1649235080.html
p6
aVhttps://www.clarin.com/sociedad/Recuperan-anillo-casamiento-hace-anos_0_1649235077.html
p7
aVhttps://www.clarin.com/sociedad/Recuperan-anillo-casamiento-hace-anos_0_1649235077.html
p8
a.