(lp0
S'https://www.clarin.com/sociedad/Intimidacion-publica-demanda-oficial-Cordera_0_1630037189.html'
p1
aS'https://www.clarin.com/sociedad/Intimidacion-publica-demanda-oficial-Cordera_0_1630037189.html'
p2
aS'https://www.clarin.com/politica/Aranguren-entrena-sesion-Diputados_0_1630037133.html'
p3
aS'https://www.clarin.com/politica/Aranguren-entrena-sesion-Diputados_0_1630037133.html'
p4
aS'https://www.clarin.com/politica/Campagnoli-Pense-corrupcion-menemismo-sorprendimos_0_1630037213.html'
p5
aS'https://www.clarin.com/politica/Campagnoli-Pense-corrupcion-menemismo-sorprendimos_0_1630037213.html'
p6
aS'https://www.clarin.com/sociedad/Turner-avanza-Telefe-choca-futbol_0_1630037212.html'
p7
aS'https://www.clarin.com/ieco/economia/Gobierno-apuesta-blanqueo-publica-empleo_0_1630037211.html'
p8
aS'https://www.clarin.com/ieco/economia/Gobierno-apuesta-blanqueo-publica-empleo_0_1630037211.html'
p9
aS'https://www.clarin.com/ieco/Aranguren-frente-Vido-palpitan-oficialismo_0_1630037210.html'
p10
aS'https://www.clarin.com/ieco/economia/sumaron-nuevos-pobres-media-urbana_0_1630037209.html'
p11
aS'https://www.clarin.com/ieco/economia/sumaron-nuevos-pobres-media-urbana_0_1630037209.html'
p12
aS'https://www.clarin.com/ieco/economia/poblacion-activa-problemas-empleo_0_1630037206.html'
p13
aS'https://www.clarin.com/ieco/economia/poblacion-activa-problemas-empleo_0_1630037206.html'
p14
a.