(lp0
S'https://www.clarin.com/sociedad/Frances-argentino-hace-vino-mundos_0_1542446067.html'
p1
aS'https://www.clarin.com/politica/Llego-Obama-reaparecio-Obaca-Ezeiza_0_1545445617.html'
p2
aS'https://www.clarin.com/ieco/economia/Prat-Gay-crecimiento-economico-inflacion_0_1545445607.html'
p3
aS'https://www.clarin.com/politica/Obama-camino-reunirse-Macri_0_1545445588.html'
p4
aS'https://www.clarin.com/ieco/economia/Mejoran-calificacion-sector-asegurador_0_1545445621.html'
p5
aS'https://www.clarin.com/politica/importa-saber-mato-Nisman_0_1545445624.html'
p6
aS'https://www.clarin.com/sociedad/filmaron-abusando-subieron-video-Web_0_1545445620.html'
p7
aS'https://www.clarin.com/politica/hombre-Radio-Nacional-diciendo-bomba_0_1545445608.html'
p8
aS'https://www.clarin.com/politica/Vaticano-confirmo-conocer-archivos-dictadura_0_1545445605.html'
p9
a.