(lp0
S'https://www.clarin.com/politica/Macri-Colombia-promesas-inversiones-Lopez_0_1596440446.html'
p1
aS'https://www.clarin.com/politica/Macri-Colombia-promesas-inversiones-Lopez_0_1596440446.html'
p2
aS'https://www.clarin.com/sociedad/Volvio-enfermera-hospital-salvo-bebe_0_1596440435.html'
p3
aS'https://www.clarin.com/sociedad/Volvio-enfermera-hospital-salvo-bebe_0_1596440435.html'
p4
aS'https://www.clarin.com/politica/Chueco-seguira-detenido-fugarse-Paraguay_0_1596440438.html'
p5
aS'https://www.clarin.com/politica/Vido-Lopez-Barragan-programa-obras_0_1596440437.html'
p6
aS'https://www.clarin.com/politica/Vido-Lopez-Barragan-programa-obras_0_1596440437.html'
p7
aS'https://www.clarin.com/sociedad/disenador-mato-mujer-entrego-Policia_0_1596440432.html'
p8
aS'https://www.clarin.com/sociedad/disenador-mato-mujer-entrego-Policia_0_1596440432.html'
p9
aS'https://www.clarin.com/politica/muerte-Nisman-vuelve-justicia-ordinaria_0_1596440434.html'
p10
aS'https://www.clarin.com/politica/muerte-Nisman-vuelve-justicia-ordinaria_0_1596440434.html'
p11
a.