(lp0
S'https://www.clarin.com/politica/Palito-Ortega-Justicia-avanzando-asombro_0_1574242777.html'
p1
aS'https://www.clarin.com/politica/Palito-Ortega-Justicia-avanzando-asombro_0_1574242777.html'
p2
aS'https://www.clarin.com/sociedad/Conmocion-Mar-Plata-supermercado-mayorista_0_1574242775.html'
p3
aS'https://www.clarin.com/politica/Vidal-Florencio-Randazzo-urgencias-bonaerenses_0_1574242719.html'
p4
aS'https://www.clarin.com/politica/Vidal-Florencio-Randazzo-urgencias-bonaerenses_0_1574242719.html'
p5
aS'https://www.clarin.com/politica/Asumio-cupula-PJ-lider-claro_0_1574242766.html'
p6
aS'https://www.clarin.com/politica/Asumio-cupula-PJ-lider-claro_0_1574242766.html'
p7
aS'https://www.clarin.com/politica/diferencias-oposicion-demora-ley-antidespidos_0_1574242770.html'
p8
aS'https://www.clarin.com/politica/diferencias-oposicion-demora-ley-antidespidos_0_1574242770.html'
p9
aS'https://www.clarin.com/sociedad/sentido-comun-alla-normas_0_1574242767.html'
p10
aS'https://www.clarin.com/sociedad/pueblo-cura-prohibio-calzas-misa_0_1574242765.html'
p11
aS'https://www.clarin.com/sociedad/pueblo-cura-prohibio-calzas-misa_0_1574242765.html'
p12
aS'https://www.clarin.com/sociedad/pareja-mellizos-alquiler-vientre-anotar_0_1574242762.html'
p13
aS'https://www.clarin.com/sociedad/pareja-mellizos-alquiler-vientre-anotar_0_1574242762.html'
p14
aS'https://www.clarin.com/politica/gobierno-presento-plan-modernizar-Justicia_0_1574242761.html'
p15
aS'https://www.clarin.com/politica/gobierno-presento-plan-modernizar-Justicia_0_1574242761.html'
p16
a.