(lp0
Vhttps://www.clarin.com/politica/Derecho-Gobierno-niegan-libertad-trabajadores_0_1591641026.html
p1
aVhttps://www.clarin.com/politica/Fondo-Garantia-pagara-aumentos-retroactivos_0_1591641045.html
p2
aVhttps://www.clarin.com/politica/Fondo-Garantia-pagara-aumentos-retroactivos_0_1591641045.html
p3
aVhttps://www.clarin.com/politica/Dolar-blanqueo-dolarizar-pesificar_0_1592240765.html
p4
aVhttps://www.clarin.com/politica/codicia-estupido_0_1592240764.html
p5
aVhttps://www.clarin.com/sociedad/Puna-llegaron-secundaria-gracias-WhatsApp_0_1591641009.html
p6
aVhttps://www.clarin.com/sociedad/Puna-llegaron-secundaria-gracias-WhatsApp_0_1591641009.html
p7
aVhttps://www.clarin.com/politica/Papa-Casanello-Servini-Vayan-causas_0_1591641031.html
p8
aVhttps://www.clarin.com/politica/Papa-Casanello-Servini-Vayan-causas_0_1591641031.html
p9
aVhttps://www.clarin.com/opinion/Tratamiento-quimico-violadores_0_1591640930.html
p10
aVhttps://www.clarin.com/opinion/peronismo-llego-poder-hace-anos_0_1591640929.html
p11
aVhttps://www.clarin.com/opinion/Piketty-gustaria-blanqueo_0_1591640981.html
p12
aVhttps://www.clarin.com/opinion/Piketty-gustaria-blanqueo_0_1591640981.html
p13
aVhttps://www.clarin.com/sociedad/feriado-junio-comenzara-regir-ano_0_1591641041.html
p14
aVhttps://www.clarin.com/sociedad/feriado-junio-comenzara-regir-ano_0_1591641041.html
p15
aVhttps://www.clarin.com/politica/Senado-aprobo-reintegro-IVA-jubilados_0_1591641030.html
p16
aVhttps://www.clarin.com/politica/Senado-aprobo-reintegro-IVA-jubilados_0_1591641030.html
p17
a.