(lp0
Vhttps://www.clarin.com/sociedad/banda-perros-callejeros-destrozaron-estacionado_0_1672032891.html
p1
aVhttps://www.clarin.com/sociedad/banda-perros-callejeros-destrozaron-estacionado_0_1672032891.html
p2
aVhttps://www.clarin.com/opinion/Pequenos-simples-gestos-vencer-maltrato_0_1672032890.html
p3
aVhttps://www.clarin.com/politica/Milani-borde-indagatoria-Tucuman-Ledo_0_1672032889.html
p4
aVhttps://www.clarin.com/politica/Milani-borde-indagatoria-Tucuman-Ledo_0_1672032889.html
p5
aVhttps://www.clarin.com/sociedad/cadena-restaurantes-podra-llamar-Mafia_0_1672032886.html
p6
aVhttps://www.clarin.com/sociedad/cadena-restaurantes-podra-llamar-Mafia_0_1672032886.html
p7
a.