(lp0
S'https://www.clarin.com/politica/Martin-Baez-visito-carcel-primera_0_1598840150.html'
p1
aS'https://www.clarin.com/politica/Martin-Baez-visito-carcel-primera_0_1598840150.html'
p2
aS'https://www.clarin.com/sociedad/Trazan-genetico-entender-migranas-tratamientos_0_1598840263.html'
p3
aS'https://www.clarin.com/sociedad/Trazan-genetico-entender-migranas-tratamientos_0_1598840263.html'
p4
aS'https://www.clarin.com/sociedad/Objetos-nazismo-exhibicion-podria-derivar_0_1598840260.html'
p5
aS'https://www.clarin.com/sociedad/Polemica-subasta-objetos-nazismo-argentino_0_1598840257.html'
p6
aS'https://www.clarin.com/sociedad/Polemica-subasta-objetos-nazismo-argentino_0_1598840257.html'
p7
aS'https://www.clarin.com/sociedad/Muchas-causas-imaginaban_0_1598840251.html'
p8
aS'https://www.clarin.com/politica/medio-polemica-Anibal-Fernandez-Londres_0_1598840245.html'
p9
aS'https://www.clarin.com/politica/cumplen-anos-primeros-piquetes_0_1598840242.html'
p10
aS'https://www.clarin.com/politica/cumplen-anos-primeros-piquetes_0_1598840242.html'
p11
a.