(lp0
Vhttps://www.clarin.com/politica/Lousteau-reunio-Macri-encabeza-campana_0_1666633488.html
p1
aVhttps://www.clarin.com/politica/Lousteau-reunio-Macri-encabeza-campana_0_1666633488.html
p2
aVhttps://www.clarin.com/sociedad/Muerte-subita-buscan-evitar-deporte_0_1666633494.html
p3
aVhttps://www.clarin.com/sociedad/chorivip-declara-guerra-moda-hamburguesas_0_1666633475.html
p4
aVhttps://www.clarin.com/sociedad/chorivip-declara-guerra-moda-hamburguesas_0_1666633475.html
p5
aVhttps://www.clarin.com/sociedad/Dejan-fabricar-celular-prende-fuego_0_1666633493.html
p6
aVhttps://www.clarin.com/sociedad/Dejan-fabricar-celular-prende-fuego_0_1666633493.html
p7
aVhttps://www.clarin.com/ieco/nivel-actividad-creciendo-rapido-querriamos_0_1666633487.html
p8
aVhttps://www.clarin.com/ieco/Prat-Gay-economia-dejo-crecer_0_1666633486.html
p9
aVhttps://www.clarin.com/politica/Macri-Carlos-Tevez-Casa-Rosada_0_1666633483.html
p10
aVhttps://www.clarin.com/politica/Macri-Carlos-Tevez-Casa-Rosada_0_1666633483.html
p11
a.