(lp0
Vhttps://www.clarin.com/sociedad/padres-Nacional-Buenos-Aires-reclaman_0_1569443148.html
p1
aVhttps://www.clarin.com/sociedad/padres-Nacional-Buenos-Aires-reclaman_0_1569443148.html
p2
aVhttps://www.clarin.com/sociedad/avion-volvio-despegar-vuelta-mundo_0_1569443146.html
p3
aVhttps://www.clarin.com/sociedad/avion-volvio-despegar-vuelta-mundo_0_1569443146.html
p4
aVhttps://www.clarin.com/politica/Piden-informacion-Panama-Bahamas-Macri_0_1569443162.html
p5
aVhttps://www.clarin.com/politica/Piden-informacion-Panama-Bahamas-Macri_0_1569443162.html
p6
aVhttps://www.clarin.com/sociedad/Avanza-operacion-Hospital-Posadas-separarlas_0_1569443159.html
p7
aVhttps://www.clarin.com/sociedad/Avanza-operacion-Hospital-Posadas-separarlas_0_1569443159.html
p8
aVhttps://www.clarin.com/politica/Massa-apoyara-Diputados-proyecto-despidos_0_1569443156.html
p9
aVhttps://www.clarin.com/politica/Massa-apoyara-Diputados-proyecto-despidos_0_1569443156.html
p10
aVhttps://www.clarin.com/politica/ex-ESMA-recibio-amenazas-bomba_0_1569443154.html
p11
aVhttps://www.clarin.com/politica/ex-ESMA-recibio-amenazas-bomba_0_1569443154.html
p12
aVhttps://www.clarin.com/sociedad/Murio-incendio-detuvieron-encerrarla-candado_0_1569443150.html
p13
a.