(lp0
Vhttps://www.clarin.com/ieco/economia/Petrobras-acordo-Pampa-filial-local_0_1532847102.html
p1
aVhttps://www.clarin.com/ieco/economia/Petrobras-acordo-Pampa-filial-local_0_1532847102.html
p2
aVhttps://www.clarin.com/opinion/Freud-tango-dulce-leche_0_1532847086.html
p3
aVhttps://www.clarin.com/sociedad/venta-droga-GBA-alcohol-norte_0_1532847159.html
p4
aVhttps://www.clarin.com/politica/Stiuso-Intratables-cruzo-Moreno-Ocampo_0_1532847212.html
p5
aVhttps://www.clarin.com/sociedad/hermana-victima-apoyo-intendente-inocente_0_1532847169.html
p6
a.