(lp0
S'https://www.clarin.com/sociedad/mision-Rosetta-cifras-entender-proeza_0_1660034016.html'
p1
aS'https://www.clarin.com/sociedad/mision-Rosetta-cifras-entender-proeza_0_1660034016.html'
p2
aS'https://www.clarin.com/ieco/Kicillof-INDEC-sobrestima-pobreza-puntos_0_1660034015.html'
p3
aS'https://www.clarin.com/ieco/Kicillof-INDEC-sobrestima-pobreza-puntos_0_1660034015.html'
p4
aS'https://www.clarin.com/ieco/derrumbaron-Deutsche-Bank-Bolsas-Europa_0_1660034010.html'
p5
aS'https://www.clarin.com/ieco/derrumbaron-Deutsche-Bank-Bolsas-Europa_0_1660034010.html'
p6
aS'https://www.clarin.com/politica/Pablo-Moyano-diferencia-CGT-Gobierno_0_1660034009.html'
p7
aS'https://www.clarin.com/politica/Pablo-Moyano-diferencia-CGT-Gobierno_0_1660034009.html'
p8
aS'https://www.clarin.com/politica/Traiaca-estudio-declaro-optimista-CGT_0_1660034007.html'
p9
aS'https://www.clarin.com/politica/Traiaca-estudio-declaro-optimista-CGT_0_1660034007.html'
p10
a.