(lp0
S'https://www.clarin.com/sociedad/hallado-burundanga-cuerpos-muertas-Ecuador_0_1546645495.html'
p1
aS'https://www.clarin.com/politica/Macri-apabullado-asqueado-videos-Rosadita_0_1546645515.html'
p2
aS'https://www.clarin.com/ieco/economia/AFIP-posterga-nuevamente-Factura-Electronica_0_1546645499.html'
p3
aS'https://www.clarin.com/ieco/economia/argentina-podria-entrar-EEUU-Buryaile_0_1546645506.html'
p4
aS'https://www.clarin.com/politica/Echegaray-ahora-Baez-terminar-preso_0_1546645519.html'
p5
aS'https://www.clarin.com/politica/cebo-mate-Obama-Rosada_0_1546645513.html'
p6
a.