(lp0
Vhttps://www.clarin.com/sociedad/Destrozo-lujo-tapaba-salida-garaje_0_1584441594.html
p1
aVhttps://www.clarin.com/sociedad/Destrozo-lujo-tapaba-salida-garaje_0_1584441594.html
p2
aVhttps://www.clarin.com/politica/Macri-juicios-jubilados-blanqueo-capitales_0_1584441593.html
p3
aVhttps://www.clarin.com/politica/Macri-juicios-jubilados-blanqueo-capitales_0_1584441593.html
p4
aVhttps://www.clarin.com/politica/Joven-empresario-perfil-Leandro-Baez_0_1584441575.html
p5
aVhttps://www.clarin.com/politica/Joven-empresario-perfil-Leandro-Baez_0_1584441575.html
p6
aVhttps://www.clarin.com/ieco/economia/Molinos-Canuelas-negocio-harinero-Cargill_0_1584441590.html
p7
aVhttps://www.clarin.com/ieco/economia/Plan-Gobierno-regar-millon-hectareas_0_1584441589.html
p8
aVhttps://www.clarin.com/sociedad/beba-abandonada-dentro-bolsa-residuos_0_1584441574.html
p9
aVhttps://www.clarin.com/sociedad/beba-abandonada-dentro-bolsa-residuos_0_1584441574.html
p10
aVhttps://www.clarin.com/politica/Malcorra-crecimiento-Trump-preocupante_0_1584441581.html
p11
aVhttps://www.clarin.com/politica/Malcorra-crecimiento-Trump-preocupante_0_1584441581.html
p12
a.