(lp0
S'https://www.clarin.com/sociedad/alerta-meteorologico-zonas-afectadas_0_1553244896.html'
p1
aS'https://www.clarin.com/politica/Mira-hoy-trenes-compro-Jaime_0_1553244813.html'
p2
aS'https://www.clarin.com/ieco/dolar-baja-centavos-cae-abajo_0_1553244912.html'
p3
aS'https://www.clarin.com/politica/Gobierno-proyecto-limitar-Gils-Carbo_0_1553244903.html'
p4
aS'https://www.clarin.com/sociedad/Storani-hablar-quiere-prudente-investigacion_0_1553244909.html'
p5
aS'https://www.clarin.com/politica/pobreza-Iglesia-pide-sistema-incluya_0_1553244899.html'
p6
a.