(lp0
Vhttps://www.clarin.com/politica/Opositores-celebran-Corte-Suprema-tarifas_0_1634236624.html
p1
aVhttps://www.clarin.com/politica/Opositores-celebran-Corte-Suprema-tarifas_0_1634236624.html
p2
aVhttps://www.clarin.com/ieco/Banco-Central-Europeo-consecuencias-Brexit_0_1634236618.html
p3
aVhttps://www.clarin.com/ieco/Banco-Central-Europeo-consecuencias-Brexit_0_1634236618.html
p4
aVhttps://www.clarin.com/politica/Corte-anulo-aumento-usuarios-residenciales_0_1634236617.html
p5
aVhttps://www.clarin.com/politica/Corte-anulo-aumento-usuarios-residenciales_0_1634236617.html
p6
aVhttps://www.clarin.com/sociedad/delato-amante-escapo-desnudo-Bariloche_0_1634236615.html
p7
aVhttps://www.clarin.com/sociedad/delato-amante-escapo-desnudo-Bariloche_0_1634236615.html
p8
a.