(lp0
S'https://www.clarin.com/ieco/economia/Calo-salio-reclamar-aumentos-alrededor_0_1516048538.html'
p1
aS'https://www.clarin.com/ieco/economia/Calo-salio-reclamar-aumentos-alrededor_0_1516048538.html'
p2
aS'https://www.clarin.com/politica/Santiago-Moro-Brancatelli-relacion-Boudou_0_1516048531.html'
p3
aS'https://www.clarin.com/politica/Santiago-Moro-Brancatelli-relacion-Boudou_0_1516048531.html'
p4
aS'https://www.clarin.com/sociedad/video-viral-sindrome-down-recita-alfabeto-abecedario_0_1516048518.html'
p5
aS'https://www.clarin.com/sociedad/video-viral-sindrome-down-recita-alfabeto-abecedario_0_1516048518.html'
p6
aS'https://www.clarin.com/sociedad/Video-ciclista-registro-inexplicablemente-choca_0_1516048527.html'
p7
aS'https://www.clarin.com/sociedad/Video-ciclista-registro-inexplicablemente-choca_0_1516048527.html'
p8
aS'https://www.clarin.com/sociedad/Cordoba-confirmo-primer-importado-zika_0_1516048517.html'
p9
aS'https://www.clarin.com/sociedad/Cordoba-confirmo-primer-importado-zika_0_1516048517.html'
p10
aS'https://www.clarin.com/sociedad/intensos-trabajos-volvieron-Cristo-Redentor_0_1516048507.html'
p11
aS'https://www.clarin.com/sociedad/intensos-trabajos-volvieron-Cristo-Redentor_0_1516048507.html'
p12
aS'https://www.clarin.com/politica/compensar-desequilibrios-Gobierno-maximas-cabotaje_0_1516048505.html'
p13
aS'https://www.clarin.com/politica/compensar-desequilibrios-Gobierno-maximas-cabotaje_0_1516048505.html'
p14
a.