(lp0
Vhttps://www.clarin.com/politica/Wall-Street-Macri-Argentina-diferente_0_1653434802.html
p1
aVhttps://www.clarin.com/politica/Wall-Street-Macri-Argentina-diferente_0_1653434802.html
p2
aVhttps://www.clarin.com/politica/Gobierno-prepara-revision-integral-tarifas_0_1653434788.html
p3
aVhttps://www.clarin.com/politica/Gobierno-prepara-revision-integral-tarifas_0_1653434788.html
p4
aVhttps://www.clarin.com/ieco/Sturzenegger-batalla-inflacion-recien-comenzando_0_1653434679.html
p5
aVhttps://www.clarin.com/ieco/Sturzenegger-batalla-inflacion-recien-comenzando_0_1653434679.html
p6
aVhttps://www.clarin.com/ieco/Finalmente-YPF-Justicia-contrato-Chevron_0_1653434799.html
p7
aVhttps://www.clarin.com/ieco/Finalmente-YPF-Justicia-contrato-Chevron_0_1653434799.html
p8
aVhttps://www.clarin.com/ieco/debate-internacional-local-bajar-inflacion_0_1653434736.html
p9
aVhttps://www.clarin.com/ieco/debate-internacional-local-bajar-inflacion_0_1653434736.html
p10
aVhttps://www.clarin.com/ieco/Despues-FMI-volvio-supervisar-economia_0_1653434832.html
p11
aVhttps://www.clarin.com/ieco/Despues-FMI-volvio-supervisar-economia_0_1653434832.html
p12
aVhttps://www.clarin.com/politica/Malcorra-Congreso-acuerdo-Gran-Bretana_0_1653434772.html
p13
a.