(lp0
S'https://www.clarin.com/sociedad/Encontraron-Mailen-plaza-lucida-papa_0_1681031888.html'
p1
aS'https://www.clarin.com/politica/Bono-fin-cobraran-trabajadores-nacionales_0_1680432137.html'
p2
aS'https://www.clarin.com/sociedad/Aparecio-Diana-Quer-misterio-desaparicion_0_1681031901.html'
p3
aS'https://www.clarin.com/sociedad/muertos-tragico-choque-frontal-ruta_0_1681031893.html'
p4
a.