(lp0
S'https://www.clarin.com/politica/Massa-dirigentes-obligacion-propuestas-ciudadanos_0_1633636641.html'
p1
aS'https://www.clarin.com/politica/Massa-dirigentes-obligacion-propuestas-ciudadanos_0_1633636641.html'
p2
aS'https://www.clarin.com/sociedad/Hoy-conocera-veredicto-crimen-Montanita_0_1633636639.html'
p3
aS'https://www.clarin.com/sociedad/Hoy-conocera-veredicto-crimen-Montanita_0_1633636639.html'
p4
aS'https://www.clarin.com/politica/Hallan-granada-guerra-metros-tarifazo_0_1633636636.html'
p5
aS'https://www.clarin.com/politica/Hallan-granada-guerra-metros-tarifazo_0_1633636636.html'
p6
aS'https://www.clarin.com/politica/PJ-nuevo-tension-Scioli-Cristina_0_1633636634.html'
p7
aS'https://www.clarin.com/politica/PJ-nuevo-tension-Scioli-Cristina_0_1633636634.html'
p8
aS'https://www.clarin.com/sociedad/puma-evacuaron-turistas-Cataratas_0_1633036836.html'
p9
aS'https://www.clarin.com/sociedad/puma-evacuaron-turistas-Cataratas_0_1633036836.html'
p10
a.