(lp0
Vhttps://www.clarin.com/politica/macrismo-libro-pases-intendente-Azul_0_1604839697.html
p1
aVhttps://www.clarin.com/sociedad/Afirman-billete-cajeros-semana-proxima_0_1604839706.html
p2
aVhttps://www.clarin.com/sociedad/Afirman-billete-cajeros-semana-proxima_0_1604839706.html
p3
aVhttps://www.clarin.com/politica/Camara-Federal-investigar-Cristina-Vido_0_1604839704.html
p4
aVhttps://www.clarin.com/politica/Camara-Federal-investigar-Cristina-Vido_0_1604839704.html
p5
a.