(lp0
Vhttps://www.clarin.com/politica/salio-video-mojitas_0_1613238751.html
p1
aVhttps://www.clarin.com/politica/salio-video-mojitas_0_1613238751.html
p2
aVhttps://www.clarin.com/sociedad/abuela-arruino-llenar-crucigrama-museo_0_1613238744.html
p3
aVhttps://www.clarin.com/sociedad/abuela-arruino-llenar-crucigrama-museo_0_1613238744.html
p4
aVhttps://www.clarin.com/politica/Confirman-procesamiento-Baez-compra-bonos_0_1613238745.html
p5
aVhttps://www.clarin.com/politica/Confirman-procesamiento-Baez-compra-bonos_0_1613238745.html
p6
aVhttps://www.clarin.com/politica/Detuvieron-marido-Milagro-Sala_0_1613238743.html
p7
aVhttps://www.clarin.com/politica/Detuvieron-marido-Milagro-Sala_0_1613238743.html
p8
aVhttps://www.clarin.com/politica/Casanello-allanamientos-vinculados-Lazaro-Baez_0_1613238731.html
p9
aVhttps://www.clarin.com/politica/Casanello-allanamientos-vinculados-Lazaro-Baez_0_1613238731.html
p10
a.