(lp0
S'https://www.clarin.com/politica/Florencia-Kirchner-reclama-cobrar-Sauces_0_1662433785.html'
p1
aS'https://www.clarin.com/ieco/FMI-rebajo-pronosticos-PBI-caida_0_1662433776.html'
p2
aS'https://www.clarin.com/politica/Sorpresiva-Seguridad-Macri-Patricia-Bullrich_0_1662433780.html'
p3
aS'https://www.clarin.com/politica/Macri-apoya-lanzamiento-nacional-Cambiemos_0_1661833961.html'
p4
aS'https://www.clarin.com/ieco/Rattazzi-dolar-mejor-sectores_0_1662433788.html'
p5
aS'https://www.clarin.com/politica/Marcos-Pena-vidalistas-intendentes-Cristina_0_1662433777.html'
p6
aS'https://www.clarin.com/politica/kirchnerista-Margarita-Barrientos-pobre-Macri_0_1662433778.html'
p7
aS'https://www.clarin.com/politica/mesa-nacional-Cambiemos_0_1662433783.html'
p8
a.