(lp0
Vhttps://www.clarin.com/politica/Frustrado-intento-kirchnerista-custodia-Cristina_0_1607239467.html
p1
aVhttps://www.clarin.com/politica/Frustrado-intento-kirchnerista-custodia-Cristina_0_1607239467.html
p2
aVhttps://www.clarin.com/politica/Ponen-Tango-comprar-nuevo-avion_0_1607239466.html
p3
aVhttps://www.clarin.com/politica/embajador-Mamet-positivo-relacion-bilateral_0_1607239463.html
p4
aVhttps://www.clarin.com/politica/embajador-Mamet-positivo-relacion-bilateral_0_1607239463.html
p5
aVhttps://www.clarin.com/politica/colectividad-siria-pide-garantice-vivienda_0_1607239460.html
p6
aVhttps://www.clarin.com/politica/colectividad-siria-pide-garantice-vivienda_0_1607239460.html
p7
aVhttps://www.clarin.com/politica/trama-delicada-decision-humanitaria_0_1607239459.html
p8
aVhttps://www.clarin.com/politica/trama-delicada-decision-humanitaria_0_1607239459.html
p9
aVhttps://www.clarin.com/politica/Gobierno-confirmo-Europa-recibira-refugiados_0_1607239458.html
p10
aVhttps://www.clarin.com/politica/Gobierno-confirmo-Europa-recibira-refugiados_0_1607239458.html
p11
aVhttps://www.clarin.com/politica/Massa-Esteche-Solo-pretender-explote_0_1607239455.html
p12
aVhttps://www.clarin.com/politica/Massa-Esteche-Solo-pretender-explote_0_1607239455.html
p13
aVhttps://www.clarin.com/sociedad/aniversario-prenda-revolucionaria-bikini-cumple_0_1607239452.html
p14
aVhttps://www.clarin.com/sociedad/aniversario-prenda-revolucionaria-bikini-cumple_0_1607239452.html
p15
aVhttps://www.clarin.com/sociedad/ACV-hemorragico_0_1607239449.html
p16
aVhttps://www.clarin.com/ieco/recaudacion-impositiva-crecio-perdio-inflacion_0_1607239390.html
p17
a.