(lp0
S'https://www.clarin.com/ieco/tecnologia/Dell-resurge-EMC-apunta-informatica_0_1651635009.html'
p1
aS'https://www.clarin.com/ieco/tecnologia/argentinos-principales-victimas-phishing_0_1651634982.html'
p2
aS'https://www.clarin.com/politica/Cristina-Kirchner-Plan-Condor-Lula_0_1652834760.html'
p3
aS'https://www.clarin.com/ieco/campus-ieco/busca-estabilidad-estudiantes-eligen-empleador_0_1651634998.html'
p4
aS'https://www.clarin.com/ieco/Audiencia-Publica-gas-continua-manana_0_1652834709.html'
p5
a.