(lp0
S'https://www.clarin.com/politica/senador-massismo-denuncio-balearon-Lanus_0_1678632140.html'
p1
aS'https://www.clarin.com/sociedad/mega-ofertas-CyberMonday_0_1678632142.html'
p2
aS'https://www.clarin.com/politica/Pisos-efectivos-Comodoro-Py-Cristina_0_1678632134.html'
p3
a.