(lp0
S'https://www.clarin.com/sociedad/Quieren-regular-uso-heladera-social_0_1591040935.html'
p1
aS'https://www.clarin.com/sociedad/Quieren-regular-uso-heladera-social_0_1591040935.html'
p2
aS'https://www.clarin.com/ieco/economia/agosto-ANSES-aceptara-DNI-tramites_0_1591040939.html'
p3
aS'https://www.clarin.com/ieco/economia/agosto-ANSES-aceptara-DNI-tramites_0_1591040939.html'
p4
aS'https://www.clarin.com/politica/DGI-admite-Martin-Baez-Lazaro_0_1591040929.html'
p5
aS'https://www.clarin.com/politica/DGI-admite-Martin-Baez-Lazaro_0_1591040929.html'
p6
aS'https://www.clarin.com/ieco/economia/acceder-tarifa-social-luz-agua_0_1591040926.html'
p7
aS'https://www.clarin.com/ieco/economia/acceder-tarifa-social-luz-agua_0_1591040926.html'
p8
aS'https://www.clarin.com/politica/exorbitantes-Campora-manejaba-Fabricaciones-Militares_0_1591040923.html'
p9
aS'https://www.clarin.com/politica/exorbitantes-Campora-manejaba-Fabricaciones-Militares_0_1591040923.html'
p10
a.