(lp0
Vhttps://www.clarin.com/sociedad/nerviosa-empece-tocar-senti-bien_0_1579042291.html
p1
aVhttps://www.clarin.com/sociedad/nerviosa-empece-tocar-senti-bien_0_1579042291.html
p2
aVhttps://www.clarin.com/ieco/Queja-Macri-gobernadores-Patagonia_0_1579042292.html
p3
aVhttps://www.clarin.com/politica/Marcos-Pena-aprobarse-Macri-antidespidos_0_1579042288.html
p4
aVhttps://www.clarin.com/politica/Marcos-Pena-aprobarse-Macri-antidespidos_0_1579042288.html
p5
aVhttps://www.clarin.com/sociedad/sintesis-travesia-Colon_0_1579042289.html
p6
aVhttps://www.clarin.com/sociedad/Recuperan-carta-escribio-Colon-America_0_1579042282.html
p7
aVhttps://www.clarin.com/sociedad/Recuperan-carta-escribio-Colon-America_0_1579042282.html
p8
aVhttps://www.clarin.com/sociedad/Fin-ultimo-laboratorio-revelado-filmico_0_1579042286.html
p9
aVhttps://www.clarin.com/sociedad/Fin-ultimo-laboratorio-revelado-filmico_0_1579042286.html
p10
aVhttps://www.clarin.com/politica/Revelan-llamado-Nisman-emergencias-Vine_0_1579042273.html
p11
aVhttps://www.clarin.com/politica/Revelan-llamado-Nisman-emergencias-Vine_0_1579042273.html
p12
a.