(lp0
S'https://www.clarin.com/sociedad/Fallo-inedito-perro-condenaron-homicidio_0_1565243547.html'
p1
aS'https://www.clarin.com/politica/Carrio-Martin-Baez-detienen-hablar_0_1565243552.html'
p2
aS'https://www.clarin.com/ieco/Polemicas-Paul-Singer-Street-Journal_0_1565243548.html'
p3
aS'https://www.clarin.com/politica/Parrilli-jovenes-Frente-Ciudadano-Cristina_0_1565243554.html'
p4
aS'https://www.clarin.com/sociedad/Mundos-intimos-Volver-Argentina-Espana_0_1562843844.html'
p5
aS'https://www.clarin.com/sociedad/lluvia-rompio-records-pais_0_1565243550.html'
p6
a.