(lp0
Vhttps://www.clarin.com/politica/Ocana-Casanello-investigar-Cristina-Kirchner_0_1640236045.html
p1
aVhttps://www.clarin.com/politica/Ocana-Casanello-investigar-Cristina-Kirchner_0_1640236045.html
p2
aVhttps://www.clarin.com/sociedad/rugbier-pelea-lesion-volver-caminar_0_1640236042.html
p3
aVhttps://www.clarin.com/sociedad/rugbier-pelea-lesion-volver-caminar_0_1640236042.html
p4
aVhttps://www.clarin.com/sociedad/Cuerpo-humano-atletas-podrian-records_0_1639636171.html
p5
aVhttps://www.clarin.com/sociedad/Cuerpo-humano-atletas-podrian-records_0_1639636171.html
p6
aVhttps://www.clarin.com/sociedad/incendio-forestal-San-Luis-hectareas_0_1640235991.html
p7
aVhttps://www.clarin.com/sociedad/incendio-forestal-San-Luis-hectareas_0_1640235991.html
p8
aVhttps://www.clarin.com/ieco/tecnologia/Comienza-cine-renueva-records-taquilla_0_1639036250.html
p9
aVhttps://www.clarin.com/ieco/tecnologia/Comienza-cine-renueva-records-taquilla_0_1639036250.html
p10
aVhttps://www.clarin.com/ieco/Blanqueo-ROS-encienden-luces_0_1639036275.html
p11
aVhttps://www.clarin.com/ieco/tecnologia/anos-Web-euforia-puntocom-tweets_0_1639036262.html
p12
aVhttps://www.clarin.com/ieco/tecnologia/anos-Web-euforia-puntocom-tweets_0_1639036262.html
p13
aVhttps://www.clarin.com/sociedad/tragedia-consiguio-levantar-ultimo-instante_0_1640235985.html
p14
aVhttps://www.clarin.com/sociedad/tragedia-consiguio-levantar-ultimo-instante_0_1640235985.html
p15
a.