(lp0
Vhttps://www.clarin.com/sociedad/Sabbatella-testaferro-empresario-Victor-Hugo_0_1502250083.html
p1
aVhttps://www.clarin.com/sociedad/Sabbatella-testaferro-empresario-Victor-Hugo_0_1502250083.html
p2
aVhttps://www.clarin.com/ieco/campus-ieco/decano-IAE-Rivarola_0_1486051699.html
p3
aVhttps://www.clarin.com/ieco/campus-ieco/decano-IAE-Rivarola_0_1486051699.html
p4
aVhttps://www.clarin.com/ieco/economia/Vacaciones-Patagonia_0_1501650113.html
p5
aVhttps://www.clarin.com/ieco/economia/Vacaciones-Patagonia_0_1501650113.html
p6
aVhttps://www.clarin.com/politica/Lazaro-Baez-reunio-UOCRA-despedira_0_1502250076.html
p7
aVhttps://www.clarin.com/politica/Lazaro-Baez-reunio-UOCRA-despedira_0_1502250076.html
p8
a.