(lp0
Vhttps://www.clarin.com/politica/Jaime-primera-incomunicado-espera-declarar_0_1552044982.html
p1
aVhttps://www.clarin.com/politica/Jaime-primera-incomunicado-espera-declarar_0_1552044982.html
p2
aVhttps://www.clarin.com/sociedad/Internet-puertas-Paraiso-reino-error_0_1551445244.html
p3
a.