(lp0
Vhttps://www.clarin.com/opinion/Argentinas-drama-grieta-social_0_1549645423.html
p1
aVhttps://www.clarin.com/opinion/Argentinas-drama-grieta-social_0_1549645423.html
p2
aVhttps://www.clarin.com/opinion/actuar-frente-corrupcion_0_1549645411.html
p3
aVhttps://www.clarin.com/opinion/Moros-Comodoro-Py_0_1550244979.html
p4
aVhttps://www.clarin.com/opinion/Abril-teoria-dictadura-civico-militar_0_1549645376.html
p5
aVhttps://www.clarin.com/opinion/Abril-teoria-dictadura-civico-militar_0_1549645376.html
p6
aVhttps://www.clarin.com/sociedad/Miedo-famosos-evitar-ridiculo-virtual_0_1549645444.html
p7
aVhttps://www.clarin.com/sociedad/Miedo-famosos-evitar-ridiculo-virtual_0_1549645444.html
p8
aVhttps://www.clarin.com/politica/Diria-Clinton-inflacion-estupido_0_1549645457.html
p9
aVhttps://www.clarin.com/politica/Vidal-cambia-Provincia-verde-esperanza_0_1549645427.html
p10
aVhttps://www.clarin.com/politica/Vidal-cambia-Provincia-verde-esperanza_0_1549645427.html
p11
aVhttps://www.clarin.com/politica/Acuerdo-sindicalismo-diputados-Ganancias_0_1549645504.html
p12
aVhttps://www.clarin.com/politica/Acuerdo-sindicalismo-diputados-Ganancias_0_1549645504.html
p13
aVhttps://www.clarin.com/sociedad/Nacio-corazon-ordena-operarla-EEUU_0_1549645481.html
p14
aVhttps://www.clarin.com/politica/amplia-mayoria-voto-salida-default_0_1550244974.html
p15
aVhttps://www.clarin.com/politica/amplia-mayoria-voto-salida-default_0_1550244974.html
p16
a.