(lp0
Vhttps://www.clarin.com/politica/senadora-opositora-exploto-sesion-recluta_0_1604239659.html
p1
aVhttps://www.clarin.com/politica/senadora-opositora-exploto-sesion-recluta_0_1604239659.html
p2
aVhttps://www.clarin.com/politica/diputada-califico-PJ-bragueteras-dirigentes_0_1604239664.html
p3
aVhttps://www.clarin.com/politica/diputada-califico-PJ-bragueteras-dirigentes_0_1604239664.html
p4
aVhttps://www.clarin.com/politica/Jubilados-blanqueo-arranco-Senado-saldra_0_1604239657.html
p5
aVhttps://www.clarin.com/politica/Jubilados-blanqueo-arranco-Senado-saldra_0_1604239657.html
p6
a.