(lp0
S'https://www.clarin.com/sociedad/reunirse-gremios-Bullrich-saco-ministros_0_1523247903.html'
p1
aS'https://www.clarin.com/sociedad/reunirse-gremios-Bullrich-saco-ministros_0_1523247903.html'
p2
aS'https://www.clarin.com/sociedad/Autorizan-manejar-hombre-Kevin-Sedano_0_1523247877.html'
p3
aS'https://www.clarin.com/sociedad/Autorizan-manejar-hombre-Kevin-Sedano_0_1523247877.html'
p4
aS'https://www.clarin.com/politica/INDEC-precios-inflacion-Rogelio_Frigerio_0_1523247894.html'
p5
aS'https://www.clarin.com/politica/INDEC-precios-inflacion-Rogelio_Frigerio_0_1523247894.html'
p6
aS'https://www.clarin.com/politica/Elevan-asociacion-ilicita-Juan-Suris_0_1523247893.html'
p7
aS'https://www.clarin.com/politica/Elevan-asociacion-ilicita-Juan-Suris_0_1523247893.html'
p8
aS'https://www.clarin.com/sociedad/Conmovedora-historia-cumplieron-ultimo-deseo_0_1523247884.html'
p9
aS'https://www.clarin.com/sociedad/Conmovedora-historia-cumplieron-ultimo-deseo_0_1523247884.html'
p10
aS'https://www.clarin.com/politica/GobIerno-Macri-retiro-Sergio-Berni_0_1523247885.html'
p11
aS'https://www.clarin.com/politica/GobIerno-Macri-retiro-Sergio-Berni_0_1523247885.html'
p12
aS'https://www.clarin.com/ieco/economia/dolar-blue-vuelve-superar-oficial_0_1523247887.html'
p13
a.