(lp0
S'https://www.clarin.com/politica/Vanoli-dolares-futuro-evitar-devaluacion_0_1554445046.html'
p1
aS'https://www.clarin.com/politica/Vanoli-dolares-futuro-evitar-devaluacion_0_1554445046.html'
p2
aS'https://www.clarin.com/politica/perdidas-provoco-venta-dolar-futuro_0_1554445065.html'
p3
aS'https://www.clarin.com/opinion/Despertador-Comodoro-Py_0_1555044534.html'
p4
aS'https://www.clarin.com/politica/indigestion-aliviara-facil_0_1555044531.html'
p5
aS'https://www.clarin.com/opinion/Dolar-futuro-negociado-acorrala-Cristina_0_1554444975.html'
p6
aS'https://www.clarin.com/opinion/Dolar-futuro-negociado-acorrala-Cristina_0_1554444975.html'
p7
aS'https://www.clarin.com/opinion/podemos-hacer-Malvinas_0_1554444901.html'
p8
aS'https://www.clarin.com/sociedad/encontrar-talle-problema_0_1554445041.html'
p9
aS'https://www.clarin.com/sociedad/encontrar-talle-problema_0_1554445041.html'
p10
aS'https://www.clarin.com/sociedad/pueblo-convirtio-isla-crecida-historia_0_1554445030.html'
p11
aS'https://www.clarin.com/sociedad/pueblo-convirtio-isla-crecida-historia_0_1554445030.html'
p12
a.