(lp0
Vhttps://www.clarin.com/sociedad/Historica-ovacion-Malvinas-desfile-Bicentenario_0_1610839038.html
p1
aVhttps://www.clarin.com/sociedad/Historica-ovacion-Malvinas-desfile-Bicentenario_0_1610839038.html
p2
aVhttps://www.clarin.com/sociedad/Ides-Kihlen-pintando-energia-adolescente_0_1610839045.html
p3
aVhttps://www.clarin.com/sociedad/Ides-Kihlen-pintando-energia-adolescente_0_1610839045.html
p4
aVhttps://www.clarin.com/politica/Santa-Cruz-podra-tomar-deuda_0_1610838991.html
p5
aVhttps://www.clarin.com/politica/Santa-Cruz-podra-tomar-deuda_0_1610838991.html
p6
aVhttps://www.clarin.com/sociedad/epoca-gente-alquilaba-balcones_0_1610839040.html
p7
aVhttps://www.clarin.com/politica/Moratoria-podrian-ahorrar-intereses-multas_0_1610839032.html
p8
aVhttps://www.clarin.com/politica/Gobierno-logro-voten-leyes-espera_0_1610839011.html
p9
aVhttps://www.clarin.com/politica/Dejaron-pais-bancarrota-macrismo-agrava_0_1610839013.html
p10
aVhttps://www.clarin.com/politica/Dejaron-pais-bancarrota-macrismo-agrava_0_1610839013.html
p11
aVhttps://www.clarin.com/ieco/economia/venta-usados-sigue-frenada-junio_0_1610839003.html
p12
aVhttps://www.clarin.com/politica/Detectan-fraude-millonario-Alicia-ministra_0_1610839024.html
p13
aVhttps://www.clarin.com/politica/Detectan-fraude-millonario-Alicia-ministra_0_1610839024.html
p14
aVhttps://www.clarin.com/sociedad/orgullo-desfilar-multitudes-vivaron-Videla_0_1610839039.html
p15
aVhttps://www.clarin.com/sociedad/orgullo-desfilar-multitudes-vivaron-Videla_0_1610839039.html
p16
aVhttps://www.clarin.com/politica/Conurbano-Vidal-fondos-Macri-obras_0_1610839033.html
p17
aVhttps://www.clarin.com/politica/Cogobierno-legislativo_0_1610839015.html
p18
aVhttps://www.clarin.com/sociedad/Vacaciones-reservas-apuntan-viajero-espontaneo_0_1610839036.html
p19
aVhttps://www.clarin.com/sociedad/Vacaciones-reservas-apuntan-viajero-espontaneo_0_1610839036.html
p20
aVhttps://www.clarin.com/politica/peor-factura-segundo-semestre_0_1611438843.html
p21
a.