(lp0
S'https://www.clarin.com/politica/Estela-Carlotto-Casa-Rosada-Gabinete_0_1511849151.html'
p1
aS'https://www.clarin.com/politica/maduro-michetti-derechos_humanos_0_1511849146.html'
p2
aS'https://www.clarin.com/ieco/economia/dolar-sube-centavos_0_1511849027.html'
p3
aS'https://www.clarin.com/politica/Horacio_Rodriguez_Larreta-Serena-hija-foto_0_1511849141.html'
p4
aS'https://www.clarin.com/politica/Tonelli-Consejo_de_la_Magistratura_0_1511849122.html'
p5
aS'https://www.clarin.com/politica/Mauricio_Macri-Milagro_Sala-Jujuy_0_1511849001.html'
p6
aS'https://www.clarin.com/politica/corrupcion-arrepentido-alonso_0_1511849137.html'
p7
a.