(lp0
S'https://www.clarin.com/ieco/economia/Blanqueo-tibio-arranque-operacion-exterior_0_1646235369.html'
p1
aS'https://www.clarin.com/ieco/economia/Blanqueo-tibio-arranque-operacion-exterior_0_1646235369.html'
p2
aS'https://www.clarin.com/opinion/innovacion-Argentina-parte-rezagada_0_1645635554.html'
p3
aS'https://www.clarin.com/opinion/regalo-Colombia-mundo-conflictivo_0_1645635556.html'
p4
aS'https://www.clarin.com/opinion/regalo-Colombia-mundo-conflictivo_0_1645635556.html'
p5
aS'https://www.clarin.com/opinion/vida-alumnos-Internet-cambia-docente_0_1645635557.html'
p6
aS'https://www.clarin.com/politica/Macri-hizo-deberes-Corte-cumplio_0_1646235364.html'
p7
aS'https://www.clarin.com/politica/Gas-luz-alivio-Casa-Rosada_0_1646235363.html'
p8
aS'https://www.clarin.com/politica/Scioli-paracaidista_0_1646235362.html'
p9
aS'https://www.clarin.com/opinion/Defensa-libro-cualquier-precio_0_1645635572.html'
p10
aS'https://www.clarin.com/sociedad/mito-Gilda-revive-tragica-muerte_0_1645035584.html'
p11
aS'https://www.clarin.com/sociedad/mito-Gilda-revive-tragica-muerte_0_1645035584.html'
p12
a.