(lp0
Vhttps://www.clarin.com/sociedad/Video-investigan-fondo-misterio-dinosaurios_0_1579042159.html
p1
aVhttps://www.clarin.com/sociedad/Video-investigan-fondo-misterio-dinosaurios_0_1579042159.html
p2
aVhttps://www.clarin.com/politica/Vido-Diputados-proyecto-Justicia-allanarlo_0_1579042226.html
p3
aVhttps://www.clarin.com/politica/Vido-Diputados-proyecto-Justicia-allanarlo_0_1579042226.html
p4
aVhttps://www.clarin.com/politica/pruebas-Hotesur-Prefectura-Armada-vigiladas_0_1579042222.html
p5
aVhttps://www.clarin.com/politica/pruebas-Hotesur-Prefectura-Armada-vigiladas_0_1579042222.html
p6
aVhttps://www.clarin.com/politica/gobernador-presentara-recurso-amparo-aumentos_0_1579042220.html
p7
aVhttps://www.clarin.com/politica/gobernador-presentara-recurso-amparo-aumentos_0_1579042220.html
p8
aVhttps://www.clarin.com/politica/festejo-austero-Macri-Tedeum-Catedral_0_1579042215.html
p9
aVhttps://www.clarin.com/politica/festejo-austero-Macri-Tedeum-Catedral_0_1579042215.html
p10
aVhttps://www.clarin.com/politica/socio-Maximo-suma-FM-empresas_0_1579042210.html
p11
aVhttps://www.clarin.com/politica/socio-Maximo-suma-FM-empresas_0_1579042210.html
p12
a.