(lp0
Vhttps://www.clarin.com/ieco/economia/yerba-mate-sello-propio-internacional_0_1577242338.html
p1
aVhttps://www.clarin.com/ieco/economia/yerba-mate-sello-propio-internacional_0_1577242338.html
p2
aVhttps://www.clarin.com/politica/Lombardi-Paenza-contradicciones-discurso-impresionantes_0_1577242345.html
p3
aVhttps://www.clarin.com/politica/Lombardi-Paenza-contradicciones-discurso-impresionantes_0_1577242345.html
p4
aVhttps://www.clarin.com/politica/Frigerio-apunto-Vido-fueros-impunidad_0_1577242343.html
p5
aVhttps://www.clarin.com/politica/Frigerio-apunto-Vido-fueros-impunidad_0_1577242343.html
p6
aVhttps://www.clarin.com/sociedad/emoticones-seguridad_0_1577242295.html
p7
aVhttps://www.clarin.com/sociedad/emoticones-seguridad_0_1577242295.html
p8
aVhttps://www.clarin.com/sociedad/Grieta-anciana-ahora-viene-Papa_0_1576642469.html
p9
a.