(lp0
Vhttps://www.clarin.com/politica/Austral-presento-concurso-acreedores-Justicia_0_1679832057.html
p1
aVhttps://www.clarin.com/sociedad/Espana-alumnos-inician-historica-deberes_0_1679832059.html
p2
aVhttps://www.clarin.com/sociedad/Espana-alumnos-inician-historica-deberes_0_1679832059.html
p3
aVhttps://www.clarin.com/ieco/SMATA-advierte-serios-problemas-automotriz_0_1679832062.html
p4
aVhttps://www.clarin.com/ieco/SMATA-advierte-serios-problemas-automotriz_0_1679832062.html
p5
aVhttps://www.clarin.com/politica/Frigerio-Cristina-Kirchner-disposicion-Justicia_0_1679832049.html
p6
aVhttps://www.clarin.com/politica/Frigerio-Cristina-Kirchner-disposicion-Justicia_0_1679832049.html
p7
aVhttps://www.clarin.com/ieco/Extienden-tapon-fiscal-fines-marzo_0_1679832045.html
p8
aVhttps://www.clarin.com/ieco/Extienden-tapon-fiscal-fines-marzo_0_1679832045.html
p9
a.