(lp0
Vhttps://www.clarin.com/sociedad/Furor-EEUU-nuevo-electrico-iPhone_0_1555644782.html
p1
aVhttps://www.clarin.com/sociedad/Furor-EEUU-nuevo-electrico-iPhone_0_1555644782.html
p2
aVhttps://www.clarin.com/politica/EEUU-Cristina-Baez-fugando-capitales_0_1555644835.html
p3
aVhttps://www.clarin.com/politica/Imputaron-Cristina-lavado-declaracion-Farina_0_1555644788.html
p4
aVhttps://www.clarin.com/politica/Imputaron-Cristina-lavado-declaracion-Farina_0_1555644788.html
p5
aVhttps://www.clarin.com/politica/Cristina-recluida-casa-Calafate-custodia_0_1555644862.html
p6
aVhttps://www.clarin.com/opinion/manera-argentina-chorear_0_1556244372.html
p7
aVhttps://www.clarin.com/opinion/hijos-corruptos_0_1555644776.html
p8
aVhttps://www.clarin.com/opinion/hijos-corruptos_0_1555644776.html
p9
aVhttps://www.clarin.com/politica/Gobierno-mesura-temor-victimizacion-Cristina_0_1555644826.html
p10
aVhttps://www.clarin.com/politica/Gobierno-mesura-temor-victimizacion-Cristina_0_1555644826.html
p11
aVhttps://www.clarin.com/opinion/sabor-infancia_0_1555644737.html
p12
a.