(lp0
Vhttps://www.clarin.com/ieco/economia/estreno-Gobierno-colocar-titulos-euros_0_1664233726.html
p1
aVhttps://www.clarin.com/ieco/economia/estreno-Gobierno-colocar-titulos-euros_0_1664233726.html
p2
aVhttps://www.clarin.com/ieco/coloquioidea/Jose-Corral-desarrollo-capacidades_0_1664233729.html
p3
aVhttps://www.clarin.com/ieco/coloquioidea/Jose-Corral-desarrollo-capacidades_0_1664233729.html
p4
aVhttps://www.clarin.com/ieco/economia/Opinion-fin-clandestinidad_0_1664233759.html
p5
aVhttps://www.clarin.com/ieco/economia/Opinion-fin-clandestinidad_0_1664233759.html
p6
aVhttps://www.clarin.com/ieco/coloquioidea/Trucco-precios-igualan-costos-produccion_0_1664233732.html
p7
aVhttps://www.clarin.com/ieco/economia/claves-blanqueo-fiscal_0_1664233752.html
p8
aVhttps://www.clarin.com/ieco/economia/claves-blanqueo-fiscal_0_1664233752.html
p9
aVhttps://www.clarin.com/ieco/coloquioidea/Opinion-Obra-publica-transparencia_0_1664233734.html
p10
aVhttps://www.clarin.com/ieco/Club-Paris-Prat-Gay-modificar-Kicillof_0_1665433448.html
p11
aVhttps://www.clarin.com/opinion/expectativas-siguen-altas_0_1665433447.html
p12
aVhttps://www.clarin.com/opinion/Falta-plan-seguridad-objetivos_0_1665433446.html
p13
aVhttps://www.clarin.com/ieco/coloquioidea/Inflacion-vientos-cambio-Aduana_0_1664233738.html
p14
aVhttps://www.clarin.com/ieco/coloquioidea/Inflacion-vientos-cambio-Aduana_0_1664233738.html
p15
aVhttps://www.clarin.com/ieco/coloquioidea/Opinion-expectativas-favorables_0_1664233740.html
p16
aVhttps://www.clarin.com/ieco/coloquioidea/Opinion-expectativas-favorables_0_1664233740.html
p17
aVhttps://www.clarin.com/opinion/karma-persigue-Mauricio-Macri_0_1665433445.html
p18
aVhttps://www.clarin.com/opinion/karma-persigue-Mauricio-Macri_0_1665433445.html
p19
aVhttps://www.clarin.com/opinion/dice-espera-blanqueo_0_1665433444.html
p20
aVhttps://www.clarin.com/opinion/encuestas-vienen-llenas-sorpresas_0_1665433443.html
p21
aVhttps://www.clarin.com/opinion/encuestas-vienen-llenas-sorpresas_0_1665433443.html
p22
a.