(lp0
Vhttps://www.clarin.com/politica/Martin-Lousteau-Existe-palpable-Argentina_0_1544845541.html
p1
aVhttps://www.clarin.com/politica/Martin-Lousteau-Existe-palpable-Argentina_0_1544845541.html
p2
aVhttps://www.clarin.com/politica/archivo-secreto-Vaticano-bunker-historia_0_1544246027.html
p3
aVhttps://www.clarin.com/politica/archivo-secreto-Vaticano-bunker-historia_0_1544246027.html
p4
aVhttps://www.clarin.com/politica/Perez-Corradi-China-efedrina-empacada_0_1544246025.html
p5
aVhttps://www.clarin.com/politica/Perez-Corradi-China-efedrina-empacada_0_1544246025.html
p6
aVhttps://www.clarin.com/politica/medida-Anibal-ayudo-importacion-efedrina_0_1544246023.html
p7
aVhttps://www.clarin.com/politica/medida-Anibal-ayudo-importacion-efedrina_0_1544246023.html
p8
aVhttps://www.clarin.com/opinion/calvario-voces-virtuales_0_1544845525.html
p9
aVhttps://www.clarin.com/opinion/diferencia-merito-popularidad_0_1544245938.html
p10
aVhttps://www.clarin.com/opinion/ejercicio-criminal-poder_0_1544245943.html
p11
aVhttps://www.clarin.com/opinion/ejercicio-criminal-poder_0_1544245943.html
p12
aVhttps://www.clarin.com/opinion/Lecciones-noche-negra_0_1544245937.html
p13
a.