(lp0
Vhttps://www.clarin.com/sociedad/Mar-Plata-playa-puede-costar_0_1498050600.html
p1
aVhttps://www.clarin.com/sociedad/Mar-Plata-playa-puede-costar_0_1498050600.html
p2
aVhttps://www.clarin.com/sociedad/Florianopolis-crece-consumo-pescados-lujo_0_1498050610.html
p3
aVhttps://www.clarin.com/sociedad/Florianopolis-crece-consumo-pescados-lujo_0_1498050610.html
p4
aVhttps://www.clarin.com/politica/Allanaron-domicilios-Arabe-cercano-profugos_0_1498050622.html
p5
aVhttps://www.clarin.com/politica/ENaCom-AFSCA-AFTIC-Macri-Aguad-De_Godoy-Arias-Sabbatella-Comision_Bicameral_0_1498050614.html
p6
aVhttps://www.clarin.com/politica/Telefonicas-TV_por_cable-DNU-Macri-Kirchner-competencia-convergencia_0_1498050611.html
p7
a.