(lp0
S'https://www.clarin.com/ieco/economia/davos-interes_0_1507049771.html'
p1
aS'https://www.clarin.com/ieco/economia/Sol-despidos-vacaciones-busca-salida_0_1507649694.html'
p2
aS'https://www.clarin.com/ieco/economia/Europa-libera-importacion-carne_0_1507649671.html'
p3
a.