(lp0
Vhttps://www.clarin.com/politica/Dady-Cristina-Kirchner-Paga-cuadruple_0_1649835107.html
p1
aVhttps://www.clarin.com/politica/Dady-Cristina-Kirchner-Paga-cuadruple_0_1649835107.html
p2
aVhttps://www.clarin.com/sociedad/hombre-convierte-todas-princesas-Disney_0_1649835056.html
p3
aVhttps://www.clarin.com/sociedad/hombre-convierte-todas-princesas-Disney_0_1649835056.html
p4
aVhttps://www.clarin.com/ieco/economia/inversores-privados-Dietrich-inversion-publica_0_1649835104.html
p5
aVhttps://www.clarin.com/ieco/economia/inversores-privados-Dietrich-inversion-publica_0_1649835104.html
p6
aVhttps://www.clarin.com/politica/vendio-acciones-diputados-pegando-Aranguren_0_1649835090.html
p7
aVhttps://www.clarin.com/politica/vendio-acciones-diputados-pegando-Aranguren_0_1649835090.html
p8
aVhttps://www.clarin.com/sociedad/Japon-volvio-romper-record-centenarios_0_1649835092.html
p9
aVhttps://www.clarin.com/sociedad/Japon-volvio-romper-record-centenarios_0_1649835092.html
p10
a.