(lp0
Vhttps://www.clarin.com/politica/PRO-renuncia-legislador-sospechas-coimas_0_1539446278.html
p1
aVhttps://www.clarin.com/politica/PRO-renuncia-legislador-sospechas-coimas_0_1539446278.html
p2
aVhttps://www.clarin.com/sociedad/Sammy-calle-pedir-comida-restaurante_0_1539446246.html
p3
aVhttps://www.clarin.com/sociedad/Sammy-calle-pedir-comida-restaurante_0_1539446246.html
p4
a.