(lp0
Vhttps://www.clarin.com/politica/Gobierno-alerta-marcha-duro_0_1689431043.html
p1
aVhttps://www.clarin.com/politica/Gobierno-alerta-marcha-duro_0_1689431043.html
p2
aVhttps://www.clarin.com/opinion/Trump-imita-periodismo-miente_0_1689431042.html
p3
aVhttps://www.clarin.com/politica/Susana-Malcorra-Quiero-Hillary-Clinton_0_1688831291.html
p4
aVhttps://www.clarin.com/politica/Susana-Malcorra-Quiero-Hillary-Clinton_0_1688831291.html
p5
aVhttps://www.clarin.com/politica/tripulantes-Latam-anunciaron-paro-sorpresivo_0_1688831287.html
p6
aVhttps://www.clarin.com/politica/tripulantes-Latam-anunciaron-paro-sorpresivo_0_1688831287.html
p7
aVhttps://www.clarin.com/politica/impacto-Trump-agenda-Macri-Trudeau_0_1688831278.html
p8
aVhttps://www.clarin.com/politica/impacto-Trump-agenda-Macri-Trudeau_0_1688831278.html
p9
aVhttps://www.clarin.com/politica/movilizacion-lecturas-diferentes_0_1688831277.html
p10
aVhttps://www.clarin.com/politica/hombre-confianza-Macri-Cancilleria_0_1688831276.html
p11
a.