(lp0
S'https://www.clarin.com/politica/Habilitan-feria-judicial-tratar-suba_0_1615638517.html'
p1
aS'https://www.clarin.com/politica/Habilitan-feria-judicial-tratar-suba_0_1615638517.html'
p2
aS'https://www.clarin.com/politica/Piden-Justicia-investigue-robado-Michetti_0_1615638516.html'
p3
aS'https://www.clarin.com/politica/Piden-Justicia-investigue-robado-Michetti_0_1615638516.html'
p4
aS'https://www.clarin.com/ieco/Banco-Nacion-volvio-Rural-creditos_0_1615638508.html'
p5
aS'https://www.clarin.com/ieco/Banco-Nacion-volvio-Rural-creditos_0_1615638508.html'
p6
aS'https://www.clarin.com/sociedad/hombre-hija-arrasan-Instagram_0_1615638507.html'
p7
aS'https://www.clarin.com/sociedad/hombre-hija-arrasan-Instagram_0_1615638507.html'
p8
aS'https://www.clarin.com/sociedad/Lanzan-plan-comprar-celulares-pesos_0_1615638503.html'
p9
aS'https://www.clarin.com/sociedad/Lanzan-plan-comprar-celulares-pesos_0_1615638503.html'
p10
a.