(lp0
Vhttps://www.clarin.com/ieco/embajador-China-salio-cruzar-UIA_0_1646835345.html
p1
aVhttps://www.clarin.com/ieco/embajador-China-salio-cruzar-UIA_0_1646835345.html
p2
aVhttps://www.clarin.com/ieco/Marco-Lavagna-importaciones-podemos-apertura_0_1646835343.html
p3
aVhttps://www.clarin.com/ieco/Marco-Lavagna-importaciones-podemos-apertura_0_1646835343.html
p4
aVhttps://www.clarin.com/politica/adelanta-Carrio-Cambiemos-politica-Provincia_0_1646835337.html
p5
aVhttps://www.clarin.com/politica/adelanta-Carrio-Cambiemos-politica-Provincia_0_1646835337.html
p6
aVhttps://www.clarin.com/sociedad/Cormillot-arriesgar-carrera-dulce-batata_0_1646835333.html
p7
aVhttps://www.clarin.com/sociedad/Cormillot-arriesgar-carrera-dulce-batata_0_1646835333.html
p8
aVhttps://www.clarin.com/ieco/Edenor-asegura-aumentos-desproporcionados-facturas_0_1646835332.html
p9
aVhttps://www.clarin.com/ieco/Edenor-asegura-aumentos-desproporcionados-facturas_0_1646835332.html
p10
a.