(lp0
S'https://www.clarin.com/politica/Gobierno-ofrecera-mejoras-Ganancias-desactivar_0_1659434049.html'
p1
aS'https://www.clarin.com/politica/Gobierno-ofrecera-mejoras-Ganancias-desactivar_0_1659434049.html'
p2
aS'https://www.clarin.com/politica/Volvio-caer-fuerte-consumo-agosto_0_1658834290.html'
p3
aS'https://www.clarin.com/politica/Volvio-caer-fuerte-consumo-agosto_0_1658834290.html'
p4
aS'https://www.clarin.com/ieco/Petroleros-negociacion-aplicar-recorte-salarial_0_1658834272.html'
p5
aS'https://www.clarin.com/ieco/Petroleros-negociacion-aplicar-recorte-salarial_0_1658834272.html'
p6
aS'https://www.clarin.com/politica/Gobierno-apelo-fallo-gas_0_1658834252.html'
p7
aS'https://www.clarin.com/politica/AFIP-pediria-quiebra-OCA-millones_0_1658834299.html'
p8
aS'https://www.clarin.com/politica/AFIP-pediria-quiebra-OCA-millones_0_1658834299.html'
p9
aS'https://www.clarin.com/politica/Cristobal-Lopez-Comodoro-Py-respondera_0_1658834112.html'
p10
aS'https://www.clarin.com/politica/Cristobal-Lopez-Comodoro-Py-respondera_0_1658834112.html'
p11
aS'https://www.clarin.com/politica/Pena-insistio-Senado-registra-inflacion_0_1658834296.html'
p12
aS'https://www.clarin.com/politica/Pena-insistio-Senado-registra-inflacion_0_1658834296.html'
p13
aS'https://www.clarin.com/opinion/secretos-buen-asador_0_1658834265.html'
p14
a.