(lp0
Vhttps://www.clarin.com/ieco/argentino-ofrecio-quedarse-filial-PDVSA_0_1582041806.html
p1
aVhttps://www.clarin.com/ieco/argentino-ofrecio-quedarse-filial-PDVSA_0_1582041806.html
p2
aVhttps://www.clarin.com/politica/Baranao-dolido-criticas-duele-Paenza_0_1582041805.html
p3
aVhttps://www.clarin.com/politica/Baranao-dolido-criticas-duele-Paenza_0_1582041805.html
p4
aVhttps://www.clarin.com/sociedad/muertos-choque-frontal-Ruta_0_1582041803.html
p5
aVhttps://www.clarin.com/sociedad/muertos-choque-frontal-Ruta_0_1582041803.html
p6
aVhttps://www.clarin.com/ieco/Aranguren-versiones-estancamiento-Vaca-Muerta_0_1582041800.html
p7
aVhttps://www.clarin.com/politica/Marcos-Pena-interes-Cristina-preso_0_1582041799.html
p8
aVhttps://www.clarin.com/politica/Marcos-Pena-interes-Cristina-preso_0_1582041799.html
p9
a.