(lp0
S'https://www.clarin.com/politica/Camioneros-acuerdo-salarial-Moyano-lanza_0_1596440502.html'
p1
aS'https://www.clarin.com/politica/Camioneros-acuerdo-salarial-Moyano-lanza_0_1596440502.html'
p2
aS'https://www.clarin.com/politica/Dietrich-revelo-Lopez-sistema-paralelo_0_1596440515.html'
p3
aS'https://www.clarin.com/politica/Dietrich-revelo-Lopez-sistema-paralelo_0_1596440515.html'
p4
aS'https://www.clarin.com/sociedad/Solo-adictos-severos-tratamiento_0_1596440548.html'
p5
aS'https://www.clarin.com/sociedad/Solo-adictos-severos-tratamiento_0_1596440548.html'
p6
aS'https://www.clarin.com/politica/Arancedo-pidio-sospechar-monjas-monasterio_0_1596440554.html'
p7
aS'https://www.clarin.com/politica/Lopez-declarar-trasladaron-penal-Ezeiza_0_1596440521.html'
p8
aS'https://www.clarin.com/politica/Lopez-cumbiera-especialista-urgencias-penales_0_1596440535.html'
p9
aS'https://www.clarin.com/politica/Lopez-cumbiera-especialista-urgencias-penales_0_1596440535.html'
p10
aS'https://www.clarin.com/politica/carta-Camara-Baez-Casanello-Olivos_0_1596440397.html'
p11
aS'https://www.clarin.com/politica/carta-Camara-Baez-Casanello-Olivos_0_1596440397.html'
p12
a.