(lp0
Vhttps://www.clarin.com/politica/beneficio-tercio-jubilados-pais_0_1587441456.html
p1
aVhttps://www.clarin.com/ieco/economia/empresa-argentina-fabrica-vacunas-China_0_1587441430.html
p2
aVhttps://www.clarin.com/ieco/economia/empresa-argentina-fabrica-vacunas-China_0_1587441430.html
p3
aVhttps://www.clarin.com/ieco/economia/Provincia-Nacion-automotrices-concesionarias-subsidiada_0_1587441391.html
p4
aVhttps://www.clarin.com/ieco/economia/Provincia-Nacion-automotrices-concesionarias-subsidiada_0_1587441391.html
p5
aVhttps://www.clarin.com/politica/Gobierno-errores-tarifazo-promete-medidas_0_1587441467.html
p6
aVhttps://www.clarin.com/politica/Aprobaron-informes-criticos-gestion_0_1587441438.html
p7
aVhttps://www.clarin.com/ieco/economia/Coca-Cola-compra-marca-Ades-Unilever_0_1587441302.html
p8
aVhttps://www.clarin.com/ieco/economia/Coca-Cola-compra-marca-Ades-Unilever_0_1587441302.html
p9
aVhttps://www.clarin.com/politica/Marijuan-analizo-empresario-figura-arrepentido_0_1587441434.html
p10
aVhttps://www.clarin.com/politica/Marijuan-analizo-empresario-figura-arrepentido_0_1587441434.html
p11
aVhttps://www.clarin.com/sociedad/Rosario-fiesta-estudiantes-computacion-mejores_0_1587441428.html
p12
aVhttps://www.clarin.com/sociedad/Rosario-fiesta-estudiantes-computacion-mejores_0_1587441428.html
p13
aVhttps://www.clarin.com/sociedad/Habilidades-siglo-XXI_0_1587441432.html
p14
aVhttps://www.clarin.com/politica/Allanaron-estancias-empresario-Santa-Cruz_0_1587441429.html
p15
aVhttps://www.clarin.com/politica/Allanaron-estancias-empresario-Santa-Cruz_0_1587441429.html
p16
aVhttps://www.clarin.com/opinion/pulseada-politica-fe_0_1587441374.html
p17
aVhttps://www.clarin.com/opinion/pulseada-politica-fe_0_1587441374.html
p18
aVhttps://www.clarin.com/opinion/Educacion-parches-infancia_0_1587441369.html
p19
a.