(lp0
Vhttps://www.clarin.com/ieco/economia/calma-afuera-bolsa-subio-recuperaron_0_1687631353.html
p1
aVhttps://www.clarin.com/ieco/economia/calma-afuera-bolsa-subio-recuperaron_0_1687631353.html
p2
aVhttps://www.clarin.com/opinion/Argentina-vez-contrapierna_0_1688231164.html
p3
aVhttps://www.clarin.com/politica/Reforma-electoral-Macri-Senado-gobernadores_0_1687631412.html
p4
aVhttps://www.clarin.com/politica/Reforma-electoral-Macri-Senado-gobernadores_0_1687631412.html
p5
aVhttps://www.clarin.com/politica/negociacion-boleta-electronica-sigue-empantanada_0_1687631410.html
p6
aVhttps://www.clarin.com/politica/negociacion-boleta-electronica-sigue-empantanada_0_1687631410.html
p7
aVhttps://www.clarin.com/politica/Carrio-dijo-candidata-aclaro_0_1687631409.html
p8
aVhttps://www.clarin.com/politica/Carrio-dijo-candidata-aclaro_0_1687631409.html
p9
a.