(lp0
S'https://www.clarin.com/ieco/economia/tercios-renta-agricola-parar-bolsillo_0_1556244550.html'
p1
aS'https://www.clarin.com/ieco/economia/tercios-renta-agricola-parar-bolsillo_0_1556244550.html'
p2
aS'https://www.clarin.com/ieco/economia/calcula-indice-FADA_0_1556244549.html'
p3
aS'https://www.clarin.com/ieco/economia/presion-promociones_0_1556244548.html'
p4
aS'https://www.clarin.com/ieco/economia/presion-promociones_0_1556244548.html'
p5
aS'https://www.clarin.com/ieco/economia/Atravesar-puente-ver-mejoras_0_1556244547.html'
p6
aS'https://www.clarin.com/ieco/economia/Atravesar-puente-ver-mejoras_0_1556244547.html'
p7
aS'https://www.clarin.com/ieco/economia/motor-inversion-exportacion_0_1556244545.html'
p8
aS'https://www.clarin.com/ieco/economia/motor-inversion-exportacion_0_1556244545.html'
p9
aS'https://www.clarin.com/ieco/economia/Consumo-tarifazo-inflacion-guerra-promos_0_1556244543.html'
p10
aS'https://www.clarin.com/ieco/economia/Consumo-tarifazo-inflacion-guerra-promos_0_1556244543.html'
p11
aS'https://www.clarin.com/ieco/economia/Inteligencia-prudencia-endeudarse_0_1556244542.html'
p12
aS'https://www.clarin.com/ieco/economia/Inteligencia-prudencia-endeudarse_0_1556244542.html'
p13
aS'https://www.clarin.com/ieco/economia/economia-quedo-meta-inflacion_0_1556244541.html'
p14
aS'https://www.clarin.com/ieco/economia/economia-quedo-meta-inflacion_0_1556244541.html'
p15
aS'https://www.clarin.com/ieco/economia/problemas-poner-todas-fichas-tasa_0_1556244540.html'
p16
aS'https://www.clarin.com/ieco/economia/problemas-poner-todas-fichas-tasa_0_1556244540.html'
p17
aS'https://www.clarin.com/ieco/economia/Preven-fuerte-emision-deuda_0_1556244539.html'
p18
aS'https://www.clarin.com/ieco/economia/Preven-fuerte-emision-deuda_0_1556244539.html'
p19
aS'https://www.clarin.com/ieco/economia/quiebra-sueno-americano_0_1556244538.html'
p20
aS'https://www.clarin.com/ieco/economia/dinero-vuelve-economico-bancos-centrales_0_1556244537.html'
p21
aS'https://www.clarin.com/ieco/economia/dinero-vuelve-economico-bancos-centrales_0_1556244537.html'
p22
a.