(lp0
S'https://www.clarin.com/politica/empleado-AFI-amenazas-Stiuso_0_1524447806.html'
p1
aS'https://www.clarin.com/sociedad/selfie-corta-respiracion-metros-altura_0_1524447822.html'
p2
aS'https://www.clarin.com/politica/Moreno-Bonadio-sucio_0_1524447813.html'
p3
aS'https://www.clarin.com/sociedad/Laura-Viana-trabajaba-center-anos_0_1524447828.html'
p4
aS'https://www.clarin.com/sociedad/carta-Vidal-agradecio-medicos-atendieron_0_1524447796.html'
p5
aS'https://www.clarin.com/sociedad/asesinos-argentina-detenidos-reconocidos-testigos_0_1524447779.html'
p6
aS'https://www.clarin.com/politica/PJ-bonaerense-consensos-incorporando-intendentes_0_1524447798.html'
p7
aS'https://www.clarin.com/politica/carta-Vidal-publico-Facebook-agradecer_0_1524447832.html'
p8
a.