(lp0
Vhttps://www.clarin.com/sociedad/Afirman-Coca-Pepsi-organizaciones-EEUU_0_1666633434.html
p1
aVhttps://www.clarin.com/sociedad/Afirman-Coca-Pepsi-organizaciones-EEUU_0_1666633434.html
p2
aVhttps://www.clarin.com/sociedad/Video-batalla-boliche-Mar-Plata_0_1666633432.html
p3
aVhttps://www.clarin.com/sociedad/Video-batalla-boliche-Mar-Plata_0_1666633432.html
p4
aVhttps://www.clarin.com/sociedad/Acusan-Daniel-Vila-apropiarse-natural_0_1666633431.html
p5
aVhttps://www.clarin.com/sociedad/Acusan-Daniel-Vila-apropiarse-natural_0_1666633431.html
p6
aVhttps://www.clarin.com/politica/Marcha-Gobierno-Congreso-Plaza-Mayo_0_1666633430.html
p7
aVhttps://www.clarin.com/politica/Marcha-Gobierno-Congreso-Plaza-Mayo_0_1666633430.html
p8
a.