(lp0
S'https://www.clarin.com/politica/Menem-Senado-oficialismo-cuenta-aliado_0_1549645286.html'
p1
aS'https://www.clarin.com/politica/Menem-Senado-oficialismo-cuenta-aliado_0_1549645286.html'
p2
aS'https://www.clarin.com/politica/imperio-Baez-Boca-amadrina-Cristina_0_1549645226.html'
p3
aS'https://www.clarin.com/politica/imperio-Baez-Boca-amadrina-Cristina_0_1549645226.html'
p4
aS'https://www.clarin.com/ieco/economia/Advierten-riesgos-economia-segundo-semestre_0_1549645284.html'
p5
aS'https://www.clarin.com/ieco/economia/Advierten-riesgos-economia-segundo-semestre_0_1549645284.html'
p6
aS'https://www.clarin.com/sociedad/Captan-momento-asteroide-impacta-Jupiter_0_1549645280.html'
p7
aS'https://www.clarin.com/sociedad/Captan-momento-asteroide-impacta-Jupiter_0_1549645280.html'
p8
aS'https://www.clarin.com/politica/Michetti-encontro-soldado-escribio-Malvinas_0_1549645275.html'
p9
aS'https://www.clarin.com/politica/Michetti-encontro-soldado-escribio-Malvinas_0_1549645275.html'
p10
a.