(lp0
S'https://www.clarin.com/sociedad/veteranos-Malvinas-emocionaron-desfile-Bicentenario_0_1610239109.html'
p1
aS'https://www.clarin.com/ieco/economia/transportadoras-salieron-defender-subas_0_1610239102.html'
p2
aS'https://www.clarin.com/politica/Francisco-Macri-senales-recomponer-relacion_0_1610239097.html'
p3
aS'https://www.clarin.com/politica/Bicentenario-Macri-defendio-herencia-corrupcion_0_1610239093.html'
p4
aS'https://www.clarin.com/sociedad/Lorenzo-abanderado-descalzo-escuela-zapatillas_0_1610239103.html'
p5
aS'https://www.clarin.com/sociedad/Descubren-planeta-amaneceres-atardeceres-dia_0_1610239098.html'
p6
aS'https://www.clarin.com/sociedad/honor-hombres-Julio_0_1610239112.html'
p7
a.