(lp0
Vhttps://www.clarin.com/sociedad/Time-Warp-Stinfale-Dubai-Maradona_0_1675632600.html
p1
aVhttps://www.clarin.com/sociedad/Time-Warp-Stinfale-Dubai-Maradona_0_1675632600.html
p2
aVhttps://www.clarin.com/politica/Trenes-tercios-gasto-pagar-sueldos_0_1675632583.html
p3
aVhttps://www.clarin.com/sociedad/Polemica-Cordoba-detienen-chicas-besarse_0_1675632588.html
p4
aVhttps://www.clarin.com/sociedad/Polemica-Cordoba-detienen-chicas-besarse_0_1675632588.html
p5
a.