(lp0
Vhttps://www.clarin.com/sociedad/eventual-debe-volverse-sistematico_0_1648635278.html
p1
aVhttps://www.clarin.com/politica/CGT-reune-hoy-intendentes-PJ_0_1648635275.html
p2
aVhttps://www.clarin.com/politica/CGT-reune-hoy-intendentes-PJ_0_1648635275.html
p3
aVhttps://www.clarin.com/politica/Cortes-evento-temor-protestas-piqueteros_0_1648635271.html
p4
aVhttps://www.clarin.com/politica/Cortes-evento-temor-protestas-piqueteros_0_1648635271.html
p5
aVhttps://www.clarin.com/politica/ISIS-organizacion-recluta-jovenes-Internet_0_1648635268.html
p6
aVhttps://www.clarin.com/politica/polemica-Nisman-confirman-Rafecas-Papa_0_1648635261.html
p7
aVhttps://www.clarin.com/politica/polemica-Nisman-confirman-Rafecas-Papa_0_1648635261.html
p8
aVhttps://www.clarin.com/sociedad/objetos-negocio-online-alertan-xenofobia_0_1648635266.html
p9
aVhttps://www.clarin.com/sociedad/objetos-negocio-online-alertan-xenofobia_0_1648635266.html
p10
a.