(lp0
S'https://www.clarin.com/sociedad/panico-Plata-WhatsApp-anunciaba-tormenta_0_1649835042.html'
p1
aS'https://www.clarin.com/sociedad/panico-Plata-WhatsApp-anunciaba-tormenta_0_1649835042.html'
p2
aS'https://www.clarin.com/ieco/Luego-Aranguren-intervendra-cuestiones-Shell_0_1649835039.html'
p3
aS'https://www.clarin.com/ieco/Luego-Aranguren-intervendra-cuestiones-Shell_0_1649835039.html'
p4
aS'https://www.clarin.com/politica/Macri-Aranguren-vendio-acciones-Shell_0_1649835037.html'
p5
aS'https://www.clarin.com/politica/Macri-Aranguren-vendio-acciones-Shell_0_1649835037.html'
p6
aS'https://www.clarin.com/sociedad/Video-delfin-amistoso-enamoro-turistas_0_1649835026.html'
p7
aS'https://www.clarin.com/sociedad/Video-delfin-amistoso-enamoro-turistas_0_1649835026.html'
p8
a.