(lp0
S'https://www.clarin.com/sociedad/Asesino-hija-nietitos-mate-liberarlos_0_1526847465.html'
p1
aS'https://www.clarin.com/sociedad/Asesino-hija-nietitos-mate-liberarlos_0_1526847465.html'
p2
aS'https://www.clarin.com/sociedad/epidemias-superbacterias_0_1526847372.html'
p3
aS'https://www.clarin.com/sociedad/epidemias-superbacterias_0_1526847372.html'
p4
aS'https://www.clarin.com/opinion/dura-guerra-Milagro-Sala_0_1526847362.html'
p5
aS'https://www.clarin.com/opinion/dura-guerra-Milagro-Sala_0_1526847362.html'
p6
aS'https://www.clarin.com/politica/Macri-equilibrista-apuros_0_1526847359.html'
p7
aS'https://www.clarin.com/sociedad/chicos-escriben-mal-ensenan-pensar_0_1526247735.html'
p8
aS'https://www.clarin.com/sociedad/chicos-escriben-mal-ensenan-pensar_0_1526247735.html'
p9
a.