(lp0
S'https://www.clarin.com/politica/Brito-declaracion-Ciccone-respondio-preguntas_0_1663633725.html'
p1
aS'https://www.clarin.com/sociedad/Desaparecio-segunda-vez-sospechan-trata_0_1663633713.html'
p2
aS'https://www.clarin.com/politica/mayoria-encuestados-definio-Cristina-corrupta_0_1663633716.html'
p3
aS'https://www.clarin.com/politica/condena-funcionaria-otorgarilegalmente-permiso-pesca_0_1663633730.html'
p4
a.