(lp0
S'https://www.clarin.com/ieco/economia/volatilidad-rasgo-distintivo-proximos-meses_0_1627637281.html'
p1
aS'https://www.clarin.com/ieco/economia/volatilidad-rasgo-distintivo-proximos-meses_0_1627637281.html'
p2
aS'https://www.clarin.com/ieco/economia/Tendencias-proyectan-nuevos-espacios-universitarios_0_1627637258.html'
p3
aS'https://www.clarin.com/ieco/economia/Tendencias-proyectan-nuevos-espacios-universitarios_0_1627637258.html'
p4
aS'https://www.clarin.com/ieco/economia/nuevos-gerentes-Marketing-tecnologia-cliente_0_1627637256.html'
p5
aS'https://www.clarin.com/ieco/economia/industria-vitivinicola-prepara-estrategia-crisis_0_1627637250.html'
p6
aS'https://www.clarin.com/ieco/economia/razones-geopoliticas-necesidad-recortar-subsidios_0_1627637249.html'
p7
aS'https://www.clarin.com/ieco/economia/razones-geopoliticas-necesidad-recortar-subsidios_0_1627637249.html'
p8
aS'https://www.clarin.com/ieco/economia/deuda-revierte-deficit-balance-cambiario_0_1627637245.html'
p9
aS'https://www.clarin.com/ieco/economia/China-lidera-nueva-revolucion_0_1627637243.html'
p10
aS'https://www.clarin.com/ieco/economia/China-lidera-nueva-revolucion_0_1627637243.html'
p11
aS'https://www.clarin.com/ieco/economia/preferencia-inversores-materias-empieza-desinflarse_0_1627637242.html'
p12
aS'https://www.clarin.com/ieco/economia/preferencia-inversores-materias-empieza-desinflarse_0_1627637242.html'
p13
a.