(lp0
S'https://www.clarin.com/politica/Macri-Empezar-dinamica-necesita-Argentina_0_1687631265.html'
p1
aS'https://www.clarin.com/politica/Macri-Empezar-dinamica-necesita-Argentina_0_1687631265.html'
p2
aS'https://www.clarin.com/sociedad/Demanda-Zara-encontro-muerto-vestido_0_1687631256.html'
p3
aS'https://www.clarin.com/sociedad/Demanda-Zara-encontro-muerto-vestido_0_1687631256.html'
p4
aS'https://www.clarin.com/ieco/Luego-disparada-dolar-cotiza-estable_0_1687631258.html'
p5
aS'https://www.clarin.com/ieco/Luego-disparada-dolar-cotiza-estable_0_1687631258.html'
p6
aS'https://www.clarin.com/ieco/Frigerio-Lavagna-comparado-Gobierno-dictadura_0_1687631257.html'
p7
aS'https://www.clarin.com/ieco/Frigerio-Lavagna-comparado-Gobierno-dictadura_0_1687631257.html'
p8
aS'https://www.clarin.com/sociedad/Rio-Grande-suspenden-sacerdote-acusado_0_1687631253.html'
p9
a.