(lp0
S'https://www.clarin.com/opinion/puede-seguir-eludiendo-debate-aborto_0_1636636447.html'
p1
aS'https://www.clarin.com/opinion/Fallas-UCR-gobierno-Cambiemos_0_1636636448.html'
p2
aS'https://www.clarin.com/opinion/Fallas-UCR-gobierno-Cambiemos_0_1636636448.html'
p3
aS'https://www.clarin.com/opinion/Reinsercion-sociedad-productiva_0_1636636446.html'
p4
aS'https://www.clarin.com/politica/Detallan-fugaron-cuentas-oculto-Cristina_0_1636636496.html'
p5
aS'https://www.clarin.com/politica/Detallan-fugaron-cuentas-oculto-Cristina_0_1636636496.html'
p6
aS'https://www.clarin.com/politica/Sauces-Calafate-figurando-nombre-Comuna_0_1636636444.html'
p7
aS'https://www.clarin.com/politica/Sauces-Calafate-figurando-nombre-Comuna_0_1636636444.html'
p8
aS'https://www.clarin.com/politica/Impugnacion-Venegas-abucheos-rebeldes_0_1636636494.html'
p9
aS'https://www.clarin.com/politica/Impugnacion-Venegas-abucheos-rebeldes_0_1636636494.html'
p10
aS'https://www.clarin.com/politica/Macri-quejo-ausentismo-juicios-laborales_0_1636636499.html'
p11
aS'https://www.clarin.com/politica/Macri-quejo-ausentismo-juicios-laborales_0_1636636499.html'
p12
aS'https://www.clarin.com/politica/CGT-unifico-conduccion-tripartita_0_1636636498.html'
p13
aS'https://www.clarin.com/politica/CGT-unifico-conduccion-tripartita_0_1636636498.html'
p14
aS'https://www.clarin.com/politica/equipo-candidatos-jugada-PRO-votar_0_1636636462.html'
p15
aS'https://www.clarin.com/politica/equipo-candidatos-jugada-PRO-votar_0_1636636462.html'
p16
aS'https://www.clarin.com/politica/fantasma-derecha-negociacion-secreta_0_1636636500.html'
p17
aS'https://www.clarin.com/politica/fantasma-derecha-negociacion-secreta_0_1636636500.html'
p18
aS'https://www.clarin.com/politica/raro-pase-Aduana_0_1637236261.html'
p19
a.