(lp0
S'https://www.clarin.com/sociedad/Preocupacion-primer-dengue-autoctono-Matanza_0_1669033130.html'
p1
aS'https://www.clarin.com/sociedad/Preocupacion-primer-dengue-autoctono-Matanza_0_1669033130.html'
p2
aS'https://www.clarin.com/politica/Garavano-puerta-giratoria-carceles-realidad_0_1669033124.html'
p3
aS'https://www.clarin.com/politica/Garavano-puerta-giratoria-carceles-realidad_0_1669033124.html'
p4
aS'https://www.clarin.com/politica/Agustina-Macri-hija-mayor-Presidente_0_1669033123.html'
p5
aS'https://www.clarin.com/politica/Agustina-Macri-hija-mayor-Presidente_0_1669033123.html'
p6
aS'https://www.clarin.com/sociedad/Mar-Plata-marcha-justicia-Lucia_0_1669033120.html'
p7
aS'https://www.clarin.com/sociedad/Mar-Plata-marcha-justicia-Lucia_0_1669033120.html'
p8
aS'https://www.clarin.com/politica/chiste-Boudou-cantidad-causas-judiciales_0_1669033121.html'
p9
aS'https://www.clarin.com/politica/chiste-Boudou-cantidad-causas-judiciales_0_1669033121.html'
p10
a.