(lp0
Vhttps://www.clarin.com/politica/Obama-Cuba-antesala-cambios-profundos_0_1544845814.html
p1
aVhttps://www.clarin.com/politica/Obama-Cuba-antesala-cambios-profundos_0_1544845814.html
p2
aVhttps://www.clarin.com/sociedad/Gael-dieron-pronto-podra-volver_0_1544845811.html
p3
aVhttps://www.clarin.com/sociedad/Gael-dieron-pronto-podra-volver_0_1544845811.html
p4
aVhttps://www.clarin.com/politica/Prorrogan-meses-prision-Suris_0_1544845807.html
p5
aVhttps://www.clarin.com/politica/Prorrogan-meses-prision-Suris_0_1544845807.html
p6
aVhttps://www.clarin.com/sociedad/pelea-egiptologos-esconde-hallazgos-Tutankamon_0_1544845794.html
p7
aVhttps://www.clarin.com/sociedad/pelea-egiptologos-esconde-hallazgos-Tutankamon_0_1544845794.html
p8
a.