(lp0
S'https://www.clarin.com/politica/Cristina-pidio-nulidad-indagatoria-corrupcion_0_1667233411.html'
p1
aS'https://www.clarin.com/sociedad/Apunalo-termino-cuchillo-clavado-cabeza_0_1667233438.html'
p2
aS'https://www.clarin.com/politica/gobernadores-piden-millones-apoyar-Presupuesto_0_1667233436.html'
p3
aS'https://www.clarin.com/ieco/Suspenden-trabajadores-Drean-Cordoba_0_1667233441.html'
p4
aS'https://www.clarin.com/politica/viaticos-Bonaerense-civil_0_1667233432.html'
p5
aS'https://www.clarin.com/sociedad/interaccion-nutre-mecanica-cerebral_0_1667233442.html'
p6
aS'https://www.clarin.com/sociedad/Duras-criticas-gremios-prueba-Aprender_0_1667233439.html'
p7
a.