(lp0
S'https://www.clarin.com/sociedad/ministro-pampeano-critico-maestras-embarazos_0_1578442194.html'
p1
aS'https://www.clarin.com/politica/Batman-insolito-interna-traspaso-Federal_0_1578442210.html'
p2
aS'https://www.clarin.com/sociedad/tragico-final-ballenas-Mexico_0_1578442197.html'
p3
aS'https://www.clarin.com/politica/Malcorra-Macri-Cascos-Blancos-internacional_0_1577842350.html'
p4
aS'https://www.clarin.com/ieco/Club-Paris-celebro-cumpleanos_0_1578442196.html'
p5
aS'https://www.clarin.com/ieco/economia/Scioli-provincia-fiscal-alto-gestion_0_1578442207.html'
p6
aS'https://www.clarin.com/sociedad/metodo-perfecto-armar-valija_0_1578442205.html'
p7
a.