(lp0
Vhttps://www.clarin.com/sociedad/Cientificos-descubren-arana-surfea-Australia_0_1537646541.html
p1
aVhttps://www.clarin.com/sociedad/Cientificos-descubren-arana-surfea-Australia_0_1537646541.html
p2
aVhttps://www.clarin.com/sociedad/polemica-Barbie-llego-museo_0_1537646539.html
p3
aVhttps://www.clarin.com/sociedad/polemica-Barbie-llego-museo_0_1537646539.html
p4
aVhttps://www.clarin.com/ieco/dolar-sigue-cayendo-cotiza_0_1537646470.html
p5
aVhttps://www.clarin.com/sociedad/Bahia-Blanca-imputan-funcionarios-chica_0_1537646532.html
p6
aVhttps://www.clarin.com/sociedad/Bahia-Blanca-imputan-funcionarios-chica_0_1537646532.html
p7
aVhttps://www.clarin.com/sociedad/Dengue-ministra-Salud-Ciudad-reconocio_0_1537646528.html
p8
aVhttps://www.clarin.com/sociedad/Dengue-ministra-Salud-Ciudad-reconocio_0_1537646528.html
p9
aVhttps://www.clarin.com/sociedad/Protestas-docentes-Mendoza-Santiago-Estero_0_1537646523.html
p10
aVhttps://www.clarin.com/sociedad/Protestas-docentes-Mendoza-Santiago-Estero_0_1537646523.html
p11
a.