(lp0
Vhttps://www.clarin.com/sociedad/historia-Ernest-Shackleton-emular-explorador-Henry_Worsley_0_1510649186.html
p1
aVhttps://www.clarin.com/sociedad/historia-Ernest-Shackleton-emular-explorador-Henry_Worsley_0_1510649186.html
p2
aVhttps://www.clarin.com/sociedad/OMS-confirma-Zika-extendera-America_0_1510649233.html
p3
aVhttps://www.clarin.com/sociedad/OMS-confirma-Zika-extendera-America_0_1510649233.html
p4
aVhttps://www.clarin.com/sociedad/obesidad-infantil-alarmante-OMS_0_1510649225.html
p5
aVhttps://www.clarin.com/sociedad/obesidad-infantil-alarmante-OMS_0_1510649225.html
p6
aVhttps://www.clarin.com/sociedad/provoco-destrozos-localidad-bonaerense-Henderson_0_1510649212.html
p7
aVhttps://www.clarin.com/sociedad/provoco-destrozos-localidad-bonaerense-Henderson_0_1510649212.html
p8
aVhttps://www.clarin.com/sociedad/olas-problema-turistas-Chile_0_1510649209.html
p9
aVhttps://www.clarin.com/sociedad/olas-problema-turistas-Chile_0_1510649209.html
p10
aVhttps://www.clarin.com/politica/Scioli-postulacion-Macri-Massa-peronismo_0_1510649206.html
p11
aVhttps://www.clarin.com/politica/Scioli-postulacion-Macri-Massa-peronismo_0_1510649206.html
p12
a.