(lp0
S'https://www.clarin.com/politica/Revelan-documentos-dictadura-entrego-Unidos_0_1628237297.html'
p1
aS'https://www.clarin.com/politica/Revelan-documentos-dictadura-entrego-Unidos_0_1628237297.html'
p2
aS'https://www.clarin.com/sociedad/Mauro-Matos-protagonista-accidente-Rosario_0_1628237289.html'
p3
aS'https://www.clarin.com/sociedad/Mauro-Matos-protagonista-accidente-Rosario_0_1628237289.html'
p4
aS'https://www.clarin.com/sociedad/agotaron-recursos-Tierra-ano_0_1628237282.html'
p5
aS'https://www.clarin.com/sociedad/agotaron-recursos-Tierra-ano_0_1628237282.html'
p6
a.