(lp0
S'https://www.clarin.com/ieco/campo-dolares-exportaciones-industria_0_1511249308.html'
p1
aS'https://www.clarin.com/ieco/economia/Argentina-consigue-eludir-turbulencias-mercados_0_1511249257.html'
p2
aS'https://www.clarin.com/politica/macri-carrio-agenda-rosada_0_1511249262.html'
p3
aS'https://www.clarin.com/politica/macri-carrio-agenda-rosada_0_1511249262.html'
p4
aS'https://www.clarin.com/politica/Campagnoli-profugos_0_1511249255.html'
p5
aS'https://www.clarin.com/politica/Campagnoli-profugos_0_1511249255.html'
p6
aS'https://www.clarin.com/ieco/economia/petroleo-acuerdo-OPEP-Rusia-reducir_0_1511249233.html'
p7
a.