(lp0
S'https://www.clarin.com/sociedad/Piden-elija-nombres-perros-Policia_0_1670832974.html'
p1
aS'https://www.clarin.com/sociedad/Piden-elija-nombres-perros-Policia_0_1670832974.html'
p2
aS'https://www.clarin.com/ieco/litigiosidad-laboral-record-septiembre_0_1670832977.html'
p3
aS'https://www.clarin.com/ieco/litigiosidad-laboral-record-septiembre_0_1670832977.html'
p4
aS'https://www.clarin.com/politica/juventud-PRO-Dia-Lealtad-Macri_0_1670832969.html'
p5
aS'https://www.clarin.com/politica/juventud-PRO-Dia-Lealtad-Macri_0_1670832969.html'
p6
a.