(lp0
S'https://www.clarin.com/ieco/web-yihadista-dinero-avisos-Google_0_1578442232.html'
p1
aS'https://www.clarin.com/sociedad/Aseguran-conocer-persona-traves-celular_0_1578442227.html'
p2
aS'https://www.clarin.com/ieco/economia/Contrataciones-publicas-Gobierno-llamados-licitacion_0_1578442238.html'
p3
aS'https://www.clarin.com/politica/Marijuan-allanados-Baez-ascienden-millones_0_1578442233.html'
p4
aS'https://www.clarin.com/politica/Gobierno-acerca-Alianza-Pacifico_0_1578442225.html'
p5
a.