(lp0
S'https://www.clarin.com/politica/provincias-insisten-pueden-pagar-fija_0_1666633511.html'
p1
aS'https://www.clarin.com/politica/Presupuesto-PJ-fija-agenda-negociar_0_1666633507.html'
p2
aS'https://www.clarin.com/politica/Gobierno-CGT-ampliar-jubilados-Ganancias_0_1667233274.html'
p3
aS'https://www.clarin.com/sociedad/Primer-pedido-marihuana-medicinal-Chubut_0_1667233276.html'
p4
aS'https://www.clarin.com/politica/Julio-Cobos-inesperado-oficialismo-Senado_0_1666633519.html'
p5
a.