(lp0
Vhttps://www.clarin.com/politica/Macri-Casa-Rosada-tregua-despidos_0_1573642731.html
p1
aVhttps://www.clarin.com/politica/Macri-Casa-Rosada-tregua-despidos_0_1573642731.html
p2
aVhttps://www.clarin.com/ieco/economia/Economistas-manifiestan-paraisos-fiscales_0_1573642713.html
p3
aVhttps://www.clarin.com/ieco/economia/despachos-cayeron-contexto-recesivo-paralizadas_0_1573642707.html
p4
a.