(lp0
S'https://www.clarin.com/politica/Victor_Hugo_Morales-Continental-despido-Eduardo_Feinmann_0_1502849966.html'
p1
aS'https://www.clarin.com/sociedad/modelo-murio-operacion-estetica_0_1502849962.html'
p2
aS'https://www.clarin.com/sociedad/Murio-aplastado-puesto-panchos-Cordoba_0_1502849953.html'
p3
aS'https://www.clarin.com/sociedad/bilbao-espana-avion-aterrizaje-viento-cruzado-video-pasajeros_0_1502849946.html'
p4
aS'https://www.clarin.com/politica/Sabbatella-Ley_de_Medios-AFSCA_0_1502849975.html'
p5
aS'https://www.clarin.com/politica/Triple-FpV-Bullrich-Burzaco-Congreso_0_1502849960.html'
p6
aS'https://www.clarin.com/ieco/economia/hombre-llevo-musica-mercado-bonos_0_1502849969.html'
p7
aS'https://www.clarin.com/politica/Mauricio_Macri-conferencia_de_prensa-definiciones_0_1502849972.html'
p8
a.