(lp0
Vhttps://www.clarin.com/ieco/campo-promete-inversiones-millones-dolares_0_1598840223.html
p1
aVhttps://www.clarin.com/ieco/campo-promete-inversiones-millones-dolares_0_1598840223.html
p2
aVhttps://www.clarin.com/politica/UIA-admite-criticaba-perdia-publica_0_1598840266.html
p3
aVhttps://www.clarin.com/politica/UIA-admite-criticaba-perdia-publica_0_1598840266.html
p4
aVhttps://www.clarin.com/politica/Temo-marido-aparezca-muerto-decir_0_1598840256.html
p5
aVhttps://www.clarin.com/politica/Temo-marido-aparezca-muerto-decir_0_1598840256.html
p6
aVhttps://www.clarin.com/politica/paraguaya-Perez-Corradi-entraba-Argentina_0_1598840261.html
p7
aVhttps://www.clarin.com/politica/paraguaya-Perez-Corradi-entraba-Argentina_0_1598840261.html
p8
aVhttps://www.clarin.com/politica/Ahora-Gobierno-resto-profugos-efedrina_0_1598840254.html
p9
a.