(lp0
S'https://www.clarin.com/politica/Historia-vetos-presidenciales-Alfonsin-Macri_0_1580242045.html'
p1
aS'https://www.clarin.com/sociedad/Punos-video-ensena-coreo-Oyarbide_0_1580242035.html'
p2
aS'https://www.clarin.com/sociedad/Hallazgo-Auschwitz-encontraron-anillo-prisioneros_0_1580242047.html'
p3
aS'https://www.clarin.com/politica/Lagomarsino-Arroyo-Salgado-mentir-Nisman_0_1580242037.html'
p4
aS'https://www.clarin.com/ieco/economia/Comision-Europea-OMC-favorable-argentino_0_1580242046.html'
p5
aS'https://www.clarin.com/ieco/economia/Aluar-YPF-invertir-US-millones_0_1580242121.html'
p6
aS'https://www.clarin.com/sociedad/Time-Warp-documentos-vinculados-Stinfale_0_1580242044.html'
p7
a.