(lp0
Vhttps://www.clarin.com/politica/Alberto-Massa-Anibal-Carrio-Gabinete_0_1638436168.html
p1
aVhttps://www.clarin.com/politica/Alberto-Massa-Anibal-Carrio-Gabinete_0_1638436168.html
p2
aVhttps://www.clarin.com/sociedad/demuestra-influencia-sobrepeso-obesidad-cancer_0_1638436169.html
p3
aVhttps://www.clarin.com/sociedad/demuestra-influencia-sobrepeso-obesidad-cancer_0_1638436169.html
p4
aVhttps://www.clarin.com/politica/Cristina-inmuebles-hijos-despues-procesada_0_1638436166.html
p5
aVhttps://www.clarin.com/politica/Cristina-inmuebles-hijos-despues-procesada_0_1638436166.html
p6
aVhttps://www.clarin.com/politica/Interna-Iglesia-cura-durisimo-Aguer_0_1638436161.html
p7
aVhttps://www.clarin.com/politica/Interna-Iglesia-cura-durisimo-Aguer_0_1638436161.html
p8
aVhttps://www.clarin.com/ieco/Sindicatos-energia-piden-Macri-reciba_0_1638436162.html
p9
aVhttps://www.clarin.com/sociedad/Bariloche-colegio-aleman-fiesta-simbologia_0_1637836373.html
p10
aVhttps://www.clarin.com/sociedad/Bariloche-colegio-aleman-fiesta-simbologia_0_1637836373.html
p11
a.