(lp0
S'https://www.clarin.com/ieco/economia/YPF-reducir-inversiones-ajustar-laborales_0_1534046873.html'
p1
aS'https://www.clarin.com/politica/Negocian-simplificar-tramite-visas-EEUU_0_1534046883.html'
p2
aS'https://www.clarin.com/sociedad/descarga-celular-estres-pelicula-terror_0_1534046875.html'
p3
aS'https://www.clarin.com/sociedad/Macri-Fito-Paez-mismo-colegio_0_1534046879.html'
p4
aS'https://www.clarin.com/sociedad/youtuber-famosa-campanas-antidrogas-sobredosis_0_1534046878.html'
p5
aS'https://www.clarin.com/sociedad/ano-espacio-volvio-centimetros-alto_0_1534046841.html'
p6
a.