(lp0
S'https://www.clarin.com/politica/Gobierno-negocia-ampliar-beneficiarios-AUH_0_1671433016.html'
p1
aS'https://www.clarin.com/politica/Desesperado-Lazaro-Baez-recurre-CIDH_0_1671433011.html'
p2
aS'https://www.clarin.com/politica/Desesperado-Lazaro-Baez-recurre-CIDH_0_1671433011.html'
p3
aS'https://www.clarin.com/politica/Milani-quedo-fuegos_0_1671433015.html'
p4
aS'https://www.clarin.com/politica/Milani-quedo-fuegos_0_1671433015.html'
p5
a.