(lp0
Vhttps://www.clarin.com/ieco/tamberos-pueden-llegar-perder-capital_0_1531647094.html
p1
aVhttps://www.clarin.com/sociedad/perfil-intendente-infancia-exito-politico_0_1532846906.html
p2
aVhttps://www.clarin.com/sociedad/perfil-intendente-infancia-exito-politico_0_1532846906.html
p3
aVhttps://www.clarin.com/politica/Fondos-buitre-Gobierno-proyecto-oposicion_0_1532846896.html
p4
aVhttps://www.clarin.com/politica/Fondos-buitre-Gobierno-proyecto-oposicion_0_1532846896.html
p5
aVhttps://www.clarin.com/ieco/Crecen-febrero-importaciones-Brasil_0_1532846891.html
p6
aVhttps://www.clarin.com/ieco/Crecen-febrero-importaciones-Brasil_0_1532846891.html
p7
aVhttps://www.clarin.com/ieco/Fin-sciolista-Samid-Mercado-Central_0_1532846883.html
p8
aVhttps://www.clarin.com/ieco/Fin-sciolista-Samid-Mercado-Central_0_1532846883.html
p9
aVhttps://www.clarin.com/politica/Sorpresa-aparicion-empresas-agricolas-Urribarri_0_1532846858.html
p10
aVhttps://www.clarin.com/politica/Sorpresa-aparicion-empresas-agricolas-Urribarri_0_1532846858.html
p11
aVhttps://www.clarin.com/politica/Vidal-Brancatelli-provincia-Buenos-Aires_0_1532846887.html
p12
aVhttps://www.clarin.com/politica/Vidal-Brancatelli-provincia-Buenos-Aires_0_1532846887.html
p13
a.