(lp0
S'https://www.clarin.com/politica/Weretilneck-lanza-partido-propio_0_1571242991.html'
p1
aS'https://www.clarin.com/politica/Weretilneck-lanza-partido-propio_0_1571242991.html'
p2
aS'https://www.clarin.com/sociedad/viaje-egresados-Bariloche-cuesta-doble_0_1571243043.html'
p3
aS'https://www.clarin.com/sociedad/Aerolineas-Argentinas-dejara-Cuba-partir_0_1571243042.html'
p4
aS'https://www.clarin.com/sociedad/Aerolineas-Argentinas-dejara-Cuba-partir_0_1571243042.html'
p5
aS'https://www.clarin.com/ieco/economia/abril-canasta-pobreza-encarecio_0_1571242999.html'
p6
aS'https://www.clarin.com/politica/rompio-bloque-PJ-Senado-bonaerense_0_1571243029.html'
p7
aS'https://www.clarin.com/politica/rompio-bloque-PJ-Senado-bonaerense_0_1571243029.html'
p8
a.