(lp0
S'https://www.clarin.com/politica/Historico-tribunal-declaro-corrupcion-imprescriptible_0_1664233780.html'
p1
aS'https://www.clarin.com/politica/Macri-Gils-Carbo-Casa-Rosada_0_1664233777.html'
p2
aS'https://www.clarin.com/politica/Guinos-generacionales-economia-Marcos-Pena_0_1664233776.html'
p3
aS'https://www.clarin.com/ieco/PratGay-dejando-ahora-amenaza-mundo_0_1664233778.html'
p4
aS'https://www.clarin.com/ieco/calienta-lineas-aereas-empresas-colectivos_0_1664233760.html'
p5
aS'https://www.clarin.com/politica/UCR-Cristina-boina-blanca-kirchnerismo_0_1664233718.html'
p6
a.