(lp0
Vhttps://www.clarin.com/sociedad/accidente-reavivo-polemica-piloto-automatico_0_1614438601.html
p1
aVhttps://www.clarin.com/sociedad/accidente-reavivo-polemica-piloto-automatico_0_1614438601.html
p2
aVhttps://www.clarin.com/politica/Sobreprecios-Cordoba-AGN-comprometen-kirchnerista_0_1614438596.html
p3
aVhttps://www.clarin.com/politica/Sobreprecios-Cordoba-AGN-comprometen-kirchnerista_0_1614438596.html
p4
a.