(lp0
S'https://www.clarin.com/sociedad/Denuncian-redes-publicidad-racista-historia_0_1584441698.html'
p1
aS'https://www.clarin.com/sociedad/Denuncian-redes-publicidad-racista-historia_0_1584441698.html'
p2
aS'https://www.clarin.com/sociedad/Sexo-estudio-revelo-infieles-amantes_0_1584441664.html'
p3
aS'https://www.clarin.com/sociedad/Sexo-estudio-revelo-infieles-amantes_0_1584441664.html'
p4
aS'https://www.clarin.com/sociedad/Turistas-encuentran-extinto-graban-celular_0_1584441700.html'
p5
aS'https://www.clarin.com/sociedad/Turistas-encuentran-extinto-graban-celular_0_1584441700.html'
p6
aS'https://www.clarin.com/politica/Confirman-Senado-votara-pliegos-Corte_0_1584441691.html'
p7
aS'https://www.clarin.com/politica/Confirman-Senado-votara-pliegos-Corte_0_1584441691.html'
p8
aS'https://www.clarin.com/ieco/finanzas/dolar-mayorista-centavos-niveles-enero_0_1584441689.html'
p9
aS'https://www.clarin.com/ieco/finanzas/dolar-mayorista-centavos-niveles-enero_0_1584441689.html'
p10
aS'https://www.clarin.com/politica/Trabajadores-municipales-Caleta-Olivia-camiones_0_1584441687.html'
p11
aS'https://www.clarin.com/politica/Trabajadores-municipales-Caleta-Olivia-camiones_0_1584441687.html'
p12
aS'https://www.clarin.com/politica/Menem-volvio-vincular-Hezbollah-muerte_0_1584441683.html'
p13
aS'https://www.clarin.com/politica/Menem-volvio-vincular-Hezbollah-muerte_0_1584441683.html'
p14
a.