(lp0
S'https://www.clarin.com/politica/Insolitas-declaraciones-funcionario-Macri-interesa_0_1661233974.html'
p1
aS'https://www.clarin.com/politica/Insolitas-declaraciones-funcionario-Macri-interesa_0_1661233974.html'
p2
aS'https://www.clarin.com/politica/Juan-Tonelli-Michetti-defendio-intachable_0_1661233970.html'
p3
aS'https://www.clarin.com/politica/Juan-Tonelli-Michetti-defendio-intachable_0_1661233970.html'
p4
aS'https://www.clarin.com/politica/Subsidios-cooperativas-funcionarios-bonaerenses-irregularidades_0_1661233967.html'
p5
aS'https://www.clarin.com/politica/Subsidios-cooperativas-funcionarios-bonaerenses-irregularidades_0_1661233967.html'
p6
aS'https://www.clarin.com/politica/desopilante-clase-baile-Jose-Ottavis_0_1661233966.html'
p7
aS'https://www.clarin.com/politica/desopilante-clase-baile-Jose-Ottavis_0_1661233966.html'
p8
a.