(lp0
S'https://www.clarin.com/ieco/detalles-nuevo-plan-Procrear_0_1611438898.html'
p1
aS'https://www.clarin.com/politica/Vido-Jaime-indagatoria-creacion-aerolinea_0_1611438888.html'
p2
aS'https://www.clarin.com/sociedad/Incendian-biblioteca-homenajea-murio-cancer_0_1611438904.html'
p3
aS'https://www.clarin.com/politica/hoy-imperio-Lazaro-Baez_0_1611438874.html'
p4
aS'https://www.clarin.com/sociedad/Acosaba-hijastra-mato-escopetazo-nadie_0_1611438899.html'
p5
aS'https://www.clarin.com/politica/Perez-corradi-declara-Servini-Cubria_0_1611438889.html'
p6
aS'https://www.clarin.com/sociedad/famoso-compro-casa-cara-Vegas_0_1611438894.html'
p7
aS'https://www.clarin.com/sociedad/alumnos-canto-himno-conocerse-caras_0_1611438891.html'
p8
a.