(lp0
Vhttps://www.clarin.com/politica/Abren-Cristina-Maximo-Kirchner-enriquecimiento_0_1569443145.html
p1
aVhttps://www.clarin.com/politica/Abren-Cristina-Maximo-Kirchner-enriquecimiento_0_1569443145.html
p2
aVhttps://www.clarin.com/ieco/economia/intensas-lluvias-liquidacion-divisas-cerealeras_0_1569443133.html
p3
aVhttps://www.clarin.com/sociedad/increible-historia-leones-volvieron-Africa_0_1569443138.html
p4
aVhttps://www.clarin.com/sociedad/increible-historia-leones-volvieron-Africa_0_1569443138.html
p5
aVhttps://www.clarin.com/sociedad/Descubren-cercanos-Tierra-potencialmente-habitables_0_1569443137.html
p6
aVhttps://www.clarin.com/sociedad/Descubren-cercanos-Tierra-potencialmente-habitables_0_1569443137.html
p7
a.