(lp0
Vhttps://www.clarin.com/politica/Estalla-Luis-DElia-durisimo-Kicillof_0_1684631696.html
p1
aVhttps://www.clarin.com/politica/Estalla-Luis-DElia-durisimo-Kicillof_0_1684631696.html
p2
aVhttps://www.clarin.com/sociedad/familia-gastara-mil-quincena-playa_0_1684631687.html
p3
aVhttps://www.clarin.com/sociedad/familia-gastara-mil-quincena-playa_0_1684631687.html
p4
aVhttps://www.clarin.com/sociedad/mismos-reclamos-escuela-abre_0_1684631694.html
p5
aVhttps://www.clarin.com/sociedad/mismos-reclamos-escuela-abre_0_1684631694.html
p6
aVhttps://www.clarin.com/sociedad/paros-cupo-colegios-privados_0_1684631692.html
p7
aVhttps://www.clarin.com/sociedad/paros-cupo-colegios-privados_0_1684631692.html
p8
aVhttps://www.clarin.com/politica/Piden-EEUU-secretario-Nestor-Kirchner_0_1684631650.html
p9
aVhttps://www.clarin.com/politica/Piden-EEUU-secretario-Nestor-Kirchner_0_1684631650.html
p10
aVhttps://www.clarin.com/sociedad/Afirman-lentas-reservas-verano-Costa_0_1684631684.html
p11
aVhttps://www.clarin.com/sociedad/Afirman-lentas-reservas-verano-Costa_0_1684631684.html
p12
a.