(lp0
Vhttps://www.clarin.com/politica/tomo-compromisos-clave-cumbre-anticorrupcion_0_1575442637.html
p1
aVhttps://www.clarin.com/politica/tomo-compromisos-clave-cumbre-anticorrupcion_0_1575442637.html
p2
aVhttps://www.clarin.com/politica/Carrio-Siento-Papa-Margarita-Barrientos_0_1575442628.html
p3
aVhttps://www.clarin.com/politica/Carrio-Siento-Papa-Margarita-Barrientos_0_1575442628.html
p4
aVhttps://www.clarin.com/politica/tension-antidespidos-Triaca-Consejo-Salario_0_1575442615.html
p5
aVhttps://www.clarin.com/politica/tension-antidespidos-Triaca-Consejo-Salario_0_1575442615.html
p6
a.