(lp0
Vhttps://www.clarin.com/sociedad/encontraba-talle-linea-lenceria-rellenitas_0_1623437664.html
p1
aVhttps://www.clarin.com/sociedad/encontraba-talle-linea-lenceria-rellenitas_0_1623437664.html
p2
aVhttps://www.clarin.com/sociedad/fiebre-Pokemon-Go-Coliseo-romano_0_1623437719.html
p3
aVhttps://www.clarin.com/sociedad/fiebre-Pokemon-Go-Coliseo-romano_0_1623437719.html
p4
aVhttps://www.clarin.com/sociedad/hijo-atado-perro-presos_0_1623437716.html
p5
aVhttps://www.clarin.com/sociedad/hijo-atado-perro-presos_0_1623437716.html
p6
aVhttps://www.clarin.com/politica/Marcos-Pena-cruzo-Cristina-Kirchner_0_1623437715.html
p7
aVhttps://www.clarin.com/politica/Marcos-Pena-cruzo-Cristina-Kirchner_0_1623437715.html
p8
aVhttps://www.clarin.com/politica/Eugenio-Zaffaroni-Cristina-llegar-presa_0_1623437687.html
p9
aVhttps://www.clarin.com/politica/Eugenio-Zaffaroni-Cristina-llegar-presa_0_1623437687.html
p10
aVhttps://www.clarin.com/sociedad/Cansados-Facebook-fotos-pozos-barrio_0_1623437676.html
p11
aVhttps://www.clarin.com/sociedad/Cansados-Facebook-fotos-pozos-barrio_0_1623437676.html
p12
aVhttps://www.clarin.com/sociedad/increible-historia-Rocky-orangutan-habla_0_1623437665.html
p13
aVhttps://www.clarin.com/sociedad/increible-historia-Rocky-orangutan-habla_0_1623437665.html
p14
a.