(lp0
S'https://www.clarin.com/politica/Lopez-convento-revelaciones-intendente-testigo_0_1631836850.html'
p1
aS'https://www.clarin.com/ieco/economia/innovacion-grandes-empresas-lanzan-aceleradoras_0_1631836820.html'
p2
aS'https://www.clarin.com/ieco/economia/apertura-diversidad-sexual-avanza-empresas_0_1631836824.html'
p3
aS'https://www.clarin.com/politica/Abal-Medina-Massa-renovacion-PJ_0_1631836860.html'
p4
aS'https://www.clarin.com/ieco/economia/Esperan-blanqueo-fiscal-aceitar-economia_0_1631836814.html'
p5
aS'https://www.clarin.com/sociedad/Innovacion-Clarin-responder-desafios-digital_0_1631836854.html'
p6
aS'https://www.clarin.com/ieco/economia/smartphone-llave-entender-usuario_0_1631836827.html'
p7
a.