(lp0
Vhttps://www.clarin.com/politica/Lazaro-Baez-futbol-estudia-expediente_0_1580842077.html
p1
aVhttps://www.clarin.com/politica/vincularia-causa-efedrina-Triple-Crimen_0_1580842073.html
p2
aVhttps://www.clarin.com/politica/vincularia-causa-efedrina-Triple-Crimen_0_1580842073.html
p3
aVhttps://www.clarin.com/politica/Buenos-Aires-reelecciones-indefinidas-legisladores_0_1580842054.html
p4
aVhttps://www.clarin.com/politica/Buenos-Aires-reelecciones-indefinidas-legisladores_0_1580842054.html
p5
aVhttps://www.clarin.com/opinion/Mataron-hijo-Ramon_0_1580842059.html
p6
aVhttps://www.clarin.com/opinion/Mataron-hijo-Ramon_0_1580842059.html
p7
aVhttps://www.clarin.com/opinion/Cosas-vale-pena-vivir_0_1580842036.html
p8
aVhttps://www.clarin.com/ieco/economia/UCA-pobreza-avanza-trabajadores-informales_0_1580842070.html
p9
aVhttps://www.clarin.com/ieco/economia/UCA-pobreza-avanza-trabajadores-informales_0_1580842070.html
p10
aVhttps://www.clarin.com/politica/misterioso-Gaita-posible-contrabando-Echegaray_0_1580242189.html
p11
aVhttps://www.clarin.com/politica/misterioso-Gaita-posible-contrabando-Echegaray_0_1580242189.html
p12
aVhttps://www.clarin.com/politica/Gobierno-acerca-organizaciones-sociales-protestas_0_1580842062.html
p13
aVhttps://www.clarin.com/politica/Gobierno-acerca-organizaciones-sociales-protestas_0_1580842062.html
p14
aVhttps://www.clarin.com/ieco/economia/meses-salarios-perdieron-poder-adquisitivo_0_1580842031.html
p15
aVhttps://www.clarin.com/ieco/economia/meses-salarios-perdieron-poder-adquisitivo_0_1580842031.html
p16
aVhttps://www.clarin.com/ieco/economia/Heidi-vuelve-renovada_0_1581441909.html
p17
aVhttps://www.clarin.com/ieco/economia/Heidi-vuelve-renovada_0_1581441909.html
p18
a.