(lp0
Vhttps://www.clarin.com/sociedad/Video-suelo-respira-Italia_0_1537646450.html
p1
aVhttps://www.clarin.com/sociedad/Video-suelo-respira-Italia_0_1537646450.html
p2
aVhttps://www.clarin.com/ieco/economia/YPF-Gobierno-internacional-encontrar-CEO_0_1537646443.html
p3
aVhttps://www.clarin.com/ieco/economia/YPF-Gobierno-internacional-encontrar-CEO_0_1537646443.html
p4
aVhttps://www.clarin.com/ieco/economia/Pampa-vendera-TGS-emitira-afuera_0_1537646440.html
p5
aVhttps://www.clarin.com/ieco/economia/China-aprueba-prestamo-US-millones_0_1537646437.html
p6
aVhttps://www.clarin.com/ieco/economia/China-aprueba-prestamo-US-millones_0_1537646437.html
p7
aVhttps://www.clarin.com/sociedad/Video-momento-rompio-glaciar_0_1537646436.html
p8
aVhttps://www.clarin.com/sociedad/Video-momento-rompio-glaciar_0_1537646436.html
p9
aVhttps://www.clarin.com/politica/Ahora-Gobierno-Macri-Obama-Bariloche_0_1537646428.html
p10
aVhttps://www.clarin.com/politica/Ahora-Gobierno-Macri-Obama-Bariloche_0_1537646428.html
p11
a.