(lp0
Vhttps://www.clarin.com/politica/Kicillof-Gobierno-Macri-personaje-Capusotto_0_1589841079.html
p1
aVhttps://www.clarin.com/politica/Kicillof-Gobierno-Macri-personaje-Capusotto_0_1589841079.html
p2
aVhttps://www.clarin.com/sociedad/Unio-Necochea-Alaska-moto-delivery_0_1589841076.html
p3
aVhttps://www.clarin.com/sociedad/Unio-Necochea-Alaska-moto-delivery_0_1589841076.html
p4
aVhttps://www.clarin.com/sociedad/ataque-tiburon-Australia-victimas-dias_0_1589841031.html
p5
aVhttps://www.clarin.com/sociedad/ataque-tiburon-Australia-victimas-dias_0_1589841031.html
p6
aVhttps://www.clarin.com/politica/Indice-Optimismo-expectativas-economicas-politicas_0_1589241122.html
p7
aVhttps://www.clarin.com/politica/Frigerio-dijimos-infalibles-tarifas-equivocamos_0_1589841030.html
p8
aVhttps://www.clarin.com/politica/Frigerio-dijimos-infalibles-tarifas-equivocamos_0_1589841030.html
p9
aVhttps://www.clarin.com/politica/Lorenzetti-Reducir-Papa-dirigente-gravisimo_0_1589841028.html
p10
aVhttps://www.clarin.com/politica/Lorenzetti-Reducir-Papa-dirigente-gravisimo_0_1589841028.html
p11
aVhttps://www.clarin.com/sociedad/Liberaron-ninera-filmado-golpeando-bebe_0_1589841027.html
p12
aVhttps://www.clarin.com/sociedad/Liberaron-ninera-filmado-golpeando-bebe_0_1589841027.html
p13
aVhttps://www.clarin.com/sociedad/historia-diputado-ahora-chofer-Uber_0_1589841023.html
p14
aVhttps://www.clarin.com/sociedad/historia-diputado-ahora-chofer-Uber_0_1589841023.html
p15
a.