(lp0
Vhttps://www.clarin.com/politica/Boudou-paso-juicio-causa-Ciccone_0_1600040101.html
p1
aVhttps://www.clarin.com/politica/Boudou-paso-juicio-causa-Ciccone_0_1600040101.html
p2
aVhttps://www.clarin.com/politica/Procesaron-Vido-Jaime-irregularidades-ferroviarios_0_1600040097.html
p3
aVhttps://www.clarin.com/politica/Procesaron-Vido-Jaime-irregularidades-ferroviarios_0_1600040097.html
p4
aVhttps://www.clarin.com/politica/Perez-Corradi-Gobierno-ratifica-AFI_0_1600040095.html
p5
aVhttps://www.clarin.com/politica/Perez-Corradi-Gobierno-ratifica-AFI_0_1600040095.html
p6
aVhttps://www.clarin.com/politica/Camioneros-negociacion-salarial-lanzan-sorpresivos_0_1600040098.html
p7
aVhttps://www.clarin.com/politica/Camioneros-negociacion-salarial-lanzan-sorpresivos_0_1600040098.html
p8
aVhttps://www.clarin.com/ieco/economia/Claves-pagar-IVA-forma-trimestral_0_1600040094.html
p9
aVhttps://www.clarin.com/ieco/economia/Claves-pagar-IVA-forma-trimestral_0_1600040094.html
p10
aVhttps://www.clarin.com/ieco/Protestan-productores-cerdos-importaciones-Brasil_0_1600040087.html
p11
aVhttps://www.clarin.com/ieco/Protestan-productores-cerdos-importaciones-Brasil_0_1600040087.html
p12
aVhttps://www.clarin.com/sociedad/cuesta-Seleccion-final-Copa-America_0_1600040089.html
p13
aVhttps://www.clarin.com/sociedad/cuesta-Seleccion-final-Copa-America_0_1600040089.html
p14
a.