(lp0
S'https://www.clarin.com/sociedad/Dengue-pasar-fumigadores-entrar-robar_0_1526247571.html'
p1
aS'https://www.clarin.com/ieco/economia/vez-surtidores-falta-rentabilidad_0_1526847513.html'
p2
aS'https://www.clarin.com/politica/Lousteau-Obama-significa-Argentina-internacional_0_1526847520.html'
p3
aS'https://www.clarin.com/politica/Pablo-Micheli-descartamos-nacional-marzo_0_1526847557.html'
p4
aS'https://www.clarin.com/politica/Frigerio-adelanto-Gobierno-provincias-paritaria_0_1526847552.html'
p5
aS'https://www.clarin.com/politica/Perro-Santillan-Milagro-Sala-domicilio_0_1526847490.html'
p6
a.