(lp0
Vhttps://www.clarin.com/sociedad/Bill-Cosby-juicio-acusado-sexual_0_1582641849.html
p1
aVhttps://www.clarin.com/sociedad/Bill-Cosby-juicio-acusado-sexual_0_1582641849.html
p2
aVhttps://www.clarin.com/sociedad/hombre-selfies-cuidador-intento-salvarlo_0_1582641848.html
p3
aVhttps://www.clarin.com/sociedad/hombre-selfies-cuidador-intento-salvarlo_0_1582641848.html
p4
aVhttps://www.clarin.com/sociedad/Encuentran-momia-importante-faraonica-Egipto_0_1582641846.html
p5
aVhttps://www.clarin.com/sociedad/Encuentran-momia-importante-faraonica-Egipto_0_1582641846.html
p6
aVhttps://www.clarin.com/sociedad/Video-colectivo-futuro-arriba-autos_0_1582641786.html
p7
aVhttps://www.clarin.com/sociedad/Video-colectivo-futuro-arriba-autos_0_1582641786.html
p8
aVhttps://www.clarin.com/politica/Mirtha-almuerzo-Macri-tarifas-altas_0_1582641841.html
p9
aVhttps://www.clarin.com/politica/Mirtha-almuerzo-Macri-tarifas-altas_0_1582641841.html
p10
a.