(lp0
S'https://www.clarin.com/politica/Aranguren-Congreso-oposicion-aumentos-tarifas_0_1631836952.html'
p1
aS'https://www.clarin.com/politica/Corte-tarifas-dilema-voto-Rosenkrantz_0_1631836926.html'
p2
aS'https://www.clarin.com/opinion/Autos-gama-niveles-velocidad-letales_0_1631836899.html'
p3
aS'https://www.clarin.com/ieco/ventas-minoristas-cayeron-julio_0_1632436755.html'
p4
aS'https://www.clarin.com/sociedad/Asesino-balazos-esposa-suicido-discusion_0_1632436751.html'
p5
aS'https://www.clarin.com/politica/deficit-designan-coordinador-empresas-estatales_0_1631836939.html'
p6
a.