(lp0
S'https://www.clarin.com/politica/Podria-convertirse-principal-imputado-privilegiado_0_1607239409.html'
p1
aS'https://www.clarin.com/sociedad/libres-Time-Warp-acusan-delito_0_1607239428.html'
p2
aS'https://www.clarin.com/opinion/Extincion-dominio-reciclaje-propuestas_0_1607239391.html'
p3
aS'https://www.clarin.com/politica/hijos-Lazaro-Baez-contestaran-preguntas_0_1607839204.html'
p4
aS'https://www.clarin.com/sociedad/Fallo-radar-volar-caos_0_1607239438.html'
p5
aS'https://www.clarin.com/politica/Perez-Corradi-declarar-jueza-Servini_0_1607239415.html'
p6
aS'https://www.clarin.com/politica/embajador-Mamet-elogio-positivo-Argentina_0_1607239464.html'
p7
aS'https://www.clarin.com/opinion/universidad-inclusiva-rigida_0_1607239387.html'
p8
aS'https://www.clarin.com/ieco/economia/Cordoba-sumo-provincias-amparos-tarifas_0_1607239407.html'
p9
aS'https://www.clarin.com/opinion/Resignificar-independencia_0_1607239400.html'
p10
aS'https://www.clarin.com/sociedad/hijo-operado-veces-casa-rehabilitarlo_0_1607239444.html'
p11
a.