(lp0
Vhttps://www.clarin.com/ieco/fallo-Argentina-volvio-radar-inversores_0_1558644588.html
p1
aVhttps://www.clarin.com/ieco/fallo-Argentina-volvio-radar-inversores_0_1558644588.html
p2
aVhttps://www.clarin.com/politica/camaristas-subieron-ola_0_1558644510.html
p3
aVhttps://www.clarin.com/politica/camaristas-subieron-ola_0_1558644510.html
p4
aVhttps://www.clarin.com/politica/Farina-libre-Gobierno-busca-alojarlo_0_1558644550.html
p5
aVhttps://www.clarin.com/politica/Farina-libre-Gobierno-busca-alojarlo_0_1558644550.html
p6
a.