(lp0
Vhttps://www.clarin.com/politica/Narcotrafico-funcionario-famoso-apunto-gobernador_0_1581441936.html
p1
aVhttps://www.clarin.com/politica/Narcotrafico-funcionario-famoso-apunto-gobernador_0_1581441936.html
p2
aVhttps://www.clarin.com/politica/Gobierno-asegura-paro-veto-antidespidos_0_1581441931.html
p3
aVhttps://www.clarin.com/politica/Gobierno-asegura-paro-veto-antidespidos_0_1581441931.html
p4
aVhttps://www.clarin.com/politica/Iglesia-advirtio-fragilidad-laboral-hermanos_0_1581441927.html
p5
aVhttps://www.clarin.com/politica/Iglesia-advirtio-fragilidad-laboral-hermanos_0_1581441927.html
p6
aVhttps://www.clarin.com/politica/Massa-reelecciones-terminar-politicos-eternizan_0_1581441924.html
p7
aVhttps://www.clarin.com/politica/Massa-reelecciones-terminar-politicos-eternizan_0_1581441924.html
p8
a.