(lp0
S'https://www.clarin.com/sociedad/Ahora-aprovecho-minuto_0_1619838184.html'
p1
aS'https://www.clarin.com/politica/insolita-declaracion-judicial-jardinero-Cristina_0_1619838111.html'
p2
aS'https://www.clarin.com/politica/insolita-declaracion-judicial-jardinero-Cristina_0_1619838111.html'
p3
aS'https://www.clarin.com/sociedad/escritora-romances-charla-cara-fans_0_1619838181.html'
p4
aS'https://www.clarin.com/sociedad/escritora-romances-charla-cara-fans_0_1619838181.html'
p5
aS'https://www.clarin.com/sociedad/golpeo-dias-rescato-Policia_0_1619838180.html'
p6
aS'https://www.clarin.com/sociedad/Cordoba-confirman-muerta-consumio-droga_0_1619838179.html'
p7
aS'https://www.clarin.com/sociedad/Cordoba-confirman-muerta-consumio-droga_0_1619838179.html'
p8
a.