(lp0
S'https://www.clarin.com/ieco/Retiran-toneladas-bidones-plasticos-campo_0_1541845990.html'
p1
aS'https://www.clarin.com/ieco/Retiran-toneladas-bidones-plasticos-campo_0_1541845990.html'
p2
aS'https://www.clarin.com/ieco/anuncio-Reserva-Federal-Bolsas-Europa_0_1541845996.html'
p3
aS'https://www.clarin.com/ieco/anuncio-Reserva-Federal-Bolsas-Europa_0_1541845996.html'
p4
aS'https://www.clarin.com/sociedad/Lucha-Justicia-conservar-cocodrilo-mascota_0_1541845995.html'
p5
aS'https://www.clarin.com/sociedad/Lucha-Justicia-conservar-cocodrilo-mascota_0_1541845995.html'
p6
aS'https://www.clarin.com/politica/New-York-Times-Obama-desclasifique_0_1541845991.html'
p7
aS'https://www.clarin.com/politica/New-York-Times-Obama-desclasifique_0_1541845991.html'
p8
a.