(lp0
S'https://www.clarin.com/politica/Stolbizer-Massa-secretos-romance-politico_0_1669033197.html'
p1
aS'https://www.clarin.com/politica/Stolbizer-Massa-secretos-romance-politico_0_1669033197.html'
p2
aS'https://www.clarin.com/ieco/Argentina-pais-infraestructura-deterioro-anos_0_1669033190.html'
p3
aS'https://www.clarin.com/ieco/Argentina-pais-infraestructura-deterioro-anos_0_1669033190.html'
p4
a.