(lp0
S'https://www.clarin.com/politica/Sancionan-partidos-frentes-incluir-mujeres_0_1662433793.html'
p1
aS'https://www.clarin.com/ieco/Volvio-septiembre-intercambio-comercial-Brasil_0_1662433799.html'
p2
aS'https://www.clarin.com/sociedad/Demoran-choferes-consumo-drogas_0_1662433800.html'
p3
aS'https://www.clarin.com/sociedad/Veladero-fiscales-piden-vuelva-operar_0_1662433798.html'
p4
a.