(lp0
S'https://www.clarin.com/politica/Milagro-Sala-cortaran-Buenos-Aires_0_1524447682.html'
p1
aS'https://www.clarin.com/politica/Milagro-Sala-cortaran-Buenos-Aires_0_1524447682.html'
p2
aS'https://www.clarin.com/politica/secretario-Defensa-Cameron-laborista-Argentina_0_1524447801.html'
p3
aS'https://www.clarin.com/politica/secretario-Defensa-Cameron-laborista-Argentina_0_1524447801.html'
p4
aS'https://www.clarin.com/sociedad/brasil-copacabana-robos-inseguridad_0_1524447788.html'
p5
aS'https://www.clarin.com/sociedad/brasil-copacabana-robos-inseguridad_0_1524447788.html'
p6
aS'https://www.clarin.com/politica/Oficina_Anticorrupcion-YPF-declaraciones_juradas_0_1524447791.html'
p7
aS'https://www.clarin.com/politica/Servini-denuncio-juez-Perez_Corradi_0_1524447785.html'
p8
aS'https://www.clarin.com/sociedad/Macri-denuncia-penal-danos-Posadas_0_1524447773.html'
p9
aS'https://www.clarin.com/sociedad/Macri-denuncia-penal-danos-Posadas_0_1524447773.html'
p10
a.