(lp0
Vhttps://www.clarin.com/sociedad/vuelta-loa-aplazos-evaluaran-alumnos_0_1573642768.html
p1
aVhttps://www.clarin.com/sociedad/playa-empezaron-demoler-balnearios-Pinamar_0_1573642765.html
p2
aVhttps://www.clarin.com/sociedad/playa-empezaron-demoler-balnearios-Pinamar_0_1573642765.html
p3
aVhttps://www.clarin.com/politica/Facundo-Moyano-acuerdo-empresarios_0_1573642762.html
p4
aVhttps://www.clarin.com/politica/Facundo-Moyano-acuerdo-empresarios_0_1573642762.html
p5
aVhttps://www.clarin.com/sociedad/Violencia-genero-denuncio-gendarme-vida_0_1573642760.html
p6
aVhttps://www.clarin.com/sociedad/Violencia-genero-denuncio-gendarme-vida_0_1573642760.html
p7
aVhttps://www.clarin.com/politica/Militantes-Pablo-Micheli-CTA-Cuba_0_1573642756.html
p8
aVhttps://www.clarin.com/politica/Militantes-Pablo-Micheli-CTA-Cuba_0_1573642756.html
p9
aVhttps://www.clarin.com/sociedad/Santiago-Estero-murio-ahogada-dentro_0_1573642703.html
p10
aVhttps://www.clarin.com/politica/Ercolini-hagan-autopsia-psicologica-Nisman_0_1573642754.html
p11
aVhttps://www.clarin.com/politica/Ercolini-hagan-autopsia-psicologica-Nisman_0_1573642754.html
p12
a.