(lp0
S'https://www.clarin.com/sociedad/Vacaciones-adolescentes-colegio-dias-descanso_0_1621038083.html'
p1
aS'https://www.clarin.com/politica/Vidal-reunio-Carrio-mantendra-Bonaerense_0_1621038092.html'
p2
aS'https://www.clarin.com/politica/Arranca-blanqueo-pago-jubilados-reglamentan_0_1621038077.html'
p3
aS'https://www.clarin.com/politica/tarifazo-cae-imagen-presidencial-Sur_0_1621038091.html'
p4
aS'https://www.clarin.com/politica/Duro-Santiago-Moro-Tinelli-extorsionador_0_1621038093.html'
p5
aS'https://www.clarin.com/sociedad/Video-rayo-impacta-Empire-State_0_1621037985.html'
p6
aS'https://www.clarin.com/politica/Avanza-Provincia-nueva-reforma-judicial_0_1621038079.html'
p7
aS'https://www.clarin.com/politica/susto-desmayo-Binner-mesas-Rural_0_1621038080.html'
p8
aS'https://www.clarin.com/sociedad/epopeya-trunca-ahora-debieramos-recrear_0_1621038084.html'
p9
aS'https://www.clarin.com/politica/Macri-paces-Tinelli-seguiran-imitaciones_0_1621038076.html'
p10
a.