(lp0
Vhttps://www.clarin.com/sociedad/Insolito-conejo-Pascuas-trompadas-shopping_0_1544245798.html
p1
aVhttps://www.clarin.com/sociedad/Insolito-conejo-Pascuas-trompadas-shopping_0_1544245798.html
p2
aVhttps://www.clarin.com/sociedad/Starbucks-desembarca-Italia-desato-polemica_0_1544245808.html
p3
aVhttps://www.clarin.com/sociedad/Starbucks-desembarca-Italia-desato-polemica_0_1544245808.html
p4
aVhttps://www.clarin.com/ieco/economia/inflaciones-mira-Gobierno_0_1544245801.html
p5
aVhttps://www.clarin.com/ieco/economia/inflaciones-mira-Gobierno_0_1544245801.html
p6
aVhttps://www.clarin.com/sociedad/Video-paso-anos-Twitter_0_1544245797.html
p7
aVhttps://www.clarin.com/sociedad/Video-paso-anos-Twitter_0_1544245797.html
p8
aVhttps://www.clarin.com/politica/Conflicto-docente-Mendoza-massismo-sesion_0_1544245785.html
p9
aVhttps://www.clarin.com/politica/Conflicto-docente-Mendoza-massismo-sesion_0_1544245785.html
p10
aVhttps://www.clarin.com/sociedad/victoria-Madonna-batalla-legal-hijo_0_1544245738.html
p11
aVhttps://www.clarin.com/sociedad/victoria-Madonna-batalla-legal-hijo_0_1544245738.html
p12
a.