(lp0
S'https://www.clarin.com/politica/Militantes-cruzan-vecinos-frente-Presidenta_0_1558044561.html'
p1
aS'https://www.clarin.com/politica/Excarcelaron-Leonardo-Farina_0_1558044549.html'
p2
aS'https://www.clarin.com/politica/Fanatismo-Dady-Brieva-elogios-Brancatelli_0_1558044540.html'
p3
a.