(lp0
Vhttps://www.clarin.com/ieco/Macri-pide-empresarios-empleo-inversion_0_1560444327.html
p1
aVhttps://www.clarin.com/ieco/Macri-pide-empresarios-empleo-inversion_0_1560444327.html
p2
aVhttps://www.clarin.com/opinion/Recuperar-tiempos-felices_0_1560444349.html
p3
aVhttps://www.clarin.com/sociedad/Brote-gastroenterocolitis-clases-dias_0_1560444380.html
p4
aVhttps://www.clarin.com/sociedad/Brote-gastroenterocolitis-clases-dias_0_1560444380.html
p5
aVhttps://www.clarin.com/politica/empresa-fantasma-Kirchner-lupa-judicial_0_1560444373.html
p6
aVhttps://www.clarin.com/politica/empresa-fantasma-Kirchner-lupa-judicial_0_1560444373.html
p7
aVhttps://www.clarin.com/politica/Stolbizer-amplia-denuncia-funcionarios_0_1560444366.html
p8
aVhttps://www.clarin.com/politica/contactos-secretos-Chueco-sospechas-desaparicion_0_1560444346.html
p9
aVhttps://www.clarin.com/politica/contactos-secretos-Chueco-sospechas-desaparicion_0_1560444346.html
p10
a.