(lp0
S'https://www.clarin.com/politica/PRO-respondio-Cristina-kirchnerismo-callarse_0_1592240850.html'
p1
aS'https://www.clarin.com/sociedad/Artistas-argentinos-prestigiosa-exposicion-Praga_0_1591640968.html'
p2
a.