(lp0
S'https://www.clarin.com/politica/Macri-Papa-mantendran-reunion-octubre_0_1616838453.html'
p1
aS'https://www.clarin.com/politica/Macri-Papa-mantendran-reunion-octubre_0_1616838453.html'
p2
aS'https://www.clarin.com/politica/abogado-Perez-Corradi-buscaron-Paraguay_0_1616838449.html'
p3
aS'https://www.clarin.com/politica/abogado-Perez-Corradi-buscaron-Paraguay_0_1616838449.html'
p4
aS'https://www.clarin.com/ieco/economia/sueldos-Rio-Negro-emitira-millones_0_1616838444.html'
p5
aS'https://www.clarin.com/ieco/Mapuches-ingreso-maquinaria-Vaca-Muerta_0_1616838443.html'
p6
aS'https://www.clarin.com/ieco/Mapuches-ingreso-maquinaria-Vaca-Muerta_0_1616838443.html'
p7
aS'https://www.clarin.com/ieco/sector-ganadero-posible-duplicar-produccion_0_1616838428.html'
p8
aS'https://www.clarin.com/ieco/sector-ganadero-posible-duplicar-produccion_0_1616838428.html'
p9
a.