(lp0
Vhttps://www.clarin.com/politica/estancia-Julia-encontraron-menciono-Farina_0_1568243305.html
p1
aVhttps://www.clarin.com/politica/estancia-Julia-encontraron-menciono-Farina_0_1568243305.html
p2
aVhttps://www.clarin.com/politica/detectaron-dinero-valijas-Milagro-Sala_0_1568243304.html
p3
aVhttps://www.clarin.com/politica/detectaron-dinero-valijas-Milagro-Sala_0_1568243304.html
p4
aVhttps://www.clarin.com/sociedad/aumentos-naftas-noche_0_1568243303.html
p5
aVhttps://www.clarin.com/sociedad/aumentos-naftas-noche_0_1568243303.html
p6
aVhttps://www.clarin.com/sociedad/Tolerancia-cero-alcohol-volante-Posadas_0_1568243301.html
p7
aVhttps://www.clarin.com/sociedad/Tolerancia-cero-alcohol-volante-Posadas_0_1568243301.html
p8
aVhttps://www.clarin.com/sociedad/aparecen-nuevos-sobredosis-dispara-reduccion_0_1568243302.html
p9
aVhttps://www.clarin.com/sociedad/aparecen-nuevos-sobredosis-dispara-reduccion_0_1568243302.html
p10
aVhttps://www.clarin.com/sociedad/Deshidratacion-excitacion-psicomotriz-hipotension-Rosario_0_1568243299.html
p11
aVhttps://www.clarin.com/sociedad/Deshidratacion-excitacion-psicomotriz-hipotension-Rosario_0_1568243299.html
p12
aVhttps://www.clarin.com/sociedad/funcionaria-quedo-casa-anciana_0_1568243296.html
p13
aVhttps://www.clarin.com/sociedad/funcionaria-quedo-casa-anciana_0_1568243296.html
p14
aVhttps://www.clarin.com/politica/Macri-Awada-volvio-territorio-Stanley_0_1568243297.html
p15
aVhttps://www.clarin.com/politica/Macri-Awada-volvio-territorio-Stanley_0_1568243297.html
p16
aVhttps://www.clarin.com/politica/Massa-Pichetto-cumbre-ley-antidespidos_0_1568243293.html
p17
a.