(lp0
S'https://www.clarin.com/politica/Llaman-octubre-dia-declare-Cristina_0_1554444678.html'
p1
aS'https://www.clarin.com/politica/Llaman-octubre-dia-declare-Cristina_0_1554444678.html'
p2
aS'https://www.clarin.com/ieco/economia/Fiat-anuncio-inversion-US-millones_0_1554444675.html'
p3
aS'https://www.clarin.com/politica/Justicia-reactiva-emblematica-corrupcion-Antonini_0_1554444673.html'
p4
aS'https://www.clarin.com/politica/Justicia-reactiva-emblematica-corrupcion-Antonini_0_1554444673.html'
p5
aS'https://www.clarin.com/sociedad/SuperVacios-convocan-boicot-supermercados-precios_0_1554444662.html'
p6
aS'https://www.clarin.com/sociedad/SuperVacios-convocan-boicot-supermercados-precios_0_1554444662.html'
p7
aS'https://www.clarin.com/politica/Baez-responder-preguntas-quedo-preso_0_1553845055.html'
p8
aS'https://www.clarin.com/politica/Baez-responder-preguntas-quedo-preso_0_1553845055.html'
p9
aS'https://www.clarin.com/politica/hijos-poder-involucrados-escandalos-corrupcion_0_1554444651.html'
p10
aS'https://www.clarin.com/politica/hijos-poder-involucrados-escandalos-corrupcion_0_1554444651.html'
p11
aS'https://www.clarin.com/politica/Macri-Misiones-esperan-rosario-reclamos_0_1554444652.html'
p12
aS'https://www.clarin.com/politica/Macri-Misiones-esperan-rosario-reclamos_0_1554444652.html'
p13
a.