(lp0
S'https://www.clarin.com/ieco/economia/desafio-actual-mantener-aumentar-empleo_0_1548445503.html'
p1
aS'https://www.clarin.com/sociedad/Subastaron-pueblo-pudieron-vender-precio_0_1548445514.html'
p2
aS'https://www.clarin.com/politica/Gobierno-impulsa-indagatoria-Echegaray-Ciccone_0_1548445502.html'
p3
a.