(lp0
S'https://www.clarin.com/politica/denuncias-Spolski-empresario-medios_0_1553844902.html'
p1
aS'https://www.clarin.com/politica/denuncias-Spolski-empresario-medios_0_1553844902.html'
p2
aS'https://www.clarin.com/ieco/economia/consumo-carne-primer-trimestre-segundo_0_1553844888.html'
p3
aS'https://www.clarin.com/sociedad/Cromanon-condenados-acusados-fallo-Justicia-Callejeros_0_1553844879.html'
p4
aS'https://www.clarin.com/sociedad/Cromanon-condenados-acusados-fallo-Justicia-Callejeros_0_1553844879.html'
p5
aS'https://www.clarin.com/sociedad/Instagram-censuro-foto-torta_0_1553844877.html'
p6
aS'https://www.clarin.com/sociedad/Instagram-censuro-foto-torta_0_1553844877.html'
p7
a.