(lp0
S'https://www.clarin.com/politica/negocio-criticar-facturar_0_1671432987.html'
p1
aS'https://www.clarin.com/sociedad/castores-Sur-primera-buscaran-erradicarlos_0_1671433005.html'
p2
aS'https://www.clarin.com/sociedad/Paro-oficinas-salieronal-mediodia-protestar_0_1671433013.html'
p3
aS'https://www.clarin.com/sociedad/jubilados-podran-volar-destinos-descuento_0_1671433009.html'
p4
aS'https://www.clarin.com/politica/PJ-intendentes-definir-reclamos-Vidal_0_1671433004.html'
p5
aS'https://www.clarin.com/sociedad/prueba-Aprender-ayuda-escuela_0_1671433007.html'
p6
aS'https://www.clarin.com/sociedad/primarias-publicas-perdieron-alumnos-ultimo_0_1671433006.html'
p7
a.