(lp0
Vhttps://www.clarin.com/sociedad/Salta-condenan-medico-muerte-anos_0_1672032830.html
p1
aVhttps://www.clarin.com/sociedad/Salta-condenan-medico-muerte-anos_0_1672032830.html
p2
aVhttps://www.clarin.com/sociedad/Highton-Nolasco-Justicia-bastante-cambiando_0_1672032828.html
p3
aVhttps://www.clarin.com/sociedad/Highton-Nolasco-Justicia-bastante-cambiando_0_1672032828.html
p4
aVhttps://www.clarin.com/ieco/Anticipan-diciembre-podra-tarjeta-celular_0_1672032825.html
p5
aVhttps://www.clarin.com/ieco/Anticipan-diciembre-podra-tarjeta-celular_0_1672032825.html
p6
aVhttps://www.clarin.com/politica/Plata-votos-ley-paridad-genero_0_1672032818.html
p7
aVhttps://www.clarin.com/politica/Plata-votos-ley-paridad-genero_0_1672032818.html
p8
a.