(lp0
S'https://www.clarin.com/opinion/oculto-duende-inspiracion_0_1654034766.html'
p1
aS'https://www.clarin.com/politica/Boca-Baez-Cristina-investigado-dinero_0_1654634535.html'
p2
aS'https://www.clarin.com/politica/unanimidad-Senado-ratifico-soberania-Malvinas_0_1654634629.html'
p3
aS'https://www.clarin.com/politica/gremialista-recibio-protesta-acusan-policia_0_1654634630.html'
p4
aS'https://www.clarin.com/politica/Granados-Cristina-Maximo-Kirchner-PRO_0_1654634632.html'
p5
a.