(lp0
Vhttps://www.clarin.com/politica/Intendentes-legisladores-peronistas-Tarifas-Seguridad_0_1611438931.html
p1
aVhttps://www.clarin.com/politica/Intendentes-legisladores-peronistas-Tarifas-Seguridad_0_1611438931.html
p2
aVhttps://www.clarin.com/politica/Cristina-Kirchner-Quieren-privarme-libertad_0_1611438928.html
p3
aVhttps://www.clarin.com/politica/Cristina-Kirchner-Quieren-privarme-libertad_0_1611438928.html
p4
aVhttps://www.clarin.com/ieco/Tarifas-asociaciones-consumidores-audiencia-publica_0_1611438929.html
p5
aVhttps://www.clarin.com/politica/Tarifas-Marcos-Pena-Aranguren-conferencia_0_1611438927.html
p6
aVhttps://www.clarin.com/sociedad/respondio-empresa-fabrica-chocolates-Kinder_0_1611438925.html
p7
aVhttps://www.clarin.com/sociedad/respondio-empresa-fabrica-chocolates-Kinder_0_1611438925.html
p8
aVhttps://www.clarin.com/politica/Tucuman-desaparecido-Luis-Eduardo-Falu_0_1611438924.html
p9
aVhttps://www.clarin.com/politica/Tucuman-desaparecido-Luis-Eduardo-Falu_0_1611438924.html
p10
aVhttps://www.clarin.com/sociedad/casos-diabetes-asociados-variantes-geneticas_0_1611438921.html
p11
aVhttps://www.clarin.com/sociedad/casos-diabetes-asociados-variantes-geneticas_0_1611438921.html
p12
aVhttps://www.clarin.com/sociedad/Mellizos-coparon-Famailla-clasico-encuentro_0_1611438917.html
p13
aVhttps://www.clarin.com/sociedad/Mellizos-coparon-Famailla-clasico-encuentro_0_1611438917.html
p14
a.