(lp0
Vhttps://www.clarin.com/politica/grieta-profunda-Central-CGT_0_1659434042.html
p1
aVhttps://www.clarin.com/politica/pobreza-cifra_0_1659434041.html
p2
aVhttps://www.clarin.com/politica/Caso-Nisman-extorsion-Florencia-Coccuci_0_1658834310.html
p3
aVhttps://www.clarin.com/politica/Caso-Nisman-extorsion-Florencia-Coccuci_0_1658834310.html
p4
aVhttps://www.clarin.com/politica/Gobierno-control-escrutinio-avanzar-electronica_0_1658834309.html
p5
aVhttps://www.clarin.com/politica/Gobierno-control-escrutinio-avanzar-electronica_0_1658834309.html
p6
aVhttps://www.clarin.com/politica/Acuerdo-massismo-aprobar-dictamen_0_1658834307.html
p7
aVhttps://www.clarin.com/politica/Acuerdo-massismo-aprobar-dictamen_0_1658834307.html
p8
aVhttps://www.clarin.com/politica/Carrio-Cambiemos-avanzo-evitar-PASO_0_1658834306.html
p9
a.