(lp0
Vhttps://www.clarin.com/politica/Bullrich-juntos-agarrados-mano_0_1648035185.html
p1
aVhttps://www.clarin.com/politica/Bullrich-juntos-agarrados-mano_0_1648035185.html
p2
aVhttps://www.clarin.com/politica/polemica-internas-operativo-efedrina_0_1648035184.html
p3
aVhttps://www.clarin.com/opinion/carteles-dan-risa_0_1647435384.html
p4
aVhttps://www.clarin.com/opinion/medalla-gestion-termino-sepultada-interna_0_1648035182.html
p5
aVhttps://www.clarin.com/opinion/medalla-gestion-termino-sepultada-interna_0_1648035182.html
p6
aVhttps://www.clarin.com/opinion/Aduana-Hollywood_0_1648035181.html
p7
aVhttps://www.clarin.com/opinion/Justicia-Legitima-cumple-ley_0_1647435455.html
p8
aVhttps://www.clarin.com/sociedad/Mira-Tiza-institucional-Fundacion-Noble_0_1647435439.html
p9
aVhttps://www.clarin.com/sociedad/inversion-todavia-ven-mejores-resultados_0_1647435451.html
p10
aVhttps://www.clarin.com/sociedad/inversion-todavia-ven-mejores-resultados_0_1647435451.html
p11
aVhttps://www.clarin.com/sociedad/cambiar-eje-economicista-debate_0_1647435450.html
p12
aVhttps://www.clarin.com/sociedad/ley-punto-inflexion-educacion_0_1647435449.html
p13
a.