(lp0
S'https://www.clarin.com/sociedad/Vaticano-anuncio-beatificara-Santigo-Estero_0_1519648426.html'
p1
aS'https://www.clarin.com/ieco/economia/Gobierno-estudio-abogados-litigio-buitres_0_1519648416.html'
p2
a.