(lp0
S'https://www.clarin.com/politica/inflacion-junio-supera-meta-oficial_0_1612638901.html'
p1
aS'https://www.clarin.com/politica/Senado-aprobo-incentivos-paraPymes-autopartistas_0_1612638898.html'
p2
aS'https://www.clarin.com/politica/Senado-aprobo-incentivos-paraPymes-autopartistas_0_1612638898.html'
p3
aS'https://www.clarin.com/politica/nueva-resolucion-confirma-aumento-gas_0_1612638889.html'
p4
aS'https://www.clarin.com/politica/Murio-luchador-incansable-derechos-humanos_0_1612638874.html'
p5
aS'https://www.clarin.com/politica/Murio-luchador-incansable-derechos-humanos_0_1612638874.html'
p6
a.