(lp0
S'https://www.clarin.com/politica/Rafecas-decreto-secreto-sumario-allanamientos_0_1595840456.html'
p1
aS'https://www.clarin.com/politica/peronista-termino-destrabar-discusion-Gobierno_0_1595840445.html'
p2
aS'https://www.clarin.com/politica/Allanan-casa-Jose-Lopez-Tigre_0_1595840443.html'
p3
aS'https://www.clarin.com/politica/PIden-determinar-Lopez-Vido-Once_0_1595840452.html'
p4
aS'https://www.clarin.com/ieco/economia/empleados-jubilados-Ganancias-Bienes-Personales_0_1595840455.html'
p5
aS'https://www.clarin.com/ieco/economia/mayo-inflacion-portena-llego_0_1595840449.html'
p6
aS'https://www.clarin.com/politica/ministros-dejaron-Kirchner-corrupcion-publica_0_1595840457.html'
p7
aS'https://www.clarin.com/sociedad/Pistorius-camino-munones-mostrarse-debil_0_1595840444.html'
p8
aS'https://www.clarin.com/sociedad/cortaron-encontro-creativa-solucion-banarse_0_1595840454.html'
p9
a.