(lp0
S'https://www.clarin.com/ieco/FMI-elogio-nuevos-datos-Indec_0_1597040399.html'
p1
aS'https://www.clarin.com/politica/Trasladaron-Lopez-pabellon-problemas-psiquiatricos_0_1597040405.html'
p2
aS'https://www.clarin.com/ieco/bancos-dolar-cerca-fin-ano_0_1597040406.html'
p3
a.