(lp0
S'https://www.clarin.com/politica/Cristina-cuestiono-Macri-prejuicio-ideologico_0_1623437797.html'
p1
aS'https://www.clarin.com/politica/Sola-fane-descangayada_0_1624037583.html'
p2
aS'https://www.clarin.com/politica/Frigerio-Prat-Gay-cierran-super_0_1623437786.html'
p3
aS'https://www.clarin.com/sociedad/moves-vivis_0_1621037993.html'
p4
aS'https://www.clarin.com/sociedad/Macri-descarto-legalizacion-marihuana-medicinal_0_1623437798.html'
p5
aS'https://www.clarin.com/politica/Cristina-sobreprecios-publica-ataco-Macri_0_1624037581.html'
p6
aS'https://www.clarin.com/politica/expediente-mano-huella-administrativa-corrupcion_0_1623437647.html'
p7
aS'https://www.clarin.com/politica/Farina-Echegaray-pedia-coima-contratistas_0_1623437646.html'
p8
aS'https://www.clarin.com/politica/Poncho-Awada-Vidal-Km_0_1623437806.html'
p9
aS'https://www.clarin.com/politica/Argentina-rechaza-Venezuela-presidencia-Mercosur_0_1623437793.html'
p10
aS'https://www.clarin.com/politica/Echegaray-visitaba-deposito-contenedores-contrabando_0_1623437749.html'
p11
a.