(lp0
Vhttps://www.clarin.com/politica/mueve-Hotesur-ordeno-pericias-clave_0_1573042835.html
p1
aVhttps://www.clarin.com/politica/mueve-Hotesur-ordeno-pericias-clave_0_1573042835.html
p2
aVhttps://www.clarin.com/sociedad/hijo-confeso-consumio-drogas-fiesta_0_1573042832.html
p3
aVhttps://www.clarin.com/sociedad/hijo-confeso-consumio-drogas-fiesta_0_1573042832.html
p4
aVhttps://www.clarin.com/sociedad/testigo-refuerza-hipotesis-extasis-liquido_0_1573042831.html
p5
aVhttps://www.clarin.com/sociedad/testigo-refuerza-hipotesis-extasis-liquido_0_1573042831.html
p6
aVhttps://www.clarin.com/sociedad/sistema-claro-retroceso_0_1573042824.html
p7
aVhttps://www.clarin.com/ieco/Dietrich-rechaza-competencia-salvaje-cabotaje_0_1573042823.html
p8
aVhttps://www.clarin.com/ieco/Dietrich-rechaza-competencia-salvaje-cabotaje_0_1573042823.html
p9
aVhttps://www.clarin.com/sociedad/primarias-Provincia-cambiaran-boletin-volveran_0_1573042822.html
p10
aVhttps://www.clarin.com/sociedad/primarias-Provincia-cambiaran-boletin-volveran_0_1573042822.html
p11
a.