(lp0
Vhttps://www.clarin.com/sociedad/agua_potable-concordia-rio-inundacion_0_1509449103.html
p1
aVhttps://www.clarin.com/sociedad/Rige-tormentas-Buenos-Aires-Rios_0_1509449098.html
p2
aVhttps://www.clarin.com/sociedad/Rige-tormentas-Buenos-Aires-Rios_0_1509449098.html
p3
aVhttps://www.clarin.com/ieco/economia/claves-dejo-Davos-Argentina_0_1508849587.html
p4
aVhttps://www.clarin.com/ieco/economia/claves-dejo-Davos-Argentina_0_1508849587.html
p5
aVhttps://www.clarin.com/politica/Preparan-regreso-Cristina-Campora-organizaria_0_1508849570.html
p6
aVhttps://www.clarin.com/politica/Preparan-regreso-Cristina-Campora-organizaria_0_1508849570.html
p7
aVhttps://www.clarin.com/ieco/economia/Gobierno-difundira-informes-Fondo-Argentina_0_1508849566.html
p8
aVhttps://www.clarin.com/ieco/economia/Macri-inflacion-cerca_0_1508849564.html
p9
aVhttps://www.clarin.com/ieco/economia/Macri-inflacion-cerca_0_1508849564.html
p10
aVhttps://www.clarin.com/ieco/AFIP-recargo-dolar_ahorro_0_1508849609.html
p11
a.