(lp0
S'https://www.clarin.com/politica/fuerte-apoyo-Unidos-Macri_0_1646235479.html'
p1
aS'https://www.clarin.com/politica/fuerte-apoyo-Unidos-Macri_0_1646235479.html'
p2
aS'https://www.clarin.com/politica/Operativo-fundacion-Michetti-libros-contables_0_1646235478.html'
p3
aS'https://www.clarin.com/politica/Operativo-fundacion-Michetti-libros-contables_0_1646235478.html'
p4
aS'https://www.clarin.com/sociedad/Gobierno-Precios-Cuidados-productos-Cormillot_0_1646235476.html'
p5
aS'https://www.clarin.com/sociedad/Gobierno-Precios-Cuidados-productos-Cormillot_0_1646235476.html'
p6
aS'https://www.clarin.com/ieco/economia/operadores-financieros-inversion-Chile-Argentina_0_1646235466.html'
p7
aS'https://www.clarin.com/politica/Desestimaron-denuncia-Cristina-Bonadio-Stolbizer_0_1646235469.html'
p8
aS'https://www.clarin.com/politica/Desestimaron-denuncia-Cristina-Bonadio-Stolbizer_0_1646235469.html'
p9
aS'https://www.clarin.com/sociedad/San-Martin-choripan-Fidel-Castro_0_1646235464.html'
p10
aS'https://www.clarin.com/sociedad/San-Martin-choripan-Fidel-Castro_0_1646235464.html'
p11
a.