(lp0
Vhttps://www.clarin.com/sociedad/freezer-mitad-pais-temperaturas-cero_0_1616238365.html
p1
aVhttps://www.clarin.com/sociedad/freezer-mitad-pais-temperaturas-cero_0_1616238365.html
p2
aVhttps://www.clarin.com/ieco/economia/rige-devolucion-IVA-compras-alimentos_0_1616238364.html
p3
aVhttps://www.clarin.com/opinion/Gas-luz-evitar-judicializacion-tarifaria_0_1615638558.html
p4
aVhttps://www.clarin.com/opinion/Gas-luz-evitar-judicializacion-tarifaria_0_1615638558.html
p5
aVhttps://www.clarin.com/opinion/Argentina-Brasil-cuarto-siglo-cooperacion_0_1615638561.html
p6
aVhttps://www.clarin.com/opinion/historia-sucesion-sufrimientos-arbitrarios_0_1615638559.html
p7
aVhttps://www.clarin.com/sociedad/Abuelos-coparon-Rural-primer-vacaciones_0_1615638554.html
p8
aVhttps://www.clarin.com/sociedad/Abuelos-coparon-Rural-primer-vacaciones_0_1615638554.html
p9
aVhttps://www.clarin.com/sociedad/canje-salio-escritorio_0_1615638593.html
p10
aVhttps://www.clarin.com/politica/sospechas-Vido-contratos-Rio-Turbio_0_1615638551.html
p11
aVhttps://www.clarin.com/politica/sospechas-Vido-contratos-Rio-Turbio_0_1615638551.html
p12
aVhttps://www.clarin.com/politica/Ruidos-precios-INDEC_0_1616238362.html
p13
aVhttps://www.clarin.com/politica/secretario-mejicaneaba-Kirchner_0_1616238361.html
p14
a.