(lp0
Vhttps://www.clarin.com/sociedad/Plata-Cordoba-Rosario-Mendoza-Tucuman_0_1661833921.html
p1
aVhttps://www.clarin.com/sociedad/Plata-Cordoba-Rosario-Mendoza-Tucuman_0_1661833921.html
p2
aVhttps://www.clarin.com/politica/Indagaron-Mar-Plata-arrojado-Macri_0_1661833918.html
p3
aVhttps://www.clarin.com/politica/Indagaron-Mar-Plata-arrojado-Macri_0_1661833918.html
p4
aVhttps://www.clarin.com/politica/Nisman-piden-junta-medica-criminalistica_0_1661833917.html
p5
aVhttps://www.clarin.com/politica/Nisman-piden-junta-medica-criminalistica_0_1661833917.html
p6
aVhttps://www.clarin.com/ieco/recaudacion-tributaria-septiembre-aumento_0_1661833914.html
p7
aVhttps://www.clarin.com/ieco/recaudacion-tributaria-septiembre-aumento_0_1661833914.html
p8
a.