(lp0
Vhttps://www.clarin.com/politica/Sarkozy-ESMA-confianza-gobierno-Macri_0_1571842907.html
p1
aVhttps://www.clarin.com/politica/Sarkozy-ESMA-confianza-gobierno-Macri_0_1571842907.html
p2
aVhttps://www.clarin.com/politica/Nancy-Duplaa-Pablo-Echarri-York_0_1571842902.html
p3
aVhttps://www.clarin.com/politica/Nancy-Duplaa-Pablo-Echarri-York_0_1571842902.html
p4
aVhttps://www.clarin.com/ieco/economia/Dicen-aumentos-cayo-venta-naftas_0_1571842899.html
p5
aVhttps://www.clarin.com/ieco/economia/Dicen-aumentos-cayo-venta-naftas_0_1571842899.html
p6
aVhttps://www.clarin.com/ieco/Inundaciones-nafta-ponen-inflacion-mayo_0_1571842894.html
p7
aVhttps://www.clarin.com/ieco/Inundaciones-nafta-ponen-inflacion-mayo_0_1571842894.html
p8
aVhttps://www.clarin.com/sociedad/Investigan-femicidio-Cordoba-cuarto-dias_0_1571842849.html
p9
aVhttps://www.clarin.com/sociedad/Investigan-femicidio-Cordoba-cuarto-dias_0_1571842849.html
p10
aVhttps://www.clarin.com/ieco/economia/paro-petrolero-paraliza-Comodoro-Rivadavia_0_1571842891.html
p11
aVhttps://www.clarin.com/ieco/economia/paro-petrolero-paraliza-Comodoro-Rivadavia_0_1571842891.html
p12
a.