(lp0
S'https://www.clarin.com/politica/Zuvic-Vido-expulsion-Lopez-Parlasur_0_1595240603.html'
p1
aS'https://www.clarin.com/politica/Lopez-lloro-Kirchner-confirmaba-gabinete_0_1595240555.html'
p2
aS'https://www.clarin.com/politica/Incredulidad-kirhcnerismo-detencion-Jose-Lopez_0_1595240604.html'
p3
aS'https://www.clarin.com/sociedad/UBA-subio-puestos-ranking-internacional_0_1595240600.html'
p4
a.