(lp0
S'https://www.clarin.com/sociedad/Frenan-Provincia-aplicacion-aborto-punible_0_1675032688.html'
p1
aS'https://www.clarin.com/sociedad/Dolor-impotencia-despedida-mujeres_0_1675032687.html'
p2
aS'https://www.clarin.com/sociedad/Dolor-impotencia-despedida-mujeres_0_1675032687.html'
p3
aS'https://www.clarin.com/sociedad/femicida-Godoy-Cruz-sabia-padre_0_1675032686.html'
p4
aS'https://www.clarin.com/sociedad/femicida-Godoy-Cruz-sabia-padre_0_1675032686.html'
p5
aS'https://www.clarin.com/politica/Mafia-Aduana-detienen-buscan-Vido_0_1675032682.html'
p6
aS'https://www.clarin.com/politica/Mafia-Aduana-detienen-buscan-Vido_0_1675032682.html'
p7
aS'https://www.clarin.com/politica/increibles-dialogos-sacar-latas-bloqueadas_0_1675032681.html'
p8
aS'https://www.clarin.com/politica/increibles-dialogos-sacar-latas-bloqueadas_0_1675032681.html'
p9
aS'https://www.clarin.com/politica/Dolar-Cristina-Camara-situacion-procesal_0_1675032679.html'
p10
aS'https://www.clarin.com/politica/Dolar-Cristina-Camara-situacion-procesal_0_1675032679.html'
p11
a.