(lp0
Vhttps://www.clarin.com/sociedad/verano-andar-camisa_0_1681032037.html
p1
aVhttps://www.clarin.com/sociedad/verano-andar-camisa_0_1681032037.html
p2
aVhttps://www.clarin.com/politica/Macri-recibe-Fragata-Libertad-regresa_0_1681631884.html
p3
aVhttps://www.clarin.com/politica/Macri-recibe-Fragata-Libertad-regresa_0_1681631884.html
p4
aVhttps://www.clarin.com/sociedad/volvio-Guns-NRoses-exploto-River_0_1681631882.html
p5
aVhttps://www.clarin.com/sociedad/volvio-Guns-NRoses-exploto-River_0_1681631882.html
p6
aVhttps://www.clarin.com/sociedad/regreso-celular-tapita_0_1681032042.html
p7
aVhttps://www.clarin.com/sociedad/regreso-celular-tapita_0_1681032042.html
p8
a.