(lp0
Vhttps://www.clarin.com/politica/Marcos-Pena-Francisco-kirchnerista-Cambiemos_0_1531047125.html
p1
aVhttps://www.clarin.com/politica/Marcos-Pena-Francisco-kirchnerista-Cambiemos_0_1531047125.html
p2
aVhttps://www.clarin.com/politica/canciller-destaco-Vaticano-criticaron-encuentro_0_1531047107.html
p3
aVhttps://www.clarin.com/politica/canciller-destaco-Vaticano-criticaron-encuentro_0_1531047107.html
p4
aVhttps://www.clarin.com/ieco/economia/franquicias-marcas-rubros-perfil-exportacion_0_1531047044.html
p5
a.