(lp0
S'https://www.clarin.com/ieco/economia/Arranco-alcanzados-Ley-Reparacion-Historica_0_1647435342.html'
p1
aS'https://www.clarin.com/politica/Luis-DElia-comegato-Jose-Ottavis_0_1647435340.html'
p2
aS'https://www.clarin.com/opinion/reunion-niega-nadie_0_1646835469.html'
p3
aS'https://www.clarin.com/politica/Elecciones-ONU-Malcorra-pierde-terreno_0_1647435338.html'
p4
a.