(lp0
S'https://www.clarin.com/politica/Ahora-Gobierno-Macri-Obama-Bariloche_0_1537646428.html'
p1
aS'https://www.clarin.com/ieco/economia/Pampa-vendera-TGS-emitira-afuera_0_1537646440.html'
p2
aS'https://www.clarin.com/sociedad/Video-momento-rompio-glaciar_0_1537646436.html'
p3
aS'https://www.clarin.com/ieco/economia/YPF-Gobierno-internacional-encontrar-CEO_0_1537646443.html'
p4
aS'https://www.clarin.com/sociedad/Video-suelo-respira-Italia_0_1537646450.html'
p5
aS'https://www.clarin.com/ieco/economia/China-aprueba-prestamo-US-millones_0_1537646437.html'
p6
a.