(lp0
Vhttps://www.clarin.com/politica/Rafecas-encontro-Lopez-escondido-bolsos_0_1633036778.html
p1
aVhttps://www.clarin.com/politica/Rafecas-encontro-Lopez-escondido-bolsos_0_1633036778.html
p2
aVhttps://www.clarin.com/politica/Lopez-mentiroso-hizo-maniobra-politica_0_1633036777.html
p3
aVhttps://www.clarin.com/politica/Lopez-mentiroso-hizo-maniobra-politica_0_1633036777.html
p4
aVhttps://www.clarin.com/sociedad/China-satelite-cuantico-prueba-hackers_0_1633036760.html
p5
aVhttps://www.clarin.com/sociedad/China-satelite-cuantico-prueba-hackers_0_1633036760.html
p6
aVhttps://www.clarin.com/ieco/economia/congelamiento-petroleras-importan-crudo-barato_0_1633036765.html
p7
aVhttps://www.clarin.com/ieco/economia/congelamiento-petroleras-importan-crudo-barato_0_1633036765.html
p8
aVhttps://www.clarin.com/politica/Ex-funcionario-Vido-interpele-Aranguren_0_1633036764.html
p9
aVhttps://www.clarin.com/politica/Ex-funcionario-Vido-interpele-Aranguren_0_1633036764.html
p10
a.