(lp0
Vhttps://www.clarin.com/politica/domiciliaria-defensa-Lazaro-Baez-deprimido_0_1670832909.html
p1
aVhttps://www.clarin.com/politica/domiciliaria-defensa-Lazaro-Baez-deprimido_0_1670832909.html
p2
aVhttps://www.clarin.com/sociedad/modelo-paraplejica-mostro-pezon-Facebook_0_1670832946.html
p3
aVhttps://www.clarin.com/sociedad/modelo-paraplejica-mostro-pezon-Facebook_0_1670832946.html
p4
aVhttps://www.clarin.com/sociedad/Denuncian-duenos-geriatrico-horror-Cordoba_0_1670832945.html
p5
aVhttps://www.clarin.com/sociedad/Denuncian-duenos-geriatrico-horror-Cordoba_0_1670832945.html
p6
aVhttps://www.clarin.com/ieco/Blanqueo-Gobierno-analiza-declarar-efectivo_0_1670832939.html
p7
aVhttps://www.clarin.com/ieco/Blanqueo-Gobierno-analiza-declarar-efectivo_0_1670832939.html
p8
aVhttps://www.clarin.com/politica/Dia-Lealtad-robaron-celular-Scioli_0_1670832935.html
p9
aVhttps://www.clarin.com/politica/Dia-Lealtad-robaron-celular-Scioli_0_1670832935.html
p10
a.