(lp0
Vhttps://www.clarin.com/politica/Macri-China-prepara-participacion-G20_0_1643235676.html
p1
aVhttps://www.clarin.com/politica/Macri-China-prepara-participacion-G20_0_1643235676.html
p2
aVhttps://www.clarin.com/politica/Cruce-Gobierno-UIA-recesion_0_1643235675.html
p3
aVhttps://www.clarin.com/politica/Cruce-Gobierno-UIA-recesion_0_1643235675.html
p4
aVhttps://www.clarin.com/opinion/Sturzenegger-marca-suba-sueldos_0_1642635916.html
p5
aVhttps://www.clarin.com/opinion/Sturzenegger-marca-suba-sueldos_0_1642635916.html
p6
aVhttps://www.clarin.com/opinion/hospitales-publicos-pueden-subastados_0_1642635876.html
p7
aVhttps://www.clarin.com/politica/Peronistas-secta-movimiento_0_1643235674.html
p8
aVhttps://www.clarin.com/politica/discusion-fondo-desarrollo_0_1643235673.html
p9
aVhttps://www.clarin.com/ieco/economia/AFIP-denuncia-Gomez-Centurion-Aduana_0_1642635926.html
p10
aVhttps://www.clarin.com/ieco/economia/AFIP-denuncia-Gomez-Centurion-Aduana_0_1642635926.html
p11
a.