(lp0
Vhttps://www.clarin.com/politica/Sergio-Massa-Prat-Gay-lustrarle-Lavagna_0_1688231360.html
p1
aVhttps://www.clarin.com/politica/Sergio-Massa-Prat-Gay-lustrarle-Lavagna_0_1688231360.html
p2
aVhttps://www.clarin.com/politica/Catamarca-evaluan-adelantar-eleccion-primaria_0_1688231358.html
p3
aVhttps://www.clarin.com/politica/Catamarca-evaluan-adelantar-eleccion-primaria_0_1688231358.html
p4
aVhttps://www.clarin.com/sociedad/argentino-internado-Peru-salio-coma_0_1688231355.html
p5
a.