(lp0
Vhttps://www.clarin.com/politica/Moldes-vuelve-investigue-denuncia-Nisman_0_1649835032.html
p1
aVhttps://www.clarin.com/politica/Moldes-vuelve-investigue-denuncia-Nisman_0_1649835032.html
p2
aVhttps://www.clarin.com/politica/Macri-abre-Foro-Inversiones-Negocios_0_1649835027.html
p3
aVhttps://www.clarin.com/politica/Macri-abre-Foro-Inversiones-Negocios_0_1649835027.html
p4
aVhttps://www.clarin.com/politica/negocios-millonarios-extorsion-Caballo-Suarez_0_1649235146.html
p5
aVhttps://www.clarin.com/politica/negocios-millonarios-extorsion-Caballo-Suarez_0_1649235146.html
p6
aVhttps://www.clarin.com/politica/Detuvieron-Caballo-Suarez-gremialistas-Cristina_0_1649835021.html
p7
aVhttps://www.clarin.com/politica/Detuvieron-Caballo-Suarez-gremialistas-Cristina_0_1649835021.html
p8
a.