(lp0
S'https://www.clarin.com/politica/Ratazzi-respondio-Macri-Trabajamos-rompamos_0_1673832650.html'
p1
aS'https://www.clarin.com/politica/Ratazzi-respondio-Macri-Trabajamos-rompamos_0_1673832650.html'
p2
aS'https://www.clarin.com/sociedad/multitud-participo-TED-Rio-Plata_0_1673832649.html'
p3
aS'https://www.clarin.com/sociedad/multitud-participo-TED-Rio-Plata_0_1673832649.html'
p4
aS'https://www.clarin.com/politica/oficialismo-afirman-abiertos-absolutamente-aborto_0_1673832648.html'
p5
aS'https://www.clarin.com/politica/oficialismo-afirman-abiertos-absolutamente-aborto_0_1673832648.html'
p6
aS'https://www.clarin.com/sociedad/Basta-ovejitas-crearon-netflix-dormir_0_1673832640.html'
p7
aS'https://www.clarin.com/sociedad/Basta-ovejitas-crearon-netflix-dormir_0_1673832640.html'
p8
aS'https://www.clarin.com/politica/Picchio-novela-Boca-atencion-sueldos_0_1673832645.html'
p9
aS'https://www.clarin.com/politica/Picchio-novela-Boca-atencion-sueldos_0_1673832645.html'
p10
aS'https://www.clarin.com/opinion/Dispuesto-escuchar-mama-adolescente_0_1673832644.html'
p11
aS'https://www.clarin.com/opinion/Dispuesto-escuchar-mama-adolescente_0_1673832644.html'
p12
a.