(lp0
S'https://www.clarin.com/politica/trabajadores-petroleros-reclaman-aumento_0_1578442341.html'
p1
aS'https://www.clarin.com/politica/denuncia-Cristina-cargo-Bonadio_0_1578442314.html'
p2
aS'https://www.clarin.com/sociedad/aluvion-llamados-cruzada-solidaria-Claudia_0_1578442327.html'
p3
aS'https://www.clarin.com/sociedad/redes-sociales-apenas-contenido-discriminatorio_0_1578442324.html'
p4
aS'https://www.clarin.com/sociedad/trasplantado-nadie_0_1578442330.html'
p5
aS'https://www.clarin.com/sociedad/comer-nueva-mejorar-calidad-vida_0_1578442340.html'
p6
aS'https://www.clarin.com/politica/Echegaray-declaro-horas-protegido-Baez_0_1578442331.html'
p7
aS'https://www.clarin.com/sociedad/trasplantados-pueden-acceder-viajes-medicamentos_0_1578442332.html'
p8
aS'https://www.clarin.com/sociedad/WhatsApp-Messenger-suman-gente-tiempo_0_1578442325.html'
p9
aS'https://www.clarin.com/politica/final-misa-organizada-Videla-falsa_0_1578442326.html'
p10
aS'https://www.clarin.com/sociedad/acuerdo-conflicto-universitario-sigue-abierto_0_1578442335.html'
p11
a.