(lp0
Vhttps://www.clarin.com/sociedad/Hallan-meteorito-toneladas-Chaco-segundo_0_1649235156.html
p1
aVhttps://www.clarin.com/sociedad/Hallan-meteorito-toneladas-Chaco-segundo_0_1649235156.html
p2
aVhttps://www.clarin.com/sociedad/Instagram-permitira-censurar-comentarios_0_1649235151.html
p3
aVhttps://www.clarin.com/sociedad/Instagram-permitira-censurar-comentarios_0_1649235151.html
p4
aVhttps://www.clarin.com/ieco/suspension-tarifazo-inflacion-agosto-Ciudad_0_1649235149.html
p5
aVhttps://www.clarin.com/ieco/suspension-tarifazo-inflacion-agosto-Ciudad_0_1649235149.html
p6
aVhttps://www.clarin.com/politica/operativo-seguridad-Foro-Inversiones_0_1649235147.html
p7
aVhttps://www.clarin.com/sociedad/Oficial-comisaria-hijos-confeso-femicidio_0_1649235148.html
p8
aVhttps://www.clarin.com/sociedad/Oficial-comisaria-hijos-confeso-femicidio_0_1649235148.html
p9
aVhttps://www.clarin.com/politica/Mendiguren-apuesta-Cabrera-Moreno-civilizado_0_1649235142.html
p10
aVhttps://www.clarin.com/politica/Mendiguren-apuesta-Cabrera-Moreno-civilizado_0_1649235142.html
p11
aVhttps://www.clarin.com/politica/Salta-conflicto-gremial-UTA-rehenes_0_1649235140.html
p12
aVhttps://www.clarin.com/politica/Salta-conflicto-gremial-UTA-rehenes_0_1649235140.html
p13
a.