(lp0
S'https://www.clarin.com/politica/Misiles-Islas-Malvinas-Cancilleria-embajador_0_1668433234.html'
p1
aS'https://www.clarin.com/politica/Misiles-Islas-Malvinas-Cancilleria-embajador_0_1668433234.html'
p2
aS'https://www.clarin.com/ieco/coloquioidea/Gobierno-eliminara-arancel-computadoras_0_1668433232.html'
p3
aS'https://www.clarin.com/sociedad/diarios-lideres-EEUU-crecen-Web_0_1668433229.html'
p4
aS'https://www.clarin.com/sociedad/diarios-lideres-EEUU-crecen-Web_0_1668433229.html'
p5
aS'https://www.clarin.com/sociedad/estudio-muestra-desigualdades-sufren-argentinas_0_1668433226.html'
p6
aS'https://www.clarin.com/sociedad/estudio-muestra-desigualdades-sufren-argentinas_0_1668433226.html'
p7
aS'https://www.clarin.com/politica/Revuelo-ejercicios-militares-britanicos-Malvinas_0_1668433223.html'
p8
aS'https://www.clarin.com/politica/Revuelo-ejercicios-militares-britanicos-Malvinas_0_1668433223.html'
p9
a.