(lp0
Vhttps://www.clarin.com/politica/Susana-Malcorra-Confirmo-canciller-Argentina_0_1663033843.html
p1
aVhttps://www.clarin.com/politica/Susana-Malcorra-Confirmo-canciller-Argentina_0_1663033843.html
p2
aVhttps://www.clarin.com/politica/San-Fernando-aviones-oficiales-drogas_0_1663033837.html
p3
aVhttps://www.clarin.com/politica/San-Fernando-aviones-oficiales-drogas_0_1663033837.html
p4
aVhttps://www.clarin.com/politica/Vidal-inseguridad-propia-campana-miedo_0_1663033840.html
p5
aVhttps://www.clarin.com/politica/Vidal-inseguridad-propia-campana-miedo_0_1663033840.html
p6
aVhttps://www.clarin.com/ieco/economia/Argentina-acordo-holdouts-US-millones_0_1663033829.html
p7
aVhttps://www.clarin.com/ieco/economia/Argentina-acordo-holdouts-US-millones_0_1663033829.html
p8
aVhttps://www.clarin.com/politica/Maxima-visitara-Argentina-Mauricio-Macri_0_1663033833.html
p9
aVhttps://www.clarin.com/politica/Maxima-visitara-Argentina-Mauricio-Macri_0_1663033833.html
p10
aVhttps://www.clarin.com/ieco/economia/produccion-autos-cayo-setiembre_0_1663033834.html
p11
aVhttps://www.clarin.com/ieco/economia/produccion-autos-cayo-setiembre_0_1663033834.html
p12
a.