(lp0
S'https://www.clarin.com/sociedad/pasajero-brutal-pelea-pleno-vuelo_0_1519648263.html'
p1
aS'https://www.clarin.com/sociedad/pasajero-brutal-pelea-pleno-vuelo_0_1519648263.html'
p2
aS'https://www.clarin.com/sociedad/Tragedia-Salta-hermanitos-arrastrados-Metan_0_1519648256.html'
p3
aS'https://www.clarin.com/sociedad/Tragedia-Salta-hermanitos-arrastrados-Metan_0_1519648256.html'
p4
aS'https://www.clarin.com/politica/Massa-Das-Neves-politicos-Congreso_0_1519648244.html'
p5
aS'https://www.clarin.com/politica/Massa-Das-Neves-politicos-Congreso_0_1519648244.html'
p6
aS'https://www.clarin.com/ieco/economia/UTA-dijo-aceptara-paritarias_0_1519648236.html'
p7
aS'https://www.clarin.com/ieco/economia/UTA-dijo-aceptara-paritarias_0_1519648236.html'
p8
a.