(lp0
S'https://www.clarin.com/sociedad/Murio-Celina-argentina-vieja-mundo_0_1576042526.html'
p1
aS'https://www.clarin.com/sociedad/Murio-Celina-argentina-vieja-mundo_0_1576042526.html'
p2
aS'https://www.clarin.com/sociedad/hombres-piensan-veces-soltar-piropo_0_1576042525.html'
p3
aS'https://www.clarin.com/sociedad/hombres-piensan-veces-soltar-piropo_0_1576042525.html'
p4
aS'https://www.clarin.com/ieco/economia/Patagonia-cuesta-calefaccionar-hogar_0_1576042523.html'
p5
aS'https://www.clarin.com/politica/Rioja-funcionario-aportara-bolsillo-social_0_1576042516.html'
p6
aS'https://www.clarin.com/politica/Rioja-funcionario-aportara-bolsillo-social_0_1576042516.html'
p7
aS'https://www.clarin.com/politica/crisis-social-funcionarios-deberan-bolsillos_0_1576042519.html'
p8
a.