(lp0
Vhttps://www.clarin.com/ieco/Aranguren-desmentir-rumores-renuncia-amago_0_1588641176.html
p1
aVhttps://www.clarin.com/ieco/Aranguren-desmentir-rumores-renuncia-amago_0_1588641176.html
p2
aVhttps://www.clarin.com/politica/Massot-Congreso-Echegaray-removido_0_1588641173.html
p3
aVhttps://www.clarin.com/politica/Massot-Congreso-Echegaray-removido_0_1588641173.html
p4
aVhttps://www.clarin.com/sociedad/sobrevivio-bosque-chico-abandonado-padres_0_1588641170.html
p5
aVhttps://www.clarin.com/sociedad/sobrevivio-bosque-chico-abandonado-padres_0_1588641170.html
p6
aVhttps://www.clarin.com/sociedad/nene-destrozo-escultura-Lego-dolares_0_1588641169.html
p7
aVhttps://www.clarin.com/sociedad/nene-destrozo-escultura-Lego-dolares_0_1588641169.html
p8
aVhttps://www.clarin.com/ieco/Banco-Central-libera-apertura-sucursales_0_1588641166.html
p9
aVhttps://www.clarin.com/ieco/Banco-Central-libera-apertura-sucursales_0_1588641166.html
p10
aVhttps://www.clarin.com/politica/inseguridad-desempleo-Rio-Cuarto-baches_0_1588641165.html
p11
aVhttps://www.clarin.com/politica/inseguridad-desempleo-Rio-Cuarto-baches_0_1588641165.html
p12
aVhttps://www.clarin.com/sociedad/Angeli-confundio-funcionario-Ricky-Martin_0_1588641161.html
p13
aVhttps://www.clarin.com/sociedad/Angeli-confundio-funcionario-Ricky-Martin_0_1588641161.html
p14
aVhttps://www.clarin.com/politica/Investigan-Corradi-US-DNI-Paraguay_0_1588641158.html
p15
aVhttps://www.clarin.com/politica/Investigan-Corradi-US-DNI-Paraguay_0_1588641158.html
p16
a.