(lp0
S'https://www.clarin.com/politica/Caballo-Suarez-delitos-plata-gremio_0_1607239416.html'
p1
aS'https://www.clarin.com/politica/Bicentenario-costara-veces-kirchnerismo_0_1607239426.html'
p2
aS'https://www.clarin.com/politica/Caso-Nisman-Corte-Suprema-investigacion_0_1607239436.html'
p3
aS'https://www.clarin.com/politica/Massa-Stolbizer-caminan-juntos-pelea_0_1607239434.html'
p4
aS'https://www.clarin.com/politica/Ucede-Miles-Boudou-partido-DElia_0_1607239422.html'
p5
aS'https://www.clarin.com/ieco/jueza-bloqueo-aumento-San-Martin_0_1607239439.html'
p6
a.