(lp0
Vhttps://www.clarin.com/politica/Bullrich-descarto-motivaciones-politicas-ESMA_0_1582641927.html
p1
aVhttps://www.clarin.com/politica/Bullrich-descarto-motivaciones-politicas-ESMA_0_1582641927.html
p2
aVhttps://www.clarin.com/politica/Periodismo-libertad-prensa-encuentro-EEUU_0_1582641933.html
p3
aVhttps://www.clarin.com/sociedad/Video-recetas-minuto-nuevo-Facebook_0_1582641928.html
p4
aVhttps://www.clarin.com/sociedad/Video-recetas-minuto-nuevo-Facebook_0_1582641928.html
p5
aVhttps://www.clarin.com/sociedad/Pico-gripe-todavia-vacunados-bebes_0_1582641925.html
p6
aVhttps://www.clarin.com/sociedad/Pico-gripe-todavia-vacunados-bebes_0_1582641925.html
p7
aVhttps://www.clarin.com/sociedad/Time-Warp-Prefectura-inspectores-portenos_0_1582641921.html
p8
aVhttps://www.clarin.com/sociedad/Time-Warp-Prefectura-inspectores-portenos_0_1582641921.html
p9
aVhttps://www.clarin.com/ieco/economia/Bajan-lebacs-inflacion-subyacente-descenso_0_1582641915.html
p10
aVhttps://www.clarin.com/politica/oposicion-inflacion-abril_0_1582641917.html
p11
a.