(lp0
S'https://www.clarin.com/ieco/economia/Blanqueo-tiempo-manana-deposito-dinero_0_1690630970.html'
p1
aS'https://www.clarin.com/ieco/economia/Blanqueo-tiempo-manana-deposito-dinero_0_1690630970.html'
p2
aS'https://www.clarin.com/politica/Izquierda-cancha-Atlanta-mensaje-unidad_0_1690630967.html'
p3
aS'https://www.clarin.com/politica/Izquierda-cancha-Atlanta-mensaje-unidad_0_1690630967.html'
p4
aS'https://www.clarin.com/sociedad/Femicidio-Santa-Fe-escopetazo-suicido_0_1690630964.html'
p5
aS'https://www.clarin.com/sociedad/Femicidio-Santa-Fe-escopetazo-suicido_0_1690630964.html'
p6
aS'https://www.clarin.com/politica/Paraguay-preocupacion-endurecer-controles-migratorios_0_1690630963.html'
p7
aS'https://www.clarin.com/politica/Paraguay-preocupacion-endurecer-controles-migratorios_0_1690630963.html'
p8
aS'https://www.clarin.com/politica/CGT-Gobierno-respeto-decir-arregamos_0_1690630960.html'
p9
aS'https://www.clarin.com/politica/CGT-Gobierno-respeto-decir-arregamos_0_1690630960.html'
p10
aS'https://www.clarin.com/sociedad/final-feliz-gato-triste-mundo_0_1690630953.html'
p11
aS'https://www.clarin.com/sociedad/final-feliz-gato-triste-mundo_0_1690630953.html'
p12
aS'https://www.clarin.com/politica/Banco-Provincia-aprobo-creditos-Macri_0_1690630957.html'
p13
aS'https://www.clarin.com/politica/Banco-Provincia-aprobo-creditos-Macri_0_1690630957.html'
p14
a.