(lp0
S'https://www.clarin.com/politica/Dictaminan-combatientes-Malvinas-deberan-pension_0_1641435950.html'
p1
aS'https://www.clarin.com/politica/Dictaminan-combatientes-Malvinas-deberan-pension_0_1641435950.html'
p2
aS'https://www.clarin.com/politica/Lazaro-Baez-apelo-confirmo-Casanello_0_1641435872.html'
p3
aS'https://www.clarin.com/politica/Lazaro-Baez-apelo-confirmo-Casanello_0_1641435872.html'
p4
aS'https://www.clarin.com/politica/Vialidad-Nacional-quedarse-maquinaria-Austral_0_1641435932.html'
p5
aS'https://www.clarin.com/politica/Vialidad-Nacional-quedarse-maquinaria-Austral_0_1641435932.html'
p6
a.