(lp0
S'https://www.clarin.com/sociedad/Tragico-accidente-familia-Pinamar-murieron_0_1507049427.html'
p1
aS'https://www.clarin.com/sociedad/Tragico-accidente-familia-Pinamar-murieron_0_1507049427.html'
p2
aS'https://www.clarin.com/politica/oposicion-Alicia-Kirchner-emergencia-economica_0_1506449769.html'
p3
aS'https://www.clarin.com/politica/oposicion-Alicia-Kirchner-emergencia-economica_0_1506449769.html'
p4
aS'https://www.clarin.com/ieco/economia/Prorrogan-comunes-amplien-financiamiento-empresas_0_1507049441.html'
p5
a.