(lp0
S'https://www.clarin.com/politica/UIF-pidio-detencion-Lazaro-Baez_0_1601239968.html'
p1
aS'https://www.clarin.com/ieco/economia/Prat-Gay-inflacion-trabaja-sucio-hecho_0_1601239985.html'
p2
aS'https://www.clarin.com/sociedad/temporal-arraso-shopping-China_0_1601239977.html'
p3
aS'https://www.clarin.com/politica/Macri-Copa-America-agenda-Olivos_0_1601239972.html'
p4
a.