(lp0
Vhttps://www.clarin.com/sociedad/complicada-atencion-hospitales-bonaerenses-paro_0_1567043432.html
p1
aVhttps://www.clarin.com/sociedad/complicada-atencion-hospitales-bonaerenses-paro_0_1567043432.html
p2
aVhttps://www.clarin.com/politica/Operativo-departamento-Martin-Baez-Justicia_0_1567043430.html
p3
aVhttps://www.clarin.com/politica/Operativo-departamento-Martin-Baez-Justicia_0_1567043430.html
p4
aVhttps://www.clarin.com/politica/Encuentran-millones-dolares-Futbol_0_1567043426.html
p5
aVhttps://www.clarin.com/ieco/economia/dolar-mayorista-sube-centavos_0_1567043427.html
p6
aVhttps://www.clarin.com/ieco/economia/dolar-mayorista-sube-centavos_0_1567043427.html
p7
aVhttps://www.clarin.com/sociedad/insercion-laboral-ensenan-discapacitados-ambiente_0_1567043421.html
p8
aVhttps://www.clarin.com/sociedad/insercion-laboral-ensenan-discapacitados-ambiente_0_1567043421.html
p9
aVhttps://www.clarin.com/sociedad/primera-cambiara-esquema-vacuna-polio_0_1567043402.html
p10
a.