(lp0
Vhttps://www.clarin.com/politica/Carrio-sorprendio-Twitter-guardar-reposo_0_1611438885.html
p1
aVhttps://www.clarin.com/politica/Carrio-sorprendio-Twitter-guardar-reposo_0_1611438885.html
p2
aVhttps://www.clarin.com/politica/Amenazan-intendente-Mar-Plata-apuntando_0_1611438883.html
p3
aVhttps://www.clarin.com/politica/Amenazan-intendente-Mar-Plata-apuntando_0_1611438883.html
p4
aVhttps://www.clarin.com/sociedad/Video-Increible-triple-avioneta-equilibrista_0_1611438879.html
p5
aVhttps://www.clarin.com/sociedad/Video-Increible-triple-avioneta-equilibrista_0_1611438879.html
p6
aVhttps://www.clarin.com/politica/operativo-seguridad-trasladan-Jose-Lopez_0_1611438880.html
p7
aVhttps://www.clarin.com/politica/operativo-seguridad-trasladan-Jose-Lopez_0_1611438880.html
p8
aVhttps://www.clarin.com/politica/Corte-informe-Gobierno-decidir-tarifas_0_1611438878.html
p9
aVhttps://www.clarin.com/politica/Corte-informe-Gobierno-decidir-tarifas_0_1611438878.html
p10
aVhttps://www.clarin.com/sociedad/Realizan-trasplante-quemada-fabricada-celulas_0_1611438877.html
p11
aVhttps://www.clarin.com/sociedad/Realizan-trasplante-quemada-fabricada-celulas_0_1611438877.html
p12
aVhttps://www.clarin.com/politica/ahorrar-energia-Macri-abrigados-remera_0_1611438875.html
p13
aVhttps://www.clarin.com/politica/ahorrar-energia-Macri-abrigados-remera_0_1611438875.html
p14
aVhttps://www.clarin.com/politica/Schoklender-declaracion-viviendas-fundacion-Madres_0_1611438873.html
p15
aVhttps://www.clarin.com/politica/Schoklender-declaracion-viviendas-fundacion-Madres_0_1611438873.html
p16
a.