(lp0
S'https://www.clarin.com/politica/Bonadio-sobreseyo-Cristina-denunciada-abogada_0_1590441011.html'
p1
aS'https://www.clarin.com/sociedad/medico-presidencial-reaccion-Macri-internar_0_1590441003.html'
p2
aS'https://www.clarin.com/sociedad/colombianos-posaron-desnudos-Spencer-Tunick_0_1590441009.html'
p3
aS'https://www.clarin.com/politica/durisimas-acusaciones-Baez-Casanello-Cristina_0_1590441005.html'
p4
aS'https://www.clarin.com/politica/Pichetto-peronismo-piensa-reemplazo-Echegaray_0_1590441002.html'
p5
aS'https://www.clarin.com/sociedad/Fuerza-Fruta-superheroes-buscan-chicos_0_1590440962.html'
p6
a.