(lp0
S'https://www.clarin.com/opinion/caballo-Hebe_0_1627037338.html'
p1
aS'https://www.clarin.com/politica/pelea-conduccion-obrera-avanza-Triunvirato_0_1626437515.html'
p2
aS'https://www.clarin.com/opinion/Hebe-Bonafini-sainete-Argentina-dual_0_1626437516.html'
p3
aS'https://www.clarin.com/opinion/Problemas-politica-impermeable_0_1626437478.html'
p4
aS'https://www.clarin.com/sociedad/Time-Warp-Casanello-elevacion-juicio_0_1626437550.html'
p5
aS'https://www.clarin.com/politica/Macri-participara-proxima-cumbre-corrupcion_0_1626437518.html'
p6
aS'https://www.clarin.com/opinion/panuelo-mancha_0_1627037339.html'
p7
aS'https://www.clarin.com/politica/Denuncian-encubrimiento-Maximo-Zannini-Kicillof_0_1627037341.html'
p8
aS'https://www.clarin.com/politica/Macri-Temer-acordaron-crisis-Mercosur_0_1626437560.html'
p9
aS'https://www.clarin.com/opinion/Palos-sonrisas-misma-semana_0_1627037340.html'
p10
a.