(lp0
Vhttps://www.clarin.com/sociedad/Extienden-voluntad-procreacional-reconocer-hijo_0_1574842642.html
p1
aVhttps://www.clarin.com/sociedad/Extienden-voluntad-procreacional-reconocer-hijo_0_1574842642.html
p2
aVhttps://www.clarin.com/politica/Suenos-Compartidos-declara-titular-AGN_0_1574842628.html
p3
aVhttps://www.clarin.com/politica/quiero-aduenar-ajeno-pesar-Lazaro_0_1574842635.html
p4
aVhttps://www.clarin.com/politica/quiero-aduenar-ajeno-pesar-Lazaro_0_1574842635.html
p5
aVhttps://www.clarin.com/politica/Iglesia-Macri-hablar-nacional-narcotrafico_0_1574842636.html
p6
aVhttps://www.clarin.com/politica/Iglesia-Macri-hablar-nacional-narcotrafico_0_1574842636.html
p7
a.