(lp0
S'https://www.clarin.com/politica/Ordenan-liberar-tuitero-amenazo-presidente_0_1654034757.html'
p1
aS'https://www.clarin.com/politica/Ordenan-liberar-tuitero-amenazo-presidente_0_1654034757.html'
p2
aS'https://www.clarin.com/politica/Caso-Nisman-Corte-competencia-justicia_0_1654034761.html'
p3
aS'https://www.clarin.com/politica/Caso-Nisman-Corte-competencia-justicia_0_1654034761.html'
p4
aS'https://www.clarin.com/ieco/Financial-Times-abre-ventana-Argentina_0_1654034756.html'
p5
aS'https://www.clarin.com/sociedad/chicos-entienden-leen_0_1654034734.html'
p6
aS'https://www.clarin.com/sociedad/nuevas-tecnologias-deben-excluir-libro_0_1654034733.html'
p7
a.