(lp0
Vhttps://www.clarin.com/politica/viaje-horas-Cristina-aterrizo-Aeroparque_0_1556844741.html
p1
aVhttps://www.clarin.com/politica/viaje-horas-Cristina-aterrizo-Aeroparque_0_1556844741.html
p2
aVhttps://www.clarin.com/politica/banderas-Campora-CFK-departamento-Recoleta_0_1556844702.html
p3
aVhttps://www.clarin.com/politica/banderas-Campora-CFK-departamento-Recoleta_0_1556844702.html
p4
a.