(lp0
Vhttps://www.clarin.com/politica/Macri-billetera-cuanta-devolveran-gobernador_0_1625237478.html
p1
aVhttps://www.clarin.com/politica/Macri-billetera-cuanta-devolveran-gobernador_0_1625237478.html
p2
aVhttps://www.clarin.com/politica/cierran-cuentas-Lopez-Tigre-US_0_1625237477.html
p3
aVhttps://www.clarin.com/politica/cierran-cuentas-Lopez-Tigre-US_0_1625237477.html
p4
aVhttps://www.clarin.com/sociedad/Caso-Belen-politicos-periodistas-libertad_0_1625237471.html
p5
aVhttps://www.clarin.com/sociedad/Caso-Belen-politicos-periodistas-libertad_0_1625237471.html
p6
aVhttps://www.clarin.com/politica/Lopez-Tribunales-declarar-Suenos-Compartidos_0_1625237474.html
p7
aVhttps://www.clarin.com/politica/Lopez-Tribunales-declarar-Suenos-Compartidos_0_1625237474.html
p8
aVhttps://www.clarin.com/sociedad/Procesan-Minera-Alumbrera-derramar-efluentes_0_1625237470.html
p9
aVhttps://www.clarin.com/sociedad/Procesan-Minera-Alumbrera-derramar-efluentes_0_1625237470.html
p10
aVhttps://www.clarin.com/politica/Dura-Venezuela-Argentina-Brasil-Paraguay_0_1624637651.html
p11
aVhttps://www.clarin.com/politica/Dura-Venezuela-Argentina-Brasil-Paraguay_0_1624637651.html
p12
aVhttps://www.clarin.com/ieco/economia/Empresarios-reclaman-obras-ven-recuperacion_0_1624637677.html
p13
aVhttps://www.clarin.com/ieco/economia/Empresarios-reclaman-obras-ven-recuperacion_0_1624637677.html
p14
a.