(lp0
Vhttps://www.clarin.com/sociedad/Alerta-chatarra-buscan-identifiquen-polemica_0_1687631397.html
p1
aVhttps://www.clarin.com/sociedad/Alerta-chatarra-buscan-identifiquen-polemica_0_1687631397.html
p2
aVhttps://www.clarin.com/sociedad/Caos-pasajes-fiestas-servicios-agotados_0_1687631396.html
p3
aVhttps://www.clarin.com/politica/Guino-Presidente-gobernadora-Jorge-Macri_0_1687631393.html
p4
aVhttps://www.clarin.com/politica/PJ-bonaerense-Congreso-acomodar-interna_0_1687631387.html
p5
aVhttps://www.clarin.com/politica/Cristina-Macri-denuncia-judicial-Ofelia_0_1687631382.html
p6
aVhttps://www.clarin.com/politica/Cristina-Macri-denuncia-judicial-Ofelia_0_1687631382.html
p7
aVhttps://www.clarin.com/politica/Todas-preguntas-empresarios-hicieron-Lanata_0_1687631386.html
p8
aVhttps://www.clarin.com/politica/Todas-preguntas-empresarios-hicieron-Lanata_0_1687631386.html
p9
aVhttps://www.clarin.com/politica/Fiscal-Delgado-jueces-leales-faccion_0_1687631381.html
p10
aVhttps://www.clarin.com/politica/Fiscal-Delgado-jueces-leales-faccion_0_1687631381.html
p11
aVhttps://www.clarin.com/opinion/Adios-poderes-excepcionales_0_1687631376.html
p12
aVhttps://www.clarin.com/opinion/Adios-poderes-excepcionales_0_1687631376.html
p13
a.