(lp0
S'https://www.clarin.com/sociedad/famoso-museo-ponen-inodoro-usar_0_1652234851.html'
p1
aS'https://www.clarin.com/sociedad/magos-duendes-famosos-pasean-Caballito_0_1652234865.html'
p2
aS'https://www.clarin.com/sociedad/Llamativa-protesta-escuela-varones-pollera_0_1651634979.html'
p3
aS'https://www.clarin.com/politica/Acuerdo-Malvinas-Pinedo-prudentes-sorprendio_0_1652234857.html'
p4
a.