(lp0
Vhttps://www.clarin.com/sociedad/brasil-muerta-mujer_0_1524447685.html
p1
aVhttps://www.clarin.com/sociedad/brasil-muerta-mujer_0_1524447685.html
p2
aVhttps://www.clarin.com/politica/Gollan-irregularidades-Bonadio-inoperante-mentiroso_0_1524447678.html
p3
aVhttps://www.clarin.com/politica/Gollan-irregularidades-Bonadio-inoperante-mentiroso_0_1524447678.html
p4
aVhttps://www.clarin.com/politica/Dejan-directa-helicoptero-ultimos-Cristina_0_1524447663.html
p5
aVhttps://www.clarin.com/politica/Dejan-directa-helicoptero-ultimos-Cristina_0_1524447663.html
p6
aVhttps://www.clarin.com/politica/Paso-paso-fraude-licitacion-Qunita_0_1524447653.html
p7
aVhttps://www.clarin.com/politica/Paso-paso-fraude-licitacion-Qunita_0_1524447653.html
p8
aVhttps://www.clarin.com/ieco/economia/febrero-inflacion_0_1523848084.html
p9
aVhttps://www.clarin.com/ieco/economia/fondos_buitre-default-citibank-thomas_griesa_0_1523848010.html
p10
aVhttps://www.clarin.com/ieco/economia/Empresarios-alerta-tarifas-electricas-Brasil_0_1524447681.html
p11
aVhttps://www.clarin.com/ieco/economia/inflacion-indec-precios-ipc_0_1523848053.html
p12
a.