(lp0
S'https://www.clarin.com/politica/periodistas-amigos-Cristina-Kirchner-informarse_0_1640235990.html'
p1
aS'https://www.clarin.com/sociedad/Marcha-construccion-Metrobus-Lanus_0_1638436318.html'
p2
aS'https://www.clarin.com/politica/Procrear-ultimos-anotarse-creditos-ANSeS_0_1640236074.html'
p3
a.