(lp0
Vhttps://www.clarin.com/sociedad/sabores-sobrevivieron-paso-tiempo_0_1609639162.html
p1
aVhttps://www.clarin.com/sociedad/sabores-sobrevivieron-paso-tiempo_0_1609639162.html
p2
aVhttps://www.clarin.com/sociedad/Tucuman-prepararon-casa-historica-festejos_0_1609639150.html
p3
aVhttps://www.clarin.com/sociedad/Tucuman-prepararon-casa-historica-festejos_0_1609639150.html
p4
aVhttps://www.clarin.com/ieco/economia/Inmuebles-amesetados-creditos-hipotecarios-blanqueo_0_1609639147.html
p5
aVhttps://www.clarin.com/ieco/economia/Inmuebles-amesetados-creditos-hipotecarios-blanqueo_0_1609639147.html
p6
aVhttps://www.clarin.com/sociedad/Escandalo-adentro-clientes-cansados-Policia_0_1609639146.html
p7
aVhttps://www.clarin.com/sociedad/Escandalo-adentro-clientes-cansados-Policia_0_1609639146.html
p8
aVhttps://www.clarin.com/politica/Guillermo-Moreno-Maradona-Hebe-Bonafini_0_1609639144.html
p9
aVhttps://www.clarin.com/politica/Guillermo-Moreno-Maradona-Hebe-Bonafini_0_1609639144.html
p10
a.