(lp0
S'https://www.clarin.com/politica/tensa-negociacion-nuevos-jueces-Corte_0_1591041067.html'
p1
aS'https://www.clarin.com/politica/Ordenan-embargo-dieta-diputado-Vido_0_1591041064.html'
p2
aS'https://www.clarin.com/politica/Rechazan-queja-Moreno-acumulacion-causas_0_1591041048.html'
p3
aS'https://www.clarin.com/ieco/baja-dolar-preocupa-debate-Gobierno_0_1591041069.html'
p4
a.