(lp0
Vhttps://www.clarin.com/opinion/Pokemon-saben-piropear_0_1629437203.html
p1
aVhttps://www.clarin.com/sociedad/Presencie-desagrado-dude-publicarlo_0_1629437234.html
p2
aVhttps://www.clarin.com/sociedad/Abusos-machismo-ultimo-tabu-rock_0_1629437243.html
p3
aVhttps://www.clarin.com/sociedad/Abusos-machismo-ultimo-tabu-rock_0_1629437243.html
p4
aVhttps://www.clarin.com/sociedad/Debimos-haberlo-parado-momento-hicimos_0_1629437236.html
p5
aVhttps://www.clarin.com/sociedad/artista-iluminado-vulgaridad_0_1629437232.html
p6
aVhttps://www.clarin.com/sociedad/artista-iluminado-vulgaridad_0_1629437232.html
p7
aVhttps://www.clarin.com/politica/Massa-funcionarios-Excel-olvidan-personas_0_1629437255.html
p8
aVhttps://www.clarin.com/politica/Massa-funcionarios-Excel-olvidan-personas_0_1629437255.html
p9
aVhttps://www.clarin.com/politica/dinero-corrupcion-denunciado-kirchnerismo_0_1629437252.html
p10
aVhttps://www.clarin.com/politica/dinero-corrupcion-denunciado-kirchnerismo_0_1629437252.html
p11
aVhttps://www.clarin.com/sociedad/alarde-mentalidad-propios-barrabrava_0_1629437249.html
p12
aVhttps://www.clarin.com/politica/regalo-anticipar-campana_0_1629437248.html
p13
a.