(lp0
S'https://www.clarin.com/opinion/Aduana-YPF-manejos-turbios-opacidades_0_1655834416.html'
p1
aS'https://www.clarin.com/politica/improvisacion-costo_0_1655834414.html'
p2
aS'https://www.clarin.com/politica/Pelea-Axel-Kicillof-Nelson-Castro_0_1655234647.html'
p3
aS'https://www.clarin.com/politica/Pelea-Axel-Kicillof-Nelson-Castro_0_1655234647.html'
p4
aS'https://www.clarin.com/politica/rol-telefonicas-Ley-Comunicaciones_0_1655234645.html'
p5
aS'https://www.clarin.com/politica/rol-telefonicas-Ley-Comunicaciones_0_1655234645.html'
p6
aS'https://www.clarin.com/politica/Ordenan-justicia-investigar-electoral-Tucuman_0_1655234641.html'
p7
aS'https://www.clarin.com/politica/Ordenan-justicia-investigar-electoral-Tucuman_0_1655234641.html'
p8
aS'https://www.clarin.com/politica/tesoro-ahora-casa-empresario-denunciado_0_1655234635.html'
p9
aS'https://www.clarin.com/politica/tesoro-ahora-casa-empresario-denunciado_0_1655234635.html'
p10
aS'https://www.clarin.com/sociedad/Dia-Estudiante-termino-muerto-heridos_0_1655234639.html'
p11
aS'https://www.clarin.com/sociedad/Dia-Estudiante-termino-muerto-heridos_0_1655234639.html'
p12
aS'https://www.clarin.com/sociedad/Supermercados-colas-ahora-turno-pasar_0_1655234638.html'
p13
a.