(lp0
S'https://www.clarin.com/politica/Selfies-Pena-despidos-blooper-Conciencia_0_1574842530.html'
p1
aS'https://www.clarin.com/politica/UIF-congelar-empresas-vinculadas-Baez_0_1574842547.html'
p2
aS'https://www.clarin.com/politica/Justicia-Alicia-Kirchner-publicas-santacrucenas_0_1574842535.html'
p3
aS'https://www.clarin.com/sociedad/Videos-protestas-San-Pablo-Uber_0_1574842534.html'
p4
a.