(lp0
S'https://www.clarin.com/politica/PJ-senal-Macri_0_1519048139.html'
p1
aS'https://www.clarin.com/opinion/Xi_Jinping-Iran-Arabia_Saudita-Egipto_0_1519048114.html'
p2
aS'https://www.clarin.com/opinion/identificacion_personal-_Ciudad_de_Buenos_Aires_0_1519048115.html'
p3
aS'https://www.clarin.com/politica/Encuentros-desencuentros-asados-pescado_0_1518448543.html'
p4
aS'https://www.clarin.com/politica/AFIP-detectan-planes-medida-millones_0_1519048102.html'
p5
aS'https://www.clarin.com/opinion/Basta-zonceras-favor_0_1519048137.html'
p6
aS'https://www.clarin.com/opinion/crisis_energetica-_Mauricio_Macri_0_1519048113.html'
p7
aS'https://www.clarin.com/ieco/economia/AFIP-Planes_de_Pago-Articulo_32-Abad-Echegaray_0_1519048099.html'
p8
a.