(lp0
Vhttps://www.clarin.com/politica/Periodistas-defienden-premio-Senado-Sabat_0_1674432656.html
p1
aVhttps://www.clarin.com/politica/Periodistas-defienden-premio-Senado-Sabat_0_1674432656.html
p2
aVhttps://www.clarin.com/sociedad/salvaje-ataque-Mendoza-joven-desfigurada_0_1674432657.html
p3
aVhttps://www.clarin.com/sociedad/salvaje-ataque-Mendoza-joven-desfigurada_0_1674432657.html
p4
aVhttps://www.clarin.com/politica/Sumaran-chicos-asignacion-universal-hijo_0_1674432655.html
p5
aVhttps://www.clarin.com/politica/Sumaran-chicos-asignacion-universal-hijo_0_1674432655.html
p6
aVhttps://www.clarin.com/sociedad/Procuradora-Mendoza-Zalazar-imputable_0_1674432647.html
p7
aVhttps://www.clarin.com/sociedad/Procuradora-Mendoza-Zalazar-imputable_0_1674432647.html
p8
a.