(lp0
Vhttps://www.clarin.com/sociedad/policias-bonaerenses-desplazados-violencia-genero_0_1621637837.html
p1
aVhttps://www.clarin.com/sociedad/policias-bonaerenses-desplazados-violencia-genero_0_1621637837.html
p2
aVhttps://www.clarin.com/politica/mediodia-jubilados-chequear-corresponde-reajuste_0_1621637834.html
p3
aVhttps://www.clarin.com/politica/mediodia-jubilados-chequear-corresponde-reajuste_0_1621637834.html
p4
aVhttps://www.clarin.com/sociedad/pareja-enfrentaron-hepatitis-lograron-curarse_0_1621038047.html
p5
aVhttps://www.clarin.com/sociedad/pareja-enfrentaron-hepatitis-lograron-curarse_0_1621038047.html
p6
aVhttps://www.clarin.com/politica/Macri-recibira-presidente-Mexico-comercio_0_1621038040.html
p7
aVhttps://www.clarin.com/politica/Macri-recibira-presidente-Mexico-comercio_0_1621038040.html
p8
aVhttps://www.clarin.com/ieco/economia/Mindlin-historica-Goyo-Perez-Companc_0_1621038052.html
p9
aVhttps://www.clarin.com/ieco/economia/Mindlin-historica-Goyo-Perez-Companc_0_1621038052.html
p10
aVhttps://www.clarin.com/ieco/economia/OMC-China-lejos-economia-mercado_0_1621038075.html
p11
aVhttps://www.clarin.com/ieco/economia/OMC-China-lejos-economia-mercado_0_1621038075.html
p12
a.