(lp0
Vhttps://www.clarin.com/politica/Gobierno-quiere-oxigenar-Comodoro-Py_0_1606039532.html
p1
aVhttps://www.clarin.com/politica/Gobierno-quiere-oxigenar-Comodoro-Py_0_1606039532.html
p2
aVhttps://www.clarin.com/ieco/economia/dolar-encarece-medida-baja-tasa_0_1606639382.html
p3
aVhttps://www.clarin.com/ieco/economia/dolar-encarece-medida-baja-tasa_0_1606639382.html
p4
aVhttps://www.clarin.com/ieco/economia/Argentina-historia-financiera-momento_0_1606639381.html
p5
aVhttps://www.clarin.com/ieco/economia/Argentina-historia-financiera-momento_0_1606639381.html
p6
aVhttps://www.clarin.com/ieco/economia/Aviacion-ejecutiva-vuelo_0_1606639363.html
p7
aVhttps://www.clarin.com/ieco/economia/Aviacion-ejecutiva-vuelo_0_1606639363.html
p8
aVhttps://www.clarin.com/ieco/economia/Grimoldi-empresa-armada-surfear-crisis_0_1606639360.html
p9
aVhttps://www.clarin.com/ieco/economia/Grimoldi-empresa-armada-surfear-crisis_0_1606639360.html
p10
aVhttps://www.clarin.com/ieco/economia/Grobo-quiere-parecer-Apple_0_1606639359.html
p11
aVhttps://www.clarin.com/ieco/economia/Grobo-quiere-parecer-Apple_0_1606639359.html
p12
aVhttps://www.clarin.com/ieco/economia/Viajero-frecuente-contras-viajes-laborales_0_1606639358.html
p13
aVhttps://www.clarin.com/ieco/economia/Viajero-frecuente-contras-viajes-laborales_0_1606639358.html
p14
aVhttps://www.clarin.com/ieco/economia/Premio-iEco-Cannes_0_1606639354.html
p15
aVhttps://www.clarin.com/ieco/economia/Premio-iEco-Cannes_0_1606639354.html
p16
aVhttps://www.clarin.com/ieco/economia/marketing-storytellings_0_1606639352.html
p17
aVhttps://www.clarin.com/ieco/economia/marcas-suman-Lio-vayas_0_1606639351.html
p18
aVhttps://www.clarin.com/ieco/economia/marcas-suman-Lio-vayas_0_1606639351.html
p19
aVhttps://www.clarin.com/ieco/economia/Cautela-optimismo-proyecciones-empresarias_0_1606639349.html
p20
aVhttps://www.clarin.com/ieco/economia/Cautela-optimismo-proyecciones-empresarias_0_1606639349.html
p21
aVhttps://www.clarin.com/ieco/economia/Construccion-ventas-retrasan-nuevas-obras_0_1606639347.html
p22
aVhttps://www.clarin.com/ieco/economia/Construccion-ventas-retrasan-nuevas-obras_0_1606639347.html
p23
aVhttps://www.clarin.com/ieco/economia/nuevo-impasse-Union-Europea_0_1606639346.html
p24
aVhttps://www.clarin.com/ieco/economia/nuevo-impasse-Union-Europea_0_1606639346.html
p25
aVhttps://www.clarin.com/ieco/economia/Mercosur-debilitado-Argentina-acerca-Pacifico_0_1606639345.html
p26
aVhttps://www.clarin.com/ieco/economia/Mercosur-debilitado-Argentina-acerca-Pacifico_0_1606639345.html
p27
aVhttps://www.clarin.com/ieco/economia/puntos-grises-nueva-legislacion_0_1606639344.html
p28
aVhttps://www.clarin.com/ieco/economia/puntos-grises-nueva-legislacion_0_1606639344.html
p29
a.