(lp0
S'https://www.clarin.com/ieco/economia/Venta-autos-usados-abril-cuatrimestre_0_1577242368.html'
p1
aS'https://www.clarin.com/sociedad/Detuvieron-intendente-manejar-borracho-alcohol_0_1577242367.html'
p2
aS'https://www.clarin.com/sociedad/Detuvieron-intendente-manejar-borracho-alcohol_0_1577242367.html'
p3
aS'https://www.clarin.com/sociedad/crucero-grande-realiza-primer-viaje_0_1577242363.html'
p4
aS'https://www.clarin.com/sociedad/crucero-grande-realiza-primer-viaje_0_1577242363.html'
p5
aS'https://www.clarin.com/politica/Hebe-Bonafini-Bergoglio-transformo-Francisco_0_1577242361.html'
p6
aS'https://www.clarin.com/politica/Hebe-Bonafini-Bergoglio-transformo-Francisco_0_1577242361.html'
p7
aS'https://www.clarin.com/politica/Bergoglio-dictadura-reivindicarlo-Papa-Hebe_0_1577242365.html'
p8
aS'https://www.clarin.com/politica/Bergoglio-dictadura-reivindicarlo-Papa-Hebe_0_1577242365.html'
p9
aS'https://www.clarin.com/sociedad/chico-rechazo-millones-dolares-empresa_0_1577242359.html'
p10
aS'https://www.clarin.com/politica/Papa-conto-amigo-Bonafini-misericordia_0_1577242360.html'
p11
aS'https://www.clarin.com/politica/Papa-conto-amigo-Bonafini-misericordia_0_1577242360.html'
p12
aS'https://www.clarin.com/politica/Revuelo-Twitter-Paenza-TV-Publica_0_1577242358.html'
p13
aS'https://www.clarin.com/politica/Revuelo-Twitter-Paenza-TV-Publica_0_1577242358.html'
p14
a.