(lp0
Vhttps://www.clarin.com/politica/Grosero-provincia-Chaco-San-Martin_0_1633636698.html
p1
aVhttps://www.clarin.com/politica/Grosero-provincia-Chaco-San-Martin_0_1633636698.html
p2
aVhttps://www.clarin.com/ieco/economia/Bonafini-Corte-tarifas-aprueben-asesinar_0_1633636696.html
p3
aVhttps://www.clarin.com/ieco/economia/Bonafini-Corte-tarifas-aprueben-asesinar_0_1633636696.html
p4
aVhttps://www.clarin.com/ieco/_0_1637236329.html
p5
aVhttps://www.clarin.com/ieco/_0_1637236329.html
p6
aVhttps://www.clarin.com/politica/politica-solo-lugar-Macri-Cristina_0_1633636693.html
p7
aVhttps://www.clarin.com/politica/politica-solo-lugar-Macri-Cristina_0_1633636693.html
p8
aVhttps://www.clarin.com/sociedad/ciega-lanzo-petitorio-bajen-pena_0_1633636688.html
p9
aVhttps://www.clarin.com/sociedad/ciega-lanzo-petitorio-bajen-pena_0_1633636688.html
p10
a.