(lp0
Vhttps://www.clarin.com/ieco/dolar-subira-inflacion_0_1540646415.html
p1
aVhttps://www.clarin.com/politica/Anibal-Fernandez-dinero-Contar-ilicito_0_1541245900.html
p2
aVhttps://www.clarin.com/politica/Anibal-Fernandez-dinero-Contar-ilicito_0_1541245900.html
p3
aVhttps://www.clarin.com/sociedad/Fuerte-aumento-farmacias-remedios-subieron_0_1540646400.html
p4
aVhttps://www.clarin.com/sociedad/Fuerte-aumento-farmacias-remedios-subieron_0_1540646400.html
p5
aVhttps://www.clarin.com/sociedad/suba-remedios-farmaceutico-clientes_0_1541245891.html
p6
aVhttps://www.clarin.com/politica/Burguesias-desnudo_0_1541245888.html
p7
aVhttps://www.clarin.com/politica/Senal-apunta-gobernabilidad_0_1541245885.html
p8
aVhttps://www.clarin.com/opinion/esquema-Ponzi-politica_0_1541245882.html
p9
aVhttps://www.clarin.com/opinion/Ciclo-Basico-UBA-parche_0_1540646346.html
p10
aVhttps://www.clarin.com/opinion/argentino-mayor-mejor-revuelo_0_1540646351.html
p11
aVhttps://www.clarin.com/opinion/argentino-mayor-mejor-revuelo_0_1540646351.html
p12
aVhttps://www.clarin.com/opinion/Politicas-mujeres-politica_0_1540646354.html
p13
aVhttps://www.clarin.com/politica/Escandalo-Baez-contando-dolares-financiera_0_1540646377.html
p14
aVhttps://www.clarin.com/politica/Escandalo-Baez-contando-dolares-financiera_0_1540646377.html
p15
a.