(lp0
S'https://www.clarin.com/politica/posibles-beneficiarios-consultaron_0_1622237963.html'
p1
aS'https://www.clarin.com/sociedad/Crecieron-consultas-vuelta-puerta_0_1622237961.html'
p2
aS'https://www.clarin.com/sociedad/sitios-populares-hacer-compras-puerta_0_1622237960.html'
p3
aS'https://www.clarin.com/sociedad/sitios-populares-hacer-compras-puerta_0_1622237960.html'
p4
aS'https://www.clarin.com/politica/titular-Anses-reajustaran-haberes-jubilados_0_1622237959.html'
p5
aS'https://www.clarin.com/politica/Cristina-atendio-caida-manana-campana_0_1622237954.html'
p6
aS'https://www.clarin.com/politica/Paso-Abad-explica-entrar-blanqueo_0_1622237953.html'
p7
a.