(lp0
Vhttps://www.clarin.com/politica/Imputan-mexicano-senalado-Lanatta-Granero_0_1578442192.html
p1
aVhttps://www.clarin.com/politica/Imputan-mexicano-senalado-Lanatta-Granero_0_1578442192.html
p2
aVhttps://www.clarin.com/politica/intendente-Frente-Victoria-acerca-PRO_0_1578442191.html
p3
aVhttps://www.clarin.com/politica/intendente-Frente-Victoria-acerca-PRO_0_1578442191.html
p4
aVhttps://www.clarin.com/sociedad/Hoy-termina-Hot-Sale-ofertas_0_1578442188.html
p5
aVhttps://www.clarin.com/sociedad/Hoy-termina-Hot-Sale-ofertas_0_1578442188.html
p6
aVhttps://www.clarin.com/sociedad/Detuvieron-nene-anos-manejando-ruta_0_1578442187.html
p7
aVhttps://www.clarin.com/sociedad/Detuvieron-nene-anos-manejando-ruta_0_1578442187.html
p8
aVhttps://www.clarin.com/ieco/economia/Melconian-interna-Central-creditos-hipotecarios_0_1578442186.html
p9
aVhttps://www.clarin.com/ieco/economia/Melconian-interna-Central-creditos-hipotecarios_0_1578442186.html
p10
aVhttps://www.clarin.com/politica/Echegaray-Casanello-presento-responde-preguntas_0_1578442185.html
p11
aVhttps://www.clarin.com/politica/Echegaray-Casanello-presento-responde-preguntas_0_1578442185.html
p12
aVhttps://www.clarin.com/politica/Macri-quiero-argentino-oportunidades_0_1578442184.html
p13
aVhttps://www.clarin.com/politica/Macri-quiero-argentino-oportunidades_0_1578442184.html
p14
aVhttps://www.clarin.com/ieco/IVA-Ganancias-claves-cambios-autonomos_0_1578442181.html
p15
aVhttps://www.clarin.com/ieco/IVA-Ganancias-claves-cambios-autonomos_0_1578442181.html
p16
aVhttps://www.clarin.com/politica/mausoleo-Nestor-Kirchner-fantasma-Peron_0_1577842406.html
p17
aVhttps://www.clarin.com/politica/mausoleo-Nestor-Kirchner-fantasma-Peron_0_1577842406.html
p18
aVhttps://www.clarin.com/politica/interna-bandas-fuerte-federacion-municipios_0_1578442171.html
p19
aVhttps://www.clarin.com/politica/interna-bandas-fuerte-federacion-municipios_0_1578442171.html
p20
a.