(lp0
Vhttps://www.clarin.com/politica/Duro-Santiago-Moro-Tinelli-extorsionador_0_1621038093.html
p1
aVhttps://www.clarin.com/politica/Duro-Santiago-Moro-Tinelli-extorsionador_0_1621038093.html
p2
aVhttps://www.clarin.com/politica/Vidal-reunio-Carrio-mantendra-Bonaerense_0_1621038092.html
p3
aVhttps://www.clarin.com/politica/tarifazo-cae-imagen-presidencial-Sur_0_1621038091.html
p4
aVhttps://www.clarin.com/politica/tarifazo-cae-imagen-presidencial-Sur_0_1621038091.html
p5
aVhttps://www.clarin.com/sociedad/Video-rayo-impacta-Empire-State_0_1621037985.html
p6
aVhttps://www.clarin.com/sociedad/Video-rayo-impacta-Empire-State_0_1621037985.html
p7
aVhttps://www.clarin.com/sociedad/epopeya-trunca-ahora-debieramos-recrear_0_1621038084.html
p8
aVhttps://www.clarin.com/sociedad/Vacaciones-adolescentes-colegio-dias-descanso_0_1621038083.html
p9
aVhttps://www.clarin.com/sociedad/Vacaciones-adolescentes-colegio-dias-descanso_0_1621038083.html
p10
aVhttps://www.clarin.com/politica/susto-desmayo-Binner-mesas-Rural_0_1621038080.html
p11
aVhttps://www.clarin.com/politica/susto-desmayo-Binner-mesas-Rural_0_1621038080.html
p12
aVhttps://www.clarin.com/politica/Avanza-Provincia-nueva-reforma-judicial_0_1621038079.html
p13
aVhttps://www.clarin.com/politica/Arranca-blanqueo-pago-jubilados-reglamentan_0_1621038077.html
p14
aVhttps://www.clarin.com/politica/Macri-paces-Tinelli-seguiran-imitaciones_0_1621038076.html
p15
a.