(lp0
Vhttps://www.clarin.com/sociedad/tragedia-Costa-agustin-aparecio-muerto_0_1500450302.html
p1
aVhttps://www.clarin.com/sociedad/tragedia-Costa-agustin-aparecio-muerto_0_1500450302.html
p2
aVhttps://www.clarin.com/ieco/economia/dolar-baja-centavo_0_1500450222.html
p3
aVhttps://www.clarin.com/ieco/empresas-y-negocios/Polemica-Uber-personal-instalarse-Argentina_0_1500450281.html
p4
aVhttps://www.clarin.com/ieco/empresas-y-negocios/Polemica-Uber-personal-instalarse-Argentina_0_1500450281.html
p5
a.