(lp0
S'https://www.clarin.com/sociedad/Yellow-Submarine-Fragata-Libertad-Liverpool_0_1621038009.html'
p1
aS'https://www.clarin.com/sociedad/Yellow-Submarine-Fragata-Libertad-Liverpool_0_1621038009.html'
p2
aS'https://www.clarin.com/ieco/economia/acentuo-caida-actividad-industrial_0_1621038007.html'
p3
aS'https://www.clarin.com/ieco/economia/acentuo-caida-actividad-industrial_0_1621038007.html'
p4
aS'https://www.clarin.com/politica/Secuestran-hermana-Alba-principio-declarar_0_1621038005.html'
p5
aS'https://www.clarin.com/politica/Secuestran-hermana-Alba-principio-declarar_0_1621038005.html'
p6
aS'https://www.clarin.com/politica/Derechos-entidad-presion-Macri-Venezuela_0_1621037992.html'
p7
aS'https://www.clarin.com/politica/Derechos-entidad-presion-Macri-Venezuela_0_1621037992.html'
p8
aS'https://www.clarin.com/sociedad/denunciar-hombre-escracho-supuesto-abusador_0_1621037999.html'
p9
aS'https://www.clarin.com/sociedad/denunciar-hombre-escracho-supuesto-abusador_0_1621037999.html'
p10
aS'https://www.clarin.com/sociedad/cosas-tenes-saber-Sol-Chicos_0_1621038002.html'
p11
aS'https://www.clarin.com/sociedad/cosas-tenes-saber-Sol-Chicos_0_1621038002.html'
p12
a.