(lp0
Vhttps://www.clarin.com/politica/Cristina-departamento-Recoleta-destino-incierto_0_1557444524.html
p1
aVhttps://www.clarin.com/politica/Cristina-departamento-Recoleta-destino-incierto_0_1557444524.html
p2
aVhttps://www.clarin.com/sociedad/Hawking-impulsa-mini-naves-interestelares-rapidos_0_1557444520.html
p3
aVhttps://www.clarin.com/sociedad/Hawking-impulsa-mini-naves-interestelares-rapidos_0_1557444520.html
p4
aVhttps://www.clarin.com/politica/UNLP-miercoles-acompanar-Cristina-Tribunales_0_1557444389.html
p5
aVhttps://www.clarin.com/politica/UNLP-miercoles-acompanar-Cristina-Tribunales_0_1557444389.html
p6
aVhttps://www.clarin.com/ieco/avance-soja-biodiversidad-resiste-banquinas_0_1557444493.html
p7
aVhttps://www.clarin.com/politica/Mausoleo-Kirchner-complicado-cerrado-Justicia_0_1557444507.html
p8
aVhttps://www.clarin.com/politica/Mausoleo-Kirchner-complicado-cerrado-Justicia_0_1557444507.html
p9
aVhttps://www.clarin.com/sociedad/dramatico-relato-chica-esclava-casa_0_1557444502.html
p10
aVhttps://www.clarin.com/sociedad/dramatico-relato-chica-esclava-casa_0_1557444502.html
p11
a.