(lp0
S'https://www.clarin.com/sociedad/festejar-doble-escarapela-Avenida-Mayo_0_1609639121.html'
p1
aS'https://www.clarin.com/sociedad/festejar-doble-escarapela-Avenida-Mayo_0_1609639121.html'
p2
aS'https://www.clarin.com/ieco/economia/Pinedo-Gobierno-acompanar-razonable-argentinos_0_1609639118.html'
p3
aS'https://www.clarin.com/ieco/economia/Pinedo-Gobierno-acompanar-razonable-argentinos_0_1609639118.html'
p4
aS'https://www.clarin.com/ieco/economia/Petroleras-importar-petroleo-advertencia-Gobierno_0_1609639113.html'
p5
aS'https://www.clarin.com/ieco/economia/Petroleras-importar-petroleo-advertencia-Gobierno_0_1609639113.html'
p6
aS'https://www.clarin.com/politica/Papa-advierte-Madre-Patria-vender_0_1609639107.html'
p7
aS'https://www.clarin.com/politica/Papa-advierte-Madre-Patria-vender_0_1609639107.html'
p8
a.