(lp0
S'https://www.clarin.com/politica/Moyano-advirtio-Gobierno-quiera-despidos_0_1499250241.html'
p1
aS'https://www.clarin.com/ieco/naftas-sube-aumento_0_1499250496.html'
p2
aS'https://www.clarin.com/ieco/economia/precios_cuidados_0_1499250538.html'
p3
aS'https://www.clarin.com/sociedad/Espacio_Clarin-Mancha-Rolando-Mar_del_Plata_0_1499850049.html'
p4
aS'https://www.clarin.com/politica/triple_crimen-vidal_0_1499850047.html'
p5
aS'https://www.clarin.com/ieco/economia/dolar-mercado-suba_0_1499250499.html'
p6
aS'https://www.clarin.com/politica/estudio-Salta-porcentaje-pobreza-Argentina_0_1499850074.html'
p7
aS'https://www.clarin.com/opinion/Silvina_Lamazares_0_1499850065.html'
p8
aS'https://www.clarin.com/ieco/crecimiento-banco_muncial-pronosticos_0_1499250501.html'
p9
aS'https://www.clarin.com/politica/triple_crimen-vidal_0_1499850048.html'
p10
aS'https://www.clarin.com/politica/triple_crimen-vidal_0_1499850045.html'
p11
aS'https://www.clarin.com/politica/Lazaro-Baez-despidio-empresa-empleados_0_1499850058.html'
p12
a.