(lp0
Vhttps://www.clarin.com/sociedad/Marcha-Paraguas-muertos-inundacion-anos_0_1551445103.html
p1
aVhttps://www.clarin.com/sociedad/Marcha-Paraguas-muertos-inundacion-anos_0_1551445103.html
p2
aVhttps://www.clarin.com/politica/Video-Jaime-hablaba-TV-entregarse_0_1551445096.html
p3
aVhttps://www.clarin.com/politica/Video-Jaime-hablaba-TV-entregarse_0_1551445096.html
p4
aVhttps://www.clarin.com/politica/Encontraron-presunto-testaferro-Jaime-escondido_0_1551445093.html
p5
aVhttps://www.clarin.com/politica/Encontraron-presunto-testaferro-Jaime-escondido_0_1551445093.html
p6
aVhttps://www.clarin.com/sociedad/imputado-muerte-ex-mujer-Storani_0_1551445078.html
p7
a.