(lp0
S'https://www.clarin.com/politica/Prision-domiciliaria-asesor-Ricardo-Jaime_0_1574242723.html'
p1
aS'https://www.clarin.com/sociedad/alquiler-vientre-quedo-Codigo-Civil_0_1574242709.html'
p2
aS'https://www.clarin.com/politica/Muerte-dudosa-caratula-investiga-Justicia_0_1574242716.html'
p3
aS'https://www.clarin.com/politica/Muerte-dudosa-caratula-investiga-Justicia_0_1574242716.html'
p4
a.