(lp0
Vhttps://www.clarin.com/sociedad/funciona-primera-heladera-social-pais_0_1532246987.html
p1
aVhttps://www.clarin.com/sociedad/funciona-primera-heladera-social-pais_0_1532246987.html
p2
aVhttps://www.clarin.com/sociedad/Montanita-pueblo-senalado-droga-inseguridad_0_1532246984.html
p3
aVhttps://www.clarin.com/sociedad/Montanita-pueblo-senalado-droga-inseguridad_0_1532246984.html
p4
aVhttps://www.clarin.com/politica/furcio-Macri-discurso_0_1532246980.html
p5
aVhttps://www.clarin.com/politica/furcio-Macri-discurso_0_1532246980.html
p6
aVhttps://www.clarin.com/politica/gobierno-britanico-embajador-Buenos-Aires_0_1532246951.html
p7
aVhttps://www.clarin.com/politica/Macri-inflacion-tolerantes-empresas_0_1532246970.html
p8
aVhttps://www.clarin.com/politica/Macri-inflacion-tolerantes-empresas_0_1532246970.html
p9
aVhttps://www.clarin.com/politica/Fuerte-cruce-Macri-legisladores-respetar_0_1532246968.html
p10
aVhttps://www.clarin.com/politica/Fuerte-cruce-Macri-legisladores-respetar_0_1532246968.html
p11
aVhttps://www.clarin.com/ieco/economia/Audiencia-decisiva-liberar-bonistas-canjes_0_1532246969.html
p12
a.