(lp0
Vhttps://www.clarin.com/politica/investigan-AMIA-declaracion-Menem-Senado_0_1584441625.html
p1
aVhttps://www.clarin.com/politica/investigan-AMIA-declaracion-Menem-Senado_0_1584441625.html
p2
aVhttps://www.clarin.com/sociedad/Tucuman-aporta-logos-Bicentenario_0_1584441606.html
p3
aVhttps://www.clarin.com/sociedad/Tucuman-aporta-logos-Bicentenario_0_1584441606.html
p4
aVhttps://www.clarin.com/sociedad/despues-juzgan-director-INADI-prendio_0_1584441623.html
p5
aVhttps://www.clarin.com/sociedad/despues-juzgan-director-INADI-prendio_0_1584441623.html
p6
aVhttps://www.clarin.com/sociedad/mision-Luna-traera-muestras-Tierra_0_1584441614.html
p7
aVhttps://www.clarin.com/sociedad/mision-Luna-traera-muestras-Tierra_0_1584441614.html
p8
aVhttps://www.clarin.com/politica/Anuncios-mezclan-buenas-malas-noticias_0_1584441617.html
p9
aVhttps://www.clarin.com/politica/Anuncios-mezclan-buenas-malas-noticias_0_1584441617.html
p10
aVhttps://www.clarin.com/ieco/economia/Gobierno-lanzo-pension-universal-mayores_0_1584441613.html
p11
aVhttps://www.clarin.com/ieco/economia/Gobierno-lanzo-pension-universal-mayores_0_1584441613.html
p12
a.