(lp0
S'https://www.clarin.com/politica/Road-show-Diputados-combo-alternativo_0_1565243654.html'
p1
aS'https://www.clarin.com/politica/Road-show-Diputados-combo-alternativo_0_1565243654.html'
p2
aS'https://www.clarin.com/ieco/Jubilados-ANSeS-analiza-pagarles-retroactivos_0_1565243617.html'
p3
aS'https://www.clarin.com/ieco/Jubilados-ANSeS-analiza-pagarles-retroactivos_0_1565243617.html'
p4
aS'https://www.clarin.com/politica/Negociaciones-Senado-frenar-ley-antidespidos_0_1565243652.html'
p5
aS'https://www.clarin.com/politica/Negociaciones-Senado-frenar-ley-antidespidos_0_1565243652.html'
p6
aS'https://www.clarin.com/politica/Ahora-Grindetti-aclarar-pedido-captura_0_1565243621.html'
p7
aS'https://www.clarin.com/politica/Ahora-Grindetti-aclarar-pedido-captura_0_1565243621.html'
p8
aS'https://www.clarin.com/politica/Macri-anuncio-primer-empleo-jovenes_0_1565243651.html'
p9
aS'https://www.clarin.com/politica/Macri-anuncio-primer-empleo-jovenes_0_1565243651.html'
p10
aS'https://www.clarin.com/opinion/compania-naranja_0_1565243647.html'
p11
aS'https://www.clarin.com/politica/fiscal-investigar-subjefa-SIDE-lavado_0_1565243609.html'
p12
aS'https://www.clarin.com/politica/fiscal-investigar-subjefa-SIDE-lavado_0_1565243609.html'
p13
aS'https://www.clarin.com/sociedad/perro-mato-nene-dieron-prision_0_1565243639.html'
p14
aS'https://www.clarin.com/politica/Moyano-movilizacion-viernes-acto-multitudinario_0_1565243655.html'
p15
aS'https://www.clarin.com/politica/Moyano-movilizacion-viernes-acto-multitudinario_0_1565243655.html'
p16
a.