(lp0
S'https://www.clarin.com/sociedad/Miles-personas-desnudaron-pintaron-sesion_0_1610239068.html'
p1
aS'https://www.clarin.com/sociedad/Turismo-semana-supero-ampliamente-expectativas_0_1610239078.html'
p2
aS'https://www.clarin.com/politica/Perez-Corradi-declara-ruta-efedrina_0_1610239081.html'
p3
aS'https://www.clarin.com/opinion/Gibraltar-caso-seguir-cerca_0_1610239076.html'
p4
a.