(lp0
S'https://www.clarin.com/politica/Libertad-expresion-Adepa-destaco-publicacion_0_1526247757.html'
p1
aS'https://www.clarin.com/politica/Negocian-lista-unidad-renovacion-PJ_0_1526247755.html'
p2
aS'https://www.clarin.com/politica/Negocian-lista-unidad-renovacion-PJ_0_1526247755.html'
p3
aS'https://www.clarin.com/politica/viajesdecristina-facturastruchas-auditoria_0_1526847319.html'
p4
aS'https://www.clarin.com/politica/viajesdecristina-facturastruchas-auditoria_0_1526847319.html'
p5
aS'https://www.clarin.com/ieco/economia/Radiografia-consumidor-vinos-alta-gama_0_1526847549.html'
p6
aS'https://www.clarin.com/ieco/economia/Radiografia-consumidor-vinos-alta-gama_0_1526847549.html'
p7
aS'https://www.clarin.com/ieco/economia/debe-tener-vino-premium_0_1526847547.html'
p8
aS'https://www.clarin.com/ieco/economia/debe-tener-vino-premium_0_1526847547.html'
p9
aS'https://www.clarin.com/ieco/economia/mercado-ahora-espera-ajuste_0_1526847545.html'
p10
aS'https://www.clarin.com/ieco/economia/BCRA-pone-pecho-pulseadas_0_1526847544.html'
p11
aS'https://www.clarin.com/ieco/economia/BCRA-pone-pecho-pulseadas_0_1526847544.html'
p12
aS'https://www.clarin.com/ieco/economia/animales-compania_0_1526847526.html'
p13
aS'https://www.clarin.com/ieco/economia/animales-compania_0_1526847526.html'
p14
aS'https://www.clarin.com/ieco/economia/Pescarmona-tropieza-BID_0_1526847523.html'
p15
aS'https://www.clarin.com/ieco/economia/valor-comerciales-emotivos_0_1526847522.html'
p16
aS'https://www.clarin.com/ieco/economia/valor-comerciales-emotivos_0_1526847522.html'
p17
aS'https://www.clarin.com/ieco/economia/Oficinas-abiertas-amigables_0_1526847519.html'
p18
aS'https://www.clarin.com/ieco/economia/Oficinas-abiertas-amigables_0_1526847519.html'
p19
aS'https://www.clarin.com/ieco/economia/Empresas-argentinas-participan-programa-MIT_0_1526847518.html'
p20
aS'https://www.clarin.com/ieco/economia/Empresas-argentinas-participan-programa-MIT_0_1526847518.html'
p21
aS'https://www.clarin.com/ieco/economia/encrucijadas-industria-petrolera-caida-crudo_0_1526847510.html'
p22
aS'https://www.clarin.com/ieco/economia/encrucijadas-industria-petrolera-caida-crudo_0_1526847510.html'
p23
aS'https://www.clarin.com/ieco/economia/Clara-tendencia-deflacionaria_0_1526847508.html'
p24
aS'https://www.clarin.com/ieco/economia/Clara-tendencia-deflacionaria_0_1526847508.html'
p25
aS'https://www.clarin.com/ieco/economia/detras-caida-economia-brasilena-cesa_0_1526847507.html'
p26
aS'https://www.clarin.com/ieco/economia/detras-caida-economia-brasilena-cesa_0_1526847507.html'
p27
a.