(lp0
S'https://www.clarin.com/politica/Milagro-Sala-advirtio-Macri-politica_0_1520248131.html'
p1
aS'https://www.clarin.com/politica/Milagro-Sala-advirtio-Macri-politica_0_1520248131.html'
p2
aS'https://www.clarin.com/politica/Allanaron-casa-Perez-Corradi_0_1520248116.html'
p3
aS'https://www.clarin.com/politica/Allanaron-casa-Perez-Corradi_0_1520248116.html'
p4
aS'https://www.clarin.com/sociedad/siente-vibrar-celular-vibro-realmente_0_1520248115.html'
p5
aS'https://www.clarin.com/sociedad/siente-vibrar-celular-vibro-realmente_0_1520248115.html'
p6
aS'https://www.clarin.com/politica/Macri-Tener-inflacion-paises-llevara_0_1520248117.html'
p7
aS'https://www.clarin.com/politica/Macri-Tener-inflacion-paises-llevara_0_1520248117.html'
p8
aS'https://www.clarin.com/politica/vacaciones-Boudou-tribunales-Comodoro-Py_0_1520248107.html'
p9
aS'https://www.clarin.com/politica/vacaciones-Boudou-tribunales-Comodoro-Py_0_1520248107.html'
p10
aS'https://www.clarin.com/politica/igual-padre-Baez-aumento-patrimonio_0_1520248094.html'
p11
aS'https://www.clarin.com/politica/igual-padre-Baez-aumento-patrimonio_0_1520248094.html'
p12
a.