(lp0
Vhttps://www.clarin.com/sociedad/Trasladan-cuerpos-mendocinas-asesinadas-Ecuador_0_1549645329.html
p1
aVhttps://www.clarin.com/sociedad/Trasladan-cuerpos-mendocinas-asesinadas-Ecuador_0_1549645329.html
p2
aVhttps://www.clarin.com/ieco/economia/dolar-baja-centavos_0_1549645294.html
p3
aVhttps://www.clarin.com/sociedad/pidio-conocer-Papa-quedarse-ciega_0_1549645325.html
p4
aVhttps://www.clarin.com/sociedad/pidio-conocer-Papa-quedarse-ciega_0_1549645325.html
p5
aVhttps://www.clarin.com/ieco/economia/justicia-intervino-petrolera-Cristobal-Lopez_0_1549645318.html
p6
aVhttps://www.clarin.com/ieco/economia/justicia-intervino-petrolera-Cristobal-Lopez_0_1549645318.html
p7
aVhttps://www.clarin.com/politica/Malvinas-britanicos-advierten-recomendacion-ONU_0_1549645316.html
p8
aVhttps://www.clarin.com/politica/Malvinas-britanicos-advierten-recomendacion-ONU_0_1549645316.html
p9
aVhttps://www.clarin.com/ieco/economia/Sol-anuncio-operar-indemnizara-empleados_0_1549645315.html
p10
a.