(lp0
S'https://www.clarin.com/politica/Isabel-Macedo-primera-gobierno-Urtubey_0_1549045415.html'
p1
aS'https://www.clarin.com/sociedad/Plataforma-maritima-territorio-recursos-pesqueros_0_1549045438.html'
p2
aS'https://www.clarin.com/sociedad/Mil-cuatrocientos-evacuados-Santa-Fe_0_1549045436.html'
p3
a.