(lp0
S'https://www.clarin.com/sociedad/Video-investigan-fondo-misterio-dinosaurios_0_1579042159.html'
p1
aS'https://www.clarin.com/sociedad/Video-investigan-fondo-misterio-dinosaurios_0_1579042159.html'
p2
aS'https://www.clarin.com/politica/Vido-Diputados-proyecto-Justicia-allanarlo_0_1579042226.html'
p3
aS'https://www.clarin.com/politica/Vido-Diputados-proyecto-Justicia-allanarlo_0_1579042226.html'
p4
aS'https://www.clarin.com/politica/pruebas-Hotesur-Prefectura-Armada-vigiladas_0_1579042222.html'
p5
aS'https://www.clarin.com/politica/pruebas-Hotesur-Prefectura-Armada-vigiladas_0_1579042222.html'
p6
aS'https://www.clarin.com/politica/gobernador-presentara-recurso-amparo-aumentos_0_1579042220.html'
p7
aS'https://www.clarin.com/politica/gobernador-presentara-recurso-amparo-aumentos_0_1579042220.html'
p8
aS'https://www.clarin.com/politica/festejo-austero-Macri-Tedeum-Catedral_0_1579042215.html'
p9
aS'https://www.clarin.com/politica/festejo-austero-Macri-Tedeum-Catedral_0_1579042215.html'
p10
aS'https://www.clarin.com/politica/socio-Maximo-suma-FM-empresas_0_1579042210.html'
p11
aS'https://www.clarin.com/politica/socio-Maximo-suma-FM-empresas_0_1579042210.html'
p12
a.