(lp0
Vhttps://www.clarin.com/ieco/Fondos_buitre-Financial_Times-Mauricio_Macri_0_1519048378.html
p1
aVhttps://www.clarin.com/opinion/bolsillo-marca-humor-gente_0_1519648068.html
p2
aVhttps://www.clarin.com/sociedad/Supercomputadora-crean-veces-veloz_0_1519048452.html
p3
aVhttps://www.clarin.com/sociedad/Supercomputadora-crean-veces-veloz_0_1519048452.html
p4
aVhttps://www.clarin.com/opinion/Fernando_Soriano_0_1519648061.html
p5
aVhttps://www.clarin.com/opinion/Cambiemos-kirchnerismo-decretos-aumentos_tarifarios-despidos_0_1519648052.html
p6
aVhttps://www.clarin.com/opinion/Cambiemos-kirchnerismo-decretos-aumentos_tarifarios-despidos_0_1519648052.html
p7
aVhttps://www.clarin.com/opinion/Energia_electrica-ajuste_tarifario-economia_sustentable-consumismo_0_1519648051.html
p8
a.