(lp0
S'https://www.clarin.com/sociedad/festival-asado-llega-fiesta-pastafrola_0_1673832629.html'
p1
aS'https://www.clarin.com/sociedad/chica-San-Isidro-mochilera-Alaska_0_1673832623.html'
p2
aS'https://www.clarin.com/sociedad/Creo-aplicacion-facilitar-celular-ciegos_0_1673832619.html'
p3
aS'https://www.clarin.com/opinion/florecen-brotes-verdes_0_1673232801.html'
p4
a.