(lp0
S'https://www.clarin.com/politica/Duros-cruces-peronistas-ruptura-diputados_0_1516648546.html'
p1
aS'https://www.clarin.com/sociedad/Insolito-cascadas-escocesas-subieron-bajar_0_1516648558.html'
p2
aS'https://www.clarin.com/politica/Guillermo_Moreno-indagatoria-cotillon-Clarin-Claudio_Bonadio_0_1516648555.html'
p3
aS'https://www.clarin.com/sociedad/originales-ensenan-educacion-TV-noruega_0_1516648556.html'
p4
aS'https://www.clarin.com/sociedad/Dengue-provincias-confirmaron-casos_0_1516648532.html'
p5
a.