(lp0
Vhttps://www.clarin.com/sociedad/Costa-Salguero-detuvieron-Dell-Producciones_0_1565243581.html
p1
aVhttps://www.clarin.com/sociedad/Costa-Salguero-detuvieron-Dell-Producciones_0_1565243581.html
p2
aVhttps://www.clarin.com/ieco/Primer-Empleo-rebajaria-costo-laboral_0_1565243577.html
p3
aVhttps://www.clarin.com/ieco/Primer-Empleo-rebajaria-costo-laboral_0_1565243577.html
p4
aVhttps://www.clarin.com/ieco/economia/Bolsa-portena_0_1565243560.html
p5
aVhttps://www.clarin.com/sociedad/Desaparecio-chica-anos-Flores_0_1565243561.html
p6
aVhttps://www.clarin.com/sociedad/Desaparecio-chica-anos-Flores_0_1565243561.html
p7
a.