(lp0
S'https://www.clarin.com/ieco/coloquioidea/Chismes-cuchicheos-empresarios-politicos-IDEA_0_1668433339.html'
p1
aS'https://www.clarin.com/sociedad/siente-chico-luego-trauma_0_1668433349.html'
p2
aS'https://www.clarin.com/sociedad/Tragedia-milagro-andinista-arrastro-salvarse_0_1668433344.html'
p3
aS'https://www.clarin.com/sociedad/mayor-dano-silencio-indiferencia_0_1668433350.html'
p4
aS'https://www.clarin.com/sociedad/Brochero-servira-pais-santos-modelos_0_1668433331.html'
p5
aS'https://www.clarin.com/politica/contador-Michetti-dono-fundacion-recibo_0_1668433336.html'
p6
aS'https://www.clarin.com/politica/Wado-Pedro-denuncio-Corizzo-Olivos_0_1668433333.html'
p7
a.