(lp0
S'https://www.clarin.com/politica/Denunciaron-Alicia-Kirchner-desvio-millones_0_1577842349.html'
p1
aS'https://www.clarin.com/politica/Terminan-indagatorias-Futbol-Anibal-Fernandez_0_1577842360.html'
p2
aS'https://www.clarin.com/ieco/Quilmes-fabrica-cerveza-Circuito-Bariloche_0_1577842347.html'
p3
aS'https://www.clarin.com/ieco/economia/Aumento-boletas-Bariloche-Villa-Angostura_0_1577842342.html'
p4
aS'https://www.clarin.com/politica/jugada-audaz-podria-suicida_0_1577842351.html'
p5
a.