(lp0
Vhttps://www.clarin.com/politica/Despidos-Senado-Gobierno-busca-bloquearla_0_1563443871.html
p1
aVhttps://www.clarin.com/politica/Despidos-Senado-Gobierno-busca-bloquearla_0_1563443871.html
p2
aVhttps://www.clarin.com/politica/millones-dolares-energia-calienta-economia_0_1563443849.html
p3
aVhttps://www.clarin.com/opinion/rescate-sabores-lejanos_0_1563443818.html
p4
aVhttps://www.clarin.com/politica/Denuncian-Milagro-Sala-Maximo-Kirchner_0_1563443860.html
p5
aVhttps://www.clarin.com/ieco/economia/emisiones-vienen-sumarian-US-millones_0_1563443825.html
p6
aVhttps://www.clarin.com/ieco/economia/emisiones-vienen-sumarian-US-millones_0_1563443825.html
p7
aVhttps://www.clarin.com/ieco/economia/nuevo-escenario-anos-marginalidad_0_1563443823.html
p8
aVhttps://www.clarin.com/ieco/economia/nuevo-escenario-anos-marginalidad_0_1563443823.html
p9
aVhttps://www.clarin.com/politica/Maximo-Kirchner-acusacion-gobierno-Macri_0_1563443872.html
p10
aVhttps://www.clarin.com/ieco/Hoy-existe-especie-euforia-Argentina_0_1563443865.html
p11
a.