(lp0
S'https://www.clarin.com/politica/proyectos-Elisa-Carrio-Graciela-Camano_0_1659434061.html'
p1
aS'https://www.clarin.com/politica/Cristina-adelanto-viaje-Ecuador_0_1659434056.html'
p2
aS'https://www.clarin.com/politica/Ganancias-negocia-CGT-Gobierno-apoyo_0_1659434065.html'
p3
aS'https://www.clarin.com/politica/Desdel-Gobierno-afirman-pobres-indigentes_0_1659434055.html'
p4
aS'https://www.clarin.com/sociedad/Google-recuerda-Ladislao-Jose-Biro_0_1659434047.html'
p5
aS'https://www.clarin.com/sociedad/Nacional-Buenos-Aires-personal-docente_0_1659434064.html'
p6
aS'https://www.clarin.com/sociedad/vecino-ataco-estudiantes-festejaban-calle_0_1659434054.html'
p7
a.