(lp0
Vhttps://www.clarin.com/opinion/energia-clave-integrar-region_0_1537046653.html
p1
aVhttps://www.clarin.com/opinion/energia-clave-integrar-region_0_1537046653.html
p2
aVhttps://www.clarin.com/opinion/Caminando-hielo-quebradizo_0_1537646241.html
p3
aVhttps://www.clarin.com/politica/Provincia-trompadas-bloque-ida-Ottavis_0_1537046799.html
p4
aVhttps://www.clarin.com/politica/Provincia-trompadas-bloque-ida-Ottavis_0_1537046799.html
p5
aVhttps://www.clarin.com/politica/Macri-inauguro-Expoagro-revolucion-productiva_0_1537046710.html
p6
aVhttps://www.clarin.com/politica/Macri-inauguro-Expoagro-revolucion-productiva_0_1537046710.html
p7
aVhttps://www.clarin.com/politica/Buscan-Obama-San-Martin-Catedral_0_1537046704.html
p8
aVhttps://www.clarin.com/sociedad/anos-chica-mata-envidia_0_1537046747.html
p9
aVhttps://www.clarin.com/politica/salir-default-aumenta-tension-PJ_0_1537046796.html
p10
aVhttps://www.clarin.com/politica/salir-default-aumenta-tension-PJ_0_1537046796.html
p11
aVhttps://www.clarin.com/politica/Acuerdo-Ciudad-Provincia-problematica-AMBA_0_1537646224.html
p12
aVhttps://www.clarin.com/politica/Acuerdo-Ciudad-Provincia-problematica-AMBA_0_1537646224.html
p13
aVhttps://www.clarin.com/sociedad/privadas-Provincia-cobraran-renovacion-tecnologica_0_1537046712.html
p14
aVhttps://www.clarin.com/politica/Semillas-gobierno-intervendra-pelea-regalias_0_1537046732.html
p15
aVhttps://www.clarin.com/politica/Semillas-gobierno-intervendra-pelea-regalias_0_1537046732.html
p16
aVhttps://www.clarin.com/politica/acuerdo-Gobierno-dando-razon-Griesa_0_1537046802.html
p17
aVhttps://www.clarin.com/politica/acuerdo-Gobierno-dando-razon-Griesa_0_1537046802.html
p18
aVhttps://www.clarin.com/ieco/Miguel-Angel-Gutierrez-presidente-YPF_0_1537046735.html
p19
aVhttps://www.clarin.com/politica/decreto-seguira-vigente-pagara-anunciado_0_1537046766.html
p20
a.