(lp0
Vhttps://www.clarin.com/politica/Manifestantes-protestan-Cristina-Obelisco_0_1558044616.html
p1
aVhttps://www.clarin.com/politica/Manifestantes-protestan-Cristina-Obelisco_0_1558044616.html
p2
aVhttps://www.clarin.com/politica/Macri-acepto-renuncia-Oyarbide_0_1558044679.html
p3
aVhttps://www.clarin.com/politica/Macri-acepto-renuncia-Oyarbide_0_1558044679.html
p4
aVhttps://www.clarin.com/politica/Michetti-puerta-Comodoro-Py-lamentable_0_1558044674.html
p5
aVhttps://www.clarin.com/politica/Michetti-puerta-Comodoro-Py-lamentable_0_1558044674.html
p6
a.