(lp0
Vhttps://www.clarin.com/politica/Schoklender-acordo-Kirchner-Murio-robando_0_1595840426.html
p1
aVhttps://www.clarin.com/politica/Schoklender-acordo-Kirchner-Murio-robando_0_1595840426.html
p2
aVhttps://www.clarin.com/sociedad/Richard-Ford-Premio-Princesa-Asturias_0_1595840425.html
p3
aVhttps://www.clarin.com/sociedad/Richard-Ford-Premio-Princesa-Asturias_0_1595840425.html
p4
aVhttps://www.clarin.com/sociedad/OMS-saco-cafe-lista-cancerigenos_0_1595840424.html
p5
aVhttps://www.clarin.com/sociedad/OMS-saco-cafe-lista-cancerigenos_0_1595840424.html
p6
aVhttps://www.clarin.com/politica/secretario-Obras-Publicas-deprimido-durmio_0_1595840422.html
p7
aVhttps://www.clarin.com/politica/secretario-Obras-Publicas-deprimido-durmio_0_1595840422.html
p8
aVhttps://www.clarin.com/politica/Trasladan-Lopez-fiscalia-declara-portacion_0_1595840419.html
p9
aVhttps://www.clarin.com/politica/Trasladan-Lopez-fiscalia-declara-portacion_0_1595840419.html
p10
aVhttps://www.clarin.com/politica/Exclusivo-Clarin-esposaban-Jose-Lopez_0_1595840417.html
p11
aVhttps://www.clarin.com/politica/Exclusivo-Clarin-esposaban-Jose-Lopez_0_1595840417.html
p12
a.