(lp0
Vhttps://www.clarin.com/sociedad/Invierno-anticipado-polar-Bariloche-Catedral_0_1562843840.html
p1
aVhttps://www.clarin.com/sociedad/Invierno-anticipado-polar-Bariloche-Catedral_0_1562843840.html
p2
aVhttps://www.clarin.com/ieco/economia/dolar-minorista-subio-centavos_0_1562843856.html
p3
aVhttps://www.clarin.com/politica/Procesaron-Jaime-Schiavi-Espana-Portugal_0_1562843857.html
p4
aVhttps://www.clarin.com/politica/Procesaron-Jaime-Schiavi-Espana-Portugal_0_1562843857.html
p5
a.