(lp0
Vhttps://www.clarin.com/politica/Triple_Fuga-Bonaerense_0_1502849949.html
p1
aVhttps://www.clarin.com/politica/Triple_Fuga-Bonaerense_0_1502849949.html
p2
aVhttps://www.clarin.com/sociedad/munequito-Lanatta-vende-Internet_0_1502849935.html
p3
aVhttps://www.clarin.com/sociedad/munequito-Lanatta-vende-Internet_0_1502849935.html
p4
aVhttps://www.clarin.com/sociedad/video-terremotos-sismos-2000-2015-youtube-mundo_0_1502849903.html
p5
aVhttps://www.clarin.com/sociedad/video-terremotos-sismos-2000-2015-youtube-mundo_0_1502849903.html
p6
aVhttps://www.clarin.com/ieco/management/mismo-trabajo-puede-fracaso-personal_0_1502849929.html
p7
aVhttps://www.clarin.com/ieco/management/mismo-trabajo-puede-fracaso-personal_0_1502849929.html
p8
aVhttps://www.clarin.com/sociedad/dio-remera-linyera-frio-conmovio_0_1502849906.html
p9
aVhttps://www.clarin.com/sociedad/dio-remera-linyera-frio-conmovio_0_1502849906.html
p10
aVhttps://www.clarin.com/sociedad/Internaron-rosarina-pesa-kilos_0_1502849931.html
p11
aVhttps://www.clarin.com/sociedad/Internaron-rosarina-pesa-kilos_0_1502849931.html
p12
aVhttps://www.clarin.com/politica/Triple_Fuga-Miguel_Lifschitz_0_1502849932.html
p13
aVhttps://www.clarin.com/politica/Triple_Fuga-Miguel_Lifschitz_0_1502849932.html
p14
aVhttps://www.clarin.com/ieco/economia/Macri-Pollack-Argentina-acuerdo-razonable_0_1502849922.html
p15
aVhttps://www.clarin.com/ieco/economia/Macri-Pollack-Argentina-acuerdo-razonable_0_1502849922.html
p16
a.