(lp0
S'https://www.clarin.com/sociedad/Crece-escandalo-director-porno-espanol_0_1624637613.html'
p1
aS'https://www.clarin.com/politica/mujer-Lopez-Discutimos-noche-arma_0_1624637620.html'
p2
aS'https://www.clarin.com/politica/Cristina-Kirchner-velatorio-sindicalista-Ongaro_0_1624637616.html'
p3
aS'https://www.clarin.com/sociedad/Brando-Susana-manteca-materia-memes_0_1624637610.html'
p4
a.