(lp0
Vhttps://www.clarin.com/ieco/economia/semana-Gobierno-olvidara_0_1649835219.html
p1
aVhttps://www.clarin.com/ieco/economia/semana-Gobierno-olvidara_0_1649835219.html
p2
aVhttps://www.clarin.com/politica/CEO-Coca-Cola-Macri-ejemplo_0_1649835224.html
p3
aVhttps://www.clarin.com/politica/despotico-desconfiado-devoto-whisky-habanos_0_1649835212.html
p4
aVhttps://www.clarin.com/politica/despotico-desconfiado-devoto-whisky-habanos_0_1649835212.html
p5
aVhttps://www.clarin.com/politica/fusionan-casos-corrupcion-publica-Cristina_0_1649835184.html
p6
aVhttps://www.clarin.com/politica/fusionan-casos-corrupcion-publica-Cristina_0_1649835184.html
p7
aVhttps://www.clarin.com/politica/Macri-argentinos-pueden-pagar-impuestos_0_1650434945.html
p8
aVhttps://www.clarin.com/politica/Macri-argentinos-pueden-pagar-impuestos_0_1650434945.html
p9
aVhttps://www.clarin.com/politica/Juego-espejos-decada-saqueada_0_1650434942.html
p10
aVhttps://www.clarin.com/politica/Teoria-Robin-Hood-enriquecerse_0_1650434941.html
p11
aVhttps://www.clarin.com/politica/Congreso-lupa-gastos-Gils-Carbo_0_1649835237.html
p12
aVhttps://www.clarin.com/politica/Facundo-Moyano-Pablo-Vilouta-Intratables_0_1649835235.html
p13
aVhttps://www.clarin.com/politica/Facundo-Moyano-Pablo-Vilouta-Intratables_0_1649835235.html
p14
a.