(lp0
S'https://www.clarin.com/ieco/mercado-mete-pelea-pide-tasa_0_1646235503.html'
p1
aS'https://www.clarin.com/ieco/mercado-mete-pelea-pide-tasa_0_1646235503.html'
p2
aS'https://www.clarin.com/ieco/economia/polemica-Gobierno-retira-numero-Visa_0_1646235508.html'
p3
aS'https://www.clarin.com/politica/Macri-busco-bajarle-interna-economistas_0_1646235460.html'
p4
aS'https://www.clarin.com/politica/Macri-busco-bajarle-interna-economistas_0_1646235460.html'
p5
aS'https://www.clarin.com/ieco/propone-Gobierno-millonario-negocio-semillas_0_1646235398.html'
p6
aS'https://www.clarin.com/ieco/propone-Gobierno-millonario-negocio-semillas_0_1646235398.html'
p7
aS'https://www.clarin.com/ieco/economia/Shell-evalua-estaciones-servicio-Argentina_0_1646235444.html'
p8
aS'https://www.clarin.com/ieco/economia/Shell-evalua-estaciones-servicio-Argentina_0_1646235444.html'
p9
aS'https://www.clarin.com/sociedad/Cordoba-buscan-chica-desaparecio-viernes_0_1646835310.html'
p10
aS'https://www.clarin.com/sociedad/Cordoba-buscan-chica-desaparecio-viernes_0_1646835310.html'
p11
aS'https://www.clarin.com/politica/Rodriguez-Larreta-despejo-sufrir-Parkinson_0_1646835308.html'
p12
aS'https://www.clarin.com/politica/Rodriguez-Larreta-despejo-sufrir-Parkinson_0_1646835308.html'
p13
aS'https://www.clarin.com/politica/CGT-fuerzas-Gobierno-piqueteros-duros_0_1646835309.html'
p14
aS'https://www.clarin.com/politica/CGT-fuerzas-Gobierno-piqueteros-duros_0_1646835309.html'
p15
aS'https://www.clarin.com/sociedad/dieron-paliza-homosexual_0_1646835307.html'
p16
aS'https://www.clarin.com/sociedad/dieron-paliza-homosexual_0_1646835307.html'
p17
aS'https://www.clarin.com/politica/usuarios-gas-pagaran_0_1646835306.html'
p18
aS'https://www.clarin.com/politica/usuarios-gas-pagaran_0_1646835306.html'
p19
aS'https://www.clarin.com/opinion/Esperando-segundo-semestre-Beckett_0_1646235494.html'
p20
aS'https://www.clarin.com/opinion/Colombia-entramado-pos-conflicto_0_1646235491.html'
p21
aS'https://www.clarin.com/opinion/Cambio-climatico-hora-definiciones_0_1646235495.html'
p22
aS'https://www.clarin.com/opinion/Cambio-climatico-hora-definiciones_0_1646235495.html'
p23
a.