(lp0
S'https://www.clarin.com/sociedad/San-Luis-sigue-Potrero-Funes_0_1634836615.html'
p1
aS'https://www.clarin.com/sociedad/lugares-calientes-Ciudad-Happn_0_1634836608.html'
p2
aS'https://www.clarin.com/ieco/economia/Aranguren-Kicillof-sobreseen-compra-dolares_0_1634836613.html'
p3
aS'https://www.clarin.com/politica/Momo-Venegas-Congreso-unificacion-CGT_0_1634836611.html'
p4
aS'https://www.clarin.com/sociedad/Caminata-astronautas-instalar-estacionamiento-especial_0_1634836622.html'
p5
a.