(lp0
S'https://www.clarin.com/sociedad/smartphones-incluidos-nuevo-plan-oficial_0_1617438311.html'
p1
aS'https://www.clarin.com/politica/Regazzoni-entrever-posible-jubilatoria-cruzaron_0_1617438305.html'
p2
aS'https://www.clarin.com/politica/Sola-peronismo-asumir-denunciarlo-limpiarse_0_1617438303.html'
p3
aS'https://www.clarin.com/politica/Nicolas-Fernandez-companero-Cristina-Kirchner_0_1617438304.html'
p4
aS'https://www.clarin.com/politica/Macri-Aca-Cristobal-Lopez-impuestos_0_1617438313.html'
p5
a.