(lp0
Vhttps://www.clarin.com/politica/vacaciones-gobernador-Miami-revolucionan-sociales_0_1504649850.html
p1
aVhttps://www.clarin.com/politica/vacaciones-gobernador-Miami-revolucionan-sociales_0_1504649850.html
p2
aVhttps://www.clarin.com/ieco/bancos-sucursales-autorizacion-BCRA_0_1504649855.html
p3
aVhttps://www.clarin.com/ieco/bancos-sucursales-autorizacion-BCRA_0_1504649855.html
p4
aVhttps://www.clarin.com/politica/Mauricio_Macri-costilla-Davos_0_1504649854.html
p5
aVhttps://www.clarin.com/politica/Mauricio_Macri-costilla-Davos_0_1504649854.html
p6
aVhttps://www.clarin.com/sociedad/Delta-entrerriano-familias-autoevacuadas_0_1504649848.html
p7
aVhttps://www.clarin.com/sociedad/Delta-entrerriano-familias-autoevacuadas_0_1504649848.html
p8
aVhttps://www.clarin.com/sociedad/maestra_jardinera-pelea-lucha-ninos-nenes-maltrato-estados_unidos_0_1504649823.html
p9
aVhttps://www.clarin.com/sociedad/maestra_jardinera-pelea-lucha-ninos-nenes-maltrato-estados_unidos_0_1504649823.html
p10
aVhttps://www.clarin.com/sociedad/Video-lograron-levantar-dinosaurio-grande_0_1504649832.html
p11
aVhttps://www.clarin.com/sociedad/Video-lograron-levantar-dinosaurio-grande_0_1504649832.html
p12
aVhttps://www.clarin.com/ieco/economia/Gobierno-rechazo-clausula-confidencialidad-buitres_0_1504649831.html
p13
a.