(lp0
Vhttps://www.clarin.com/ieco/economia/Igual-Volkswagen-Fiat-suspensiones-Cordoba_0_1521448038.html
p1
aVhttps://www.clarin.com/politica/Vidal-realiza-docentes-gremios-rechazan_0_1521448031.html
p2
aVhttps://www.clarin.com/politica/Vidal-realiza-docentes-gremios-rechazan_0_1521448031.html
p3
aVhttps://www.clarin.com/politica/Yasky-Creo-recibir-perrito-Balcarce_0_1521448028.html
p4
aVhttps://www.clarin.com/politica/Yasky-Creo-recibir-perrito-Balcarce_0_1521448028.html
p5
aVhttps://www.clarin.com/sociedad/Observatorio-Cordoba-corroborara-hallazgo-gravitacionales_0_1521448015.html
p6
aVhttps://www.clarin.com/sociedad/Observatorio-Cordoba-corroborara-hallazgo-gravitacionales_0_1521448015.html
p7
aVhttps://www.clarin.com/ieco/economia/Triaca-aseguro-cambios-Ganancias-definidos_0_1521448012.html
p8
aVhttps://www.clarin.com/ieco/economia/Triaca-aseguro-cambios-Ganancias-definidos_0_1521448012.html
p9
aVhttps://www.clarin.com/politica/Pena-inflacion-reduciendo-segundo-semestre_0_1521448000.html
p10
aVhttps://www.clarin.com/politica/Pena-inflacion-reduciendo-segundo-semestre_0_1521448000.html
p11
aVhttps://www.clarin.com/ieco/economia/Fondos-buitre-Griesa-propuesta-Argentina_0_1521447994.html
p12
aVhttps://www.clarin.com/ieco/economia/Fondos-buitre-Griesa-propuesta-Argentina_0_1521447994.html
p13
aVhttps://www.clarin.com/politica/Casa-Rosada-mejoran-empleados-pasa_0_1521447972.html
p14
aVhttps://www.clarin.com/politica/Casa-Rosada-mejoran-empleados-pasa_0_1521447972.html
p15
a.