(lp0
S'https://www.clarin.com/sociedad/Comenzaron-desenterrar-caparazon-gliptodonte_0_1516648627.html'
p1
aS'https://www.clarin.com/ieco/economia/dolar-alcanzo-nuevo-maximo_0_1516648634.html'
p2
aS'https://www.clarin.com/politica/Bonafini-Parrili-AFI-ex_SIDE_0_1516648637.html'
p3
aS'https://www.clarin.com/sociedad/decreto-Scioli-farmacias-venderan-repelentes_0_1516648629.html'
p4
a.