(lp0
Vhttps://www.clarin.com/sociedad/tierno-video-elefanta-rescatista_0_1670233010.html
p1
aVhttps://www.clarin.com/sociedad/tierno-video-elefanta-rescatista_0_1670233010.html
p2
aVhttps://www.clarin.com/sociedad/Academia-Sueca-abandono-Bob-Dylan_0_1670233013.html
p3
aVhttps://www.clarin.com/sociedad/Academia-Sueca-abandono-Bob-Dylan_0_1670233013.html
p4
aVhttps://www.clarin.com/politica/Hablo-Andrea-Boca-Tribunales-Aca_0_1670233012.html
p5
aVhttps://www.clarin.com/politica/Hablo-Andrea-Boca-Tribunales-Aca_0_1670233012.html
p6
aVhttps://www.clarin.com/ieco/Gobierno-emite-millones-financiar-transporte_0_1670233006.html
p7
aVhttps://www.clarin.com/ieco/Gobierno-emite-millones-financiar-transporte_0_1670233006.html
p8
aVhttps://www.clarin.com/sociedad/padre-inconsciente-ensena-manejar-autopista_0_1670233004.html
p9
aVhttps://www.clarin.com/sociedad/padre-inconsciente-ensena-manejar-autopista_0_1670233004.html
p10
aVhttps://www.clarin.com/sociedad/Vivir-esperando-corazon-ilusion-chicos_0_1670233000.html
p11
aVhttps://www.clarin.com/sociedad/Vivir-esperando-corazon-ilusion-chicos_0_1670233000.html
p12
a.