(lp0
Vhttps://www.clarin.com/politica/Gobierno-metido-enredo_0_1661833960.html
p1
aVhttps://www.clarin.com/sociedad/Juegos-Bonaerenses-Vidal-deporte-estudiar_0_1661833954.html
p2
aVhttps://www.clarin.com/sociedad/Juegos-Bonaerenses-Vidal-deporte-estudiar_0_1661833954.html
p3
aVhttps://www.clarin.com/sociedad/Instagram-eligio-argentinos-primer-libro_0_1655834560.html
p4
aVhttps://www.clarin.com/sociedad/Instagram-eligio-argentinos-primer-libro_0_1655834560.html
p5
aVhttps://www.clarin.com/politica/nieto-hijo-maximo-dirigente-ERP-PRT_0_1661833948.html
p6
aVhttps://www.clarin.com/sociedad/egolatria-Napoleon-obsesion-Inglaterra_0_1661833947.html
p7
aVhttps://www.clarin.com/sociedad/egolatria-Napoleon-obsesion-Inglaterra_0_1661833947.html
p8
aVhttps://www.clarin.com/ieco/economia/costo-politicamente-correcto_0_1661833946.html
p9
a.