(lp0
S'https://www.clarin.com/ieco/bancos-colaboraron-asesor-regimen-sinceramiento_0_1673832681.html'
p1
aS'https://www.clarin.com/ieco/bancos-colaboraron-asesor-regimen-sinceramiento_0_1673832681.html'
p2
aS'https://www.clarin.com/politica/Edenor-Edesur-reclaman-subas-tarifa_0_1673832684.html'
p3
aS'https://www.clarin.com/politica/Edenor-Edesur-reclaman-subas-tarifa_0_1673832684.html'
p4
aS'https://www.clarin.com/politica/sobrina-Insfran-compro-Perez-Corradi_0_1674432548.html'
p5
aS'https://www.clarin.com/politica/sobrina-Insfran-compro-Perez-Corradi_0_1674432548.html'
p6
aS'https://www.clarin.com/opinion/Gildo-pelicula_0_1673232782.html'
p7
aS'https://www.clarin.com/opinion/Gildo-pelicula_0_1673232782.html'
p8
aS'https://www.clarin.com/politica/descalabro-cuesta-mil-millones-subsidios_0_1674432547.html'
p9
aS'https://www.clarin.com/politica/Lilita-cigarrillo-vuelve-centro-escena_0_1674432546.html'
p10
a.