(lp0
S'https://www.clarin.com/politica/Macri-Chile-Argentina-Alianza-Pacifico_0_1604839506.html'
p1
aS'https://www.clarin.com/sociedad/Chocaron-trenes-Rawson-heridos_0_1604839526.html'
p2
aS'https://www.clarin.com/politica/Allanan-propiedades-Cristina-Santa-Cruz_0_1604839527.html'
p3
aS'https://www.clarin.com/politica/Anibal-inutil-Vidal-respondieron-nervioso_0_1604839524.html'
p4
aS'https://www.clarin.com/politica/gobernador-pidio-siga-Messi-Martino_0_1604839522.html'
p5
a.