(lp0
Vhttps://www.clarin.com/sociedad/Condenados-Cromanon-comienzan-recuperar-libertad_0_1613838634.html
p1
aVhttps://www.clarin.com/sociedad/Condenados-Cromanon-comienzan-recuperar-libertad_0_1613838634.html
p2
aVhttps://www.clarin.com/politica/Massa-CARI-candidatura-Malcorra-ONU_0_1613838623.html
p3
aVhttps://www.clarin.com/politica/Massa-CARI-candidatura-Malcorra-ONU_0_1613838623.html
p4
a.