(lp0
Vhttps://www.clarin.com/politica/Hebe-Bonafini-citada-indagatoria-semana_0_1628837270.html
p1
aVhttps://www.clarin.com/politica/Hebe-Bonafini-citada-indagatoria-semana_0_1628837270.html
p2
aVhttps://www.clarin.com/sociedad/convertirse-director-cine_0_1628237299.html
p3
aVhttps://www.clarin.com/sociedad/convertirse-director-cine_0_1628237299.html
p4
aVhttps://www.clarin.com/ieco/economia/mercado-recalcula-espera-inflacion-actividad_0_1628837265.html
p5
aVhttps://www.clarin.com/ieco/economia/mercado-recalcula-espera-inflacion-actividad_0_1628837265.html
p6
aVhttps://www.clarin.com/politica/Renuncio-Echegaray-AGN_0_1628837261.html
p7
aVhttps://www.clarin.com/politica/Renuncio-Echegaray-AGN_0_1628837261.html
p8
aVhttps://www.clarin.com/sociedad/Dia-Nino-viene-Ahora-XL_0_1628837255.html
p9
aVhttps://www.clarin.com/sociedad/Dia-Nino-viene-Ahora-XL_0_1628837255.html
p10
a.