(lp0
S'https://www.clarin.com/ieco/Protestas-Misiones-boletas-luz-arriba_0_1531646992.html'
p1
aS'https://www.clarin.com/sociedad/enigma-engana-apurados-cuesta-pelota_0_1531646983.html'
p2
aS'https://www.clarin.com/politica/Hagamos-Papa-intendentes-narcotrafico-pobreza_0_1531646966.html'
p3
aS'https://www.clarin.com/politica/colmo-herencia-masajista-reclama-deuda_0_1531047283.html'
p4
aS'https://www.clarin.com/ieco/economia/Fondos-buitre-manana-decision-Griesa_0_1531646964.html'
p5
aS'https://www.clarin.com/politica/Aerolineas-pago-millones-dolares-Kirchner_0_1531646972.html'
p6
aS'https://www.clarin.com/ieco/afterwork/dolar-sigue-atrasado-Brasil_0_1531646969.html'
p7
aS'https://www.clarin.com/politica/Macri-agradecio-gremios-inicio-termino_0_1531646985.html'
p8
aS'https://www.clarin.com/ieco/economia/Crisis-amenaza-cierre-plantas-girasol_0_1531646973.html'
p9
aS'https://www.clarin.com/ieco/economia/agro-aporto-balanza-comercial-exportaciones_0_1531646970.html'
p10
a.