(lp0
S'https://www.clarin.com/sociedad/Descubren-miniasteroide-gira-alrededor-Tierra_0_1597640337.html'
p1
aS'https://www.clarin.com/sociedad/Descubren-miniasteroide-gira-alrededor-Tierra_0_1597640337.html'
p2
aS'https://www.clarin.com/politica/Carta-abierta-Julio-Vido_0_1597640339.html'
p3
aS'https://www.clarin.com/politica/represor-cayo-podaba-arbol-murio_0_1597640324.html'
p4
aS'https://www.clarin.com/politica/represor-cayo-podaba-arbol-murio_0_1597640324.html'
p5
aS'https://www.clarin.com/politica/Corrupcion-macrismo-quiere-informacion-constructores_0_1597640325.html'
p6
aS'https://www.clarin.com/politica/Corrupcion-macrismo-quiere-informacion-constructores_0_1597640325.html'
p7
a.