(lp0
S'https://www.clarin.com/ieco/economia/Abad-courier-puerta-compras-exterior_0_1537046510.html'
p1
aS'https://www.clarin.com/ieco/economia/Abad-courier-puerta-compras-exterior_0_1537046510.html'
p2
aS'https://www.clarin.com/politica/Nisman-jueves-audiencia-Camara_0_1537046501.html'
p3
aS'https://www.clarin.com/politica/Nisman-jueves-audiencia-Camara_0_1537046501.html'
p4
aS'https://www.clarin.com/politica/Angelici-Carrio-Tribunales-Comodoro-Py_0_1537046504.html'
p5
aS'https://www.clarin.com/politica/Angelici-Carrio-Tribunales-Comodoro-Py_0_1537046504.html'
p6
aS'https://www.clarin.com/sociedad/pasearon-desnudos-facultad-Arte-Misiones_0_1537046502.html'
p7
aS'https://www.clarin.com/sociedad/pasearon-desnudos-facultad-Arte-Misiones_0_1537046502.html'
p8
aS'https://www.clarin.com/politica/Gioja-bajar-recinto_0_1537046499.html'
p9
aS'https://www.clarin.com/politica/Gioja-bajar-recinto_0_1537046499.html'
p10
aS'https://www.clarin.com/sociedad/hermanas-Wachowski-director-Matrix-cambio_0_1537046494.html'
p11
aS'https://www.clarin.com/sociedad/hermanas-Wachowski-director-Matrix-cambio_0_1537046494.html'
p12
aS'https://www.clarin.com/politica/gobernador-PJ-insiste-acordar-buitres_0_1537046489.html'
p13
aS'https://www.clarin.com/politica/gobernador-PJ-insiste-acordar-buitres_0_1537046489.html'
p14
a.