(lp0
Vhttps://www.clarin.com/ieco/economia/AFIP-definio-retiro-voluntario-Ganancias_0_1634236721.html
p1
aVhttps://www.clarin.com/ieco/economia/AFIP-definio-retiro-voluntario-Ganancias_0_1634236721.html
p2
aVhttps://www.clarin.com/politica/Refutan-posiciones-Cristina-Kirchner-AMIA_0_1634236680.html
p3
aVhttps://www.clarin.com/politica/Refutan-posiciones-Cristina-Kirchner-AMIA_0_1634236680.html
p4
aVhttps://www.clarin.com/opinion/Preservar-rica-diversidad_0_1634236715.html
p5
aVhttps://www.clarin.com/opinion/Tarifas-Corte-obliga-replanteos-oficiales_0_1634236720.html
p6
aVhttps://www.clarin.com/opinion/Gobierno-cosecho-propia-siembra_0_1634836512.html
p7
aVhttps://www.clarin.com/opinion/Gobierno-cosecho-propia-siembra_0_1634836512.html
p8
aVhttps://www.clarin.com/opinion/Libertad-economica-politica-Firma01_0_1634836511.html
p9
aVhttps://www.clarin.com/sociedad/Marianella-nueva-vida-corazon-artificial_0_1634236753.html
p10
aVhttps://www.clarin.com/sociedad/Marianella-nueva-vida-corazon-artificial_0_1634236753.html
p11
aVhttps://www.clarin.com/politica/Cristina-campana-Quiero-digan-militante_0_1634236770.html
p12
aVhttps://www.clarin.com/politica/Cristina-campana-Quiero-digan-militante_0_1634236770.html
p13
a.