(lp0
Vhttps://www.clarin.com/sociedad/Hallan-Bolivia-restos-mujer-anos_0_1636036491.html
p1
aVhttps://www.clarin.com/sociedad/Hallan-Bolivia-restos-mujer-anos_0_1636036491.html
p2
aVhttps://www.clarin.com/politica/Stolbizer-denuncias-Cristina-Siento-expresando_0_1636036470.html
p3
aVhttps://www.clarin.com/politica/Stolbizer-denuncias-Cristina-Siento-expresando_0_1636036470.html
p4
a.