(lp0
Vhttps://www.clarin.com/sociedad/Personalidades-deportistas-unidos-inseguridad-injusticia_0_1666633326.html
p1
aVhttps://www.clarin.com/sociedad/Personalidades-deportistas-unidos-inseguridad-injusticia_0_1666633326.html
p2
aVhttps://www.clarin.com/sociedad/marcha-inseguridad-justicia-organizada-victimas_0_1666633325.html
p3
aVhttps://www.clarin.com/sociedad/marcha-inseguridad-justicia-organizada-victimas_0_1666633325.html
p4
aVhttps://www.clarin.com/politica/Plata-politica-cumbre-PRO-PJ_0_1666633324.html
p5
aVhttps://www.clarin.com/politica/boina-blanca-niega-nadie_0_1666633323.html
p6
aVhttps://www.clarin.com/politica/Maria-Eugenia-Vidal-bonaerense-entrega_0_1666033538.html
p7
aVhttps://www.clarin.com/politica/Maria-Eugenia-Vidal-bonaerense-entrega_0_1666033538.html
p8
a.