(lp0
Vhttps://www.clarin.com/politica/Insolita-Mossack-Fonseca-Panama-Papers_0_1555644630.html
p1
aVhttps://www.clarin.com/politica/Insolita-Mossack-Fonseca-Panama-Papers_0_1555644630.html
p2
aVhttps://www.clarin.com/sociedad/Marcos-Di-Palma-desesperada-busqueda_0_1555644617.html
p3
aVhttps://www.clarin.com/sociedad/Marcos-Di-Palma-desesperada-busqueda_0_1555644617.html
p4
aVhttps://www.clarin.com/politica/Izquierda-propio-conduce-excandidato-presidencial_0_1550245256.html
p5
aVhttps://www.clarin.com/politica/Izquierda-propio-conduce-excandidato-presidencial_0_1550245256.html
p6
aVhttps://www.clarin.com/politica/Stolbizer-declaracion-Farina-Cristina-complicada_0_1555644611.html
p7
aVhttps://www.clarin.com/politica/Stolbizer-declaracion-Farina-Cristina-complicada_0_1555644611.html
p8
a.