(lp0
Vhttps://www.clarin.com/politica/sorpresivo-Maximo-conciliador-minimizando-consignas_0_1541245980.html
p1
aVhttps://www.clarin.com/politica/sorpresivo-Maximo-conciliador-minimizando-consignas_0_1541245980.html
p2
aVhttps://www.clarin.com/politica/Votan-Diputados-ley-acordar-buitres_0_1541245951.html
p3
aVhttps://www.clarin.com/politica/Votan-Diputados-ley-acordar-buitres_0_1541245951.html
p4
aVhttps://www.clarin.com/politica/FpV-embarrar-fracaso-consulta-popular_0_1540646332.html
p5
aVhttps://www.clarin.com/politica/Garavano-llevo-Camara-reforma-judicial_0_1541245949.html
p6
aVhttps://www.clarin.com/politica/Rosatti-Rosenkrantz-cerca-llegar-Corte_0_1540646333.html
p7
aVhttps://www.clarin.com/politica/Diputados-continuara-sesion-pasadas_0_1541245944.html
p8
aVhttps://www.clarin.com/politica/Diputados-continuara-sesion-pasadas_0_1541245944.html
p9
aVhttps://www.clarin.com/ieco/economia/Central-mantuvo-tasa-lebacs_0_1540646411.html
p10
aVhttps://www.clarin.com/ieco/economia/Central-mantuvo-tasa-lebacs_0_1540646411.html
p11
a.