(lp0
Vhttps://www.clarin.com/politica/Binner-desmayo-Rural-atendido-SAME_0_1621037990.html
p1
aVhttps://www.clarin.com/politica/Binner-desmayo-Rural-atendido-SAME_0_1621037990.html
p2
aVhttps://www.clarin.com/politica/hotel-Cristobal-Lopez-vista-Glaciar_0_1620437986.html
p3
aVhttps://www.clarin.com/politica/hotel-Cristobal-Lopez-vista-Glaciar_0_1620437986.html
p4
aVhttps://www.clarin.com/sociedad/Devuelven-Dali-robada-museo-Holanda_0_1621037980.html
p5
aVhttps://www.clarin.com/sociedad/Devuelven-Dali-robada-museo-Holanda_0_1621037980.html
p6
a.