(lp0
S'https://www.clarin.com/politica/Abririan-nueva-causa-secretario-Kirchner_0_1552645180.html'
p1
aS'https://www.clarin.com/politica/Grindetti-delito-tener-empresa-fantasma_0_1552645183.html'
p2
aS'https://www.clarin.com/politica/designacion-jueces-Corte-trabo-Senado_0_1552645152.html'
p3
aS'https://www.clarin.com/opinion/Internet-precondicion-democracia_0_1552645133.html'
p4
aS'https://www.clarin.com/opinion/Macri-transparencia-debida_0_1553244681.html'
p5
aS'https://www.clarin.com/opinion/Politicas-publicas-felicidad-nacional_0_1552645127.html'
p6
aS'https://www.clarin.com/politica/Macri-director-empresa-fantasma-Panama_0_1552645198.html'
p7
aS'https://www.clarin.com/politica/Cristobal-Lopez-ganancias-vinculada-Baez_0_1552645173.html'
p8
aS'https://www.clarin.com/politica/Mal-momento-tropiezo_0_1553244683.html'
p9
aS'https://www.clarin.com/politica/Conflicto-Canal-despedidos_0_1552645159.html'
p10
aS'https://www.clarin.com/opinion/Obligatoriedad-escolar-calidad-educativa_0_1552645130.html'
p11
a.