(lp0
Vhttps://www.clarin.com/politica/fiscal-informes-fraude-viajes-Cristina_0_1534646757.html
p1
aVhttps://www.clarin.com/politica/fiscal-informes-fraude-viajes-Cristina_0_1534646757.html
p2
aVhttps://www.clarin.com/sociedad/Patch-Adams-argentina-lugares-tristes_0_1534046995.html
p3
aVhttps://www.clarin.com/sociedad/Patch-Adams-argentina-lugares-tristes_0_1534046995.html
p4
a.