(lp0
Vhttps://www.clarin.com/opinion/Gobierno-sigue-inoportuno_0_1629437044.html
p1
aVhttps://www.clarin.com/opinion/Malvinas-deshielo_0_1629437043.html
p2
aVhttps://www.clarin.com/politica/cumbre-bilaterales-atraer-inversiones_0_1628837275.html
p3
aVhttps://www.clarin.com/politica/Piden-informes-Gobierno-datos-ANSeS_0_1628837256.html
p4
aVhttps://www.clarin.com/politica/Asociaciones-consumidores-oponen_0_1628837292.html
p5
aVhttps://www.clarin.com/opinion/Venezuela-democracia-ruinas-echada-suerte_0_1628837264.html
p6
aVhttps://www.clarin.com/opinion/Venezuela-democracia-ruinas-echada-suerte_0_1628837264.html
p7
aVhttps://www.clarin.com/opinion/inteligencia-estatal-necesita-gente-idonea_0_1628837248.html
p8
aVhttps://www.clarin.com/opinion/Acceso-Informacion-Publica-saldar-deuda_0_1628837254.html
p9
aVhttps://www.clarin.com/politica/Corte-Gils-Carbo-fallaria-proxima_0_1628837311.html
p10
aVhttps://www.clarin.com/politica/Corte-Gils-Carbo-fallaria-proxima_0_1628837311.html
p11
aVhttps://www.clarin.com/sociedad/Crece-adiccion-juego-buscan-frenarla_0_1628837315.html
p12
aVhttps://www.clarin.com/sociedad/Crece-adiccion-juego-buscan-frenarla_0_1628837315.html
p13
aVhttps://www.clarin.com/sociedad/docentes-Provincia-respuestas-borde-paro_0_1628837287.html
p14
aVhttps://www.clarin.com/sociedad/docentes-Provincia-respuestas-borde-paro_0_1628837287.html
p15
aVhttps://www.clarin.com/politica/Tarifas-oposicion-presiona-oficialismo-Congreso_0_1628837310.html
p16
a.