(lp0
Vhttps://www.clarin.com/ieco/economia/China-devalua-yuan-niveles-Brexit_0_1603039809.html
p1
aVhttps://www.clarin.com/ieco/economia/China-devalua-yuan-niveles-Brexit_0_1603039809.html
p2
aVhttps://www.clarin.com/politica/Contrabandoprohiben-salir-pais-Negro-Tata_0_1603039821.html
p3
aVhttps://www.clarin.com/politica/Manana-jura-Rosatti-nuevo-Corte_0_1603039823.html
p4
aVhttps://www.clarin.com/politica/Manana-jura-Rosatti-nuevo-Corte_0_1603039823.html
p5
aVhttps://www.clarin.com/politica/justicia-levanto-secreto-familia-Kirchner_0_1603039807.html
p6
aVhttps://www.clarin.com/politica/justicia-levanto-secreto-familia-Kirchner_0_1603039807.html
p7
aVhttps://www.clarin.com/ieco/economia/Calificadora-Standard-Poors-Reino-Unido_0_1603039784.html
p8
aVhttps://www.clarin.com/ieco/economia/Calificadora-Standard-Poors-Reino-Unido_0_1603039784.html
p9
a.