(lp0
Vhttps://www.clarin.com/sociedad/Clarin-nominado-Digital-Media-Awards_0_1650435055.html
p1
aVhttps://www.clarin.com/sociedad/Clarin-nominado-Digital-Media-Awards_0_1650435055.html
p2
aVhttps://www.clarin.com/politica/Bonadio-quiere-cuanta-Kirchner-inmobiliaria_0_1649235122.html
p3
aVhttps://www.clarin.com/politica/Bonadio-quiere-cuanta-Kirchner-inmobiliaria_0_1649235122.html
p4
aVhttps://www.clarin.com/politica/hotel-Macri-refugio-Central-Park_0_1653434655.html
p5
aVhttps://www.clarin.com/politica/hotel-Macri-refugio-Central-Park_0_1653434655.html
p6
aVhttps://www.clarin.com/politica/Papa-Menem-hablaron-posible-Argentina_0_1653434652.html
p7
aVhttps://www.clarin.com/politica/Papa-Menem-hablaron-posible-Argentina_0_1653434652.html
p8
aVhttps://www.clarin.com/sociedad/Rastrean-meteoritos-pulmon-Chaco-admirados_0_1652834846.html
p9
aVhttps://www.clarin.com/sociedad/Rastrean-meteoritos-pulmon-Chaco-admirados_0_1652834846.html
p10
aVhttps://www.clarin.com/ieco/economia/Tarifas-Gobierno-facilita-gestion-social_0_1652834832.html
p11
aVhttps://www.clarin.com/ieco/economia/Tarifas-Gobierno-facilita-gestion-social_0_1652834832.html
p12
aVhttps://www.clarin.com/ieco/economia/debate-nadie-escucho_0_1652834851.html
p13
aVhttps://www.clarin.com/ieco/economia/debate-nadie-escucho_0_1652834851.html
p14
aVhttps://www.clarin.com/politica/Fondos-Santa-Cruz-Kirchner-propia_0_1653434646.html
p15
aVhttps://www.clarin.com/politica/Fondos-Santa-Cruz-Kirchner-propia_0_1653434646.html
p16
aVhttps://www.clarin.com/politica/discusion-Ganancias-crece-malestar-sindical_0_1652834810.html
p17
aVhttps://www.clarin.com/politica/discusion-Ganancias-crece-malestar-sindical_0_1652834810.html
p18
aVhttps://www.clarin.com/ieco/economia/limon-exportacion-competitiva-Argentina_0_1652834829.html
p19
aVhttps://www.clarin.com/ieco/economia/limon-exportacion-competitiva-Argentina_0_1652834829.html
p20
a.