(lp0
Vhttps://www.clarin.com/sociedad/solados-unen-Malvinas-nadando_0_1541846216.html
p1
aVhttps://www.clarin.com/sociedad/solados-unen-Malvinas-nadando_0_1541846216.html
p2
aVhttps://www.clarin.com/ieco/Supermercados-despedirian-personal-prohibicion-domingo_0_1541846213.html
p3
aVhttps://www.clarin.com/ieco/Supermercados-despedirian-personal-prohibicion-domingo_0_1541846213.html
p4
aVhttps://www.clarin.com/politica/EEUU-desclasificaria-documentos-militares-dictadura_0_1541846207.html
p5
aVhttps://www.clarin.com/politica/salir-default-recibio-apoyo-gobernadores_0_1541846196.html
p6
aVhttps://www.clarin.com/politica/salir-default-recibio-apoyo-gobernadores_0_1541846196.html
p7
aVhttps://www.clarin.com/politica/Vidal-acuerdo-holdouts-provincia-quebrada_0_1541846185.html
p8
aVhttps://www.clarin.com/politica/Vidal-acuerdo-holdouts-provincia-quebrada_0_1541846185.html
p9
a.