(lp0
Vhttps://www.clarin.com/politica/Despues-protestas-tarifazo-Gabinete-calle_0_1614438592.html
p1
aVhttps://www.clarin.com/politica/Despues-protestas-tarifazo-Gabinete-calle_0_1614438592.html
p2
aVhttps://www.clarin.com/politica/Ahora-Stiuso-apunto-Scioli_0_1614438581.html
p3
aVhttps://www.clarin.com/politica/Ahora-Stiuso-apunto-Scioli_0_1614438581.html
p4
a.