(lp0
Vhttps://www.clarin.com/sociedad/feriados-Gobierno-mantiene-puentes-polemica_0_1672632770.html
p1
aVhttps://www.clarin.com/sociedad/feriados-Gobierno-mantiene-puentes-polemica_0_1672632770.html
p2
aVhttps://www.clarin.com/politica/Gobierno-preocupacion-Justicia-corrupcion-impetu_0_1672632768.html
p3
aVhttps://www.clarin.com/politica/Gobierno-preocupacion-Justicia-corrupcion-impetu_0_1672632768.html
p4
aVhttps://www.clarin.com/sociedad/Denuncian-payaso-asesino-ataco-joven_0_1672632767.html
p5
aVhttps://www.clarin.com/sociedad/Denuncian-payaso-asesino-ataco-joven_0_1672632767.html
p6
aVhttps://www.clarin.com/politica/Gobierno-rechaza-aumentar-beneficiarios-AUH_0_1672632766.html
p7
aVhttps://www.clarin.com/politica/Gobierno-rechaza-aumentar-beneficiarios-AUH_0_1672632766.html
p8
aVhttps://www.clarin.com/sociedad/restauracion-polemica-Jesus-Maggie-Simpson_0_1672632761.html
p9
aVhttps://www.clarin.com/sociedad/restauracion-polemica-Jesus-Maggie-Simpson_0_1672632761.html
p10
aVhttps://www.clarin.com/politica/Massa-versus-Randazzo-subterranea-PJ_0_1672632758.html
p11
aVhttps://www.clarin.com/politica/Massa-versus-Randazzo-subterranea-PJ_0_1672632758.html
p12
aVhttps://www.clarin.com/politica/indagan-Milani-pediran-politico-Tucuman_0_1672632760.html
p13
aVhttps://www.clarin.com/politica/indagan-Milani-pediran-politico-Tucuman_0_1672632760.html
p14
aVhttps://www.clarin.com/sociedad/hombre-cartel-NiUnaMenos-denunciado-violento_0_1672632751.html
p15
aVhttps://www.clarin.com/sociedad/hombre-cartel-NiUnaMenos-denunciado-violento_0_1672632751.html
p16
a.