(lp0
S'https://www.clarin.com/ieco/economia/fuerte-bolsas-chinas-arrastra-mercados_0_1511249032.html'
p1
aS'https://www.clarin.com/ieco/economia/Designan-abogado-trabaja-FMI-UIF_0_1511249046.html'
p2
aS'https://www.clarin.com/politica/PJ-Eduardo_Fellner_0_1511249042.html'
p3
aS'https://www.clarin.com/sociedad/Reabrieron-Cristo-Redentor-camiones-esperando_0_1511249029.html'
p4
aS'https://www.clarin.com/politica/fiscal-investiga-Milagro-Sala-detenida_0_1511249044.html'
p5
a.