(lp0
S'https://www.clarin.com/sociedad/irregularidades-pasado-futuro-incierto_0_1511249327.html'
p1
aS'https://www.clarin.com/sociedad/deuda-PAMI-limitan-remedios-jubilados_0_1511249325.html'
p2
aS'https://www.clarin.com/politica/analisis-fondos-coparticipacion-macri_0_1511848802.html'
p3
aS'https://www.clarin.com/sociedad/camaras-fotos-accion-pulseada-smartphones_0_1511249309.html'
p4
aS'https://www.clarin.com/sociedad/camaras-fotos-accion-pulseada-smartphones_0_1511249309.html'
p5
aS'https://www.clarin.com/politica/malcorra-poder_0_1511249363.html'
p6
aS'https://www.clarin.com/politica/Cristina_Kirchner-Maximo_Kirchner-Hotesur-Lavado_de_dinero-El_Calafate-Margarita_Stolbizer-IGJ-Alto_Calafate_0_1511249362.html'
p7
aS'https://www.clarin.com/politica/Cristina_Kirchner-Maximo_Kirchner-Hotesur-Lavado_de_dinero-El_Calafate-Margarita_Stolbizer-IGJ-Alto_Calafate_0_1511249362.html'
p8
aS'https://www.clarin.com/ieco/economia/chevrolet-_nuevo_presidente_0_1511249359.html'
p9
aS'https://www.clarin.com/ieco/economia/chevrolet-_nuevo_presidente_0_1511249359.html'
p10
a.