(lp0
S'https://www.clarin.com/politica/caso_Nisman-querella-insiste-juez_federal_0_1525647441.html'
p1
aS'https://www.clarin.com/politica/Cambiemos-Mauricio_Macri-UCR_0_1525647447.html'
p2
aS'https://www.clarin.com/politica/Lazaro_Baez-pruebas-lavado_de_dinero-facturas_truchas_0_1525647440.html'
p3
aS'https://www.clarin.com/politica/Jujuy-Milagro_Sala-Tupac_Amaru-Auditoria_General_de_la_Nacion_0_1525647450.html'
p4
aS'https://www.clarin.com/sociedad/Mantener-equipar-hogar-cuesta_0_1525047934.html'
p5
aS'https://www.clarin.com/politica/impuestos-asignaciones_familiares-anses_0_1525647438.html'
p6
aS'https://www.clarin.com/politica/Mauricio_Macri-Daniel_Scioli-Sergio_Massa-campana_electoral_0_1525647453.html'
p7
aS'https://www.clarin.com/sociedad/Alquileres-inmobiliarias-duplicar-comision-polemica_0_1525047929.html'
p8
a.