(lp0
S'https://www.clarin.com/ieco/economia/Gobierno-publica-licitaron-obras-millones_0_1630037128.html'
p1
aS'https://www.clarin.com/politica/declaracion-completa-Jose-Lopez-Justicia_0_1630037134.html'
p2
aS'https://www.clarin.com/politica/gobierno-responde-dichos-Macri-dictadura_0_1630037136.html'
p3
aS'https://www.clarin.com/politica/Rio-Turbio-usina-funcionara-carbon_0_1630037119.html'
p4
aS'https://www.clarin.com/sociedad/Crimen-Chiara-novio-penalmente-responsable_0_1630037141.html'
p5
a.