(lp0
Vhttps://www.clarin.com/sociedad/astronauta-Estacion-Espacial-buscara-espacio_0_1542446000.html
p1
aVhttps://www.clarin.com/sociedad/astronauta-Estacion-Espacial-buscara-espacio_0_1542446000.html
p2
aVhttps://www.clarin.com/ieco/dolar-sube-centavos_0_1542445998.html
p3
aVhttps://www.clarin.com/politica/obispos-argentinos-Papa-siempre-interpretados_0_1542445994.html
p4
aVhttps://www.clarin.com/politica/obispos-argentinos-Papa-siempre-interpretados_0_1542445994.html
p5
aVhttps://www.clarin.com/ieco/economia/IRSA-coloco-US-millones-pagara_0_1542445993.html
p6
aVhttps://www.clarin.com/ieco/economia/IRSA-coloco-US-millones-pagara_0_1542445993.html
p7
aVhttps://www.clarin.com/ieco/economia/Gobierno-auxilios-financieros-Mendoza-Neuquen_0_1542445980.html
p8
aVhttps://www.clarin.com/ieco/economia/Gobierno-auxilios-financieros-Mendoza-Neuquen_0_1542445980.html
p9
a.