(lp0
Vhttps://www.clarin.com/sociedad/Sobrevivio-brutal-ataque-osa-cuenta_0_1661833875.html
p1
aVhttps://www.clarin.com/sociedad/Sobrevivio-brutal-ataque-osa-cuenta_0_1661833875.html
p2
aVhttps://www.clarin.com/politica/Macri-Colombia-Esperemos-sigan-negociaciones_0_1661833872.html
p3
aVhttps://www.clarin.com/politica/Macri-Colombia-Esperemos-sigan-negociaciones_0_1661833872.html
p4
aVhttps://www.clarin.com/sociedad/Quiso-pareja-cuchillo-hermana-linchan_0_1661833870.html
p5
aVhttps://www.clarin.com/politica/Macri-Temer-Potenciar-Mercosur-comercial_0_1661833869.html
p6
aVhttps://www.clarin.com/politica/Macri-Temer-Potenciar-Mercosur-comercial_0_1661833869.html
p7
aVhttps://www.clarin.com/ieco/Cae-US-millones-liquidacion-divisas_0_1661833867.html
p8
aVhttps://www.clarin.com/ieco/Cae-US-millones-liquidacion-divisas_0_1661833867.html
p9
a.