(lp0
S'https://www.clarin.com/sociedad/hijas-Rolling-Stones-modelos-Argentina_0_1648035201.html'
p1
aS'https://www.clarin.com/politica/Gobierno-insiste-inflacion-problema-superado_0_1648035221.html'
p2
aS'https://www.clarin.com/sociedad/Iglesia-alerta-pobreza-creciente-solidaridad_0_1648035220.html'
p3
aS'https://www.clarin.com/sociedad/proyecto-solidario-skaters-argentinas-Africa_0_1643235868.html'
p4
a.