(lp0
Vhttps://www.clarin.com/politica/Mauricio_Macri-Mendoza_0_1512448910.html
p1
aVhttps://www.clarin.com/politica/Mauricio_Macri-Mendoza_0_1512448910.html
p2
aVhttps://www.clarin.com/ieco/economia/Caen-bolsas-decision-FED-mantener_0_1512448907.html
p3
aVhttps://www.clarin.com/ieco/economia/Caen-bolsas-decision-FED-mantener_0_1512448907.html
p4
aVhttps://www.clarin.com/sociedad/Acuerdan-reduccion-precio-repelente_0_1512448901.html
p5
aVhttps://www.clarin.com/sociedad/Acuerdan-reduccion-precio-repelente_0_1512448901.html
p6
aVhttps://www.clarin.com/ieco/economia/Gobierno-empresarios-fuertes-coincidencias_0_1512448892.html
p7
a.