(lp0
Vhttps://www.clarin.com/politica/Amenazas-Macri-Twitter-allanaron-encontraron_0_1624037722.html
p1
aVhttps://www.clarin.com/politica/Amenazas-Macri-Twitter-allanaron-encontraron_0_1624037722.html
p2
aVhttps://www.clarin.com/politica/Farina-contesta-Cristina-corrupcion-sobreprecios_0_1624037725.html
p3
aVhttps://www.clarin.com/politica/Farina-contesta-Cristina-corrupcion-sobreprecios_0_1624037725.html
p4
aVhttps://www.clarin.com/ieco/economia/mes-podra-pagar-celular_0_1624037720.html
p5
aVhttps://www.clarin.com/ieco/economia/mes-podra-pagar-celular_0_1624037720.html
p6
aVhttps://www.clarin.com/sociedad/Buscan-actual-pareja-acusado-menores_0_1624037710.html
p7
aVhttps://www.clarin.com/sociedad/Buscan-actual-pareja-acusado-menores_0_1624037710.html
p8
aVhttps://www.clarin.com/sociedad/Esperaban-restos-entregaron-cajon-vacio_0_1624037717.html
p9
aVhttps://www.clarin.com/sociedad/Esperaban-restos-entregaron-cajon-vacio_0_1624037717.html
p10
aVhttps://www.clarin.com/politica/costumbres-Qatar-esposas-habitaciones-Llao_0_1624037716.html
p11
aVhttps://www.clarin.com/politica/costumbres-Qatar-esposas-habitaciones-Llao_0_1624037716.html
p12
aVhttps://www.clarin.com/politica/Lifschitz-faltara-reunion-gobernadores-manana_0_1624037715.html
p13
aVhttps://www.clarin.com/politica/Lifschitz-faltara-reunion-gobernadores-manana_0_1624037715.html
p14
aVhttps://www.clarin.com/ieco/economia/recaudacion-julio-record-debajo-inflacion_0_1624037711.html
p15
a.