(lp0
S'https://www.clarin.com/sociedad/Limitan-fabrica-velocidad-colectivos-camiones_0_1584441750.html'
p1
aS'https://www.clarin.com/politica/manuscrita-Lazaro-Baez-audiencia-Camara_0_1584441737.html'
p2
aS'https://www.clarin.com/politica/manuscrita-Lazaro-Baez-audiencia-Camara_0_1584441737.html'
p3
aS'https://www.clarin.com/sociedad/Afirman-bajara-gasto-combustible_0_1584441749.html'
p4
aS'https://www.clarin.com/ieco/firma-japonesa-invertira-Roca_0_1584441743.html'
p5
aS'https://www.clarin.com/ieco/firma-japonesa-invertira-Roca_0_1584441743.html'
p6
aS'https://www.clarin.com/politica/Argentina-debatir-situacion-derechos-Venezuela_0_1584441732.html'
p7
aS'https://www.clarin.com/politica/Argentina-debatir-situacion-derechos-Venezuela_0_1584441732.html'
p8
aS'https://www.clarin.com/politica/Mendoza-Justicia-puso-limites-suba_0_1584441739.html'
p9
aS'https://www.clarin.com/politica/Mendoza-Justicia-puso-limites-suba_0_1584441739.html'
p10
aS'https://www.clarin.com/sociedad/medida-adecuada_0_1584441738.html'
p11
aS'https://www.clarin.com/politica/Condenas-Plan-Condor-dictador-Bignone_0_1584441735.html'
p12
aS'https://www.clarin.com/politica/Condenas-Plan-Condor-dictador-Bignone_0_1584441735.html'
p13
a.