(lp0
Vhttps://www.clarin.com/ieco/campus-ieco/jovenes-suenan-empresas_0_1570043116.html
p1
aVhttps://www.clarin.com/ieco/campus-ieco/jovenes-suenan-empresas_0_1570043116.html
p2
aVhttps://www.clarin.com/sociedad/titular-PAMI-defendio-plan-medicamentos_0_1570043110.html
p3
aVhttps://www.clarin.com/sociedad/titular-PAMI-defendio-plan-medicamentos_0_1570043110.html
p4
a.