(lp0
S'https://www.clarin.com/politica/italiano-Francisco-felicito-Casanello-adelante_0_1591640882.html'
p1
aS'https://www.clarin.com/politica/italiano-Francisco-felicito-Casanello-adelante_0_1591640882.html'
p2
aS'https://www.clarin.com/sociedad/come-restaurante-chef-Presidente_0_1590441033.html'
p3
aS'https://www.clarin.com/sociedad/come-restaurante-chef-Presidente_0_1590441033.html'
p4
aS'https://www.clarin.com/politica/Corte-Suprema-concedio-salarial-judiciales_0_1591640880.html'
p5
aS'https://www.clarin.com/politica/Corte-Suprema-concedio-salarial-judiciales_0_1591640880.html'
p6
aS'https://www.clarin.com/ieco/economia/Google-supero-Apple-valiosa-mundo_0_1591640877.html'
p7
aS'https://www.clarin.com/ieco/economia/Google-supero-Apple-valiosa-mundo_0_1591640877.html'
p8
aS'https://www.clarin.com/ieco/economia/soja-toca-US-Chicago_0_1591640873.html'
p9
aS'https://www.clarin.com/politica/sorpresa-Lazaro-Baez-Dia-Padre_0_1591640862.html'
p10
aS'https://www.clarin.com/politica/sorpresa-Lazaro-Baez-Dia-Padre_0_1591640862.html'
p11
aS'https://www.clarin.com/sociedad/cuestan-principales-servicios-streaming-musica_0_1591640872.html'
p12
aS'https://www.clarin.com/sociedad/cuestan-principales-servicios-streaming-musica_0_1591640872.html'
p13
aS'https://www.clarin.com/sociedad/Video-ayuda-policia-inundados-Paris_0_1591640871.html'
p14
aS'https://www.clarin.com/sociedad/Video-ayuda-policia-inundados-Paris_0_1591640871.html'
p15
aS'https://www.clarin.com/politica/Macri-quiere-reglamentar-transicion-Gobierno_0_1591640870.html'
p16
aS'https://www.clarin.com/politica/Macri-quiere-reglamentar-transicion-Gobierno_0_1591640870.html'
p17
aS'https://www.clarin.com/politica/PRO-Moron-prometer-bandera-alumnos_0_1591640869.html'
p18
aS'https://www.clarin.com/politica/PRO-Moron-prometer-bandera-alumnos_0_1591640869.html'
p19
a.