(lp0
Vhttps://www.clarin.com/politica/Hotel-Shopping-Lazaro-Baez-Calafate_0_1588041262.html
p1
aVhttps://www.clarin.com/politica/Hotel-Shopping-Lazaro-Baez-Calafate_0_1588041262.html
p2
aVhttps://www.clarin.com/ieco/economia/inmuebles-crecio-acumulo-meses-subas_0_1588041261.html
p3
aVhttps://www.clarin.com/ieco/economia/inmuebles-crecio-acumulo-meses-subas_0_1588041261.html
p4
aVhttps://www.clarin.com/sociedad/Oyarbide-excentricidades-despacho-Puerto-Madero_0_1588041260.html
p5
aVhttps://www.clarin.com/sociedad/Oyarbide-excentricidades-despacho-Puerto-Madero_0_1588041260.html
p6
aVhttps://www.clarin.com/sociedad/Investigan-empleados-Parques-Nacionales-huemul_0_1588041258.html
p7
aVhttps://www.clarin.com/sociedad/Investigan-empleados-Parques-Nacionales-huemul_0_1588041258.html
p8
aVhttps://www.clarin.com/politica/Acusan-Tribunal-Cuentas-nombramiento-familiares_0_1588041259.html
p9
aVhttps://www.clarin.com/politica/Acusan-Tribunal-Cuentas-nombramiento-familiares_0_1588041259.html
p10
aVhttps://www.clarin.com/sociedad/Video-profesora-humillo-alumna-clase_0_1588041257.html
p11
aVhttps://www.clarin.com/sociedad/Video-profesora-humillo-alumna-clase_0_1588041257.html
p12
aVhttps://www.clarin.com/politica/Echegaray-apela-AGN-decida-Camara_0_1588041256.html
p13
aVhttps://www.clarin.com/politica/Echegaray-apela-AGN-decida-Camara_0_1588041256.html
p14
a.