(lp0
Vhttps://www.clarin.com/politica/consiste-arritmia-afecto-Presidente-Macri_0_1589241062.html
p1
aVhttps://www.clarin.com/politica/trabajando-vamos-poder-jubilar-alguna_0_1588641314.html
p2
aVhttps://www.clarin.com/opinion/Caras-traste-clasico-criollo_0_1588641277.html
p3
aVhttps://www.clarin.com/politica/Macri-clinica-hacerse-estudio-cardiaco_0_1588641318.html
p4
aVhttps://www.clarin.com/politica/Macri-clinica-hacerse-estudio-cardiaco_0_1588641318.html
p5
aVhttps://www.clarin.com/politica/Justicia-suspendio-Echegaray-Auditoria-procesamiento_0_1588641337.html
p6
aVhttps://www.clarin.com/politica/Justicia-suspendio-Echegaray-Auditoria-procesamiento_0_1588641337.html
p7
aVhttps://www.clarin.com/politica/comunicado-oficial-salud-Presidente_0_1588641334.html
p8
aVhttps://www.clarin.com/politica/comunicado-oficial-salud-Presidente_0_1588641334.html
p9
a.