(lp0
S'https://www.clarin.com/politica/kirchnerismo-Bonadio-Continua-brujas-Cristina_0_1605439489.html'
p1
aS'https://www.clarin.com/politica/Lograron-ingresar-telefonos-Lopez-SMS_0_1605439497.html'
p2
aS'https://www.clarin.com/ieco/YPF-colocacion-deuda-US-millones_0_1605439482.html'
p3
aS'https://www.clarin.com/politica/Segundo-Macri-Olivos-Leonas-Anibal_0_1605439496.html'
p4
aS'https://www.clarin.com/ieco/economia/Dejan-cambios-escalas-impuestos-autos_0_1605439492.html'
p5
aS'https://www.clarin.com/politica/refugia-Cristina-propiedad-allano-Bonadio_0_1605439486.html'
p6
aS'https://www.clarin.com/politica/Anibal-periodistas-TV-Publica-patroncito_0_1605439485.html'
p7
aS'https://www.clarin.com/sociedad/britanica-madre-abuela-ovulos-congelados-muerta_0_1605439480.html'
p8
aS'https://www.clarin.com/ieco/economia/empleo-privado-blanco-cayo-abril_0_1605439488.html'
p9
a.