(lp0
Vhttps://www.clarin.com/opinion/Iran-acuerdo_nuclear-AMIA-terrorismo_0_1516648353.html
p1
aVhttps://www.clarin.com/opinion/Dengue-Zika-politicas_sanitarias-cobertura_de_salud-mortalidad_infantil-cobertura_universal_0_1516648352.html
p2
aVhttps://www.clarin.com/opinion/Dengue-Zika-politicas_sanitarias-cobertura_de_salud-mortalidad_infantil-cobertura_universal_0_1516648352.html
p3
aVhttps://www.clarin.com/opinion/Venezuela-Mercosur-Argentina-integracion_regional-sanciones_0_1516648351.html
p4
aVhttps://www.clarin.com/ieco/Deuda-Fondos_Buitre-Griesa-Caputo-Oferta_0_1516648345.html
p5
aVhttps://www.clarin.com/politica/Paritarias_2016-Mauricio_Macri-Gremios-Marcos_Pena_0_1516648344.html
p6
aVhttps://www.clarin.com/ieco/ATE-Paro_Nacional-Despidos_0_1516648343.html
p7
aVhttps://www.clarin.com/politica/Paritarias-Docentes-Eugenia_Vidal-Baradel_0_1516648342.html
p8
aVhttps://www.clarin.com/sociedad/Intimidad-Stone-quieren-bebidas-pastel_0_1516048796.html
p9
aVhttps://www.clarin.com/sociedad/Intimidad-Stone-quieren-bebidas-pastel_0_1516048796.html
p10
a.