(lp0
Vhttps://www.clarin.com/sociedad/Murio-diputado-pampeano-inhalacion-monoxido_0_1653434719.html
p1
aVhttps://www.clarin.com/sociedad/Murio-diputado-pampeano-inhalacion-monoxido_0_1653434719.html
p2
aVhttps://www.clarin.com/sociedad/necesitan-horas-libros_0_1651635041.html
p3
aVhttps://www.clarin.com/sociedad/peluche-consuelo-koala-huerfano_0_1653434714.html
p4
aVhttps://www.clarin.com/sociedad/peluche-consuelo-koala-huerfano_0_1653434714.html
p5
aVhttps://www.clarin.com/ieco/Alejandro-Bulgheroni-Nueva-York-Bridas_0_1653434711.html
p6
aVhttps://www.clarin.com/ieco/Alejandro-Bulgheroni-Nueva-York-Bridas_0_1653434711.html
p7
aVhttps://www.clarin.com/sociedad/Tragedia-Chile-andinista-argentino-desaparecido_0_1653434708.html
p8
aVhttps://www.clarin.com/sociedad/Tragedia-Chile-andinista-argentino-desaparecido_0_1653434708.html
p9
a.