(lp0
Vhttps://www.clarin.com/politica/Gobierno-advierte-toleraran-escraches-funcionarios_0_1536446540.html
p1
aVhttps://www.clarin.com/politica/Gobierno-advierte-toleraran-escraches-funcionarios_0_1536446540.html
p2
aVhttps://www.clarin.com/ieco/campus-ieco/mejores-MBA-online-Financial-Times_0_1536446526.html
p3
aVhttps://www.clarin.com/ieco/campus-ieco/mejores-MBA-online-Financial-Times_0_1536446526.html
p4
aVhttps://www.clarin.com/sociedad/Vaticano-proceso-beatificacion-cardenal-Pironio_0_1536446528.html
p5
aVhttps://www.clarin.com/sociedad/Vaticano-proceso-beatificacion-cardenal-Pironio_0_1536446528.html
p6
aVhttps://www.clarin.com/politica/Efectivizan-aumento-judiciales_0_1536446506.html
p7
aVhttps://www.clarin.com/politica/Efectivizan-aumento-judiciales_0_1536446506.html
p8
aVhttps://www.clarin.com/ieco/economia/Elsztain-sigue-expandiendose-sector-minero_0_1536446521.html
p9
aVhttps://www.clarin.com/ieco/economia/Elsztain-sigue-expandiendose-sector-minero_0_1536446521.html
p10
a.