(lp0
Vhttps://www.clarin.com/sociedad/Suba-tarifas-ahorrar-consumo-energia_0_1514848744.html
p1
aVhttps://www.clarin.com/sociedad/Suba-tarifas-ahorrar-consumo-energia_0_1514848744.html
p2
aVhttps://www.clarin.com/sociedad/Piden-peliculas-puedan-verlas-adultos_0_1514848746.html
p3
aVhttps://www.clarin.com/sociedad/Piden-peliculas-puedan-verlas-adultos_0_1514848746.html
p4
aVhttps://www.clarin.com/sociedad/conocieron-Instagram-casaron-primera-cita_0_1514848717.html
p5
aVhttps://www.clarin.com/sociedad/conocieron-Instagram-casaron-primera-cita_0_1514848717.html
p6
aVhttps://www.clarin.com/ieco/economia/Mandan-Rato-juicio-supuesto-fraude_0_1514848730.html
p7
aVhttps://www.clarin.com/sociedad/superficie-Luna-vio_0_1514848726.html
p8
aVhttps://www.clarin.com/sociedad/superficie-Luna-vio_0_1514848726.html
p9
a.