(lp0
S'https://www.clarin.com/ieco/Murio-Carlos-Bulgheroni-empresarios-Argentina_0_1643835681.html'
p1
aS'https://www.clarin.com/politica/Morsa-Anibal-controlar-percusores-quimicos_0_1643835665.html'
p2
aS'https://www.clarin.com/sociedad/Vuelven-convocar-barrio-medico-ladron_0_1643835678.html'
p3
aS'https://www.clarin.com/politica/Gobierno-Corte-cautelar-problemas-procesales_0_1643835666.html'
p4
a.