(lp0
Vhttps://www.clarin.com/politica/Casacion-ordenar-investigue-denuncia-Nisman_0_1688831230.html
p1
aVhttps://www.clarin.com/politica/Casacion-ordenar-investigue-denuncia-Nisman_0_1688831230.html
p2
aVhttps://www.clarin.com/politica/Galeano-denuncio-Cristina-causa-AMIA_0_1688831232.html
p3
aVhttps://www.clarin.com/politica/Galeano-denuncio-Cristina-causa-AMIA_0_1688831232.html
p4
aVhttps://www.clarin.com/sociedad/cajas-navidenas-baratas_0_1688831252.html
p5
aVhttps://www.clarin.com/sociedad/cajas-navidenas-baratas_0_1688831252.html
p6
aVhttps://www.clarin.com/sociedad/canasta-navidena-Gobierno-negocia-rebajas_0_1688831248.html
p7
aVhttps://www.clarin.com/sociedad/canasta-navidena-Gobierno-negocia-rebajas_0_1688831248.html
p8
aVhttps://www.clarin.com/sociedad/Solo-ciudad-victima-abuso-sexual_0_1688831244.html
p9
a.