(lp0
Vhttps://www.clarin.com/ieco/Frigerio-contradijo-Sturzenegger-inflacion-Argentina_0_1651034971.html
p1
aVhttps://www.clarin.com/ieco/Frigerio-contradijo-Sturzenegger-inflacion-Argentina_0_1651034971.html
p2
aVhttps://www.clarin.com/sociedad/mujeres-hombres-terminan-secundaria_0_1651034968.html
p3
aVhttps://www.clarin.com/sociedad/mujeres-hombres-terminan-secundaria_0_1651034968.html
p4
aVhttps://www.clarin.com/ieco/economia/Ciencia-tecnologia-ingenieria-matematicas-Google_0_1651034965.html
p5
aVhttps://www.clarin.com/ieco/economia/Ciencia-tecnologia-ingenieria-matematicas-Google_0_1651034965.html
p6
aVhttps://www.clarin.com/ieco/Empleados-publicos-Gobierno-aumento-salarial_0_1651034963.html
p7
aVhttps://www.clarin.com/ieco/Empleados-publicos-Gobierno-aumento-salarial_0_1651034963.html
p8
a.