(lp0
Vhttps://www.clarin.com/politica/abogado-Perez-Corradi-sugiere-entregue_0_1502850119.html
p1
aVhttps://www.clarin.com/politica/abogado-Perez-Corradi-sugiere-entregue_0_1502850119.html
p2
aVhttps://www.clarin.com/politica/brasil-canciller-visita_0_1502850115.html
p3
a.