(lp0
Vhttps://www.clarin.com/sociedad/ladron-volvio-cruzar-Scioli-tirado_0_1679832201.html
p1
aVhttps://www.clarin.com/sociedad/ladron-volvio-cruzar-Scioli-tirado_0_1679832201.html
p2
aVhttps://www.clarin.com/politica/Polemica-pago-sueldo-diputados-Mercosur_0_1679832200.html
p3
aVhttps://www.clarin.com/politica/Polemica-pago-sueldo-diputados-Mercosur_0_1679832200.html
p4
aVhttps://www.clarin.com/politica/asambleistas-Gualeguaychu-dicen-violan-normas_0_1679832198.html
p5
aVhttps://www.clarin.com/politica/Diputados-Presupuesto-acuerdo-plata-provincias_0_1679832197.html
p6
aVhttps://www.clarin.com/politica/Diputados-Presupuesto-acuerdo-plata-provincias_0_1679832197.html
p7
aVhttps://www.clarin.com/politica/Facturas-gas-llegan-valores_0_1679832180.html
p8
aVhttps://www.clarin.com/politica/Facturas-gas-llegan-valores_0_1679832180.html
p9
aVhttps://www.clarin.com/sociedad/mujeres-aceptan-cuerpo-luchar-cancer_0_1679832190.html
p10
aVhttps://www.clarin.com/sociedad/mujeres-aceptan-cuerpo-luchar-cancer_0_1679832190.html
p11
aVhttps://www.clarin.com/politica/estatal-Arsat-busca-inversiones-EEUU_0_1679832189.html
p12
aVhttps://www.clarin.com/politica/estatal-Arsat-busca-inversiones-EEUU_0_1679832189.html
p13
aVhttps://www.clarin.com/politica/Vidal-licita-maquinas-tragamonedas_0_1679832126.html
p14
aVhttps://www.clarin.com/politica/Vidal-licita-maquinas-tragamonedas_0_1679832126.html
p15
aVhttps://www.clarin.com/sociedad/Amenazan-principal-testigo-juicio-personas_0_1679832156.html
p16
aVhttps://www.clarin.com/sociedad/Amenazan-principal-testigo-juicio-personas_0_1679832156.html
p17
a.