(lp0
Vhttps://www.clarin.com/politica/Renuncio-concejal-macrista-sospechado-coimas_0_1541846032.html
p1
aVhttps://www.clarin.com/politica/Renuncio-concejal-macrista-sospechado-coimas_0_1541846032.html
p2
aVhttps://www.clarin.com/politica/junta-distintas-bovedas-Santa-Cruz_0_1541846030.html
p3
aVhttps://www.clarin.com/politica/junta-distintas-bovedas-Santa-Cruz_0_1541846030.html
p4
aVhttps://www.clarin.com/ieco/Google-Apple-usara-servidores_0_1541846029.html
p5
aVhttps://www.clarin.com/ieco/Google-Apple-usara-servidores_0_1541846029.html
p6
aVhttps://www.clarin.com/politica/Marcos-Pena-reconocio-Brasil-corresponde_0_1541846026.html
p7
aVhttps://www.clarin.com/politica/Marcos-Pena-reconocio-Brasil-corresponde_0_1541846026.html
p8
aVhttps://www.clarin.com/sociedad/Cuantas-chicas-sofisticado-desafio-visual_0_1541846011.html
p9
aVhttps://www.clarin.com/sociedad/Cuantas-chicas-sofisticado-desafio-visual_0_1541846011.html
p10
aVhttps://www.clarin.com/politica/Iliana-Calabro-tener-vinculos-Rosadita_0_1541846009.html
p11
aVhttps://www.clarin.com/politica/Iliana-Calabro-tener-vinculos-Rosadita_0_1541846009.html
p12
a.