(lp0
S'https://www.clarin.com/politica/Margarita-Barrientos-lidera-encuesta-honestidad_0_1599440244.html'
p1
aS'https://www.clarin.com/politica/Margarita-Barrientos-lidera-encuesta-honestidad_0_1599440244.html'
p2
aS'https://www.clarin.com/politica/marana-abogados-podria-enredar-clientes_0_1599440252.html'
p3
aS'https://www.clarin.com/politica/marana-abogados-podria-enredar-clientes_0_1599440252.html'
p4
aS'https://www.clarin.com/politica/Piden-Jose-Lopez-Tupac-Amaru_0_1599440250.html'
p5
aS'https://www.clarin.com/politica/Piden-Jose-Lopez-Tupac-Amaru_0_1599440250.html'
p6
aS'https://www.clarin.com/sociedad/celular-convertirse-posnet-recibir-tarjeta_0_1599440249.html'
p7
aS'https://www.clarin.com/sociedad/celular-convertirse-posnet-recibir-tarjeta_0_1599440249.html'
p8
aS'https://www.clarin.com/politica/Diputados-apuran-ley-arrepentido-corrupcion_0_1599440247.html'
p9
aS'https://www.clarin.com/politica/Diputados-apuran-ley-arrepentido-corrupcion_0_1599440247.html'
p10
aS'https://www.clarin.com/sociedad/dieron-muerta-meterla-mujer-respiro_0_1599440242.html'
p11
aS'https://www.clarin.com/sociedad/Maternidad-anulada-anotan-hijo-papas_0_1599440241.html'
p12
aS'https://www.clarin.com/sociedad/dieron-muerta-meterla-mujer-respiro_0_1599440237.html'
p13
aS'https://www.clarin.com/sociedad/fotos-Instagram-alcanzo-millones-usuarios_0_1599440235.html'
p14
aS'https://www.clarin.com/sociedad/fotos-Instagram-alcanzo-millones-usuarios_0_1599440235.html'
p15
aS'https://www.clarin.com/politica/Martin-Lanatta-carcel-Anibal-asesino_0_1599440233.html'
p16
aS'https://www.clarin.com/politica/Martin-Lanatta-carcel-Anibal-asesino_0_1599440233.html'
p17
aS'https://www.clarin.com/sociedad/alquiler-vientres-practica-atrapada-legal_0_1599440207.html'
p18
a.