(lp0
S'https://www.clarin.com/sociedad/Mendoza-vuelos-falta-autobomba_0_1537046413.html'
p1
aS'https://www.clarin.com/sociedad/Mendoza-vuelos-falta-autobomba_0_1537046413.html'
p2
aS'https://www.clarin.com/politica/Hugo_Moyano-CGT-inflacion-febrero-Jorge_Sola_0_1537046404.html'
p3
aS'https://www.clarin.com/politica/Hugo_Moyano-CGT-inflacion-febrero-Jorge_Sola_0_1537046404.html'
p4
aS'https://www.clarin.com/politica/Kicillof-show-macrismo_0_1537046400.html'
p5
aS'https://www.clarin.com/politica/Kicillof-show-macrismo_0_1537046400.html'
p6
aS'https://www.clarin.com/politica/ayuda_escolar-Emilio_Basavilbaso-Mauricio_Macri-Anses_0_1537046402.html'
p7
aS'https://www.clarin.com/politica/ayuda_escolar-Emilio_Basavilbaso-Mauricio_Macri-Anses_0_1537046402.html'
p8
aS'https://www.clarin.com/ieco/economia/Central-convalido-lebacs-interes-quedo_0_1536446807.html'
p9
a.