(lp0
Vhttps://www.clarin.com/politica/Papa-llamo-reconciliacion-Macri-rapido_0_1582041962.html
p1
aVhttps://www.clarin.com/politica/Papa-llamo-reconciliacion-Macri-rapido_0_1582041962.html
p2
aVhttps://www.clarin.com/sociedad/Polemica-supuesto-Planeta-Sistema-Solar_0_1582041949.html
p3
aVhttps://www.clarin.com/sociedad/Polemica-supuesto-Planeta-Sistema-Solar_0_1582041949.html
p4
aVhttps://www.clarin.com/opinion/todas-caras-corrupcion_0_1582041917.html
p5
aVhttps://www.clarin.com/opinion/todas-caras-corrupcion_0_1582041917.html
p6
aVhttps://www.clarin.com/opinion/siglo-intervenciones-Medio-Oriente_0_1582041891.html
p7
aVhttps://www.clarin.com/opinion/barbarie-etapa-curar-heridas_0_1582041887.html
p8
aVhttps://www.clarin.com/politica/comenzo-pelea-herencia-bienes-Baez_0_1582041904.html
p9
aVhttps://www.clarin.com/politica/comenzo-pelea-herencia-bienes-Baez_0_1582041904.html
p10
aVhttps://www.clarin.com/opinion/estadios-fabrica-suenos_0_1582041966.html
p11
a.