(lp0
Vhttps://www.clarin.com/politica/presidente-uruguayo-aconseja-escuchar-kelpers_0_1529847332.html
p1
aVhttps://www.clarin.com/politica/presidente-uruguayo-aconseja-escuchar-kelpers_0_1529847332.html
p2
aVhttps://www.clarin.com/ieco/economia/dolar-sube-centavo_0_1529847259.html
p3
a.