(lp0
S'https://www.clarin.com/ieco/economia/guru-crisis-financieras_0_1664233712.html'
p1
aS'https://www.clarin.com/opinion/hago-gobernadora_0_1665433452.html'
p2
aS'https://www.clarin.com/ieco/economia/Percepcion-crisis-Unidos_0_1664233719.html'
p3
aS'https://www.clarin.com/ieco/coloquioidea/Stegmann-Kaufman-inconcebible-movilidad-social_0_1664233723.html'
p4
aS'https://www.clarin.com/ieco/economia/romper-techo-cristal-mujer_0_1665433463.html'
p5
aS'https://www.clarin.com/sociedad/muestra-obras-Miro-museo-Ballester_0_1665433464.html'
p6
a.