(lp0
Vhttps://www.clarin.com/politica/Votan-fin-reelecciones-indefinidas-intendentes_0_1633636761.html
p1
aVhttps://www.clarin.com/sociedad/docentes-bonaerenses-haran-nuevo-horas_0_1633636757.html
p2
aVhttps://www.clarin.com/sociedad/docentes-bonaerenses-haran-nuevo-horas_0_1633636757.html
p3
aVhttps://www.clarin.com/sociedad/coche-funebre-subir-ataud-colectivo_0_1633636744.html
p4
aVhttps://www.clarin.com/sociedad/coche-funebre-subir-ataud-colectivo_0_1633636744.html
p5
aVhttps://www.clarin.com/ieco/economia/hogares-ninos-consumen_0_1633636752.html
p6
aVhttps://www.clarin.com/ieco/economia/mayor-demanda-impulso-dolar_0_1633636747.html
p7
aVhttps://www.clarin.com/ieco/economia/mayor-demanda-impulso-dolar_0_1633636747.html
p8
aVhttps://www.clarin.com/sociedad/Piden-carcel-acusados-crimen-Montanita_0_1633636753.html
p9
aVhttps://www.clarin.com/sociedad/Piden-carcel-acusados-crimen-Montanita_0_1633636753.html
p10
aVhttps://www.clarin.com/politica/senador-EEUU-dolares-declarar-procesado_0_1633636751.html
p11
aVhttps://www.clarin.com/politica/senador-EEUU-dolares-declarar-procesado_0_1633636751.html
p12
aVhttps://www.clarin.com/politica/dictamen-completo-Gils-Carbo_0_1633636748.html
p13
aVhttps://www.clarin.com/politica/dictamen-completo-Gils-Carbo_0_1633636748.html
p14
aVhttps://www.clarin.com/politica/Nuevo-Corte-construyan-Santa-Cruz_0_1633636729.html
p15
aVhttps://www.clarin.com/politica/Nuevo-Corte-construyan-Santa-Cruz_0_1633636729.html
p16
a.