(lp0
S'https://www.clarin.com/politica/Denuncian-Cristina-Lazaro-Cristobal-Lopez_0_1573042841.html'
p1
aS'https://www.clarin.com/politica/Senado-FpV-aceptara-cambios-proyecto_0_1573042839.html'
p2
aS'https://www.clarin.com/politica/Match-point-Amado-chau-Copa_0_1573042821.html'
p3
aS'https://www.clarin.com/sociedad/Condenan-Barcelona-indemnizar-Cecilia-Pando_0_1573042840.html'
p4
aS'https://www.clarin.com/opinion/teclado-virtual-vidas_0_1573042830.html'
p5
a.