(lp0
Vhttps://www.clarin.com/politica/Miranda-Papa-detalle-quedaban-publicos_0_1524447874.html
p1
aVhttps://www.clarin.com/politica/Miranda-Papa-detalle-quedaban-publicos_0_1524447874.html
p2
aVhttps://www.clarin.com/sociedad/Confirmaron-primer-caso-pediatrico-chikungunya_0_1524447885.html
p3
aVhttps://www.clarin.com/sociedad/Confirmaron-primer-caso-pediatrico-chikungunya_0_1524447885.html
p4
aVhttps://www.clarin.com/ieco/economia/dolar-sube-centavos-vende_0_1524447808.html
p5
aVhttps://www.clarin.com/politica/cortes-rutas-accesos-Milagro_Sala_0_1524447862.html
p6
aVhttps://www.clarin.com/ieco/economia/Blejer-economia-mundial-crecimiento-estable_0_1524447860.html
p7
a.