(lp0
Vhttps://www.clarin.com/sociedad/Hablo-discriminada-Biela-dueno-mintio_0_1642035897.html
p1
aVhttps://www.clarin.com/sociedad/Hablo-discriminada-Biela-dueno-mintio_0_1642035897.html
p2
aVhttps://www.clarin.com/politica/Stolbizer-Congreso-Frente-Renovador-lugar_0_1642035894.html
p3
aVhttps://www.clarin.com/politica/Stolbizer-Congreso-Frente-Renovador-lugar_0_1642035894.html
p4
aVhttps://www.clarin.com/sociedad/modelos-mejor-pagas-mundo_0_1642035887.html
p5
aVhttps://www.clarin.com/sociedad/modelos-mejor-pagas-mundo_0_1642035887.html
p6
aVhttps://www.clarin.com/ieco/consultora-julio-freno-caida-consumo_0_1642035884.html
p7
aVhttps://www.clarin.com/politica/funcionario-agredio-periodista-Canal-denuncia_0_1642035882.html
p8
aVhttps://www.clarin.com/politica/funcionario-agredio-periodista-Canal-denuncia_0_1642035882.html
p9
a.