(lp0
S'https://www.clarin.com/politica/Camara-Baez-Olivos-ofreceria-pruebas_0_1600640093.html'
p1
aS'https://www.clarin.com/politica/Crisis-Diputados-habilito-allanamiento-Vido_0_1600640088.html'
p2
a.