(lp0
Vhttps://www.clarin.com/ieco/economia/Sol-despidos-vacaciones-busca-salida_0_1507649694.html
p1
aVhttps://www.clarin.com/ieco/economia/Sol-despidos-vacaciones-busca-salida_0_1507649694.html
p2
aVhttps://www.clarin.com/ieco/economia/Europa-libera-importacion-carne_0_1507649671.html
p3
aVhttps://www.clarin.com/ieco/economia/Europa-libera-importacion-carne_0_1507649671.html
p4
aVhttps://www.clarin.com/ieco/economia/davos-interes_0_1507049771.html
p5
aVhttps://www.clarin.com/ieco/economia/davos-interes_0_1507049771.html
p6
a.