(lp0
S'https://www.clarin.com/sociedad/bulldog-frances-raza-seduce-argentinos_0_1660633959.html'
p1
aS'https://www.clarin.com/sociedad/bulldog-frances-raza-seduce-argentinos_0_1660633959.html'
p2
aS'https://www.clarin.com/sociedad/Sorpresa-proyectaron-video-cartel-publicitario_0_1660633956.html'
p3
aS'https://www.clarin.com/sociedad/Sorpresa-proyectaron-video-cartel-publicitario_0_1660633956.html'
p4
aS'https://www.clarin.com/politica/Triaca-afirma-todavia-montos-bono_0_1660633950.html'
p5
aS'https://www.clarin.com/politica/Triaca-afirma-todavia-montos-bono_0_1660633950.html'
p6
aS'https://www.clarin.com/sociedad/Peregrinacion-Lujan-recorrido-claves-jornada_0_1660633948.html'
p7
aS'https://www.clarin.com/sociedad/Peregrinacion-Lujan-recorrido-claves-jornada_0_1660633948.html'
p8
a.