(lp0
S'https://www.clarin.com/ieco/economia/Brasil-recesion-cae-produccion-automoviles_0_1499850394.html'
p1
aS'https://www.clarin.com/ieco/economia/Gobierno-extendio-Precios-Cuidados-promedio_0_1499850420.html'
p2
a.