(lp0
Vhttps://www.clarin.com/politica/Palmaghini-Berni-contaminar-escena-Nisman_0_1532247242.html
p1
aVhttps://www.clarin.com/ieco/dolar-sigue-momento-proteger-capital_0_1531647135.html
p2
aVhttps://www.clarin.com/ieco/dolar-sigue-momento-proteger-capital_0_1531647135.html
p3
a.