(lp0
S'https://www.clarin.com/opinion/Uber-mundo-lecciones-Argentina_0_1563443798.html'
p1
aS'https://www.clarin.com/politica/Pichetto-presiona-pide-abrir-dialogo_0_1563443869.html'
p2
aS'https://www.clarin.com/opinion/drogas-unica-pregunta-clave-tomamos_0_1564043630.html'
p3
aS'https://www.clarin.com/opinion/default-quedo-abre-dilema-clave_0_1564043631.html'
p4
aS'https://www.clarin.com/sociedad/Victor-Stinfale-villano-favorito-inoperancia_0_1563443854.html'
p5
aS'https://www.clarin.com/politica/unidad-antilavado-pidio-indagatoria-financistas_0_1563443861.html'
p6
aS'https://www.clarin.com/opinion/acceso-informacion-publica_0_1563443795.html'
p7
aS'https://www.clarin.com/politica/millonario-patrimonio-abogado-Lazaro-Baez_0_1562243791.html'
p8
aS'https://www.clarin.com/sociedad/partera-nacer-ahora-encontro-hermanos_0_1563443857.html'
p9
aS'https://www.clarin.com/politica/Chueco-declarar-intento-suicidarse-veces_0_1563443852.html'
p10
a.