(lp0
S'https://www.clarin.com/politica/Jubilados-blanqueo-arranco-Senado-saldra_0_1604239657.html'
p1
aS'https://www.clarin.com/politica/diputada-califico-PJ-bragueteras-dirigentes_0_1604239664.html'
p2
aS'https://www.clarin.com/politica/senadora-opositora-exploto-sesion-recluta_0_1604239659.html'
p3
a.