(lp0
Vhttps://www.clarin.com/sociedad/cambio-climatico-pinguinos-quedan-comida_0_1555044687.html
p1
aVhttps://www.clarin.com/sociedad/cambio-climatico-pinguinos-quedan-comida_0_1555044687.html
p2
aVhttps://www.clarin.com/politica/Lagomarsino-fuero-federal-causa-Nisman_0_1555044683.html
p3
aVhttps://www.clarin.com/politica/Lagomarsino-fuero-federal-causa-Nisman_0_1555044683.html
p4
aVhttps://www.clarin.com/ieco/campus-ieco/Vanoli-emision-genera-necesariamente-inflacion_0_1555044673.html
p5
aVhttps://www.clarin.com/politica/Farina-valijero-Baez-Lanata-termino_0_1555044668.html
p6
aVhttps://www.clarin.com/politica/Farina-valijero-Baez-Lanata-termino_0_1555044668.html
p7
aVhttps://www.clarin.com/sociedad/Francisco-puerta-divorciados-vueltos-casar_0_1555044665.html
p8
aVhttps://www.clarin.com/sociedad/Francisco-puerta-divorciados-vueltos-casar_0_1555044665.html
p9
aVhttps://www.clarin.com/ieco/Cristobal-Lopez-estacioneros-negocian-petroleras_0_1553845095.html
p10
aVhttps://www.clarin.com/ieco/Cristobal-Lopez-estacioneros-negocian-petroleras_0_1553845095.html
p11
a.