(lp0
S'https://www.clarin.com/politica/Triple_fuga-Marcelo_Mallo-Quilmes_0_1498050193.html'
p1
aS'https://www.clarin.com/politica/Triple_fuga-Marcelo_Mallo-Quilmes_0_1498050193.html'
p2
aS'https://www.clarin.com/sociedad/Brasil-celeste-llegan-aviones-Florianopolis_0_1497450631.html'
p3
aS'https://www.clarin.com/sociedad/Brasil-celeste-llegan-aviones-Florianopolis_0_1497450631.html'
p4
aS'https://www.clarin.com/politica/scioli-fuga_0_1497450663.html'
p5
aS'https://www.clarin.com/politica/scioli-fuga_0_1497450663.html'
p6
aS'https://www.clarin.com/politica/scioli-derrota_0_1497450662.html'
p7
aS'https://www.clarin.com/politica/scioli-derrota_0_1497450662.html'
p8
aS'https://www.clarin.com/politica/macri-vidal_0_1497450661.html'
p9
aS'https://www.clarin.com/politica/macri-vidal_0_1497450661.html'
p10
aS'https://www.clarin.com/sociedad/turistas-ahora-programan-estadia-pronostico_0_1497450590.html'
p11
a.