(lp0
Vhttps://www.clarin.com/politica/izquierda-marcho-Plaza-Mayo-Gobierno_0_1568843184.html
p1
aVhttps://www.clarin.com/politica/izquierda-marcho-Plaza-Mayo-Gobierno_0_1568843184.html
p2
aVhttps://www.clarin.com/sociedad/Clausuran-falsa-Palermo-todas-irregularidades_0_1568843176.html
p3
aVhttps://www.clarin.com/sociedad/Clausuran-falsa-Palermo-todas-irregularidades_0_1568843176.html
p4
aVhttps://www.clarin.com/ieco/economia/Malchiodi-aumento-provocara-inflacion-ventas_0_1568843166.html
p5
aVhttps://www.clarin.com/sociedad/increible-operativo-atrapar-cambiaba-UADE_0_1568843168.html
p6
aVhttps://www.clarin.com/sociedad/increible-operativo-atrapar-cambiaba-UADE_0_1568843168.html
p7
a.