(lp0
Vhttps://www.clarin.com/politica/Pepe-Mujica-eleccion-Macri-peronismo_0_1514848769.html
p1
aVhttps://www.clarin.com/politica/Pepe-Mujica-eleccion-Macri-peronismo_0_1514848769.html
p2
aVhttps://www.clarin.com/sociedad/Revelan-murio-hombre-obeso-mundo_0_1514848775.html
p3
aVhttps://www.clarin.com/sociedad/Revelan-murio-hombre-obeso-mundo_0_1514848775.html
p4
aVhttps://www.clarin.com/sociedad/Dengue-dieron-asueto-limpiar-compras_0_1514848770.html
p5
aVhttps://www.clarin.com/sociedad/Dengue-dieron-asueto-limpiar-compras_0_1514848770.html
p6
aVhttps://www.clarin.com/ieco/economia/Bancarios-advierten-puede-faltar-efectivo_0_1514848752.html
p7
aVhttps://www.clarin.com/politica/emergencia_en_seguridad-DNU-abogado_K_0_1514848749.html
p8
a.