(lp0
S'https://www.clarin.com/sociedad/Violo-restriccion-rompio-pareja-amenazo_0_1536446583.html'
p1
aS'https://www.clarin.com/politica/Gils-Carbo-presento-reemplazo-Nisman_0_1536446568.html'
p2
aS'https://www.clarin.com/politica/diputados-tucumanos-FpV-daran-quorum_0_1536446585.html'
p3
aS'https://www.clarin.com/sociedad/Sobrevivio-graves-quemaduras-tutoriales-maquillaje_0_1536446554.html'
p4
aS'https://www.clarin.com/sociedad/suena-abismo-profundo-Tierra_0_1536446559.html'
p5
aS'https://www.clarin.com/politica/Fondos-Gobierno-cambios-acuerdo-massismo_0_1536446576.html'
p6
aS'https://www.clarin.com/sociedad/Violencia-Highton-reconocio-Justicia-proteccion_0_1536446581.html'
p7
aS'https://www.clarin.com/ieco/economia/Gobierno-preve-subastas-energia-eolica_0_1536446578.html'
p8
a.