(lp0
Vhttps://www.clarin.com/sociedad/Celulares-clientes-prepagos-validar-identidad_0_1684631601.html
p1
aVhttps://www.clarin.com/sociedad/Celulares-clientes-prepagos-validar-identidad_0_1684631601.html
p2
aVhttps://www.clarin.com/ieco/finanzas/Trump-acciones-citricola-San-Miguel_0_1684631599.html
p3
aVhttps://www.clarin.com/ieco/finanzas/Trump-acciones-citricola-San-Miguel_0_1684631599.html
p4
aVhttps://www.clarin.com/politica/Macri-descarto-conflictos-tranquilos-trabajando_0_1684631597.html
p5
aVhttps://www.clarin.com/politica/Macri-descarto-conflictos-tranquilos-trabajando_0_1684631597.html
p6
aVhttps://www.clarin.com/politica/Purga-remueven-Administracion-Servicio-Penitenciario_0_1684631594.html
p7
aVhttps://www.clarin.com/ieco/dolar-mayorista-pega-salto-centavos_0_1684631593.html
p8
aVhttps://www.clarin.com/ieco/dolar-mayorista-pega-salto-centavos_0_1684631593.html
p9
a.