(lp0
S'https://www.clarin.com/politica/CGT-Calo-Gobierno-reafirmo-voluntad_0_1527447544.html'
p1
aS'https://www.clarin.com/sociedad/Empapelaron-Buenos-Aires-afiches-encontrar_0_1527447533.html'
p2
aS'https://www.clarin.com/politica/Extrano-robo-abogados-denunciaron-Uribarri_0_1527447560.html'
p3
aS'https://www.clarin.com/politica/Hebe-Bonafini-repudio-Obama-ESMA_0_1527447563.html'
p4
a.