(lp0
S'https://www.clarin.com/ieco/economia/Sturzenegger-inflacion-mensual-sigue-altisima_0_1650434995.html'
p1
aS'https://www.clarin.com/ieco/economia/Sturzenegger-inflacion-mensual-sigue-altisima_0_1650434995.html'
p2
aS'https://www.clarin.com/sociedad/Mar-Plata-evacuados-vidrieras-estalladas_0_1650434991.html'
p3
aS'https://www.clarin.com/sociedad/Mar-Plata-evacuados-vidrieras-estalladas_0_1650434991.html'
p4
aS'https://www.clarin.com/ieco/economia/Demoras-reglamentacion-ley-Pymes_0_1650434990.html'
p5
aS'https://www.clarin.com/ieco/economia/Demoras-reglamentacion-ley-Pymes_0_1650434990.html'
p6
aS'https://www.clarin.com/politica/Mensaje-Lorenzetti-inversores-Corte-seguridad_0_1650434987.html'
p7
aS'https://www.clarin.com/politica/Mensaje-Lorenzetti-inversores-Corte-seguridad_0_1650434987.html'
p8
aS'https://www.clarin.com/politica/Mercosur-limite-Venezuela-borde-suspension_0_1650434986.html'
p9
aS'https://www.clarin.com/politica/Mercosur-limite-Venezuela-borde-suspension_0_1650434986.html'
p10
a.