(lp0
Vhttps://www.clarin.com/politica/Escandalo-Plata-intendente-millones-dolares_0_1654634566.html
p1
aVhttps://www.clarin.com/politica/Escandalo-Plata-intendente-millones-dolares_0_1654634566.html
p2
aVhttps://www.clarin.com/ieco/segunda-expectativas-inflacion-caen-debajo_0_1654634561.html
p3
aVhttps://www.clarin.com/ieco/segunda-expectativas-inflacion-caen-debajo_0_1654634561.html
p4
aVhttps://www.clarin.com/politica/Macri-Gran-Bretana-retomar-Malvinas_0_1654634559.html
p5
aVhttps://www.clarin.com/politica/britanica-difundio-posicion-Macri-Malvinas_0_1654634555.html
p6
a.