(lp0
Vhttps://www.clarin.com/sociedad/decreto-Scioli-farmacias-venderan-repelentes_0_1516648629.html
p1
aVhttps://www.clarin.com/sociedad/decreto-Scioli-farmacias-venderan-repelentes_0_1516648629.html
p2
aVhttps://www.clarin.com/ieco/economia/dolar-alcanzo-nuevo-maximo_0_1516648634.html
p3
aVhttps://www.clarin.com/politica/Bonafini-Parrili-AFI-ex_SIDE_0_1516648637.html
p4
aVhttps://www.clarin.com/politica/Bonafini-Parrili-AFI-ex_SIDE_0_1516648637.html
p5
aVhttps://www.clarin.com/sociedad/Comenzaron-desenterrar-caparazon-gliptodonte_0_1516648627.html
p6
aVhttps://www.clarin.com/sociedad/Comenzaron-desenterrar-caparazon-gliptodonte_0_1516648627.html
p7
a.