(lp0
Vhttps://www.clarin.com/politica/canciller-Serra-Argentina-prioridad-Brasil_0_1579042151.html
p1
aVhttps://www.clarin.com/politica/canciller-Serra-Argentina-prioridad-Brasil_0_1579042151.html
p2
aVhttps://www.clarin.com/politica/acceso-informacion-publica-media-sancion_0_1579042261.html
p3
aVhttps://www.clarin.com/politica/acceso-informacion-publica-media-sancion_0_1579042261.html
p4
aVhttps://www.clarin.com/sociedad/Alumnos-UCES-visitaron-Clarin_0_1579042260.html
p5
aVhttps://www.clarin.com/sociedad/Alumnos-UCES-visitaron-Clarin_0_1579042260.html
p6
aVhttps://www.clarin.com/politica/feriado-Avanza-Congreso-proyecto-crearlo_0_1579042252.html
p7
a.