(lp0
S'https://www.clarin.com/politica/Agresion-Macri-quiere-liberados-atacantes_0_1635436515.html'
p1
aS'https://www.clarin.com/politica/Frigerio-Macri-implacable-casos-corrupcion_0_1635436514.html'
p2
aS'https://www.clarin.com/sociedad/Polemica-Burkini-italiano-publico-monjas_0_1635436517.html'
p3
aS'https://www.clarin.com/sociedad/Rogelio-Garcia-Lupo-certera-profunda_0_1635436516.html'
p4
aS'https://www.clarin.com/politica/Gobierno-encabezado-Macri-timbreo-nacional_0_1635436525.html'
p5
a.