(lp0
S'https://www.clarin.com/sociedad/Ciudad-fantasma-construyeron-millon-personas_0_1554444852.html'
p1
aS'https://www.clarin.com/ieco/economia/Cuarta-baja-dolar-cae-centavos_0_1554444755.html'
p2
aS'https://www.clarin.com/politica/Oyarbide-renuncia-Jamas-tipo-presion_0_1554444861.html'
p3
aS'https://www.clarin.com/sociedad/anos-cubrio-asesinato-Internet-criticaron_0_1554444877.html'
p4
aS'https://www.clarin.com/sociedad/inundaciones-dejaron-muertos_0_1554444869.html'
p5
aS'https://www.clarin.com/sociedad/Lanzan-campana-nacional-detectar-enfermedad_0_1554444859.html'
p6
aS'https://www.clarin.com/sociedad/Volcan-Chimborazo-alejado-centro-Tierra_0_1554444838.html'
p7
aS'https://www.clarin.com/ieco/economia/Vanoli-futuro-Central-perdio-devaluacion_0_1554444863.html'
p8
aS'https://www.clarin.com/sociedad/Hallan-cadaver-exesposa-preso-Bolivia_0_1554444844.html'
p9
a.