(lp0
Vhttps://www.clarin.com/politica/vez-fichas-puestas-blanqueo_0_1617438243.html
p1
aVhttps://www.clarin.com/politica/Vido-ventilador-Odebrecht_0_1617438242.html
p2
aVhttps://www.clarin.com/politica/Sospechan-maniobras-evadir-embargo_0_1616838445.html
p3
aVhttps://www.clarin.com/politica/Sospechan-maniobras-evadir-embargo_0_1616838445.html
p4
aVhttps://www.clarin.com/politica/Baez-guardaba-Nestor-Cristina-fuerte_0_1615638527.html
p5
aVhttps://www.clarin.com/politica/Baez-guardaba-Nestor-Cristina-fuerte_0_1615638527.html
p6
aVhttps://www.clarin.com/opinion/Enredarse-redes_0_1616838483.html
p7
aVhttps://www.clarin.com/politica/Jueguito-tribuna-perdio-paciencia_0_1616838493.html
p8
aVhttps://www.clarin.com/politica/Jueguito-tribuna-perdio-paciencia_0_1616838493.html
p9
aVhttps://www.clarin.com/ieco/inflacion-superara-Gobierno-Banco-Central_0_1616838491.html
p10
aVhttps://www.clarin.com/politica/Demoran-Ezeiza-senador-intentaba-dolares_0_1616838490.html
p11
aVhttps://www.clarin.com/politica/Demoran-Ezeiza-senador-intentaba-dolares_0_1616838490.html
p12
a.