(lp0
S'https://www.clarin.com/politica/Luego-investigacion-patrimonial-Ricardo-Jaime_0_1533446991.html'
p1
aS'https://www.clarin.com/politica/Luego-investigacion-patrimonial-Ricardo-Jaime_0_1533446991.html'
p2
aS'https://www.clarin.com/sociedad/Mar-Plata-detuvieron-integrantes-neonazis_0_1533446992.html'
p3
aS'https://www.clarin.com/sociedad/Mar-Plata-detuvieron-integrantes-neonazis_0_1533446992.html'
p4
aS'https://www.clarin.com/politica/Macri-reclamo-gobernadores-responsabilidad-gasto_0_1533446989.html'
p5
aS'https://www.clarin.com/politica/Macri-reclamo-gobernadores-responsabilidad-gasto_0_1533446989.html'
p6
aS'https://www.clarin.com/sociedad/Monos-lograron-mover-ruedas-mente_0_1533446971.html'
p7
aS'https://www.clarin.com/sociedad/Monos-lograron-mover-ruedas-mente_0_1533446971.html'
p8
aS'https://www.clarin.com/politica/Piloto-Tango-persona-problemas-gremiales_0_1533446920.html'
p9
aS'https://www.clarin.com/politica/Piloto-Tango-persona-problemas-gremiales_0_1533446920.html'
p10
a.