(lp0
Vhttps://www.clarin.com/politica/Carrio-Scioli-presunto-enriquecimiento-Provincia_0_1588041191.html
p1
aVhttps://www.clarin.com/politica/Carrio-Scioli-presunto-enriquecimiento-Provincia_0_1588041191.html
p2
aVhttps://www.clarin.com/politica/Gobernadores-legisladores-jueces-restricciones-blanquear_0_1587441458.html
p3
a.