(lp0
Vhttps://www.clarin.com/ieco/economia/Vanoli-Venezuela-exitoso-distribucion-ingreso_0_1584441730.html
p1
aVhttps://www.clarin.com/ieco/economia/Vanoli-Venezuela-exitoso-distribucion-ingreso_0_1584441730.html
p2
aVhttps://www.clarin.com/politica/Macri-ingresen-US-millones-blanqueo_0_1584441727.html
p3
aVhttps://www.clarin.com/politica/Imputaron-Anibal-Fernandez-irregular-canchas_0_1584441718.html
p4
aVhttps://www.clarin.com/politica/Imputaron-Anibal-Fernandez-irregular-canchas_0_1584441718.html
p5
aVhttps://www.clarin.com/politica/Rio-Turbio-denuncian-abandono-derrumbe_0_1584441713.html
p6
aVhttps://www.clarin.com/politica/Rio-Turbio-denuncian-abandono-derrumbe_0_1584441713.html
p7
aVhttps://www.clarin.com/politica/Argentina-situacion-Derechos-Humanos-Venezuela_0_1584441711.html
p8
aVhttps://www.clarin.com/politica/Argentina-situacion-Derechos-Humanos-Venezuela_0_1584441711.html
p9
aVhttps://www.clarin.com/ieco/economia/Bergman-llamo-debatir-mineria_0_1584441702.html
p10
a.