(lp0
Vhttps://www.clarin.com/sociedad/Asesinan-mujer-sospechan-pareja-ex_0_1667233448.html
p1
aVhttps://www.clarin.com/sociedad/Asesinan-mujer-sospechan-pareja-ex_0_1667233448.html
p2
aVhttps://www.clarin.com/sociedad/hallazgo-Antartida-clave-entender-canto_0_1667233445.html
p3
aVhttps://www.clarin.com/sociedad/hallazgo-Antartida-clave-entender-canto_0_1667233445.html
p4
a.