(lp0
Vhttps://www.clarin.com/ieco/vivienda-creditos-reconstruir_el_mercado-inflacion_0_1510049016.html
p1
aVhttps://www.clarin.com/ieco/vivienda-hipotecarios-creditos-accesibilidad_0_1510049015.html
p2
aVhttps://www.clarin.com/ieco/vivienda-hipotecarios-creditos-accesibilidad_0_1510049015.html
p3
aVhttps://www.clarin.com/politica/Mauricio_Macri-Macri-Cambiemos-PJ_0_1510049001.html
p4
aVhttps://www.clarin.com/politica/paritarias-vidal-docentes_0_1510049000.html
p5
aVhttps://www.clarin.com/politica/macri-parlamento-leyes_0_1510048999.html
p6
aVhttps://www.clarin.com/politica/massa-entrevista-davos_0_1510048998.html
p7
aVhttps://www.clarin.com/politica/massa-entrevista-davos_0_1510048998.html
p8
aVhttps://www.clarin.com/politica/Anibal-justifico-compartio-abogado-Lanatta_0_1509449455.html
p9
aVhttps://www.clarin.com/politica/Perez-Corradi-traficaba-efedrina-RENAR_0_1509449452.html
p10
a.