(lp0
Vhttps://www.clarin.com/ieco/economia/Coca-confirma-comprar-yogures-SanCor_0_1599440139.html
p1
aVhttps://www.clarin.com/ieco/economia/Coca-confirma-comprar-yogures-SanCor_0_1599440139.html
p2
aVhttps://www.clarin.com/ieco/Aumento-deficit-fiscal-mayo_0_1599440253.html
p3
aVhttps://www.clarin.com/politica/Denuncian-Vido-contratar-depositos-ENARSA_0_1599440202.html
p4
aVhttps://www.clarin.com/politica/Denuncian-Vido-contratar-depositos-ENARSA_0_1599440202.html
p5
aVhttps://www.clarin.com/ieco/epocas-renuevan-inversiones-industria-aceitera_0_1599440098.html
p6
aVhttps://www.clarin.com/ieco/epocas-renuevan-inversiones-industria-aceitera_0_1599440098.html
p7
aVhttps://www.clarin.com/ieco/economia/YPF-EEUU-US-millones-liberarse_0_1599440153.html
p8
aVhttps://www.clarin.com/ieco/economia/YPF-EEUU-US-millones-liberarse_0_1599440153.html
p9
aVhttps://www.clarin.com/politica/Polemica-criptas-convento-Lopez-millones_0_1599440264.html
p10
aVhttps://www.clarin.com/politica/Polemica-criptas-convento-Lopez-millones_0_1599440264.html
p11
aVhttps://www.clarin.com/opinion/Brexit-Cisne-negro-Atlantico-Sur_0_1598840244.html
p12
aVhttps://www.clarin.com/opinion/globalizacion-Fukuyama-Dickens_0_1598840241.html
p13
aVhttps://www.clarin.com/opinion/globalizacion-Fukuyama-Dickens_0_1598840241.html
p14
aVhttps://www.clarin.com/opinion/Dudoso-proyecto-reformar-Ministerio-Publico_0_1598840243.html
p15
a.