(lp0
S'https://www.clarin.com/sociedad/calamar-enternece-cientificos_0_1633636715.html'
p1
aS'https://www.clarin.com/sociedad/calamar-enternece-cientificos_0_1633636715.html'
p2
aS'https://www.clarin.com/sociedad/Reabrieron-Parque-Nacional-Iguazu-buscando_0_1633636708.html'
p3
aS'https://www.clarin.com/sociedad/Reabrieron-Parque-Nacional-Iguazu-buscando_0_1633636708.html'
p4
aS'https://www.clarin.com/politica/alegato-represor-Nabo-Barreiro-provocacion_0_1633636707.html'
p5
aS'https://www.clarin.com/politica/alegato-represor-Nabo-Barreiro-provocacion_0_1633636707.html'
p6
aS'https://www.clarin.com/politica/Macri-pidio-vecina-Lujan-Cuyo_0_1633636705.html'
p7
aS'https://www.clarin.com/politica/Macri-pidio-vecina-Lujan-Cuyo_0_1633636705.html'
p8
aS'https://www.clarin.com/politica/Rafecas-medidas-esclarecer-amenaza-Michetti_0_1633636703.html'
p9
aS'https://www.clarin.com/politica/Rafecas-medidas-esclarecer-amenaza-Michetti_0_1633636703.html'
p10
aS'https://www.clarin.com/ieco/precios-mayoristas-suben-inflacion_0_1633636702.html'
p11
aS'https://www.clarin.com/ieco/precios-mayoristas-suben-inflacion_0_1633636702.html'
p12
a.