(lp0
S'https://www.clarin.com/sociedad/Premiaron-mejores-Caminos-Sabores_0_1610239108.html'
p1
aS'https://www.clarin.com/sociedad/Premiaron-mejores-Caminos-Sabores_0_1610239108.html'
p2
aS'https://www.clarin.com/opinion/Doscientos-anos_0_1610838901.html'
p3
aS'https://www.clarin.com/politica/Analizan-medidas-aliviar-impacto-aumento_0_1610239114.html'
p4
aS'https://www.clarin.com/politica/llamativos-movimientos-cuentas-Cristina-hija_0_1610239117.html'
p5
aS'https://www.clarin.com/politica/llamativos-movimientos-cuentas-Cristina-hija_0_1610239117.html'
p6
aS'https://www.clarin.com/opinion/Argentina-Patria_0_1610239105.html'
p7
aS'https://www.clarin.com/opinion/Argentina-Patria_0_1610239105.html'
p8
aS'https://www.clarin.com/opinion/Aprender-ver-corazon_0_1610239106.html'
p9
aS'https://www.clarin.com/ieco/economia/Facturas-hacer-asociaciones-consumidores_0_1610239083.html'
p10
aS'https://www.clarin.com/ieco/economia/Facturas-hacer-asociaciones-consumidores_0_1610239083.html'
p11
aS'https://www.clarin.com/politica/Macri-mejor-imagen-Gobierno_0_1610239101.html'
p12
aS'https://www.clarin.com/politica/Macri-mejor-imagen-Gobierno_0_1610239101.html'
p13
aS'https://www.clarin.com/politica/Daer-mete-pelea-medicamentos_0_1610239069.html'
p14
aS'https://www.clarin.com/politica/Daer-mete-pelea-medicamentos_0_1610239069.html'
p15
aS'https://www.clarin.com/ieco/economia/reduccion-tasas-podria-impulso-dolar_0_1610838954.html'
p16
aS'https://www.clarin.com/ieco/economia/reduccion-tasas-podria-impulso-dolar_0_1610838954.html'
p17
a.