(lp0
Vhttps://www.clarin.com/politica/Jujuy-ordenan-tomada-liberar-calles_0_1505849718.html
p1
aVhttps://www.clarin.com/politica/Jujuy-ordenan-tomada-liberar-calles_0_1505849718.html
p2
aVhttps://www.clarin.com/sociedad/hombre-murio-accidente-aereo-Pinamar_0_1505849697.html
p3
aVhttps://www.clarin.com/sociedad/evacuados-Santa-Fe-Rios-Parana_0_1505849681.html
p4
aVhttps://www.clarin.com/sociedad/evacuados-Santa-Fe-Rios-Parana_0_1505849681.html
p5
aVhttps://www.clarin.com/politica/Encuentro-Macri-Nisman-plegaria-justicia_0_1505849673.html
p6
aVhttps://www.clarin.com/politica/Encuentro-Macri-Nisman-plegaria-justicia_0_1505849673.html
p7
aVhttps://www.clarin.com/politica/Victor-Hugo-Morales-TV-Publica_0_1505849661.html
p8
aVhttps://www.clarin.com/politica/Victor-Hugo-Morales-TV-Publica_0_1505849661.html
p9
a.