(lp0
Vhttps://www.clarin.com/politica/Sortean-viaje-Punta-pagaron-impuestos_0_1582041912.html
p1
aVhttps://www.clarin.com/politica/Sortean-viaje-Punta-pagaron-impuestos_0_1582041912.html
p2
aVhttps://www.clarin.com/politica/Procesaron-amenazo-Macri-familia-Twitter_0_1582041906.html
p3
aVhttps://www.clarin.com/politica/Procesaron-amenazo-Macri-familia-Twitter_0_1582041906.html
p4
aVhttps://www.clarin.com/politica/Veinte-gobernadores-reunidos-Gobierno-tarifas_0_1582041901.html
p5
aVhttps://www.clarin.com/politica/Veinte-gobernadores-reunidos-Gobierno-tarifas_0_1582041901.html
p6
aVhttps://www.clarin.com/politica/Represion-meses-prision-Enrique-Mathov_0_1582041898.html
p7
aVhttps://www.clarin.com/politica/Represion-meses-prision-Enrique-Mathov_0_1582041898.html
p8
a.