(lp0
Vhttps://www.clarin.com/ieco/Preocupacion-Gobierno-industria-argentina_0_1542445891.html
p1
aVhttps://www.clarin.com/ieco/Preocupacion-Gobierno-industria-argentina_0_1542445891.html
p2
aVhttps://www.clarin.com/ieco/YPF-advierte-impopulares-gobierno-macrista_0_1541846281.html
p3
aVhttps://www.clarin.com/ieco/YPF-advierte-impopulares-gobierno-macrista_0_1541846281.html
p4
aVhttps://www.clarin.com/politica/Gobierno-argentino-desclasificar-documentos-dictadura_0_1542445877.html
p5
aVhttps://www.clarin.com/politica/Gobierno-argentino-desclasificar-documentos-dictadura_0_1542445877.html
p6
aVhttps://www.clarin.com/sociedad/Alerta-meteorologico-Capital-provincias_0_1542445868.html
p7
aVhttps://www.clarin.com/sociedad/Alerta-meteorologico-Capital-provincias_0_1542445868.html
p8
a.