(lp0
S'https://www.clarin.com/politica/Congreso-Judio-Mundial-Buenos-Aires_0_1537646545.html'
p1
aS'https://www.clarin.com/sociedad/intendente-acusado-esposa-declaro-inocente_0_1537646575.html'
p2
aS'https://www.clarin.com/politica/Magistratura-reactivo-juicio-Oyarbide_0_1537646576.html'
p3
aS'https://www.clarin.com/politica/Rafecas-denuncia-Nisman-encubrimiento-Cristina_0_1537646590.html'
p4
a.