(lp0
Vhttps://www.clarin.com/politica/importaciones-suben-ring_0_1667233429.html
p1
aVhttps://www.clarin.com/ieco/economia/Macri-IDEA-reclamos-inversion-empresarios_0_1667233428.html
p2
aVhttps://www.clarin.com/ieco/economia/Macri-IDEA-reclamos-inversion-empresarios_0_1667233428.html
p3
aVhttps://www.clarin.com/politica/Procesaron-Perez-Corradi-trafico-efedrina_0_1667233412.html
p4
aVhttps://www.clarin.com/politica/Procesaron-Perez-Corradi-trafico-efedrina_0_1667233412.html
p5
aVhttps://www.clarin.com/sociedad/pueblito-cordobes-siesta-fieles-Brochero_0_1667233425.html
p6
aVhttps://www.clarin.com/ieco/economia/IDEA-fuerte-operativo-seguridad-Macri_0_1667233422.html
p7
aVhttps://www.clarin.com/ieco/economia/IDEA-fuerte-operativo-seguridad-Macri_0_1667233422.html
p8
aVhttps://www.clarin.com/politica/Cancilleria-historia-Palacio-San-Martin_0_1667233404.html
p9
aVhttps://www.clarin.com/politica/Cancilleria-historia-Palacio-San-Martin_0_1667233404.html
p10
aVhttps://www.clarin.com/politica/Laudatos-cofradia-enlaza-Papa-Peron_0_1667233407.html
p11
aVhttps://www.clarin.com/politica/Laudatos-cofradia-enlaza-Papa-Peron_0_1667233407.html
p12
aVhttps://www.clarin.com/politica/Mauricio-Macri-homenaje-Yrigoyen-UCR_0_1667233417.html
p13
aVhttps://www.clarin.com/politica/Mauricio-Macri-homenaje-Yrigoyen-UCR_0_1667233417.html
p14
a.