(lp0
S'https://www.clarin.com/sociedad/Explosion-derrumbe-centro-Rosario-heridos_0_1545445911.html'
p1
aS'https://www.clarin.com/politica/Macri-visita-Obama-momento-perfecto_0_1545445924.html'
p2
aS'https://www.clarin.com/sociedad/cientificas-premiadas_0_1545445897.html'
p3
a.