(lp0
Vhttps://www.clarin.com/sociedad/rescato-pescadores-deriva-Rio-Plata_0_1569443129.html
p1
aVhttps://www.clarin.com/sociedad/rescato-pescadores-deriva-Rio-Plata_0_1569443129.html
p2
aVhttps://www.clarin.com/politica/ampliacion-Aldea-hotel-Cristina-Chalten_0_1569443122.html
p3
aVhttps://www.clarin.com/politica/ampliacion-Aldea-hotel-Cristina-Chalten_0_1569443122.html
p4
aVhttps://www.clarin.com/sociedad/Cazafantasmas-trailer-odiado-historia-YouTube_0_1569443110.html
p5
aVhttps://www.clarin.com/sociedad/Cazafantasmas-trailer-odiado-historia-YouTube_0_1569443110.html
p6
aVhttps://www.clarin.com/sociedad/alpinista-sepulto-avalancha-encontraron-despues_0_1569443119.html
p7
aVhttps://www.clarin.com/sociedad/alpinista-sepulto-avalancha-encontraron-despues_0_1569443119.html
p8
a.