(lp0
Vhttps://www.clarin.com/sociedad/Ordenan-arresto-acusado-abuso-menores_0_1679232229.html
p1
aVhttps://www.clarin.com/sociedad/Mensajes-amados-odiados-mitad-utiliza_0_1679232228.html
p2
aVhttps://www.clarin.com/sociedad/Mensajes-amados-odiados-mitad-utiliza_0_1679232228.html
p3
aVhttps://www.clarin.com/sociedad/record-visitas-maraton-rebajas-CyberMonday_0_1679232224.html
p4
aVhttps://www.clarin.com/sociedad/record-visitas-maraton-rebajas-CyberMonday_0_1679232224.html
p5
aVhttps://www.clarin.com/sociedad/Polemica-Aconcagua-pagar-mil-rescatado_0_1679232223.html
p6
aVhttps://www.clarin.com/sociedad/Polemica-Aconcagua-pagar-mil-rescatado_0_1679232223.html
p7
aVhttps://www.clarin.com/politica/Redoblan-seguridad-Farina-balearan-custodia_0_1679232212.html
p8
aVhttps://www.clarin.com/politica/Redoblan-seguridad-Farina-balearan-custodia_0_1679232212.html
p9
a.