(lp0
S'https://www.clarin.com/politica/hora-buscan-acordar-ley-Presupuesto_0_1675632618.html'
p1
aS'https://www.clarin.com/politica/testimonio-podria-complicar-Cristina-Kirchner_0_1675632625.html'
p2
aS'https://www.clarin.com/opinion/rosario-papal-niega-nadie_0_1676232365.html'
p3
aS'https://www.clarin.com/opinion/mishiadura-madre-papa-reciente_0_1676232366.html'
p4
aS'https://www.clarin.com/politica/Carolina-Stanley-Trabajamos-conflicto-diciembre_0_1675632620.html'
p5
a.