(lp0
Vhttps://www.clarin.com/ieco/primer-semestre-crecio-deficit-fiscal_0_1617438424.html
p1
aVhttps://www.clarin.com/ieco/primer-semestre-crecio-deficit-fiscal_0_1617438424.html
p2
aVhttps://www.clarin.com/politica/CGT-unificada-jefes-apuran-documento_0_1617438422.html
p3
aVhttps://www.clarin.com/politica/CGT-unificada-jefes-apuran-documento_0_1617438422.html
p4
aVhttps://www.clarin.com/politica/obispo-monjas-convento-deben-perdon_0_1617438420.html
p5
aVhttps://www.clarin.com/politica/obispo-monjas-convento-deben-perdon_0_1617438420.html
p6
aVhttps://www.clarin.com/politica/pollero-convento-domingos-autos-lujo_0_1617438411.html
p7
aVhttps://www.clarin.com/politica/pollero-convento-domingos-autos-lujo_0_1617438411.html
p8
aVhttps://www.clarin.com/politica/peritaban-fajos-dolares-Jose-Lopez_0_1617438416.html
p9
aVhttps://www.clarin.com/politica/peritaban-fajos-dolares-Jose-Lopez_0_1617438416.html
p10
aVhttps://www.clarin.com/sociedad/primera-pareja-sordos-caso-lengua_0_1617438414.html
p11
aVhttps://www.clarin.com/sociedad/jovenes-salvaron-pasajero-ACV-colectivo_0_1617438407.html
p12
aVhttps://www.clarin.com/ieco/economia/Fuerte-caida-actividad-economica-junio_0_1617438402.html
p13
aVhttps://www.clarin.com/sociedad/historia-productor-junto-mejores-AMIA_0_1617438390.html
p14
aVhttps://www.clarin.com/sociedad/historia-productor-junto-mejores-AMIA_0_1617438390.html
p15
aVhttps://www.clarin.com/politica/Macri-gobernador-Santa-Fe-kirchnerismo_0_1617438399.html
p16
aVhttps://www.clarin.com/politica/Macri-gobernador-Santa-Fe-kirchnerismo_0_1617438399.html
p17
aVhttps://www.clarin.com/politica/Cristina-reaparecio-teleconferencia-Milagro-Sala_0_1617438398.html
p18
aVhttps://www.clarin.com/politica/Cristina-reaparecio-teleconferencia-Milagro-Sala_0_1617438398.html
p19
a.