(lp0
S'https://www.clarin.com/ieco/economia/Afectada-Brexit-Bolsa-derrumba_0_1601239954.html'
p1
aS'https://www.clarin.com/politica/pidieron-cancion-C5N-Cristobal-Lopez_0_1601239960.html'
p2
aS'https://www.clarin.com/sociedad/Video-desperto-madrugada-encontro-gigante_0_1601239956.html'
p3
aS'https://www.clarin.com/ieco/economia/Prat-Gay-dijo-inflacion-anual-hecho_0_1601239964.html'
p4
aS'https://www.clarin.com/sociedad/Inauguran-infartante-tobogan-edificio-Angeles_0_1601239950.html'
p5
aS'https://www.clarin.com/politica/prohibieron-Martin-Baez-Santa-Cruz_0_1601239914.html'
p6
a.