(lp0
Vhttps://www.clarin.com/sociedad/Mini-Cooper-presento-justicia-perdon_0_1637836332.html
p1
aVhttps://www.clarin.com/sociedad/Mini-Cooper-presento-justicia-perdon_0_1637836332.html
p2
aVhttps://www.clarin.com/ieco/economia/sondeo-dolar-adecuado-Pymes_0_1637836322.html
p3
aVhttps://www.clarin.com/ieco/economia/sondeo-dolar-adecuado-Pymes_0_1637836322.html
p4
aVhttps://www.clarin.com/politica/Inedito-Das-Neves-concurso-ministro_0_1637836325.html
p5
aVhttps://www.clarin.com/politica/Inedito-Das-Neves-concurso-ministro_0_1637836325.html
p6
aVhttps://www.clarin.com/politica/economia-achico-primer-semestre_0_1637836326.html
p7
aVhttps://www.clarin.com/politica/conmovedor-pedido-supuestos-represores-juicio_0_1637836318.html
p8
aVhttps://www.clarin.com/politica/conmovedor-pedido-supuestos-represores-juicio_0_1637836318.html
p9
a.