(lp0
S'https://www.clarin.com/ieco/economia/Gobierno-reducira-impuestos-economia-crece_0_1604239743.html'
p1
aS'https://www.clarin.com/ieco/economia/Gobierno-reducira-impuestos-economia-crece_0_1604239743.html'
p2
aS'https://www.clarin.com/politica/Denuncian-Cristobal-Lopez-millones-aportes_0_1604239661.html'
p3
aS'https://www.clarin.com/politica/Denuncian-Cristobal-Lopez-millones-aportes_0_1604239661.html'
p4
aS'https://www.clarin.com/opinion/Hurgar-libreria-virtual_0_1604239694.html'
p5
aS'https://www.clarin.com/politica/Aprueban-Bicameral-controlar-Gils-Carbo_0_1604239766.html'
p6
aS'https://www.clarin.com/politica/Anibal-Fernandez-hago-cargo-Lopez_0_1604239763.html'
p7
aS'https://www.clarin.com/politica/Anibal-Fernandez-hago-cargo-Lopez_0_1604239763.html'
p8
aS'https://www.clarin.com/politica/PJ-postergo-decision-romper-kirchnerismo_0_1604239754.html'
p9
aS'https://www.clarin.com/politica/Perez-Corradi-dolares-Interpol-detuvieran_0_1604239746.html'
p10
aS'https://www.clarin.com/politica/Perez-Corradi-dolares-Interpol-detuvieran_0_1604239746.html'
p11
a.