(lp0
S'https://www.clarin.com/politica/Investigan-robaron-armas-depositos-RENAR_0_1573042690.html'
p1
aS'https://www.clarin.com/opinion/Siempre-lupinista-cristinista_0_1573042688.html'
p2
aS'https://www.clarin.com/opinion/Rareza-malas-noticias-optimismo_0_1573042687.html'
p3
aS'https://www.clarin.com/opinion/democracias-librar-todavia-varias-batallas_0_1572442877.html'
p4
aS'https://www.clarin.com/opinion/democracias-librar-todavia-varias-batallas_0_1572442877.html'
p5
aS'https://www.clarin.com/opinion/izquierda-derecha-mismo-tiempo_0_1572442880.html'
p6
aS'https://www.clarin.com/opinion/ONU-juegan-doble-estandar_0_1572442883.html'
p7
aS'https://www.clarin.com/opinion/perspectivas-enfoques-beligerantes_0_1572442885.html'
p8
aS'https://www.clarin.com/opinion/Gabriela-Furlotti-vinateros-gavilanes_0_1572442879.html'
p9
aS'https://www.clarin.com/opinion/Gabriela-Furlotti-vinateros-gavilanes_0_1572442879.html'
p10
a.