(lp0
S'https://www.clarin.com/ieco/Cresud-invertira-millones-planta-frigorifica_0_1561643838.html'
p1
aS'https://www.clarin.com/ieco/economia/suba-tarifas-llevara-inflacion-abril_0_1561643845.html'
p2
aS'https://www.clarin.com/politica/intendentes-rebelaron-faltaron-cita-Cristina_0_1561643841.html'
p3
aS'https://www.clarin.com/politica/intendentes-rebelaron-faltaron-cita-Cristina_0_1561643841.html'
p4
aS'https://www.clarin.com/ieco/Entro-Diputados-proyecto-devolucion-IVA_0_1561643842.html'
p5
aS'https://www.clarin.com/ieco/Gobierno-apura-mayores-inversiones_0_1561643840.html'
p6
aS'https://www.clarin.com/ieco/economia/Tension-semillas-CEO-mundial-Monsanto_0_1561643839.html'
p7
aS'https://www.clarin.com/sociedad/Continua-Litoral-tormentas-fuertes-provincias_0_1561643834.html'
p8
aS'https://www.clarin.com/sociedad/Continua-Litoral-tormentas-fuertes-provincias_0_1561643834.html'
p9
a.