(lp0
Vhttps://www.clarin.com/politica/Convenios-tango-champagne-Centro-Kirchner_0_1529247506.html
p1
aVhttps://www.clarin.com/politica/Convenios-tango-champagne-Centro-Kirchner_0_1529247506.html
p2
aVhttps://www.clarin.com/politica/Hollande-liceo-frances-Marsellesa-tango_0_1529247536.html
p3
aVhttps://www.clarin.com/politica/Hollande-liceo-frances-Marsellesa-tango_0_1529247536.html
p4
aVhttps://www.clarin.com/politica/Hollande-empresarios-Voy-vuelta-pagina_0_1529247496.html
p5
aVhttps://www.clarin.com/politica/Hollande-empresarios-Voy-vuelta-pagina_0_1529247496.html
p6
aVhttps://www.clarin.com/opinion/Nisman-sigue-acusando_0_1529847033.html
p7
aVhttps://www.clarin.com/sociedad/Alerta-tormentas-Buenos-Aires-provincias_0_1529847030.html
p8
aVhttps://www.clarin.com/sociedad/Alerta-tormentas-Buenos-Aires-provincias_0_1529847030.html
p9
aVhttps://www.clarin.com/opinion/relato-Cristina-acuerdos-Mauricio_0_1529247454.html
p10
aVhttps://www.clarin.com/opinion/relato-Cristina-acuerdos-Mauricio_0_1529247454.html
p11
aVhttps://www.clarin.com/opinion/Superar-miedo-islam_0_1529247439.html
p12
aVhttps://www.clarin.com/ieco/Isela-Costantini-prepara-ajuste-Aerolineas_0_1529247510.html
p13
aVhttps://www.clarin.com/opinion/Emergencia-seguridad-medidas-efectivas_0_1529247402.html
p14
a.