(lp0
Vhttps://www.clarin.com/politica/EEUU-Argentina-documentos-desclasificados-dictadura_0_1625837472.html
p1
aVhttps://www.clarin.com/politica/EEUU-Argentina-documentos-desclasificados-dictadura_0_1625837472.html
p2
aVhttps://www.clarin.com/politica/Stiuso-Justicia-Milani-inteligencia-Cristina_0_1625837469.html
p3
aVhttps://www.clarin.com/politica/Stiuso-Justicia-Milani-inteligencia-Cristina_0_1625837469.html
p4
aVhttps://www.clarin.com/sociedad/Pikachu-Boca-Pokemon-Lali-Moria_0_1625837461.html
p5
aVhttps://www.clarin.com/sociedad/Pikachu-Boca-Pokemon-Lali-Moria_0_1625837461.html
p6
aVhttps://www.clarin.com/ieco/ventas-minoristas-cayeron-julio_0_1625837468.html
p7
aVhttps://www.clarin.com/ieco/ventas-minoristas-cayeron-julio_0_1625837468.html
p8
aVhttps://www.clarin.com/sociedad/Pese-consumo-hogares-argentinos-habitualmente_0_1625837463.html
p9
aVhttps://www.clarin.com/sociedad/Pese-consumo-hogares-argentinos-habitualmente_0_1625837463.html
p10
a.