(lp0
Vhttps://www.clarin.com/politica/Duro-editorial-Longobardi-Cristina-disculpas_0_1598840149.html
p1
aVhttps://www.clarin.com/politica/Anibal-Fernandez-Bullrich-Perez-Corradi_0_1598840146.html
p2
aVhttps://www.clarin.com/politica/Anibal-Fernandez-Bullrich-Perez-Corradi_0_1598840146.html
p3
aVhttps://www.clarin.com/ieco/economia/Hector-Mendez-publica-Movicom-adelante_0_1598840145.html
p4
aVhttps://www.clarin.com/ieco/economia/Hector-Mendez-publica-Movicom-adelante_0_1598840145.html
p5
aVhttps://www.clarin.com/sociedad/disputa-herencia-Garcia-Uriburu-hija_0_1598840142.html
p6
aVhttps://www.clarin.com/sociedad/disputa-herencia-Garcia-Uriburu-hija_0_1598840142.html
p7
aVhttps://www.clarin.com/politica/treinta-identikits-Perez-Corradi-Interpol_0_1598840140.html
p8
aVhttps://www.clarin.com/politica/treinta-identikits-Perez-Corradi-Interpol_0_1598840140.html
p9
aVhttps://www.clarin.com/sociedad/argentino-chaqueta-Hitler-subastada-Munich_0_1598840139.html
p10
aVhttps://www.clarin.com/sociedad/argentino-chaqueta-Hitler-subastada-Munich_0_1598840139.html
p11
aVhttps://www.clarin.com/politica/proteccion-pullover-precipitaron-Perez-Corradi_0_1598840136.html
p12
aVhttps://www.clarin.com/politica/proteccion-pullover-precipitaron-Perez-Corradi_0_1598840136.html
p13
aVhttps://www.clarin.com/politica/Trasladan-Perez-Corradi-Asuncion-indagarlo_0_1598840135.html
p14
aVhttps://www.clarin.com/politica/Trasladan-Perez-Corradi-Asuncion-indagarlo_0_1598840135.html
p15
a.