(lp0
S'https://www.clarin.com/sociedad/ahogada-parque-acuatico-Foz-Iguazu_0_1690630940.html'
p1
aS'https://www.clarin.com/sociedad/Emotiva-presentacion-alumnos-lenguaje-senas_0_1690630948.html'
p2
aS'https://www.clarin.com/politica/Emilio-Monzo-emergencia-trabajo-corresponde_0_1690630950.html'
p3
a.