(lp0
Vhttps://www.clarin.com/politica/Insolito-kirchnerismo-Dia-Nacional-Mentira_0_1687631399.html
p1
aVhttps://www.clarin.com/politica/Insolito-kirchnerismo-Dia-Nacional-Mentira_0_1687631399.html
p2
aVhttps://www.clarin.com/sociedad/tiro-cabeza-delante-hija-profugo_0_1687631406.html
p3
aVhttps://www.clarin.com/sociedad/tiro-cabeza-delante-hija-profugo_0_1687631406.html
p4
aVhttps://www.clarin.com/politica/Senado-oposicion-votar-Emergencia-Social_0_1687631404.html
p5
aVhttps://www.clarin.com/politica/marcha-emergencia-social-consigna-oradores_0_1687631401.html
p6
aVhttps://www.clarin.com/politica/Denuncian-lavado-derecha-Anibal-Fernandez_0_1687631380.html
p7
aVhttps://www.clarin.com/politica/Denuncian-lavado-derecha-Anibal-Fernandez_0_1687631380.html
p8
aVhttps://www.clarin.com/politica/Detectan-agujero-millones-balance-Austral_0_1687631341.html
p9
aVhttps://www.clarin.com/politica/Detectan-agujero-millones-balance-Austral_0_1687631341.html
p10
aVhttps://www.clarin.com/politica/esposa-Baez-reclama-millones-divorcio_0_1687631378.html
p11
a.