(lp0
S'https://www.clarin.com/sociedad/alumno-Puerto-Madryn-olimpiada-tecnologia_0_1680431958.html'
p1
aS'https://www.clarin.com/sociedad/alumno-Puerto-Madryn-olimpiada-tecnologia_0_1680431958.html'
p2
aS'https://www.clarin.com/politica/Doce-kirchneristas-Campora-Presupuesto-Macri_0_1680431956.html'
p3
aS'https://www.clarin.com/politica/Doce-kirchneristas-Campora-Presupuesto-Macri_0_1680431956.html'
p4
aS'https://www.clarin.com/politica/Jose-Lopez-Tribunales-Cristina-Vido_0_1680431952.html'
p5
aS'https://www.clarin.com/politica/Jose-Lopez-Tribunales-Cristina-Vido_0_1680431952.html'
p6
aS'https://www.clarin.com/sociedad/Hallan-ahorcada-Berazategui-familia-esposo_0_1680431950.html'
p7
aS'https://www.clarin.com/sociedad/Hallan-ahorcada-Berazategui-familia-esposo_0_1680431950.html'
p8
aS'https://www.clarin.com/ieco/economia/Amplian-Presupuesto-medio-debate-cuentas_0_1679832129.html'
p9
aS'https://www.clarin.com/ieco/economia/Amplian-Presupuesto-medio-debate-cuentas_0_1679832129.html'
p10
aS'https://www.clarin.com/sociedad/universidades-recibieron-doble-recursos-grandes_0_1679832183.html'
p11
aS'https://www.clarin.com/sociedad/universidades-recibieron-doble-recursos-grandes_0_1679832183.html'
p12
a.