(lp0
Vhttps://www.clarin.com/sociedad/Marte-China-Emiratos-Arabes-carrera_0_1565243461.html
p1
aVhttps://www.clarin.com/sociedad/Marte-China-Emiratos-Arabes-carrera_0_1565243461.html
p2
aVhttps://www.clarin.com/politica/Despidos-Gobierno-busca-dividir-oposicion_0_1564643678.html
p3
aVhttps://www.clarin.com/politica/Despidos-Gobierno-busca-dividir-oposicion_0_1564643678.html
p4
aVhttps://www.clarin.com/politica/kirchnerismo-gremios-insisten-pedir-emergencia_0_1564643689.html
p5
aVhttps://www.clarin.com/sociedad/Martin-misterioso-repetia-supuesto-dealer_0_1564643665.html
p6
aVhttps://www.clarin.com/ieco/Monotributo-quejas-falta-ajuste-categorias_0_1564643646.html
p7
aVhttps://www.clarin.com/sociedad/Dragones-leones-fiesta-pleno-Plata_0_1564643686.html
p8
aVhttps://www.clarin.com/sociedad/Dragones-leones-fiesta-pleno-Plata_0_1564643686.html
p9
aVhttps://www.clarin.com/politica/Cristina-Kirchner-recluida-sur_0_1564643625.html
p10
aVhttps://www.clarin.com/politica/Cristina-Kirchner-recluida-sur_0_1564643625.html
p11
aVhttps://www.clarin.com/politica/Randazzo-intendentes-analiza-regreso-politico_0_1564643655.html
p12
aVhttps://www.clarin.com/politica/Randazzo-intendentes-analiza-regreso-politico_0_1564643655.html
p13
a.