(lp0
Vhttps://www.clarin.com/ieco/cambios-AFIP-retenciones-sueldos_0_1552644835.html
p1
aVhttps://www.clarin.com/ieco/cambios-AFIP-retenciones-sueldos_0_1552644835.html
p2
aVhttps://www.clarin.com/ieco/economia/devaluacion-industria-vino-apuesta-gama_0_1552045154.html
p3
aVhttps://www.clarin.com/politica/Macri-Messi-secretario-filtracion-documentos_0_1552045086.html
p4
aVhttps://www.clarin.com/politica/Macri-Messi-secretario-filtracion-documentos_0_1552045086.html
p5
aVhttps://www.clarin.com/politica/Grupo-vaciadora-Szpolski-testaferro_0_1552644778.html
p6
aVhttps://www.clarin.com/politica/Grupo-vaciadora-Szpolski-testaferro_0_1552644778.html
p7
aVhttps://www.clarin.com/politica/Incomunicado-secretario-declara-juez-Ercolini_0_1552644775.html
p8
aVhttps://www.clarin.com/politica/Incomunicado-secretario-declara-juez-Ercolini_0_1552644775.html
p9
aVhttps://www.clarin.com/sociedad/peso-conflicto-abarcador_0_1552644756.html
p10
aVhttps://www.clarin.com/politica/Macri-PJ-duro-impacto-ajuste_0_1552644754.html
p11
aVhttps://www.clarin.com/opinion/bolsillo-Macri_0_1552644751.html
p12
aVhttps://www.clarin.com/sociedad/personas-hicieron-mateada-grande-mundo_0_1552045191.html
p13
aVhttps://www.clarin.com/sociedad/Hallaron-Manuel-exministro-Federico-Storani_0_1552644742.html
p14
aVhttps://www.clarin.com/sociedad/Hallaron-Manuel-exministro-Federico-Storani_0_1552644742.html
p15
a.