(lp0
S'https://www.clarin.com/politica/Milani-enriquecimiento-tipo-leal-transparente_0_1675632580.html'
p1
aS'https://www.clarin.com/politica/Milani-enriquecimiento-tipo-leal-transparente_0_1675632580.html'
p2
aS'https://www.clarin.com/sociedad/Mira-medidas-seguridad-nuevo-billete_0_1675632581.html'
p3
aS'https://www.clarin.com/sociedad/Mira-medidas-seguridad-nuevo-billete_0_1675632581.html'
p4
aS'https://www.clarin.com/politica/Niegan-Papa-Francisco-Gils-Carbo_0_1675632574.html'
p5
aS'https://www.clarin.com/politica/Niegan-Papa-Francisco-Gils-Carbo_0_1675632574.html'
p6
aS'https://www.clarin.com/sociedad/Procesado-Time-Stinfale-Dubai-Maradona_0_1675632560.html'
p7
aS'https://www.clarin.com/sociedad/Procesado-Time-Stinfale-Dubai-Maradona_0_1675632560.html'
p8
aS'https://www.clarin.com/politica/Doble-reves-Echegaray-causa-enriquecimiento_0_1675632575.html'
p9
aS'https://www.clarin.com/politica/Doble-reves-Echegaray-causa-enriquecimiento_0_1675632575.html'
p10
a.