(lp0
Vhttps://www.clarin.com/sociedad/Crean-microbio-genoma-pequeno-historia_0_1546645662.html
p1
aVhttps://www.clarin.com/sociedad/Crean-microbio-genoma-pequeno-historia_0_1546645662.html
p2
aVhttps://www.clarin.com/sociedad/Youtubers-idolas-imponen-muestran-familiar_0_1546645620.html
p3
aVhttps://www.clarin.com/sociedad/Youtuber-puede-millonario_0_1546645616.html
p4
aVhttps://www.clarin.com/politica/Intervinieron-autopista-Ezeiza-Canuelas-Cristobal-Lopez_0_1546645722.html
p5
aVhttps://www.clarin.com/politica/Intervinieron-autopista-Ezeiza-Canuelas-Cristobal-Lopez_0_1546645722.html
p6
aVhttps://www.clarin.com/politica/necesario-nuevos-organismos-Derechos-Humanos_0_1546645705.html
p7
aVhttps://www.clarin.com/politica/Macri-centrales-Cumbre-Nuclear-EEUU_0_1546645663.html
p8
aVhttps://www.clarin.com/politica/Cristina-recluida-Rio-Gallegos-familia_0_1546645634.html
p9
aVhttps://www.clarin.com/politica/Cristina-recluida-Rio-Gallegos-familia_0_1546645634.html
p10
a.