(lp0
S'https://www.clarin.com/politica/Bromas-tarifas-despues-vasectomia_0_1620438094.html'
p1
aS'https://www.clarin.com/politica/Bromas-tarifas-despues-vasectomia_0_1620438094.html'
p2
aS'https://www.clarin.com/ieco/economia/Venden-Mercado-Libre-empresa-colectivos_0_1620438088.html'
p3
aS'https://www.clarin.com/ieco/economia/Venden-Mercado-Libre-empresa-colectivos_0_1620438088.html'
p4
aS'https://www.clarin.com/politica/monjas-convento-Lopez-tramites-tribunales_0_1620438086.html'
p5
aS'https://www.clarin.com/politica/monjas-convento-Lopez-tramites-tribunales_0_1620438086.html'
p6
aS'https://www.clarin.com/politica/Barrios-Pie-inicia-peregrinacion-Plata_0_1620438085.html'
p7
a.