(lp0
S'https://www.clarin.com/ieco/economia/liquidacion-divisas-alcanzo-US-millones_0_1535846732.html'
p1
aS'https://www.clarin.com/politica/Fondos-acuerdan-Massa-Gobierno-complica_0_1536446463.html'
p2
aS'https://www.clarin.com/sociedad/Doble-Ecuador-permitieron-argentinos-cadaveres_0_1536446458.html'
p3
aS'https://www.clarin.com/politica/Investigan-privilegios-Vialidad-Lazaro-Baez_0_1535846765.html'
p4
aS'https://www.clarin.com/sociedad/Video-Innovadora-prevenir-violencia-mujeres_0_1536446462.html'
p5
aS'https://www.clarin.com/politica/Postergan-vez-anuncio-aumento-gas_0_1535846787.html'
p6
aS'https://www.clarin.com/politica/densas-sombras-todavia-envuelven-pistola_0_1536446397.html'
p7
a.