(lp0
S'https://www.clarin.com/ieco/economia/Funes-Rioja-Precios-Cuidados-retrotraer_0_1498650289.html'
p1
aS'https://www.clarin.com/politica/abogado-hermanos-Lanatta-advirtio-Esperemos_0_1498650282.html'
p2
aS'https://www.clarin.com/politica/abogado-hermanos-Lanatta-advirtio-Esperemos_0_1498650282.html'
p3
aS'https://www.clarin.com/sociedad/patente-argentinos-detenidos-brasil-007-james_bond-sistema-tapar_0_1498650268.html'
p4
aS'https://www.clarin.com/sociedad/patente-argentinos-detenidos-brasil-007-james_bond-sistema-tapar_0_1498650268.html'
p5
aS'https://www.clarin.com/ieco/economia/inflacion-diciembre-acerco-dicen-privados_0_1498650275.html'
p6
aS'https://www.clarin.com/politica/Finalmente-Macri-Massa-Scioli-Davos_0_1498650272.html'
p7
aS'https://www.clarin.com/politica/Finalmente-Macri-Massa-Scioli-Davos_0_1498650272.html'
p8
aS'https://www.clarin.com/politica/Gobierno-oficializo-Miguel-Godoy-telecomunicaciones_0_1498650271.html'
p9
aS'https://www.clarin.com/politica/Gobierno-oficializo-Miguel-Godoy-telecomunicaciones_0_1498650271.html'
p10
aS'https://www.clarin.com/ieco/economia/Impulsan-creditos-indexaran-inflacion_0_1498650270.html'
p11
a.