(lp0
S'https://www.clarin.com/politica/Arzobispo-Papa-Muchas-entiende-Gobierno_0_1657634266.html'
p1
aS'https://www.clarin.com/politica/Arzobispo-Papa-Muchas-entiende-Gobierno_0_1657634266.html'
p2
aS'https://www.clarin.com/ieco/Gobierno-confia-recesion-terminada-trimestre_0_1657634264.html'
p3
aS'https://www.clarin.com/ieco/Gobierno-confia-recesion-terminada-trimestre_0_1657634264.html'
p4
aS'https://www.clarin.com/sociedad/suena-primera-musica-electronica_0_1657634258.html'
p5
aS'https://www.clarin.com/sociedad/suena-primera-musica-electronica_0_1657634258.html'
p6
aS'https://www.clarin.com/sociedad/duerme-distintos-paises-mundo_0_1657634261.html'
p7
aS'https://www.clarin.com/sociedad/duerme-distintos-paises-mundo_0_1657634261.html'
p8
aS'https://www.clarin.com/sociedad/Vecinos-Jachal-San-Juan-petitorio_0_1657634257.html'
p9
aS'https://www.clarin.com/sociedad/Vecinos-Jachal-San-Juan-petitorio_0_1657634257.html'
p10
aS'https://www.clarin.com/ieco/consumo-cae-ventas-Ahora-crecen_0_1657634255.html'
p11
aS'https://www.clarin.com/ieco/consumo-cae-ventas-Ahora-crecen_0_1657634255.html'
p12
a.