(lp0
Vhttps://www.clarin.com/sociedad/responsable-Aprender-hicieron-operacion_0_1671432886.html
p1
aVhttps://www.clarin.com/sociedad/responsable-Aprender-hicieron-operacion_0_1671432886.html
p2
aVhttps://www.clarin.com/politica/carta-envio-titular-Episcopado-dialogo_0_1671432884.html
p3
aVhttps://www.clarin.com/politica/carta-envio-titular-Episcopado-dialogo_0_1671432884.html
p4
aVhttps://www.clarin.com/sociedad/Imputaron-pareja-naturista-termino-grave_0_1671432880.html
p5
aVhttps://www.clarin.com/sociedad/Imputaron-pareja-naturista-termino-grave_0_1671432880.html
p6
aVhttps://www.clarin.com/ieco/UIA-pidio-discutir-bono-sector_0_1671432878.html
p7
aVhttps://www.clarin.com/ieco/UIA-pidio-discutir-bono-sector_0_1671432878.html
p8
aVhttps://www.clarin.com/sociedad/Aprender-Responde-preguntas-ponete-prueba_0_1671432871.html
p9
aVhttps://www.clarin.com/sociedad/Aprender-Responde-preguntas-ponete-prueba_0_1671432871.html
p10
a.