(lp0
Vhttps://www.clarin.com/politica/legisladores-Misiones-alejaron-Frente-Victoria_0_1595840527.html
p1
aVhttps://www.clarin.com/politica/legisladores-Misiones-alejaron-Frente-Victoria_0_1595840527.html
p2
aVhttps://www.clarin.com/politica/Indagatoria-Lopez-Bonafini-Suenos-Compartidos_0_1595840526.html
p3
aVhttps://www.clarin.com/politica/Indagatoria-Lopez-Bonafini-Suenos-Compartidos_0_1595840526.html
p4
aVhttps://www.clarin.com/politica/escandalo-corrupcion-reaparecio-Cristina-militantes_0_1595840525.html
p5
aVhttps://www.clarin.com/politica/escandalo-corrupcion-reaparecio-Cristina-militantes_0_1595840525.html
p6
aVhttps://www.clarin.com/ieco/economia/Primer-IPC-Macri-mayo-inflacion_0_1595840524.html
p7
aVhttps://www.clarin.com/ieco/economia/Primer-IPC-Macri-mayo-inflacion_0_1595840524.html
p8
aVhttps://www.clarin.com/politica/humilde-tucumano-convirtio-funcionario-altanero_0_1595840423.html
p9
aVhttps://www.clarin.com/politica/humilde-tucumano-convirtio-funcionario-altanero_0_1595840423.html
p10
aVhttps://www.clarin.com/politica/condiciones-declarar-dice-abogada-Lopez_0_1595840519.html
p11
aVhttps://www.clarin.com/politica/condiciones-declarar-dice-abogada-Lopez_0_1595840519.html
p12
aVhttps://www.clarin.com/sociedad/Hablo-violada-Tandil-apunto-fiscal_0_1595840514.html
p13
aVhttps://www.clarin.com/sociedad/Hablo-violada-Tandil-apunto-fiscal_0_1595840514.html
p14
aVhttps://www.clarin.com/politica/Florencia-Kirchner-aseguro-utilizada-padres_0_1595840513.html
p15
aVhttps://www.clarin.com/politica/Florencia-Kirchner-aseguro-utilizada-padres_0_1595840513.html
p16
aVhttps://www.clarin.com/politica/Senado-propuso-Macri-completar-Corte_0_1595840511.html
p17
aVhttps://www.clarin.com/politica/Senado-propuso-Macri-completar-Corte_0_1595840511.html
p18
aVhttps://www.clarin.com/sociedad/Murio-Caprio-Lobo-Wall-Street_0_1595840504.html
p19
aVhttps://www.clarin.com/sociedad/Murio-Caprio-Lobo-Wall-Street_0_1595840504.html
p20
a.