(lp0
Vhttps://www.clarin.com/ieco/economia/Cayo-agregado-exportaciones-primer-semestre_0_1626437513.html
p1
aVhttps://www.clarin.com/politica/plenario-CGT-documento-criticas-Gobierno_0_1626437508.html
p2
a.