(lp0
Vhttps://www.clarin.com/ieco/economia/semana-empiezan-pagar-reajustes-jubilados_0_1642635939.html
p1
aVhttps://www.clarin.com/ieco/economia/semana-empiezan-pagar-reajustes-jubilados_0_1642635939.html
p2
aVhttps://www.clarin.com/ieco/economia/Crisis-petrolera-actividad-ayuda-Gobierno_0_1642635819.html
p3
aVhttps://www.clarin.com/ieco/economia/Crisis-petrolera-actividad-ayuda-Gobierno_0_1642635819.html
p4
aVhttps://www.clarin.com/ieco/ANSeS-bancos-arranque-Procrear_0_1642635899.html
p5
aVhttps://www.clarin.com/ieco/ANSeS-bancos-arranque-Procrear_0_1642635899.html
p6
aVhttps://www.clarin.com/politica/Paritarias-segunda-tanda-subas-anual_0_1642635886.html
p7
aVhttps://www.clarin.com/politica/Paritarias-segunda-tanda-subas-anual_0_1642635886.html
p8
aVhttps://www.clarin.com/politica/Macri-Qatar-intercambiar-energia-agroalimentos_0_1642635774.html
p9
aVhttps://www.clarin.com/politica/Macri-Qatar-intercambiar-energia-agroalimentos_0_1642635774.html
p10
aVhttps://www.clarin.com/ieco/economia/Gracias-descuentos-ventas-autos-subieron_0_1642635838.html
p11
aVhttps://www.clarin.com/ieco/economia/Gracias-descuentos-ventas-autos-subieron_0_1642635838.html
p12
aVhttps://www.clarin.com/ieco/Pena-pais-mejor-hace-ano_0_1642635864.html
p13
aVhttps://www.clarin.com/ieco/Pena-pais-mejor-hace-ano_0_1642635864.html
p14
aVhttps://www.clarin.com/ieco/economia/Gobierno-coloco-bonos-millones_0_1642635894.html
p15
aVhttps://www.clarin.com/ieco/economia/Gobierno-coloco-bonos-millones_0_1642635894.html
p16
aVhttps://www.clarin.com/politica/audiencia-publica-podria-tomar-varios_0_1642635888.html
p17
aVhttps://www.clarin.com/politica/audiencia-publica-podria-tomar-varios_0_1642635888.html
p18
aVhttps://www.clarin.com/politica/Gobierno-CGT-reunen-salarios-empleo_0_1642635927.html
p19
aVhttps://www.clarin.com/politica/Gobierno-CGT-reunen-salarios-empleo_0_1642635927.html
p20
aVhttps://www.clarin.com/ieco/economia/funcionarios-CAME-llamo-proteger-industria_0_1642635873.html
p21
aVhttps://www.clarin.com/ieco/economia/funcionarios-CAME-llamo-proteger-industria_0_1642635873.html
p22
a.