(lp0
Vhttps://www.clarin.com/ieco/Ahora-sigue-enero-sumara-juguetes_0_1657034391.html
p1
aVhttps://www.clarin.com/ieco/Ahora-sigue-enero-sumara-juguetes_0_1657034391.html
p2
aVhttps://www.clarin.com/politica/Federico-Pinedo-Macri-gobierno-izquierda_0_1657034387.html
p3
aVhttps://www.clarin.com/politica/Federico-Pinedo-Macri-gobierno-izquierda_0_1657034387.html
p4
aVhttps://www.clarin.com/politica/Macri-Twitter-tonteria-disculpeme-Presidente_0_1657034383.html
p5
aVhttps://www.clarin.com/politica/Macri-Twitter-tonteria-disculpeme-Presidente_0_1657034383.html
p6
aVhttps://www.clarin.com/sociedad/barrio-GBA-alerta-patotas-atacan_0_1657034382.html
p7
aVhttps://www.clarin.com/sociedad/barrio-GBA-alerta-patotas-atacan_0_1657034382.html
p8
aVhttps://www.clarin.com/politica/Rafecas-defender-desempeno-critico-remocion_0_1657034380.html
p9
aVhttps://www.clarin.com/politica/Rafecas-defender-desempeno-critico-remocion_0_1657034380.html
p10
aVhttps://www.clarin.com/politica/Indice-optimsimo-reafirma-indicadores-Gobierno_0_1657034379.html
p11
aVhttps://www.clarin.com/politica/Indice-optimsimo-reafirma-indicadores-Gobierno_0_1657034379.html
p12
a.