(lp0
S'https://www.clarin.com/opinion/hablan-matar-Presidente_0_1630636934.html'
p1
aS'https://www.clarin.com/sociedad/Afirman-chicos-abusado-familiar-anos_0_1630037184.html'
p2
aS'https://www.clarin.com/politica/Corte-altera-nervios-Casa-Rosada_0_1630037173.html'
p3
aS'https://www.clarin.com/politica/empleo-mantiene-precario-problemas_0_1630636935.html'
p4
aS'https://www.clarin.com/opinion/Bibliotecas_0_1630037178.html'
p5
aS'https://www.clarin.com/politica/Lamberto-presidira-AGN-quiero-rueda_0_1630037200.html'
p6
aS'https://www.clarin.com/sociedad/corbatas-oscuro-episodio-dictadura-militar_0_1628837212.html'
p7
aS'https://www.clarin.com/opinion/pantano-tarifas-oportunismo_0_1630636933.html'
p8
aS'https://www.clarin.com/opinion/Tarifas-Macri-sostiene-Aranguren-audiencia_0_1630636936.html'
p9
a.