(lp0
S'https://www.clarin.com/politica/Sarkozy-ESMA-confianza-gobierno-Macri_0_1571842907.html'
p1
aS'https://www.clarin.com/politica/Sarkozy-ESMA-confianza-gobierno-Macri_0_1571842907.html'
p2
aS'https://www.clarin.com/politica/Nancy-Duplaa-Pablo-Echarri-York_0_1571842902.html'
p3
aS'https://www.clarin.com/politica/Nancy-Duplaa-Pablo-Echarri-York_0_1571842902.html'
p4
aS'https://www.clarin.com/ieco/economia/Dicen-aumentos-cayo-venta-naftas_0_1571842899.html'
p5
aS'https://www.clarin.com/ieco/economia/Dicen-aumentos-cayo-venta-naftas_0_1571842899.html'
p6
aS'https://www.clarin.com/ieco/Inundaciones-nafta-ponen-inflacion-mayo_0_1571842894.html'
p7
aS'https://www.clarin.com/ieco/Inundaciones-nafta-ponen-inflacion-mayo_0_1571842894.html'
p8
aS'https://www.clarin.com/sociedad/Investigan-femicidio-Cordoba-cuarto-dias_0_1571842849.html'
p9
aS'https://www.clarin.com/sociedad/Investigan-femicidio-Cordoba-cuarto-dias_0_1571842849.html'
p10
aS'https://www.clarin.com/ieco/economia/paro-petrolero-paraliza-Comodoro-Rivadavia_0_1571842891.html'
p11
aS'https://www.clarin.com/ieco/economia/paro-petrolero-paraliza-Comodoro-Rivadavia_0_1571842891.html'
p12
a.