(lp0
S'https://www.clarin.com/sociedad/bomberos-problemas-camion-encaja-barro_0_1648035198.html'
p1
aS'https://www.clarin.com/sociedad/bomberos-problemas-camion-encaja-barro_0_1648035198.html'
p2
aS'https://www.clarin.com/sociedad/Susto-incendiarse-pasajeros-pudieron-tiempo_0_1648035195.html'
p3
aS'https://www.clarin.com/sociedad/Susto-incendiarse-pasajeros-pudieron-tiempo_0_1648035195.html'
p4
aS'https://www.clarin.com/sociedad/youtubers-consejos-chicos-juegan-filmarse_0_1648035194.html'
p5
aS'https://www.clarin.com/sociedad/youtubers-consejos-chicos-juegan-filmarse_0_1648035194.html'
p6
aS'https://www.clarin.com/sociedad/Mira-control-alcoholemia-puesto-policia_0_1648035190.html'
p7
aS'https://www.clarin.com/sociedad/Mira-control-alcoholemia-puesto-policia_0_1648035190.html'
p8
a.