(lp0
Vhttps://www.clarin.com/ieco/economia/UIA-apoyo-acuerdo-buitres_0_1532846854.html
p1
aVhttps://www.clarin.com/ieco/economia/UIA-apoyo-acuerdo-buitres_0_1532846854.html
p2
aVhttps://www.clarin.com/politica/Stiuso-nombres-luego-Nisman-mataron_0_1532846852.html
p3
aVhttps://www.clarin.com/politica/Stiuso-nombres-luego-Nisman-mataron_0_1532846852.html
p4
aVhttps://www.clarin.com/politica/Tarifazo-Capitanich-estacionar-Resistencia-Capital_0_1532846848.html
p5
aVhttps://www.clarin.com/politica/Tarifazo-Capitanich-estacionar-Resistencia-Capital_0_1532846848.html
p6
aVhttps://www.clarin.com/politica/HMS-Hermes-portaaviones-Malvinas-india_0_1532846844.html
p7
aVhttps://www.clarin.com/politica/HMS-Hermes-portaaviones-Malvinas-india_0_1532846844.html
p8
aVhttps://www.clarin.com/politica/Stiuso-pruebas-directas-Nisman-interpretacion_0_1532846834.html
p9
aVhttps://www.clarin.com/politica/Stiuso-pruebas-directas-Nisman-interpretacion_0_1532846834.html
p10
aVhttps://www.clarin.com/ieco/economia/Pese-fuerte-intervencion-Central-alcanzo_0_1532846828.html
p11
aVhttps://www.clarin.com/politica/Vidal-Scioli-Vamos-denunciar_0_1532846826.html
p12
aVhttps://www.clarin.com/politica/Vidal-Scioli-Vamos-denunciar_0_1532846826.html
p13
aVhttps://www.clarin.com/ieco/economia/Ganancias-promesa-difusa-modificar-escalas_0_1532846825.html
p14
a.