(lp0
S'https://www.clarin.com/sociedad/Acuerdan-reduccion-precio-repelente_0_1512448901.html'
p1
aS'https://www.clarin.com/ieco/economia/Gobierno-empresarios-fuertes-coincidencias_0_1512448892.html'
p2
aS'https://www.clarin.com/ieco/economia/Caen-bolsas-decision-FED-mantener_0_1512448907.html'
p3
aS'https://www.clarin.com/politica/Mauricio_Macri-Mendoza_0_1512448910.html'
p4
a.