(lp0
S'https://www.clarin.com/politica/entero-respuesta-Paenza-presidente-Conicet_0_1582041832.html'
p1
aS'https://www.clarin.com/ieco/paises-vias-desarrollo_0_1582041838.html'
p2
aS'https://www.clarin.com/sociedad/esposo-criticaba-estacionar-mal-vengo_0_1582041822.html'
p3
aS'https://www.clarin.com/sociedad/Rodriguez-Saa-aislado-gripe_0_1582041840.html'
p4
aS'https://www.clarin.com/politica/intendentes-FpV-limitar-reelecciones-indefinidas_0_1582041833.html'
p5
a.