(lp0
Vhttps://www.clarin.com/sociedad/dengue-mosquitos-Capital-casos_importados_0_1508849401.html
p1
aVhttps://www.clarin.com/sociedad/dengue-mosquitos-Capital-casos_importados_0_1508849401.html
p2
aVhttps://www.clarin.com/ieco/Prat_Gay-juicio-holdouts-fondos_buitre_0_1508849421.html
p3
aVhttps://www.clarin.com/ieco/Prat_Gay-juicio-holdouts-fondos_buitre_0_1508849421.html
p4
aVhttps://www.clarin.com/sociedad/dramatico-relato-Alerces-pronto-incontrolable_0_1508849414.html
p5
aVhttps://www.clarin.com/sociedad/dramatico-relato-Alerces-pronto-incontrolable_0_1508849414.html
p6
aVhttps://www.clarin.com/sociedad/barbudas-higienica-resistente-bacterias-afeitadas_0_1508849322.html
p7
aVhttps://www.clarin.com/sociedad/barbudas-higienica-resistente-bacterias-afeitadas_0_1508849322.html
p8
a.