(lp0
S'https://www.clarin.com/sociedad/Demoras-cancelaciones-Aeroparque-Ezeiza-fallas_0_1607239298.html'
p1
aS'https://www.clarin.com/sociedad/Demoras-cancelaciones-Aeroparque-Ezeiza-fallas_0_1607239298.html'
p2
aS'https://www.clarin.com/politica/Carrio-mediacion-Anibal-sentarme-delincuentes_0_1607239305.html'
p3
aS'https://www.clarin.com/politica/Carrio-mediacion-Anibal-sentarme-delincuentes_0_1607239305.html'
p4
aS'https://www.clarin.com/ieco/Arranco-Rosario-prohibicion-supermercados-domingos_0_1607239304.html'
p5
aS'https://www.clarin.com/ieco/Arranco-Rosario-prohibicion-supermercados-domingos_0_1607239304.html'
p6
aS'https://www.clarin.com/politica/insolita-justificacion-abogado-Vido_0_1607239301.html'
p7
aS'https://www.clarin.com/politica/insolita-justificacion-abogado-Vido_0_1607239301.html'
p8
aS'https://www.clarin.com/sociedad/Puede-fallar-magia-termino-manera_0_1607239302.html'
p9
aS'https://www.clarin.com/sociedad/Puede-fallar-magia-termino-manera_0_1607239302.html'
p10
aS'https://www.clarin.com/sociedad/Demoras-cancelaciones-Aeroparque-Ezeiza-fallas_0_1607239300.html'
p11
aS'https://www.clarin.com/sociedad/Demoras-cancelaciones-Aeroparque-Ezeiza-fallas_0_1607239300.html'
p12
aS'https://www.clarin.com/politica/Obras-publicas-auditoria-Cristina-parada_0_1607239297.html'
p13
aS'https://www.clarin.com/politica/Obras-publicas-auditoria-Cristina-parada_0_1607239297.html'
p14
aS'https://www.clarin.com/ieco/Aseguran-inflacion-bajara-segundo-semestre_0_1607239296.html'
p15
aS'https://www.clarin.com/ieco/Aseguran-inflacion-bajara-segundo-semestre_0_1607239296.html'
p16
aS'https://www.clarin.com/politica/Macri-reunio-representantes-Union-Europea_0_1607239292.html'
p17
aS'https://www.clarin.com/politica/Macri-reunio-representantes-Union-Europea_0_1607239292.html'
p18
aS'https://www.clarin.com/politica/Carrio-contentisima-feliz-Papa-Bergoglio_0_1607239291.html'
p19
aS'https://www.clarin.com/politica/Carrio-contentisima-feliz-Papa-Bergoglio_0_1607239291.html'
p20
a.