(lp0
S'https://www.clarin.com/sociedad/Vuelven-casos-dengue-Misiones-suman_0_1570643001.html'
p1
aS'https://www.clarin.com/sociedad/Vuelven-casos-dengue-Misiones-suman_0_1570643001.html'
p2
aS'https://www.clarin.com/politica/Massa-confirmo-numero-respaldo-antidespidos_0_1570642996.html'
p3
aS'https://www.clarin.com/politica/Massa-confirmo-numero-respaldo-antidespidos_0_1570642996.html'
p4
aS'https://www.clarin.com/sociedad/Time-Warp-presunto-vendedores-respondian_0_1570642995.html'
p5
aS'https://www.clarin.com/sociedad/Time-Warp-presunto-vendedores-respondian_0_1570642995.html'
p6
aS'https://www.clarin.com/politica/Villa-Angostura-intendente-vivo-directo_0_1570642993.html'
p7
aS'https://www.clarin.com/politica/Villa-Angostura-intendente-vivo-directo_0_1570642993.html'
p8
aS'https://www.clarin.com/sociedad/Emiratos-Arabes-quieren-construir-artificial_0_1570642967.html'
p9
aS'https://www.clarin.com/sociedad/Emiratos-Arabes-quieren-construir-artificial_0_1570642967.html'
p10
a.