(lp0
Vhttps://www.clarin.com/sociedad/convivencia-clave-mejorar-calidad-educativa_0_1655234579.html
p1
aVhttps://www.clarin.com/sociedad/convivencia-clave-mejorar-calidad-educativa_0_1655234579.html
p2
aVhttps://www.clarin.com/sociedad/burla-problema-trasciende-escuela_0_1655234578.html
p3
aVhttps://www.clarin.com/sociedad/intervencion-adultos-vital-importancia_0_1655234577.html
p4
aVhttps://www.clarin.com/sociedad/conflicto-gremial-Aerolineas-cancelo-vuelos_0_1655234565.html
p5
aVhttps://www.clarin.com/sociedad/conflicto-gremial-Aerolineas-cancelo-vuelos_0_1655234565.html
p6
a.