(lp0
S'https://www.clarin.com/politica/izquierda-marcho-Plaza-Mayo_0_1628837302.html'
p1
aS'https://www.clarin.com/ieco/economia/empresarios-software-ven-buenas-perspectivas_0_1628837289.html'
p2
aS'https://www.clarin.com/ieco/economia/empresarios-software-ven-buenas-perspectivas_0_1628837289.html'
p3
aS'https://www.clarin.com/ieco/economia/empresarios-software-ven-buenas-perspectivas_0_1628837291.html'
p4
aS'https://www.clarin.com/ieco/economia/empresarios-software-ven-buenas-perspectivas_0_1628837291.html'
p5
aS'https://www.clarin.com/politica/Rafecas-Bonadio-denuncia-Nisman-Cristina_0_1628837286.html'
p6
aS'https://www.clarin.com/politica/Rafecas-Bonadio-denuncia-Nisman-Cristina_0_1628837286.html'
p7
aS'https://www.clarin.com/sociedad/anos-prision-acosar-chica-Internet_0_1628837284.html'
p8
aS'https://www.clarin.com/sociedad/Anulan-matrimonio-marido-oculto-gay_0_1628837282.html'
p9
a.