(lp0
S'https://www.clarin.com/ieco/economia/IRSA-ampliar-shopping-Alto-Avellaneda_0_1498650366.html'
p1
aS'https://www.clarin.com/politica/gremio-justicia-frenar-despidos-Senado_0_1498650362.html'
p2
aS'https://www.clarin.com/sociedad/CES-novedades-mayor-feria-tecno_0_1498650376.html'
p3
aS'https://www.clarin.com/sociedad/nuevo-palo-selfie-flexible-ces_0_1498650298.html'
p4
aS'https://www.clarin.com/sociedad/Murio-primer-piloto-Concorde_0_1498650375.html'
p5
aS'https://www.clarin.com/politica/Lazaro-Baez-protestas-Santa-Cruz_0_1498650379.html'
p6
a.