(lp0
S'https://www.clarin.com/sociedad/protesta-normalizo-servicio-linea_0_1528647196.html'
p1
aS'https://www.clarin.com/ieco/economia/Senalan-cumplimiento-Precios-Cuidados-supermercados_0_1528047574.html'
p2
aS'https://www.clarin.com/ieco/economia/macrismo-postergo-discusion-coparticipacion_0_1528647272.html'
p3
aS'https://www.clarin.com/ieco/economia/Nueva-suba-tasas-lebacs_0_1528047637.html'
p4
aS'https://www.clarin.com/politica/colegio-insolita-senadores-asientos-recinto_0_1528647247.html'
p5
aS'https://www.clarin.com/ieco/economia/inflacion-San-Luis-llego-enero_0_1528047410.html'
p6
a.