(lp0
S'https://www.clarin.com/sociedad/afectados-dengue-Misiones_0_1525047852.html'
p1
aS'https://www.clarin.com/sociedad/afectados-dengue-Misiones_0_1525047852.html'
p2
aS'https://www.clarin.com/sociedad/reconocida-periodista-cordobesa-accidente-transito_0_1525047846.html'
p3
aS'https://www.clarin.com/sociedad/reconocida-periodista-cordobesa-accidente-transito_0_1525047846.html'
p4
aS'https://www.clarin.com/sociedad/Aparecio-delfin-murio-Santa-Teresita_0_1525047838.html'
p5
aS'https://www.clarin.com/sociedad/Aparecio-delfin-murio-Santa-Teresita_0_1525047838.html'
p6
aS'https://www.clarin.com/ieco/economia/dolar-sube-centavos-llega_0_1525047734.html'
p7
a.