(lp0
Vhttps://www.clarin.com/politica/Pichetto-vez-preocupado-inmigrantes_0_1625237573.html
p1
aVhttps://www.clarin.com/politica/Pichetto-vez-preocupado-inmigrantes_0_1625237573.html
p2
aVhttps://www.clarin.com/sociedad/Condenaron-sigue-amenazando-secuestraron-dejaron_0_1625237564.html
p3
aVhttps://www.clarin.com/sociedad/Condenaron-sigue-amenazando-secuestraron-dejaron_0_1625237564.html
p4
aVhttps://www.clarin.com/sociedad/implementacion-nueva-cobertura-salud-gradual_0_1625237563.html
p5
aVhttps://www.clarin.com/sociedad/implementacion-nueva-cobertura-salud-gradual_0_1625237563.html
p6
aVhttps://www.clarin.com/politica/ataques-oposicion-Inteligencia-nombrados-Macri_0_1625237557.html
p7
aVhttps://www.clarin.com/politica/ataques-oposicion-Inteligencia-nombrados-Macri_0_1625237557.html
p8
aVhttps://www.clarin.com/sociedad/Unicef-personas-sumaron-Camino-Sol_0_1625237562.html
p9
aVhttps://www.clarin.com/sociedad/Unicef-personas-sumaron-Camino-Sol_0_1625237562.html
p10
a.