(lp0
S'https://www.clarin.com/sociedad/ropa-cara_0_1576642423.html'
p1
aS'https://www.clarin.com/sociedad/ropa-cara_0_1576642423.html'
p2
aS'https://www.clarin.com/politica/Antidespidos-nudo-nadie-desata_0_1576642501.html'
p3
aS'https://www.clarin.com/politica/Antidespidos-nudo-nadie-desata_0_1576642501.html'
p4
aS'https://www.clarin.com/opinion/quiero-discursos_0_1576642477.html'
p5
aS'https://www.clarin.com/opinion/quiero-discursos_0_1576642477.html'
p6
aS'https://www.clarin.com/opinion/Amores-olvidan_0_1576642446.html'
p7
aS'https://www.clarin.com/politica/saliendo-sistema-populista-costos-altos_0_1576642458.html'
p8
aS'https://www.clarin.com/politica/saliendo-sistema-populista-costos-altos_0_1576642458.html'
p9
aS'https://www.clarin.com/sociedad/Primera-mujeres-ofrecen-pagar-cuenta_0_1576642470.html'
p10
aS'https://www.clarin.com/sociedad/Primera-mujeres-ofrecen-pagar-cuenta_0_1576642470.html'
p11
aS'https://www.clarin.com/politica/Bonadio-apuesta-confirmacion-procesamiento-Cristina_0_1576642455.html'
p12
aS'https://www.clarin.com/politica/Bonadio-apuesta-confirmacion-procesamiento-Cristina_0_1576642455.html'
p13
aS'https://www.clarin.com/politica/Farina-desmiente-Lazaro-Baez-Helvetic_0_1576642463.html'
p14
aS'https://www.clarin.com/politica/Farina-desmiente-Lazaro-Baez-Helvetic_0_1576642463.html'
p15
a.