(lp0
S'https://www.clarin.com/sociedad/restaurantes-argentinos-premiados-cartas-vino_0_1607239366.html'
p1
aS'https://www.clarin.com/politica/Repudio-generalizado-ataque-Tiempo-Argentino_0_1607239358.html'
p2
aS'https://www.clarin.com/sociedad/Time-Warp-ordenan-Stinfale-Conci_0_1607239365.html'
p3
a.