(lp0
Vhttps://www.clarin.com/sociedad/Conmovedor-sufre-Alzheimer-canta-vuelve_0_1632436788.html
p1
aVhttps://www.clarin.com/sociedad/Conmovedor-sufre-Alzheimer-canta-vuelve_0_1632436788.html
p2
aVhttps://www.clarin.com/politica/Denuncian-Jose-Lopez-viviendas-terminaron_0_1632436783.html
p3
aVhttps://www.clarin.com/politica/Denuncian-Jose-Lopez-viviendas-terminaron_0_1632436783.html
p4
aVhttps://www.clarin.com/sociedad/Manejaba-borracho-choco-muerto-heridos_0_1632436782.html
p5
aVhttps://www.clarin.com/sociedad/Manejaba-borracho-choco-muerto-heridos_0_1632436782.html
p6
aVhttps://www.clarin.com/politica/Colombi-aumento-Corrientes-pagamos-gente_0_1632436779.html
p7
aVhttps://www.clarin.com/politica/Colombi-aumento-Corrientes-pagamos-gente_0_1632436779.html
p8
aVhttps://www.clarin.com/sociedad/podria-quedar-acusado-mujer-golpes_0_1632436780.html
p9
aVhttps://www.clarin.com/ieco/Malcorra-Argentina-hoy-pais-competititivo_0_1632436776.html
p10
aVhttps://www.clarin.com/ieco/Malcorra-Argentina-hoy-pais-competititivo_0_1632436776.html
p11
aVhttps://www.clarin.com/politica/militantes-Tupac-Amaru-Milagro-Sala_0_1632436772.html
p12
aVhttps://www.clarin.com/politica/militantes-Tupac-Amaru-Milagro-Sala_0_1632436772.html
p13
a.