(lp0
Vhttps://www.clarin.com/politica/Hoy-regresa-Cristina-Sur-Campora_0_1556844315.html
p1
aVhttps://www.clarin.com/politica/Hoy-regresa-Cristina-Sur-Campora_0_1556844315.html
p2
aVhttps://www.clarin.com/politica/Larga-desfile-testigos-offshore-Macri_0_1556244754.html
p3
aVhttps://www.clarin.com/politica/Larga-desfile-testigos-offshore-Macri_0_1556244754.html
p4
aVhttps://www.clarin.com/politica/diputados-empiezan-manana-discutir-arrepentido_0_1556244814.html
p5
aVhttps://www.clarin.com/sociedad/escolar-amenaza-dejar-quiebra-Chascomus_0_1556244818.html
p6
aVhttps://www.clarin.com/sociedad/escolar-amenaza-dejar-quiebra-Chascomus_0_1556244818.html
p7
aVhttps://www.clarin.com/sociedad/pareja-boda-religiosa-primera-Latinoamerica_0_1556244837.html
p8
aVhttps://www.clarin.com/sociedad/pareja-boda-religiosa-primera-Latinoamerica_0_1556244837.html
p9
aVhttps://www.clarin.com/politica/Denuncian-socio-Cristobal-Lopez-casinos_0_1556244798.html
p10
aVhttps://www.clarin.com/politica/lavado-fiscal-denuncio-secretario-Kichner_0_1556244777.html
p11
aVhttps://www.clarin.com/sociedad/bailar-patota-mato-pueblo_0_1556244767.html
p12
aVhttps://www.clarin.com/politica/Contratistas-aportaron-millones-campana-Macri_0_1556244746.html
p13
aVhttps://www.clarin.com/politica/Contratistas-aportaron-millones-campana-Macri_0_1556244746.html
p14
aVhttps://www.clarin.com/politica/Lapices-rosca-sushi_0_1556244740.html
p15
aVhttps://www.clarin.com/politica/Lapices-rosca-sushi_0_1556244740.html
p16
a.