(lp0
Vhttps://www.clarin.com/politica/Viviana-Fein-Nisman-inducido-suicidio_0_1579642036.html
p1
aVhttps://www.clarin.com/politica/Viviana-Fein-Nisman-inducido-suicidio_0_1579642036.html
p2
aVhttps://www.clarin.com/sociedad/Firman-dictamen-feriado-nacional-Guemes_0_1579642035.html
p3
aVhttps://www.clarin.com/sociedad/Firman-dictamen-feriado-nacional-Guemes_0_1579642035.html
p4
aVhttps://www.clarin.com/politica/Bunker-Esmeralda-nueva-peronismo-territorial_0_1579042205.html
p5
aVhttps://www.clarin.com/politica/Bunker-Esmeralda-nueva-peronismo-territorial_0_1579042205.html
p6
aVhttps://www.clarin.com/ieco/Grupo-Supervielle-Bolsa-US-millones_0_1579642033.html
p7
aVhttps://www.clarin.com/ieco/Grupo-Supervielle-Bolsa-US-millones_0_1579642033.html
p8
aVhttps://www.clarin.com/ieco/millones-hogares-pidieron-tarifa-social_0_1579042310.html
p9
aVhttps://www.clarin.com/ieco/millones-hogares-pidieron-tarifa-social_0_1579042310.html
p10
aVhttps://www.clarin.com/ieco/economia/chinos-registran-nuevos-dominios-Internet_0_1578442265.html
p11
aVhttps://www.clarin.com/ieco/economia/FIEL-produccion-industrial-abril-cuatrimestre_0_1579042237.html
p12
aVhttps://www.clarin.com/ieco/economia/FIEL-produccion-industrial-abril-cuatrimestre_0_1579042237.html
p13
aVhttps://www.clarin.com/politica/miedo-veto-paro-general_0_1579042287.html
p14
a.