(lp0
Vhttps://www.clarin.com/politica/Macri-recibe-presidente-Francia_0_1528647468.html
p1
aVhttps://www.clarin.com/politica/Macri-recibe-presidente-Francia_0_1528647468.html
p2
aVhttps://www.clarin.com/sociedad/Millonaria-condena-Johnson-muerte-mujer_0_1528647457.html
p3
aVhttps://www.clarin.com/sociedad/Millonaria-condena-Johnson-muerte-mujer_0_1528647457.html
p4
aVhttps://www.clarin.com/ieco/dolar-baja-centavos_0_1528647388.html
p5
aVhttps://www.clarin.com/sociedad/Juanita-conmovio-Plata-corazon-nuevo_0_1528647453.html
p6
aVhttps://www.clarin.com/sociedad/Juanita-conmovio-Plata-corazon-nuevo_0_1528647453.html
p7
aVhttps://www.clarin.com/politica/San-Luis-Nacion-millones-pesos_0_1528647432.html
p8
aVhttps://www.clarin.com/politica/San-Luis-Nacion-millones-pesos_0_1528647432.html
p9
aVhttps://www.clarin.com/sociedad/Video-emocionante-nacimiento-cesarea-gorila_0_1528647445.html
p10
aVhttps://www.clarin.com/sociedad/Video-emocionante-nacimiento-cesarea-gorila_0_1528647445.html
p11
aVhttps://www.clarin.com/sociedad/Temporal-Salta-cientos-evacuados-capital_0_1528647441.html
p12
a.