(lp0
S'https://www.clarin.com/ieco/Industriales-metalurgicos-advierten-caida-actividad_0_1624637565.html'
p1
aS'https://www.clarin.com/ieco/economia/venta-inmuebles-subio-primer-semestre_0_1624637575.html'
p2
aS'https://www.clarin.com/ieco/Fondo-Conurbano-gobernadores-recursos-coparticipables_0_1624637566.html'
p3
aS'https://www.clarin.com/politica/Macri-sindicalistas-gobernadores-Rosada-fortaleza_0_1624637564.html'
p4
aS'https://www.clarin.com/sociedad/Cocinar-marihuana-invento-gastronomia-canabica_0_1624637562.html'
p5
aS'https://www.clarin.com/sociedad/Manteca-Gobierno-asegura-pymes-cautelosas_0_1624637558.html'
p6
aS'https://www.clarin.com/sociedad/hizo-saltar-paracaidas-metros-aterrizar_0_1624637574.html'
p7
aS'https://www.clarin.com/ieco/Gobierno-Letras-Tesoro-US-millones_0_1624637571.html'
p8
aS'https://www.clarin.com/politica/DAIA-Justicia-denuncia-Nisman-Cristina_0_1624637567.html'
p9
a.