(lp0
S'https://www.clarin.com/sociedad/periodista-paraguayo-Francisco-argentinos-acusados_0_1566443439.html'
p1
aS'https://www.clarin.com/sociedad/Chicos-tucumana-hablaron-astronauta-espacio_0_1566443436.html'
p2
aS'https://www.clarin.com/politica/Escraches-denuncia-represores-agitacion-grieta_0_1566443442.html'
p3
aS'https://www.clarin.com/politica/Imputan-Wado-Pedro-Cristina-exterior_0_1566443440.html'
p4
aS'https://www.clarin.com/politica/Ahora-Austral-Construcciones-Lazaro-Baez_0_1566443438.html'
p5
a.