(lp0
S'https://www.clarin.com/ieco/economia/Argentina-presento-pedido-ratifique-Griesa_0_1544845738.html'
p1
aS'https://www.clarin.com/politica/Debate-Derechos-Humanos-Parque-Memoria_0_1544845731.html'
p2
aS'https://www.clarin.com/sociedad/Ecuador-santuario-marino-tirburones-planeta_0_1544845741.html'
p3
aS'https://www.clarin.com/politica/Kirchneristas-macristas-gobernadores-gala-Obama_0_1544845751.html'
p4
aS'https://www.clarin.com/sociedad/Produjo-corto-pedirle-casamiento-novia_0_1544845761.html'
p5
aS'https://www.clarin.com/sociedad/Rioja-detienen-policia-golpear-amenazar_0_1544845764.html'
p6
aS'https://www.clarin.com/sociedad/Vuelve-Espacio-Clarin-Semana-Santa_0_1544845742.html'
p7
aS'https://www.clarin.com/ieco/economia/millones-hogares-tarifa-social_0_1544845745.html'
p8
aS'https://www.clarin.com/ieco/economia/compras-financiacion-crecieron-febrero_0_1544845749.html'
p9
a.