(lp0
Vhttps://www.clarin.com/politica/Carta-Hebe-Cristina-Madres-presas_0_1549045542.html
p1
aVhttps://www.clarin.com/politica/Carta-Hebe-Cristina-Madres-presas_0_1549045542.html
p2
aVhttps://www.clarin.com/ieco/economia/Imputan-Francisco-Paco-Perez-concesiones_0_1549045513.html
p3
aVhttps://www.clarin.com/sociedad/Vicky-Xipolitakis-juicio-vuelo-escandalo_0_1549045495.html
p4
aVhttps://www.clarin.com/sociedad/Vicky-Xipolitakis-juicio-vuelo-escandalo_0_1549045495.html
p5
a.