(lp0
S'https://www.clarin.com/ieco/tamberos-pueden-llegar-perder-capital_0_1531647094.html'
p1
aS'https://www.clarin.com/sociedad/perfil-intendente-infancia-exito-politico_0_1532846906.html'
p2
aS'https://www.clarin.com/sociedad/perfil-intendente-infancia-exito-politico_0_1532846906.html'
p3
aS'https://www.clarin.com/politica/Fondos-buitre-Gobierno-proyecto-oposicion_0_1532846896.html'
p4
aS'https://www.clarin.com/politica/Fondos-buitre-Gobierno-proyecto-oposicion_0_1532846896.html'
p5
aS'https://www.clarin.com/ieco/Crecen-febrero-importaciones-Brasil_0_1532846891.html'
p6
aS'https://www.clarin.com/ieco/Crecen-febrero-importaciones-Brasil_0_1532846891.html'
p7
aS'https://www.clarin.com/ieco/Fin-sciolista-Samid-Mercado-Central_0_1532846883.html'
p8
aS'https://www.clarin.com/ieco/Fin-sciolista-Samid-Mercado-Central_0_1532846883.html'
p9
aS'https://www.clarin.com/politica/Sorpresa-aparicion-empresas-agricolas-Urribarri_0_1532846858.html'
p10
aS'https://www.clarin.com/politica/Sorpresa-aparicion-empresas-agricolas-Urribarri_0_1532846858.html'
p11
aS'https://www.clarin.com/politica/Vidal-Brancatelli-provincia-Buenos-Aires_0_1532846887.html'
p12
aS'https://www.clarin.com/politica/Vidal-Brancatelli-provincia-Buenos-Aires_0_1532846887.html'
p13
a.