(lp0
S'https://www.clarin.com/politica/Gobernadores-farandula-agasajo-Macri-Obama_0_1545445977.html'
p1
aS'https://www.clarin.com/politica/Gobernadores-farandula-agasajo-Macri-Obama_0_1545445977.html'
p2
aS'https://www.clarin.com/sociedad/Vicky-Xipolitakis-Ottavis-llegaron-inglesa_0_1545445971.html'
p3
a.