(lp0
Vhttps://www.clarin.com/sociedad/Cirugias-esteticas-natural-movida-anti-quirofano_0_1597040434.html
p1
aVhttps://www.clarin.com/sociedad/Cirugias-esteticas-natural-movida-anti-quirofano_0_1597040434.html
p2
aVhttps://www.clarin.com/sociedad/Crece-consumo-tabaco-venta-cigarrillos_0_1597040428.html
p3
aVhttps://www.clarin.com/sociedad/Crece-consumo-tabaco-venta-cigarrillos_0_1597040428.html
p4
aVhttps://www.clarin.com/politica/Martinez-Rojas-Denuncie-Szpolski-amenazas_0_1597040429.html
p5
aVhttps://www.clarin.com/politica/Macri-Salta-volvio-hacerle-PJ_0_1597040424.html
p6
aVhttps://www.clarin.com/politica/Macri-Salta-volvio-hacerle-PJ_0_1597040424.html
p7
aVhttps://www.clarin.com/politica/Vidal-denuncio-Justicia-concejal-trompadas_0_1597040410.html
p8
aVhttps://www.clarin.com/politica/Vidal-denuncio-Justicia-concejal-trompadas_0_1597040410.html
p9
a.