(lp0
Vhttps://www.clarin.com/politica/Subio-patrimonio-funcionarios-ultimo-gestion_0_1584441558.html
p1
aVhttps://www.clarin.com/opinion/Trump-fin-Partido-Republicano_0_1583841751.html
p2
aVhttps://www.clarin.com/opinion/apuesta-Macri-dejar-tormenta_0_1583841798.html
p3
aVhttps://www.clarin.com/opinion/apuesta-Macri-dejar-tormenta_0_1583841798.html
p4
aVhttps://www.clarin.com/opinion/Papa-motoriza-verdadera-cultura-encuentro_0_1583841772.html
p5
aVhttps://www.clarin.com/politica/apuesta-Macri-dejar-tormenta_0_1584441556.html
p6
aVhttps://www.clarin.com/politica/busca-urgente-punto-inflexion_0_1584441555.html
p7
a.