(lp0
S'https://www.clarin.com/sociedad/Recoleta-apunalo-novia-modelo-profugo_0_1679232116.html'
p1
aS'https://www.clarin.com/sociedad/Recoleta-apunalo-novia-modelo-profugo_0_1679232116.html'
p2
aS'https://www.clarin.com/politica/Frigerio-Massa-Messi-Boateng-Macri_0_1679232113.html'
p3
aS'https://www.clarin.com/politica/Frigerio-Massa-Messi-Boateng-Macri_0_1679232113.html'
p4
aS'https://www.clarin.com/sociedad/mayores-misterios-aviacion-cerca-resolverse_0_1679232110.html'
p5
aS'https://www.clarin.com/sociedad/mayores-misterios-aviacion-cerca-resolverse_0_1679232110.html'
p6
aS'https://www.clarin.com/sociedad/time-lapse-NASA-muestra-perdio-Artico_0_1679232111.html'
p7
aS'https://www.clarin.com/sociedad/time-lapse-NASA-muestra-perdio-Artico_0_1679232111.html'
p8
aS'https://www.clarin.com/ieco/reservas-debajo-US-millones-BCRA_0_1679232108.html'
p9
aS'https://www.clarin.com/ieco/reservas-debajo-US-millones-BCRA_0_1679232108.html'
p10
aS'https://www.clarin.com/sociedad/apenas-monto-estafa-millones-abundancia_0_1679232102.html'
p11
aS'https://www.clarin.com/sociedad/apenas-monto-estafa-millones-abundancia_0_1679232102.html'
p12
a.