(lp0
Vhttps://www.clarin.com/sociedad/medico-anos-sale-trabajar-primer_0_1585641521.html
p1
aVhttps://www.clarin.com/politica/Francisco-anuncio-Partido-Paz-Plata_0_1585641518.html
p2
aVhttps://www.clarin.com/politica/Francisco-anuncio-Partido-Paz-Plata_0_1585641518.html
p3
aVhttps://www.clarin.com/politica/Francisco-dijo-cree-clima_0_1585641515.html
p4
aVhttps://www.clarin.com/politica/Francisco-dijo-cree-clima_0_1585641515.html
p5
aVhttps://www.clarin.com/sociedad/alumnos-secundaria-crearon-impresora_0_1585641502.html
p6
aVhttps://www.clarin.com/sociedad/alumnos-secundaria-crearon-impresora_0_1585641502.html
p7
aVhttps://www.clarin.com/sociedad/Feroz-ataque-gorila-anos-Unidos_0_1585641503.html
p8
aVhttps://www.clarin.com/sociedad/Feroz-ataque-gorila-anos-Unidos_0_1585641503.html
p9
a.