(lp0
S'https://www.clarin.com/sociedad/sale-hoy-nafta-Capital-marca_0_1568843127.html'
p1
aS'https://www.clarin.com/sociedad/Fiesta-Rosario-internados-pastillas-marihuana_0_1568843125.html'
p2
aS'https://www.clarin.com/politica/posibilidad-nacional-divide-lideres-sindicales_0_1568843136.html'
p3
aS'https://www.clarin.com/ieco/economia/Sumar-infraestructura-APP_0_1568243327.html'
p4
aS'https://www.clarin.com/politica/Bossio-Twitter-Macri-oficialismo-preocupante_0_1568843142.html'
p5
aS'https://www.clarin.com/ieco/economia/Central-Brasil-fichas-inflacion-fuerte_0_1568243324.html'
p6
aS'https://www.clarin.com/politica/Macri-Gobierno-anterior-desocupacion-estancamiento_0_1568843141.html'
p7
a.