(lp0
Vhttps://www.clarin.com/ieco/economia/Apretarse-cinturon-adelgazar_0_1623437686.html
p1
aVhttps://www.clarin.com/ieco/economia/Apretarse-cinturon-adelgazar_0_1623437686.html
p2
aVhttps://www.clarin.com/ieco/economia/Universidades-estudiantes-organizan-clubes-negocios_0_1623437685.html
p3
aVhttps://www.clarin.com/ieco/economia/Universidades-estudiantes-organizan-clubes-negocios_0_1623437685.html
p4
aVhttps://www.clarin.com/ieco/economia/gana-pelea_0_1623437681.html
p5
aVhttps://www.clarin.com/ieco/economia/gana-pelea_0_1623437681.html
p6
aVhttps://www.clarin.com/ieco/economia/estrategias-empresas-encontrar-personal_0_1623437679.html
p7
aVhttps://www.clarin.com/ieco/economia/estrategias-empresas-encontrar-personal_0_1623437679.html
p8
aVhttps://www.clarin.com/ieco/economia/TIC-demanda-empleados-supera-oferta_0_1623437677.html
p9
aVhttps://www.clarin.com/ieco/economia/TIC-demanda-empleados-supera-oferta_0_1623437677.html
p10
aVhttps://www.clarin.com/ieco/economia/Buscan-afinar-estrategia-Buenos-Aires_0_1623437675.html
p11
aVhttps://www.clarin.com/ieco/economia/Gobierno-consigue-achicar-deficit-fiscal_0_1623437671.html
p12
aVhttps://www.clarin.com/ieco/economia/superavit-record-Alemania_0_1623437670.html
p13
aVhttps://www.clarin.com/ieco/economia/superavit-record-Alemania_0_1623437670.html
p14
aVhttps://www.clarin.com/ieco/economia/Preocupan-Greenspan-precios-demasiado-bonos_0_1623437669.html
p15
aVhttps://www.clarin.com/ieco/economia/Preocupan-Greenspan-precios-demasiado-bonos_0_1623437669.html
p16
aVhttps://www.clarin.com/ieco/economia/petroleo-enfrenta-gran-prueba_0_1623437668.html
p17
a.