(lp0
Vhttps://www.clarin.com/ieco/economia/gala-Colon-compas-Piazzolla_0_1649835006.html
p1
aVhttps://www.clarin.com/ieco/economia/gala-Colon-compas-Piazzolla_0_1649835006.html
p2
aVhttps://www.clarin.com/ieco/economia/reuniones-privadas-encuentros-embajadas-Foro_0_1649835005.html
p3
aVhttps://www.clarin.com/ieco/economia/reuniones-privadas-encuentros-embajadas-Foro_0_1649835005.html
p4
aVhttps://www.clarin.com/opinion/amores-sabor-novela_0_1649835003.html
p5
aVhttps://www.clarin.com/ieco/economia/Veranito-economico_0_1649835002.html
p6
aVhttps://www.clarin.com/politica/juez-grieta_0_1649835001.html
p7
aVhttps://www.clarin.com/politica/Brancatelli-cruzo-Urtubey-Intratables_0_1649235260.html
p8
aVhttps://www.clarin.com/politica/Brancatelli-cruzo-Urtubey-Intratables_0_1649235260.html
p9
aVhttps://www.clarin.com/politica/ministro-Trabajo-reconocio-despidos_0_1649235256.html
p10
aVhttps://www.clarin.com/politica/ministro-Trabajo-reconocio-despidos_0_1649235256.html
p11
aVhttps://www.clarin.com/sociedad/Gigante-metal-encontraron-meteorito-kilos_0_1649235253.html
p12
aVhttps://www.clarin.com/sociedad/Gigante-metal-encontraron-meteorito-kilos_0_1649235253.html
p13
aVhttps://www.clarin.com/sociedad/interaccion-comunidad-mejora-resultados-escolares_0_1649235249.html
p14
aVhttps://www.clarin.com/sociedad/interaccion-comunidad-mejora-resultados-escolares_0_1649235249.html
p15
a.