(lp0
Vhttps://www.clarin.com/politica/confesiones-Oyarbide-perras-toman-champagne_0_1594040681.html
p1
aVhttps://www.clarin.com/politica/confesiones-Oyarbide-perras-toman-champagne_0_1594040681.html
p2
aVhttps://www.clarin.com/politica/sciolista-Cristina-acordar-Maradona-Newells_0_1594040679.html
p3
aVhttps://www.clarin.com/politica/sciolista-Cristina-acordar-Maradona-Newells_0_1594040679.html
p4
aVhttps://www.clarin.com/sociedad/camion-abandonado-volvio-refugio-ladrones_0_1594040676.html
p5
aVhttps://www.clarin.com/sociedad/camion-abandonado-volvio-refugio-ladrones_0_1594040676.html
p6
aVhttps://www.clarin.com/politica/Gobierno-Roma-SIDE-Papa-quiere_0_1594040675.html
p7
aVhttps://www.clarin.com/politica/Gobierno-Roma-SIDE-Papa-quiere_0_1594040675.html
p8
aVhttps://www.clarin.com/politica/Negri-Ejecutivo-buscado-gobernabilidad-massismo_0_1594040669.html
p9
aVhttps://www.clarin.com/politica/Negri-Ejecutivo-buscado-gobernabilidad-massismo_0_1594040669.html
p10
aVhttps://www.clarin.com/politica/medidas-anunciadas-jubilados-repunte-optimismo_0_1594040670.html
p11
aVhttps://www.clarin.com/politica/medidas-anunciadas-jubilados-repunte-optimismo_0_1594040670.html
p12
aVhttps://www.clarin.com/ieco/salto-mieles-exito-fondo-tambor_0_1592840872.html
p13
aVhttps://www.clarin.com/ieco/salto-mieles-exito-fondo-tambor_0_1592840872.html
p14
aVhttps://www.clarin.com/ieco/electricos-preparan-copar-mercado-mundial_0_1592840881.html
p15
aVhttps://www.clarin.com/ieco/electricos-preparan-copar-mercado-mundial_0_1592840881.html
p16
a.