(lp0
Vhttps://www.clarin.com/ieco/economia/Afirman-IVA-canasta-bajaria-pobreza_0_1559244350.html
p1
aVhttps://www.clarin.com/politica/conto-abogado-comprado-Rosadita_0_1559244348.html
p2
aVhttps://www.clarin.com/politica/conto-abogado-comprado-Rosadita_0_1559244348.html
p3
aVhttps://www.clarin.com/politica/Jorge-Chueco_0_1559244336.html
p4
aVhttps://www.clarin.com/politica/Jorge-Chueco_0_1559244336.html
p5
aVhttps://www.clarin.com/politica/armado-dijo-ex-mujer-Chueco_0_1559244337.html
p6
aVhttps://www.clarin.com/politica/armado-dijo-ex-mujer-Chueco_0_1559244337.html
p7
aVhttps://www.clarin.com/politica/esposa-abogado-desaparecido-cree-amenzado_0_1559244328.html
p8
aVhttps://www.clarin.com/politica/esposa-abogado-desaparecido-cree-amenzado_0_1559244328.html
p9
aVhttps://www.clarin.com/sociedad/Banksy-artista-callejero-exposicion-Munich_0_1559244329.html
p10
aVhttps://www.clarin.com/sociedad/Banksy-artista-callejero-exposicion-Munich_0_1559244329.html
p11
aVhttps://www.clarin.com/sociedad/tregua-Santa-Fe-Rios-Chaco_0_1559244324.html
p12
aVhttps://www.clarin.com/sociedad/tregua-Santa-Fe-Rios-Chaco_0_1559244324.html
p13
a.