(lp0
S'https://www.clarin.com/ieco/economia/Dispersion-cifras-inflacion-marzo_0_1553844992.html'
p1
aS'https://www.clarin.com/ieco/economia/Dispersion-cifras-inflacion-marzo_0_1553844992.html'
p2
aS'https://www.clarin.com/ieco/economia/Fiat-anuncio-inversion-US-millones_0_1554444674.html'
p3
aS'https://www.clarin.com/sociedad/Lanzan-sistema-saber-celular-robado_0_1553845047.html'
p4
aS'https://www.clarin.com/ieco/economia/Central-aprovecha-oferta-comprar-dolares_0_1553844990.html'
p5
aS'https://www.clarin.com/politica/panama-papers/documentos-conocidos-informacion-sustraida-ilegalmente_0_1554444592.html'
p6
aS'https://www.clarin.com/politica/panama-papers/documentos-conocidos-informacion-sustraida-ilegalmente_0_1554444592.html'
p7
aS'https://www.clarin.com/politica/Hugo-Alconada-Mon-puntapie-Hotesur_0_1554444583.html'
p8
aS'https://www.clarin.com/politica/Hugo-Alconada-Mon-puntapie-Hotesur_0_1554444583.html'
p9
aS'https://www.clarin.com/sociedad/PAMI-listado-remedios-entrega-gratuita_0_1553845081.html'
p10
aS'https://www.clarin.com/sociedad/Mochilas-causan-problemas-columna-chicos_0_1553845080.html'
p11
aS'https://www.clarin.com/sociedad/Mochilas-causan-problemas-columna-chicos_0_1553845080.html'
p12
aS'https://www.clarin.com/sociedad/diabetes-epidemia-triplico-ultimos-America_0_1553844818.html'
p13
aS'https://www.clarin.com/opinion/Tasas-altas-reactivacion-lista-espera_0_1554444564.html'
p14
a.