(lp0
Vhttps://www.clarin.com/ieco/economia/Basavilbaso-ANSES-empieza-pagar-juicios_0_1604839544.html
p1
aVhttps://www.clarin.com/ieco/economia/Basavilbaso-ANSES-empieza-pagar-juicios_0_1604839544.html
p2
aVhttps://www.clarin.com/politica/Sauces-allanan-gobierno-Santa-Cruz_0_1604839541.html
p3
aVhttps://www.clarin.com/politica/Sauces-allanan-gobierno-Santa-Cruz_0_1604839541.html
p4
aVhttps://www.clarin.com/politica/Hablo-Milagro-Sala-Lopez-robado_0_1604839540.html
p5
aVhttps://www.clarin.com/politica/Hablo-Milagro-Sala-Lopez-robado_0_1604839540.html
p6
aVhttps://www.clarin.com/politica/Procesaron-Lopez-enriquecimiento-embargaron-millones_0_1604839538.html
p7
aVhttps://www.clarin.com/politica/Procesaron-Lopez-enriquecimiento-embargaron-millones_0_1604839538.html
p8
aVhttps://www.clarin.com/sociedad/sonda-Rosetta-terminara-mision-septiembre_0_1604839517.html
p9
aVhttps://www.clarin.com/sociedad/sonda-Rosetta-terminara-mision-septiembre_0_1604839517.html
p10
a.