(lp0
S'https://www.clarin.com/politica/diputados-repudiaron-Lopez-Panama-Papers_0_1595240617.html'
p1
aS'https://www.clarin.com/ieco/economia/dolar-centavos-nivel-enero_0_1595240606.html'
p2
aS'https://www.clarin.com/ieco/economia/Aranguren-salio-defender-compra-Chile_0_1595240611.html'
p3
aS'https://www.clarin.com/sociedad/Subastan-mayor-diamante-siglo_0_1595240608.html'
p4
a.