(lp0
Vhttps://www.clarin.com/opinion/desencanto-amistad-rota_0_1558644493.html
p1
aVhttps://www.clarin.com/sociedad/Casa-investigan-llego-bacteria-Berazategui_0_1558644593.html
p2
aVhttps://www.clarin.com/sociedad/Casa-investigan-llego-bacteria-Berazategui_0_1558644593.html
p3
aVhttps://www.clarin.com/ieco/economia/Balance-oficial-reclamaban-bonistas-llegara_0_1558644561.html
p4
aVhttps://www.clarin.com/ieco/economia/Balance-oficial-reclamaban-bonistas-llegara_0_1558644561.html
p5
aVhttps://www.clarin.com/ieco/economia/inflacion-portena-marzo-toco-interanual_0_1558644560.html
p6
aVhttps://www.clarin.com/ieco/economia/Honda-cierra-fabrica-Florencio-Varela_0_1558644553.html
p7
aVhttps://www.clarin.com/politica/Alfredo-Casero-Cristina-lejos-octubre_0_1558644655.html
p8
aVhttps://www.clarin.com/politica/Alfredo-Casero-Cristina-lejos-octubre_0_1558644655.html
p9
aVhttps://www.clarin.com/politica/Moldes-Despues-Nisman-cualquier-preocupacion_0_1558644645.html
p10
aVhttps://www.clarin.com/politica/Moldes-Despues-Nisman-cualquier-preocupacion_0_1558644645.html
p11
aVhttps://www.clarin.com/sociedad/Vila-Manzano-compraron-Cronista-Comercial_0_1558644637.html
p12
aVhttps://www.clarin.com/sociedad/Corralito-ataques-medios-retorno-Cristina_0_1558644634.html
p13
aVhttps://www.clarin.com/politica/datos-nacionales-inflacion-ano-viene_0_1558644624.html
p14
aVhttps://www.clarin.com/politica/datos-nacionales-inflacion-ano-viene_0_1558644624.html
p15
a.