(lp0
Vhttps://www.clarin.com/politica/Zannini-quiso-escapar-persiguieron-alcanzaron_0_1614438562.html
p1
aVhttps://www.clarin.com/politica/Zannini-quiso-escapar-persiguieron-alcanzaron_0_1614438562.html
p2
a.