(lp0
S'https://www.clarin.com/sociedad/intendente-pueblo-hunde-obras-salvarlo_0_1557444416.html'
p1
aS'https://www.clarin.com/sociedad/intendente-pueblo-hunde-obras-salvarlo_0_1557444416.html'
p2
aS'https://www.clarin.com/politica/Macri-tarifas-duelen-aumentos_0_1557444413.html'
p3
aS'https://www.clarin.com/politica/amenazas-custodia-fiscal-imputo-Cristina_0_1557444408.html'
p4
aS'https://www.clarin.com/politica/amenazas-custodia-fiscal-imputo-Cristina_0_1557444408.html'
p5
aS'https://www.clarin.com/ieco/economia/Deuda-US-millones-totalmente-pagarle_0_1557444405.html'
p6
aS'https://www.clarin.com/ieco/economia/Deuda-US-millones-totalmente-pagarle_0_1557444405.html'
p7
aS'https://www.clarin.com/ieco/economia/Gobierno-pagara-US-millones-petroleras_0_1557444403.html'
p8
aS'https://www.clarin.com/ieco/economia/Gobierno-pagara-US-millones-petroleras_0_1557444403.html'
p9
aS'https://www.clarin.com/politica/Senadores-peronistas-Cristina-causa-dolar_0_1557444399.html'
p10
aS'https://www.clarin.com/politica/Senadores-peronistas-Cristina-causa-dolar_0_1557444399.html'
p11
aS'https://www.clarin.com/politica/Confirman-Bonadio-Cristina-declarar-manana_0_1557444397.html'
p12
aS'https://www.clarin.com/politica/Confirman-Bonadio-Cristina-declarar-manana_0_1557444397.html'
p13
aS'https://www.clarin.com/sociedad/derrumbo-costanera-Parana-San-Lorenzo_0_1557444392.html'
p14
aS'https://www.clarin.com/sociedad/derrumbo-costanera-Parana-San-Lorenzo_0_1557444392.html'
p15
aS'https://www.clarin.com/sociedad/prendio-cuerpo-juzgaran-tentativa-femicidio_0_1557444394.html'
p16
aS'https://www.clarin.com/sociedad/prendio-cuerpo-juzgaran-tentativa-femicidio_0_1557444394.html'
p17
a.