(lp0
Vhttps://www.clarin.com/ieco/Prat-Gay-defendio-gradualismo-recuperacion_0_1615638496.html
p1
aVhttps://www.clarin.com/ieco/Prat-Gay-defendio-gradualismo-recuperacion_0_1615638496.html
p2
aVhttps://www.clarin.com/sociedad/Videos-hace-mascota-casa_0_1615638501.html
p3
aVhttps://www.clarin.com/sociedad/Videos-hace-mascota-casa_0_1615638501.html
p4
aVhttps://www.clarin.com/politica/Nueva-Milagro-Sala-detencion-marido_0_1615638492.html
p5
aVhttps://www.clarin.com/politica/Nueva-Milagro-Sala-detencion-marido_0_1615638492.html
p6
aVhttps://www.clarin.com/politica/Macri-perfil-subio-escenario-discursos_0_1615638493.html
p7
aVhttps://www.clarin.com/politica/Macri-perfil-subio-escenario-discursos_0_1615638493.html
p8
aVhttps://www.clarin.com/ieco/Marcha-Rosario-supermercados-puedan-domingos_0_1615638495.html
p9
aVhttps://www.clarin.com/ieco/Marcha-Rosario-supermercados-puedan-domingos_0_1615638495.html
p10
aVhttps://www.clarin.com/ieco/transportistas-impacto-puertos-Bahia-Blanca_0_1615638489.html
p11
aVhttps://www.clarin.com/ieco/transportistas-impacto-puertos-Bahia-Blanca_0_1615638489.html
p12
a.