(lp0
S'https://www.clarin.com/politica/Giro-Argentina-alianzas-internacionales-climatico_0_1583841739.html'
p1
aS'https://www.clarin.com/politica/Massa-Malena-Galmarini-Vicky-Donda_0_1583841734.html'
p2
aS'https://www.clarin.com/sociedad/Rinas-gallos-animales-preparados-pelear_0_1583841741.html'
p3
a.