(lp0
Vhttps://www.clarin.com/politica/Denuncian-amenazas-gobernador-Gerardo-Morales_0_1583241836.html
p1
aVhttps://www.clarin.com/politica/Denuncian-amenazas-gobernador-Gerardo-Morales_0_1583241836.html
p2
aVhttps://www.clarin.com/politica/Cena-velas-protestar-tarifas_0_1583241830.html
p3
aVhttps://www.clarin.com/politica/Cena-velas-protestar-tarifas_0_1583241830.html
p4
aVhttps://www.clarin.com/politica/Ahora-Carrio-firmas-shore-Lorenzetti_0_1583241829.html
p5
aVhttps://www.clarin.com/politica/Ahora-Carrio-firmas-shore-Lorenzetti_0_1583241829.html
p6
aVhttps://www.clarin.com/sociedad/Denuncio-beba-ahora-acusan-matarla_0_1583241828.html
p7
aVhttps://www.clarin.com/sociedad/Mayo-ferias-artesanias-carreras-sortijas_0_1583241826.html
p8
aVhttps://www.clarin.com/sociedad/Mayo-ferias-artesanias-carreras-sortijas_0_1583241826.html
p9
aVhttps://www.clarin.com/politica/Viajes-contrataciones-gastos-fastuosos-funcionario_0_1583241822.html
p10
aVhttps://www.clarin.com/politica/Viajes-contrataciones-gastos-fastuosos-funcionario_0_1583241822.html
p11
aVhttps://www.clarin.com/politica/Ajustan-paquete-leyes-enviarlo-Congreso_0_1583241824.html
p12
aVhttps://www.clarin.com/politica/Ofrecen-descuento-equivoco-votar-Macri_0_1583241821.html
p13
a.