(lp0
S'https://www.clarin.com/politica/Macri-reintegro-IVA-turistas-extranjeros_0_1658234240.html'
p1
aS'https://www.clarin.com/politica/Macri-reintegro-IVA-turistas-extranjeros_0_1658234240.html'
p2
aS'https://www.clarin.com/sociedad/Video-impactantes-imagenes-cementerio-submarino_0_1658234234.html'
p3
aS'https://www.clarin.com/sociedad/Video-impactantes-imagenes-cementerio-submarino_0_1658234234.html'
p4
aS'https://www.clarin.com/politica/Malcorra-Gobierno-cerca-Hillary-Trump_0_1658234211.html'
p5
aS'https://www.clarin.com/politica/Malcorra-Gobierno-cerca-Hillary-Trump_0_1658234211.html'
p6
a.