(lp0
Vhttps://www.clarin.com/sociedad/Preocupacion-Salta-fiebre-Ckikungunya_0_1532847098.html
p1
aVhttps://www.clarin.com/sociedad/Investigan-intendente-pidio-crimen-esposa_0_1532847094.html
p2
aVhttps://www.clarin.com/sociedad/Investigan-intendente-pidio-crimen-esposa_0_1532847094.html
p3
aVhttps://www.clarin.com/sociedad/Aparecio-mochilera-desaparecida-Bolivia_0_1532847095.html
p4
aVhttps://www.clarin.com/sociedad/Aparecio-mochilera-desaparecida-Bolivia_0_1532847095.html
p5
a.