(lp0
S'https://www.clarin.com/politica/creo-confluir-alianza-peronismo_0_1652234895.html'
p1
aS'https://www.clarin.com/politica/creo-confluir-alianza-peronismo_0_1652234895.html'
p2
aS'https://www.clarin.com/politica/Caballo-Suarez-barco-dentro-estancia_0_1651634988.html'
p3
aS'https://www.clarin.com/politica/Caballo-Suarez-barco-dentro-estancia_0_1651634988.html'
p4
aS'https://www.clarin.com/politica/Samid-empresarios-Lazaro-Baez-robando_0_1652234885.html'
p5
aS'https://www.clarin.com/politica/Samid-empresarios-Lazaro-Baez-robando_0_1652234885.html'
p6
aS'https://www.clarin.com/politica/Segundo-audiencia-vigilancia-turistas-sorprendidos_0_1652234881.html'
p7
aS'https://www.clarin.com/politica/Segundo-audiencia-vigilancia-turistas-sorprendidos_0_1652234881.html'
p8
a.