(lp0
S'https://www.clarin.com/sociedad/ve-puede-reconocer-aves-sonidos_0_1592840789.html'
p1
aS'https://www.clarin.com/ieco/economia/Aguinaldo-eximidos-pagar-Ganancias_0_1592840810.html'
p2
aS'https://www.clarin.com/sociedad/Macri-anuncio-fiestas-region-Julio_0_1592840808.html'
p3
aS'https://www.clarin.com/ieco/economia/japones-planea-propia-moneda-virtual_0_1592840800.html'
p4
aS'https://www.clarin.com/politica/Detectan-irregularidades-bienes-declarados-Boudou_0_1592840798.html'
p5
aS'https://www.clarin.com/ieco/economia/Licitan-nuevas-Letras-dolares-proxima_0_1592840820.html'
p6
a.