(lp0
S'https://www.clarin.com/ieco/economia/Fallo-Corte-Nueva-York-pagarles_0_1558044428.html'
p1
aS'https://www.clarin.com/ieco/economia/Fallo-Corte-Nueva-York-pagarles_0_1558044428.html'
p2
aS'https://www.clarin.com/ieco/economia/automotrices-lanzan-rebajas-apuntalar-ventas_0_1558044398.html'
p3
aS'https://www.clarin.com/ieco/economia/automotrices-lanzan-rebajas-apuntalar-ventas_0_1558044398.html'
p4
aS'https://www.clarin.com/ieco/economia/Gobierno-pone-lupa-importaciones-Brasil_0_1558644264.html'
p5
aS'https://www.clarin.com/ieco/economia/Agricultura-desarticula-cobro-soja-transgenica_0_1558644258.html'
p6
aS'https://www.clarin.com/ieco/economia/Prat-Gay-festejo-buitres-viernes_0_1558044476.html'
p7
aS'https://www.clarin.com/ieco/economia/Prat-Gay-festejo-buitres-viernes_0_1558044476.html'
p8
aS'https://www.clarin.com/ieco/economia/Entusiasmo-Wall-Street-emision-deuda_0_1558644248.html'
p9
aS'https://www.clarin.com/ieco/economia/recuperan-oficinas-suben-alquileres-demanda_0_1558044511.html'
p10
a.