(lp0
S'https://www.clarin.com/sociedad/dramatico-relato-Alerces-pronto-incontrolable_0_1508849414.html'
p1
aS'https://www.clarin.com/sociedad/dengue-mosquitos-Capital-casos_importados_0_1508849401.html'
p2
aS'https://www.clarin.com/sociedad/barbudas-higienica-resistente-bacterias-afeitadas_0_1508849322.html'
p3
aS'https://www.clarin.com/ieco/Prat_Gay-juicio-holdouts-fondos_buitre_0_1508849421.html'
p4
a.