(lp0
S'https://www.clarin.com/ieco/economia/contabilidad-creativa-deficit-subio-semestre_0_1618038330.html'
p1
aS'https://www.clarin.com/politica/Gremios-unificador-CGT-reclaman-espacios_0_1618038331.html'
p2
a.