(lp0
Vhttps://www.clarin.com/politica/Vido-Gobierno-explico-faltazo-Diputados_0_1633036804.html
p1
aVhttps://www.clarin.com/politica/Vido-Gobierno-explico-faltazo-Diputados_0_1633036804.html
p2
aVhttps://www.clarin.com/politica/Milagro-Sala-levanto-pedido-familia_0_1633036794.html
p3
aVhttps://www.clarin.com/politica/Milagro-Sala-levanto-pedido-familia_0_1633036794.html
p4
a.