(lp0
S'https://www.clarin.com/politica/Desestiman-Cristina-Kirchner-Stolbizer-Magnetto_0_1639036116.html'
p1
aS'https://www.clarin.com/politica/Desestiman-Cristina-Kirchner-Stolbizer-Magnetto_0_1639036116.html'
p2
aS'https://www.clarin.com/sociedad/yanqui-hizo-famoso-analizando-argentinos_0_1639036115.html'
p3
aS'https://www.clarin.com/sociedad/yanqui-hizo-famoso-analizando-argentinos_0_1639036115.html'
p4
aS'https://www.clarin.com/politica/Gobierno-San-Juan-Consejo-PRO_0_1639036110.html'
p5
aS'https://www.clarin.com/politica/Gobierno-San-Juan-Consejo-PRO_0_1639036110.html'
p6
aS'https://www.clarin.com/sociedad/Manana-cielo-dara-espectaculo-repetira_0_1639036109.html'
p7
aS'https://www.clarin.com/sociedad/Manana-cielo-dara-espectaculo-repetira_0_1639036109.html'
p8
aS'https://www.clarin.com/sociedad/imagenes-ataca-zika-cerebro-bebes_0_1638436204.html'
p9
aS'https://www.clarin.com/sociedad/imagenes-ataca-zika-cerebro-bebes_0_1638436204.html'
p10
aS'https://www.clarin.com/ieco/Concertacion-gremialismo-quiere-primero-estabilidad_0_1639036105.html'
p11
a.