(lp0
S'https://www.clarin.com/politica/dura-respuesta-titular-PAMI-Cristina_0_1681631959.html'
p1
aS'https://www.clarin.com/politica/dura-respuesta-titular-PAMI-Cristina_0_1681631959.html'
p2
aS'https://www.clarin.com/sociedad/embarazada-quedo-salvo-tren-mato_0_1681631950.html'
p3
aS'https://www.clarin.com/sociedad/embarazada-quedo-salvo-tren-mato_0_1681631950.html'
p4
aS'https://www.clarin.com/sociedad/Turismo-nocturno-Tigre-duplico-oferta_0_1680432058.html'
p5
aS'https://www.clarin.com/sociedad/Turismo-nocturno-Tigre-duplico-oferta_0_1680432058.html'
p6
a.