(lp0
S'https://www.clarin.com/politica/Diputados-amplio-respaldo-aporte-kirchneristas_0_1541246386.html'
p1
aS'https://www.clarin.com/politica/esposo-Iliana-Calabro-contaba-millones_0_1541246358.html'
p2
aS'https://www.clarin.com/politica/ADEPA-Vidal-llamo-verdad-dificil_0_1541246362.html'
p3
aS'https://www.clarin.com/politica/Gobernadores-PJ-factor-clave-Senado_0_1541246402.html'
p4
aS'https://www.clarin.com/politica/Corrupcion-padres-hijos_0_1541246355.html'
p5
aS'https://www.clarin.com/politica/Buitres-arranco-Senado-votarse-semanas_0_1541845803.html'
p6
aS'https://www.clarin.com/opinion/abordaje-infancia_0_1541246302.html'
p7
a.