(lp0
Vhttps://www.clarin.com/sociedad/clases-alumnos-dejen-mirar-celular_0_1523847908.html
p1
aVhttps://www.clarin.com/sociedad/clases-alumnos-dejen-mirar-celular_0_1523847908.html
p2
aVhttps://www.clarin.com/politica/pregunta-Intratables-Guillermo-Moreno-respuestas_0_1523847886.html
p3
aVhttps://www.clarin.com/politica/pregunta-Intratables-Guillermo-Moreno-respuestas_0_1523847886.html
p4
aVhttps://www.clarin.com/sociedad/Volvio-escuchar-despues-invento-argentino_0_1523847879.html
p5
aVhttps://www.clarin.com/sociedad/Volvio-escuchar-despues-invento-argentino_0_1523847879.html
p6
a.