(lp0
S'https://www.clarin.com/ieco/AFIP-impidiendo-facturar-informaron-operaciones_0_1540046199.html'
p1
aS'https://www.clarin.com/ieco/AFIP-impidiendo-facturar-informaron-operaciones_0_1540046199.html'
p2
aS'https://www.clarin.com/politica/presentaron-denuncias-Cristobal-Lopez_0_1540046155.html'
p3
aS'https://www.clarin.com/politica/presentaron-denuncias-Cristobal-Lopez_0_1540046155.html'
p4
aS'https://www.clarin.com/politica/Fondos-Justicialista-ratifico-quorum-Diputados_0_1540046182.html'
p5
aS'https://www.clarin.com/politica/Fondos-Justicialista-ratifico-quorum-Diputados_0_1540046182.html'
p6
aS'https://www.clarin.com/sociedad/conto-Indio-Solari-sufre-Parkinson_0_1540046179.html'
p7
aS'https://www.clarin.com/sociedad/conto-Indio-Solari-sufre-Parkinson_0_1540046179.html'
p8
aS'https://www.clarin.com/ieco/Ordenan-YPF-divulgue-clausulas-Chevron_0_1540046177.html'
p9
aS'https://www.clarin.com/ieco/Ordenan-YPF-divulgue-clausulas-Chevron_0_1540046177.html'
p10
aS'https://www.clarin.com/sociedad/joven-asesinada-punaladas-frente-hospital_0_1540046171.html'
p11
aS'https://www.clarin.com/sociedad/joven-asesinada-punaladas-frente-hospital_0_1540046171.html'
p12
a.