(lp0
Vhttps://www.clarin.com/politica/Gobierno-Brasil-construccion-empleo-reaccionar_0_1615638424.html
p1
aVhttps://www.clarin.com/opinion/anos-atentado-AMIA-dolor-reclamo_0_1615038528.html
p2
aVhttps://www.clarin.com/opinion/Razones-exploto-tarifazo-gas_0_1615038527.html
p3
aVhttps://www.clarin.com/opinion/Razones-exploto-tarifazo-gas_0_1615038527.html
p4
aVhttps://www.clarin.com/sociedad/caballos-artesanal-desafiaron-invierno-Rural_0_1615038557.html
p5
aVhttps://www.clarin.com/sociedad/caballos-artesanal-desafiaron-invierno-Rural_0_1615038557.html
p6
aVhttps://www.clarin.com/sociedad/Ayer-frio-minimas-seguiran-bajas_0_1615038555.html
p7
aVhttps://www.clarin.com/sociedad/Ayer-frio-minimas-seguiran-bajas_0_1615038555.html
p8
aVhttps://www.clarin.com/sociedad/Asado-tinto-criollo-agasajar-refugiada_0_1615038561.html
p9
aVhttps://www.clarin.com/sociedad/Asado-tinto-criollo-agasajar-refugiada_0_1615038561.html
p10
aVhttps://www.clarin.com/ieco/economia/dia-despues-blanqueo-pagar-impuestos_0_1615038578.html
p11
aVhttps://www.clarin.com/politica/padre-despedidos-mismo-metalurgicos-fletero_0_1615038584.html
p12
aVhttps://www.clarin.com/politica/Gobierno-Brasil-construccion-empleo-reaccionar_0_1615038582.html
p13
aVhttps://www.clarin.com/politica/Macri-Bourne-Chaqueno-Salta_0_1615038580.html
p14
aVhttps://www.clarin.com/politica/problematica-vuelve-reaviva-pelea-politica_0_1615038586.html
p15
aVhttps://www.clarin.com/politica/control-danos-domina-politica_0_1615638423.html
p16
aVhttps://www.clarin.com/politica/Escape-gas-palabras_0_1615638422.html
p17
a.