(lp0
Vhttps://www.clarin.com/politica/Milagro-calabozo-lleva-huelga-hambre_0_1505249787.html
p1
aVhttps://www.clarin.com/politica/Milagro-calabozo-lleva-huelga-hambre_0_1505249787.html
p2
aVhttps://www.clarin.com/politica/Milagro_Sala-Gerardo_Morales_0_1505249777.html
p3
aVhttps://www.clarin.com/politica/Protesta-Capital-liberen-Milagro-Sala_0_1505249781.html
p4
aVhttps://www.clarin.com/politica/Protesta-Capital-liberen-Milagro-Sala_0_1505249781.html
p5
aVhttps://www.clarin.com/sociedad/tragedia-uruguay-familia_0_1505249782.html
p6
aVhttps://www.clarin.com/sociedad/tragedia-uruguay-familia_0_1505249782.html
p7
aVhttps://www.clarin.com/sociedad/Kate-Moss-cumple-anos_0_1505249742.html
p8
a.