(lp0
Vhttps://www.clarin.com/sociedad/Ataques-repiten-pitbulls-hirieron-gravedad_0_1679232130.html
p1
aVhttps://www.clarin.com/sociedad/Ataques-repiten-pitbulls-hirieron-gravedad_0_1679232130.html
p2
aVhttps://www.clarin.com/sociedad/autodescubrimiento-termino-perdido-natural-Malasia_0_1679232124.html
p3
aVhttps://www.clarin.com/sociedad/autodescubrimiento-termino-perdido-natural-Malasia_0_1679232124.html
p4
aVhttps://www.clarin.com/ieco/economia/Bolsa-inversores-buscan-companias-pequenas_0_1679232119.html
p5
aVhttps://www.clarin.com/ieco/economia/Bolsa-inversores-buscan-companias-pequenas_0_1679232119.html
p6
aVhttps://www.clarin.com/politica/ministro-Macri-defendio-senadores-diputados_0_1679232118.html
p7
aVhttps://www.clarin.com/politica/ministro-Macri-defendio-senadores-diputados_0_1679232118.html
p8
a.