(lp0
Vhttps://www.clarin.com/politica/Macri_presidente-gremios-paritarias_0_1519048433.html
p1
aVhttps://www.clarin.com/politica/Macri_presidente-gremios-paritarias_0_1519048433.html
p2
aVhttps://www.clarin.com/sociedad/Quemaron-viva-hija-nego-casarse_0_1519048377.html
p3
aVhttps://www.clarin.com/sociedad/Quemaron-viva-hija-nego-casarse_0_1519048377.html
p4
a.