(lp0
S'https://www.clarin.com/politica/Macri-hace-estudios-rodilla-operada_0_1638436153.html'
p1
aS'https://www.clarin.com/politica/Macri-hace-estudios-rodilla-operada_0_1638436153.html'
p2
aS'https://www.clarin.com/ieco/economia/premiaron-Rosada-pide-dolar-caro_0_1637236467.html'
p3
aS'https://www.clarin.com/ieco/economia/premiaron-Rosada-pide-dolar-caro_0_1637236467.html'
p4
aS'https://www.clarin.com/ieco/economia/primer-semestre-economia-agudizo-recesion_0_1637836370.html'
p5
aS'https://www.clarin.com/politica/Gobierno-regula-distribucion-publicidad-oficial_0_1637836313.html'
p6
aS'https://www.clarin.com/politica/Gobierno-regula-distribucion-publicidad-oficial_0_1637836313.html'
p7
aS'https://www.clarin.com/ieco/economia/Inmobiliarias-preven-suba-propiedades_0_1637836363.html'
p8
aS'https://www.clarin.com/ieco/economia/Inmobiliarias-preven-suba-propiedades_0_1637836363.html'
p9
aS'https://www.clarin.com/politica/Tarifas-Gobierno-gremios-oposicion-propuestas_0_1637836403.html'
p10
aS'https://www.clarin.com/ieco/economia/Condicionan-reajustes-jubilados-fondos-ANSeS_0_1637836400.html'
p11
aS'https://www.clarin.com/ieco/economia/Condicionan-reajustes-jubilados-fondos-ANSeS_0_1637836400.html'
p12
a.