(lp0
Vhttps://www.clarin.com/politica/Maximo-heredero-durisima-Stolbizer-Kirchner_0_1640236059.html
p1
aVhttps://www.clarin.com/politica/Maximo-heredero-durisima-Stolbizer-Kirchner_0_1640236059.html
p2
aVhttps://www.clarin.com/sociedad/crian-Australia-canguro-perdio-mama_0_1640236054.html
p3
aVhttps://www.clarin.com/sociedad/crian-Australia-canguro-perdio-mama_0_1640236054.html
p4
aVhttps://www.clarin.com/politica/Mendiguren-importante-paridad-genero-politica_0_1640236053.html
p5
aVhttps://www.clarin.com/politica/Mendiguren-importante-paridad-genero-politica_0_1640236053.html
p6
aVhttps://www.clarin.com/politica/Indice-optimismo-tendencia-Gobierno-Macri_0_1640236052.html
p7
aVhttps://www.clarin.com/politica/Indice-optimismo-tendencia-Gobierno-Macri_0_1640236052.html
p8
aVhttps://www.clarin.com/politica/Urtubey-grupos-interesados-Gobierno-caiga_0_1640236051.html
p9
aVhttps://www.clarin.com/politica/Urtubey-grupos-interesados-Gobierno-caiga_0_1640236051.html
p10
aVhttps://www.clarin.com/ieco/economia/revancha-bonos-ajustables-CER_0_1640236043.html
p11
aVhttps://www.clarin.com/ieco/economia/revancha-bonos-ajustables-CER_0_1640236043.html
p12
aVhttps://www.clarin.com/ieco/economia/Diseno-autor-muebles_0_1640236021.html
p13
aVhttps://www.clarin.com/ieco/economia/Diseno-autor-muebles_0_1640236021.html
p14
aVhttps://www.clarin.com/sociedad/Femicidio-Comodoro-Rivadavia-martillazos-pareja_0_1640236048.html
p15
a.