(lp0
Vhttps://www.clarin.com/sociedad/Plataforma-maritima-territorio-recursos-pesqueros_0_1549045438.html
p1
aVhttps://www.clarin.com/sociedad/Plataforma-maritima-territorio-recursos-pesqueros_0_1549045438.html
p2
aVhttps://www.clarin.com/sociedad/Mil-cuatrocientos-evacuados-Santa-Fe_0_1549045436.html
p3
aVhttps://www.clarin.com/sociedad/Mil-cuatrocientos-evacuados-Santa-Fe_0_1549045436.html
p4
aVhttps://www.clarin.com/politica/Isabel-Macedo-primera-gobierno-Urtubey_0_1549045415.html
p5
aVhttps://www.clarin.com/politica/Isabel-Macedo-primera-gobierno-Urtubey_0_1549045415.html
p6
a.