(lp0
S'https://www.clarin.com/politica/Baez-Perez-Gadin-pidieron-excarcelados_0_1553844909.html'
p1
aS'https://www.clarin.com/politica/Panama-Papers-oposicion-Grindetti-Lanus_0_1553844916.html'
p2
aS'https://www.clarin.com/politica/Dolar-Cristina-todavia-abogado-defensor_0_1553844941.html'
p3
aS'https://www.clarin.com/sociedad/Nacional-Buenos-Aires-movilizan-expulsiva_0_1553844907.html'
p4
aS'https://www.clarin.com/sociedad/tercer-muerto-choque-lanchas-Delta_0_1553844914.html'
p5
aS'https://www.clarin.com/politica/noticia-Baez-informo-diario-metian_0_1553844846.html'
p6
a.