(lp0
S'https://www.clarin.com/ieco/AFIP-Participaciones-Societarias-Minima-Presunta_0_1574842564.html'
p1
aS'https://www.clarin.com/ieco/economia/Espana-levanto-trabas-biodiesel-argentino_0_1574842560.html'
p2
aS'https://www.clarin.com/ieco/economia/Espana-levanto-trabas-biodiesel-argentino_0_1574842560.html'
p3
aS'https://www.clarin.com/sociedad/Mira-videos-exitosos-Web_0_1574842549.html'
p4
aS'https://www.clarin.com/sociedad/Mira-videos-exitosos-Web_0_1574842549.html'
p5
aS'https://www.clarin.com/ieco/economia/empresarios-Marcos-Pena-pidio-confianza_0_1574842558.html'
p6
aS'https://www.clarin.com/ieco/economia/empresarios-Marcos-Pena-pidio-confianza_0_1574842558.html'
p7
aS'https://www.clarin.com/ieco/economia/Cabrera-buena-idea-comprometa-despedir_0_1574842557.html'
p8
aS'https://www.clarin.com/ieco/economia/Cabrera-buena-idea-comprometa-despedir_0_1574842557.html'
p9
aS'https://www.clarin.com/politica/Fergola-operador-oculto-denunciado-justicia_0_1574842542.html'
p10
aS'https://www.clarin.com/politica/Fergola-operador-oculto-denunciado-justicia_0_1574842542.html'
p11
aS'https://www.clarin.com/ieco/Macri-trabajos-generan-casualidad_0_1574842554.html'
p12
aS'https://www.clarin.com/politica/Massa-tablero-diferencio-llevar-empujones_0_1574842552.html'
p13
aS'https://www.clarin.com/politica/Massa-tablero-diferencio-llevar-empujones_0_1574842552.html'
p14
aS'https://www.clarin.com/sociedad/Bullrich-falso-universidades-puedan-pagar_0_1574842550.html'
p15
aS'https://www.clarin.com/sociedad/Bullrich-falso-universidades-puedan-pagar_0_1574842550.html'
p16
aS'https://www.clarin.com/ieco/claves-medidas-pymes_0_1574842548.html'
p17
aS'https://www.clarin.com/ieco/claves-medidas-pymes_0_1574842548.html'
p18
a.