(lp0
Vhttps://www.clarin.com/sociedad/Carpooling-compartir-auto-viajes-largos_0_1543046066.html
p1
aVhttps://www.clarin.com/sociedad/Carpooling-compartir-auto-viajes-largos_0_1543046066.html
p2
aVhttps://www.clarin.com/politica/Pichetto-necesaria-aumentode-precios-desproporcionado_0_1543046081.html
p3
aVhttps://www.clarin.com/politica/Pichetto-necesaria-aumentode-precios-desproporcionado_0_1543046081.html
p4
aVhttps://www.clarin.com/politica/Massa-laburante-esperando-equilibren-balanza_0_1543645630.html
p5
aVhttps://www.clarin.com/politica/Massa-laburante-esperando-equilibren-balanza_0_1543645630.html
p6
aVhttps://www.clarin.com/opinion/Cuba-espera-hoy-Obama_0_1543046070.html
p7
aVhttps://www.clarin.com/opinion/Cuba-espera-hoy-Obama_0_1543046070.html
p8
aVhttps://www.clarin.com/sociedad/Rutas-Argentinas-revelan-pesimo_0_1543046089.html
p9
aVhttps://www.clarin.com/sociedad/Rutas-Argentinas-revelan-pesimo_0_1543046089.html
p10
aVhttps://www.clarin.com/politica/Cristobal-Lopez-embargos-pedido-AFIP_0_1543046029.html
p11
aVhttps://www.clarin.com/politica/Cristobal-Lopez-embargos-pedido-AFIP_0_1543046029.html
p12
aVhttps://www.clarin.com/politica/Elaskar-custodia-podria-declarar_0_1543046074.html
p13
aVhttps://www.clarin.com/politica/inhibicion-Gobierno-pedido-embargar-Baez_0_1543046075.html
p14
aVhttps://www.clarin.com/politica/inhibicion-Gobierno-pedido-embargar-Baez_0_1543046075.html
p15
aVhttps://www.clarin.com/opinion/Obstinadamente-quedo-aca_0_1543046060.html
p16
aVhttps://www.clarin.com/opinion/Obstinadamente-quedo-aca_0_1543046060.html
p17
aVhttps://www.clarin.com/politica/vi_0_1543046073.html
p18
a.