(lp0
S'https://www.clarin.com/ieco/Empeoran-previsiones-recuperacion-Brasil_0_1687031349.html'
p1
aS'https://www.clarin.com/ieco/Empeoran-previsiones-recuperacion-Brasil_0_1687031349.html'
p2
aS'https://www.clarin.com/sociedad/ano-romper-record-historico-calor_0_1687031348.html'
p3
aS'https://www.clarin.com/sociedad/ano-romper-record-historico-calor_0_1687031348.html'
p4
aS'https://www.clarin.com/politica/Mujeres-PRO-Vidal-Michetti-ranking_0_1687031336.html'
p5
aS'https://www.clarin.com/politica/Mujeres-PRO-Vidal-Michetti-ranking_0_1687031336.html'
p6
aS'https://www.clarin.com/sociedad/SUPERLUNAlas-mejores-fotos-alrededor-mundo_0_1687031299.html'
p7
aS'https://www.clarin.com/politica/cumbia-locutora-militante_0_1687031339.html'
p8
aS'https://www.clarin.com/politica/cumbia-locutora-militante_0_1687031339.html'
p9
a.