(lp0
S'https://www.clarin.com/politica/Plan-Qunita-Manzur-Anibal-Fernandez_0_1603039769.html'
p1
aS'https://www.clarin.com/politica/Justicia-determinar-Lopez-escapar-avion_0_1603039779.html'
p2
aS'https://www.clarin.com/politica/Ocana-Casanello-quiere-llegar-verdad_0_1603039766.html'
p3
aS'https://www.clarin.com/politica/Sobreseen-Sabbatella-empleados-Nuevo-Encuentro_0_1603039765.html'
p4
a.