(lp0
S'https://www.clarin.com/ieco/Vale-retoma-proyecto-Rio-Colorado_0_1650435101.html'
p1
aS'https://www.clarin.com/politica/Cristina-critico-Davos-hablo-hambre_0_1650435128.html'
p2
aS'https://www.clarin.com/politica/Investigan-faraonico-proyecto-Caballo-Suarez_0_1650435130.html'
p3
aS'https://www.clarin.com/politica/Poder-Judicial-quiere-inflacion-presupuesto_0_1651034898.html'
p4
aS'https://www.clarin.com/ieco/economia/Ganancias-buscan-consensuar-proyecto-gobernadores_0_1650435137.html'
p5
a.