(lp0
Vhttps://www.clarin.com/sociedad/volo-Europa-EEUU-paises-vecinos_0_1651035077.html
p1
aVhttps://www.clarin.com/sociedad/volo-Europa-EEUU-paises-vecinos_0_1651035077.html
p2
aVhttps://www.clarin.com/politica/Gils-Carbo-oxigeno-politico-agosto_0_1651035071.html
p3
aVhttps://www.clarin.com/politica/Gils-Carbo-oxigeno-politico-agosto_0_1651035071.html
p4
aVhttps://www.clarin.com/sociedad/Gobierno-telefonicas-prohibido-TV-satelital_0_1651035068.html
p5
aVhttps://www.clarin.com/sociedad/Gobierno-telefonicas-prohibido-TV-satelital_0_1651035068.html
p6
aVhttps://www.clarin.com/politica/Macri-debuta-ONU-pesca-inversores_0_1651035040.html
p7
aVhttps://www.clarin.com/politica/Macri-debuta-ONU-pesca-inversores_0_1651035040.html
p8
a.