(lp0
S'https://www.clarin.com/politica/Massa-Stolbizer-hablaron-imputacion-Cristina_0_1555644748.html'
p1
aS'https://www.clarin.com/politica/Massa-Stolbizer-hablaron-imputacion-Cristina_0_1555644748.html'
p2
aS'https://www.clarin.com/sociedad/dia-lluvias-complica-inundados-Litoral_0_1555644738.html'
p3
aS'https://www.clarin.com/sociedad/dia-lluvias-complica-inundados-Litoral_0_1555644738.html'
p4
aS'https://www.clarin.com/politica/Cristina-recibio-noticia-recluida-Calafate_0_1555644735.html'
p5
aS'https://www.clarin.com/politica/Cristina-recibio-noticia-recluida-Calafate_0_1555644735.html'
p6
aS'https://www.clarin.com/politica/imputacion-implica-sospechas-fundadas-fiscal_0_1555644699.html'
p7
aS'https://www.clarin.com/politica/imputacion-implica-sospechas-fundadas-fiscal_0_1555644699.html'
p8
aS'https://www.clarin.com/politica/Lazaro-Baez-Cristina-negocios-millonarios_0_1555644689.html'
p9
aS'https://www.clarin.com/politica/Lazaro-Baez-Cristina-negocios-millonarios_0_1555644689.html'
p10
a.