(lp0
S'https://www.clarin.com/ieco/economia/jornada-bancario-dolar-retrocedio-centavos_0_1558644447.html'
p1
aS'https://www.clarin.com/sociedad/Tasmania-venden-pueblo-millones-dolares_0_1558644455.html'
p2
aS'https://www.clarin.com/sociedad/Tasmania-venden-pueblo-millones-dolares_0_1558644455.html'
p3
aS'https://www.clarin.com/politica/Decision-Camara-Federal-Jaime-seguira_0_1558644444.html'
p4
aS'https://www.clarin.com/politica/Decision-Camara-Federal-Jaime-seguira_0_1558644444.html'
p5
a.