(lp0
S'https://www.clarin.com/politica/Acuerdos-comercio-China-Macri-Mercosur_0_1672032846.html'
p1
aS'https://www.clarin.com/politica/Acuerdos-comercio-China-Macri-Mercosur_0_1672032846.html'
p2
aS'https://www.clarin.com/politica/Alicia-Kirchner-Zannini-Kicillof-endeudarse_0_1670233104.html'
p3
aS'https://www.clarin.com/politica/Alicia-Kirchner-Zannini-Kicillof-endeudarse_0_1670233104.html'
p4
aS'https://www.clarin.com/sociedad/MiercolesNegro-chica-quemada-pareja-Tucuman_0_1672032847.html'
p5
aS'https://www.clarin.com/politica/Ernesto-Sanz-reaparecio-chica-Macri_0_1672032843.html'
p6
aS'https://www.clarin.com/politica/Ernesto-Sanz-reaparecio-chica-Macri_0_1672032843.html'
p7
aS'https://www.clarin.com/politica/terrible-historia-Macri-interrumpio-TN_0_1672032842.html'
p8
aS'https://www.clarin.com/politica/terrible-historia-Macri-interrumpio-TN_0_1672032842.html'
p9
aS'https://www.clarin.com/ieco/actividad-industrial-cayo-septiembre_0_1672032835.html'
p10
aS'https://www.clarin.com/ieco/actividad-industrial-cayo-septiembre_0_1672032835.html'
p11
a.