(lp0
S'https://www.clarin.com/sociedad/poste-alta-tension-cayo-casa_0_1649235189.html'
p1
aS'https://www.clarin.com/sociedad/poste-alta-tension-cayo-casa_0_1649235189.html'
p2
aS'https://www.clarin.com/politica/Acuerdo-Macri-Lifschitz-Santa-Fe_0_1649235187.html'
p3
aS'https://www.clarin.com/politica/Acuerdo-Macri-Lifschitz-Santa-Fe_0_1649235187.html'
p4
aS'https://www.clarin.com/politica/Gobierno-ambientalista-moderar-audiencia-publica_0_1649235186.html'
p5
aS'https://www.clarin.com/politica/Gobierno-ambientalista-moderar-audiencia-publica_0_1649235186.html'
p6
aS'https://www.clarin.com/ieco/economia/Nuevo-record-publicas-licitadas-agosto_0_1649235182.html'
p7
aS'https://www.clarin.com/ieco/economia/Nuevo-record-publicas-licitadas-agosto_0_1649235182.html'
p8
a.