(lp0
S'https://www.clarin.com/politica/Malvinas-sobrevolo-visita-Macri-Papa_0_1669033100.html'
p1
aS'https://www.clarin.com/politica/Malvinas-sobrevolo-visita-Macri-Papa_0_1669033100.html'
p2
aS'https://www.clarin.com/politica/Alejandro-Marmo-simboliza-Francisco-Macri_0_1669033095.html'
p3
aS'https://www.clarin.com/politica/Alejandro-Marmo-simboliza-Francisco-Macri_0_1669033095.html'
p4
aS'https://www.clarin.com/sociedad/golpeado-Liceo-recibio-Apenas-estudiar_0_1669033094.html'
p5
aS'https://www.clarin.com/sociedad/golpeado-Liceo-recibio-Apenas-estudiar_0_1669033094.html'
p6
aS'https://www.clarin.com/politica/Elogios-Eugenia-Vidal-Carolina-Stanley_0_1669033093.html'
p7
aS'https://www.clarin.com/politica/Elogios-Eugenia-Vidal-Carolina-Stanley_0_1669033093.html'
p8
aS'https://www.clarin.com/politica/cuestionario-llevo-Antonia-papa-Francisco_0_1669033091.html'
p9
aS'https://www.clarin.com/politica/cuestionario-llevo-Antonia-papa-Francisco_0_1669033091.html'
p10
aS'https://www.clarin.com/politica/Macri-Roma-optimismo-encuentro-Papa_0_1669033087.html'
p11
aS'https://www.clarin.com/politica/Macri-Roma-optimismo-encuentro-Papa_0_1669033087.html'
p12
a.