(lp0
S'https://www.clarin.com/politica/Oyarbide-nego-influencias-Angelici-renuncia_0_1667833346.html'
p1
aS'https://www.clarin.com/politica/Oyarbide-nego-influencias-Angelici-renuncia_0_1667833346.html'
p2
aS'https://www.clarin.com/sociedad/acto-escolar-alumnos-terminaron-internados_0_1667833342.html'
p3
aS'https://www.clarin.com/sociedad/acto-escolar-alumnos-terminaron-internados_0_1667833342.html'
p4
aS'https://www.clarin.com/politica/Denuncian-Julio-Vido-irregularidades-Planificacion_0_1667833323.html'
p5
aS'https://www.clarin.com/politica/Denuncian-Julio-Vido-irregularidades-Planificacion_0_1667833323.html'
p6
aS'https://www.clarin.com/sociedad/Acusan-chofer-colectivos-femicidio-pareja_0_1667833340.html'
p7
aS'https://www.clarin.com/sociedad/Acusan-chofer-colectivos-femicidio-pareja_0_1667833340.html'
p8
aS'https://www.clarin.com/politica/Dejaron-Maria-Eugenia-Vidal-Martin_0_1667833339.html'
p9
aS'https://www.clarin.com/politica/Dejaron-Maria-Eugenia-Vidal-Martin_0_1667833339.html'
p10
aS'https://www.clarin.com/ieco/coloquioidea/Gobierno-empresarios-mesa-dialogo-sindicatos_0_1667833258.html'
p11
aS'https://www.clarin.com/ieco/coloquioidea/Gobierno-empresarios-mesa-dialogo-sindicatos_0_1667833258.html'
p12
aS'https://www.clarin.com/sociedad/Giro-inesperado-empresario-involucrado-femicidio_0_1667833335.html'
p13
aS'https://www.clarin.com/sociedad/Giro-inesperado-empresario-involucrado-femicidio_0_1667833335.html'
p14
a.