(lp0
S'https://www.clarin.com/sociedad/Femicidio-Moron-acusado-aranado-suicidar_0_1535846736.html'
p1
aS'https://www.clarin.com/politica/Apoyo-economistas-ley-salir-default_0_1535846720.html'
p2
aS'https://www.clarin.com/sociedad/Rosario-extras-consideradas-cuota-alimentaria_0_1535846716.html'
p3
aS'https://www.clarin.com/sociedad/Juliana-Awada-revista-Vogue-Espana_0_1535846714.html'
p4
a.