(lp0
S'https://www.clarin.com/politica/Casanello-adelanto-Lazaro-Baez-juicio_0_1581441854.html'
p1
aS'https://www.clarin.com/politica/Casanello-adelanto-Lazaro-Baez-juicio_0_1581441854.html'
p2
aS'https://www.clarin.com/sociedad/Mama-cajera-comercio-entro-boxing_0_1581441853.html'
p3
aS'https://www.clarin.com/sociedad/Mama-cajera-comercio-entro-boxing_0_1581441853.html'
p4
aS'https://www.clarin.com/sociedad/pesadilla-rugbiers-argentinos-Brasil_0_1580242129.html'
p5
aS'https://www.clarin.com/sociedad/pesadilla-rugbiers-argentinos-Brasil_0_1580242129.html'
p6
aS'https://www.clarin.com/politica/Macri-oposicion-Prefieren-aferrarse-pasado_0_1581441850.html'
p7
aS'https://www.clarin.com/politica/Macri-oposicion-Prefieren-aferrarse-pasado_0_1581441850.html'
p8
a.