(lp0
Vhttps://www.clarin.com/sociedad/Cruces-Pepe-Cibrian-Samid-exterior_0_1518448379.html
p1
aVhttps://www.clarin.com/sociedad/Cruces-Pepe-Cibrian-Samid-exterior_0_1518448379.html
p2
aVhttps://www.clarin.com/politica/Scioli-esfuerzos-mantener-unidad-PJ_0_1518448375.html
p3
aVhttps://www.clarin.com/politica/Scioli-esfuerzos-mantener-unidad-PJ_0_1518448375.html
p4
aVhttps://www.clarin.com/ieco/economia/Moda-italiana-argentinos_0_1518448323.html
p5
aVhttps://www.clarin.com/ieco/economia/Moda-italiana-argentinos_0_1518448323.html
p6
aVhttps://www.clarin.com/sociedad/Di-Caprio-turistico-Tierra-Fuego_0_1517848561.html
p7
aVhttps://www.clarin.com/politica/prueba-acida-aguarda-Macri_0_1518448224.html
p8
a.