(lp0
S'https://www.clarin.com/ieco/Luego-INDEC-difundir-indices-pobreza_0_1658834133.html'
p1
aS'https://www.clarin.com/ieco/Luego-INDEC-difundir-indices-pobreza_0_1658834133.html'
p2
aS'https://www.clarin.com/ieco/economia/lebacs_0_1658234355.html'
p3
aS'https://www.clarin.com/ieco/FMI-cierra-mision-reuniendose-Prat-Gay_0_1658834130.html'
p4
aS'https://www.clarin.com/ieco/FMI-cierra-mision-reuniendose-Prat-Gay_0_1658834130.html'
p5
aS'https://www.clarin.com/politica/Milani-Nisman-conocia-sabia_0_1658834127.html'
p6
aS'https://www.clarin.com/politica/Milani-Nisman-conocia-sabia_0_1658834127.html'
p7
aS'https://www.clarin.com/politica/Interna-Nisman-desratizar-Poder-Judicial_0_1658834125.html'
p8
aS'https://www.clarin.com/politica/Interna-Nisman-desratizar-Poder-Judicial_0_1658834125.html'
p9
aS'https://www.clarin.com/politica/asamblea-protesta-afectada-atencion-bancos_0_1658834123.html'
p10
aS'https://www.clarin.com/politica/asamblea-protesta-afectada-atencion-bancos_0_1658834123.html'
p11
a.