(lp0
Vhttps://www.clarin.com/ieco/economia/logro-entender-logica-confrontacion-sindicatos_0_1643235809.html
p1
aVhttps://www.clarin.com/ieco/economia/logro-entender-logica-confrontacion-sindicatos_0_1643235809.html
p2
aVhttps://www.clarin.com/ieco/Suben-multas-controles-abusos-telemarketing_0_1643235806.html
p3
aVhttps://www.clarin.com/ieco/Suben-multas-controles-abusos-telemarketing_0_1643235806.html
p4
aVhttps://www.clarin.com/politica/Avanza-investigacion-argentina-escandalo-FIFA_0_1644435546.html
p5
aVhttps://www.clarin.com/opinion/Cristina-Dilma-derrotada_0_1644435545.html
p6
aVhttps://www.clarin.com/opinion/educacion-tema-politica-mayor_0_1643835729.html
p7
aVhttps://www.clarin.com/opinion/sistemas-educativos-mejor-calidad-igualdad_0_1643835732.html
p8
aVhttps://www.clarin.com/opinion/sistemas-educativos-mejor-calidad-igualdad_0_1643835732.html
p9
aVhttps://www.clarin.com/opinion/Opciones-claras-mejor-democracia_0_1643835728.html
p10
aVhttps://www.clarin.com/opinion/Domingo-Perez-crack-retiro_0_1643835735.html
p11
aVhttps://www.clarin.com/opinion/Domingo-Perez-crack-retiro_0_1643835735.html
p12
aVhttps://www.clarin.com/opinion/Voto-electronico-contramano-mundo_0_1643835727.html
p13
aVhttps://www.clarin.com/opinion/Norte-Sur-Ciudad-grieta_0_1644435544.html
p14
aVhttps://www.clarin.com/opinion/Justicia-sigue-enterrando-Nisman_0_1644435543.html
p15
aVhttps://www.clarin.com/ieco/economia/tuits-economicos-semana_0_1643235827.html
p16
aVhttps://www.clarin.com/ieco/economia/empleados-prefieren-creibles-honestos-justos_0_1643235828.html
p17
aVhttps://www.clarin.com/ieco/economia/empleados-prefieren-creibles-honestos-justos_0_1643235828.html
p18
a.