(lp0
Vhttps://www.clarin.com/politica/Caso-Lopez-Cristina-Laly-Esposito_0_1596440396.html
p1
aVhttps://www.clarin.com/politica/Caso-Lopez-Cristina-Laly-Esposito_0_1596440396.html
p2
aVhttps://www.clarin.com/politica/Nuevo-llamado-OEA-negociar-Malvinas_0_1596440395.html
p3
aVhttps://www.clarin.com/politica/Nuevo-llamado-OEA-negociar-Malvinas_0_1596440395.html
p4
aVhttps://www.clarin.com/politica/gobernador-adelanto-declarar-Fundacion-Madres_0_1596440393.html
p5
aVhttps://www.clarin.com/politica/gobernador-adelanto-declarar-Fundacion-Madres_0_1596440393.html
p6
aVhttps://www.clarin.com/ieco/economia/actividad-economica-Brasil-sigue-caida_0_1596440388.html
p7
aVhttps://www.clarin.com/ieco/economia/actividad-economica-Brasil-sigue-caida_0_1596440388.html
p8
aVhttps://www.clarin.com/sociedad/mayoria-comercios-ventas-Dia-Padre_0_1596440386.html
p9
aVhttps://www.clarin.com/sociedad/mayoria-comercios-ventas-Dia-Padre_0_1596440386.html
p10
aVhttps://www.clarin.com/politica/Jose-Lopez-compensado-despacho-Rafecas_0_1596440383.html
p11
aVhttps://www.clarin.com/politica/Jose-Lopez-compensado-despacho-Rafecas_0_1596440383.html
p12
aVhttps://www.clarin.com/sociedad/Prohiben-conocido-desinfectante-contaminado-insecticida_0_1596440381.html
p13
aVhttps://www.clarin.com/sociedad/Prohiben-conocido-desinfectante-contaminado-insecticida_0_1596440381.html
p14
a.