(lp0
Vhttps://www.clarin.com/politica/Avanza-limitar-Gils-Carbo-mandato_0_1670833025.html
p1
aVhttps://www.clarin.com/politica/Avanza-limitar-Gils-Carbo-mandato_0_1670833025.html
p2
aVhttps://www.clarin.com/ieco/personas-activas-problemas-empleo_0_1670833023.html
p3
aVhttps://www.clarin.com/politica/Massa-Pichetto-acordaron-condiciones-Presupuesto_0_1670833011.html
p4
aVhttps://www.clarin.com/politica/OA-pide-embargo-mansion-Milani_0_1670833018.html
p5
aVhttps://www.clarin.com/politica/OA-pide-embargo-mansion-Milani_0_1670833018.html
p6
a.