(lp0
S'https://www.clarin.com/sociedad/Preventiva-banda-neonazis_0_1543045988.html'
p1
aS'https://www.clarin.com/politica/diputado-presento-video-ofrecen-matarlo_0_1543045994.html'
p2
aS'https://www.clarin.com/sociedad/Hombre-mujer-moda-importa_0_1543045976.html'
p3
a.