(lp0
S'https://www.clarin.com/sociedad/crian-Australia-canguro-perdio-mama_0_1640236054.html'
p1
aS'https://www.clarin.com/politica/Mendiguren-importante-paridad-genero-politica_0_1640236053.html'
p2
aS'https://www.clarin.com/politica/Urtubey-grupos-interesados-Gobierno-caiga_0_1640236051.html'
p3
aS'https://www.clarin.com/politica/Indice-optimismo-tendencia-Gobierno-Macri_0_1640236052.html'
p4
aS'https://www.clarin.com/ieco/economia/revancha-bonos-ajustables-CER_0_1640236043.html'
p5
aS'https://www.clarin.com/politica/Maximo-heredero-durisima-Stolbizer-Kirchner_0_1640236059.html'
p6
aS'https://www.clarin.com/ieco/economia/Diseno-autor-muebles_0_1640236021.html'
p7
aS'https://www.clarin.com/sociedad/Femicidio-Comodoro-Rivadavia-martillazos-pareja_0_1640236048.html'
p8
a.