(lp0
Vhttps://www.clarin.com/politica/Stolbizer-contesto-Cristina-Prefiero-acusen_0_1610839009.html
p1
aVhttps://www.clarin.com/politica/Stolbizer-contesto-Cristina-Prefiero-acusen_0_1610839009.html
p2
aVhttps://www.clarin.com/ieco/economia/Extienden-Ahora-celulares-linea-blanca_0_1610839007.html
p3
aVhttps://www.clarin.com/ieco/economia/compromiso-politico-vamos-lucha-pobreza_0_1610839005.html
p4
aVhttps://www.clarin.com/ieco/economia/compromiso-politico-vamos-lucha-pobreza_0_1610839005.html
p5
aVhttps://www.clarin.com/ieco/economia/venta-autos-usados-junio-semestre_0_1610839002.html
p6
aVhttps://www.clarin.com/ieco/economia/venta-autos-usados-junio-semestre_0_1610839002.html
p7
aVhttps://www.clarin.com/ieco/economia/millon-turistas-viajo-feriado-ventas_0_1610838992.html
p8
aVhttps://www.clarin.com/ieco/economia/millon-turistas-viajo-feriado-ventas_0_1610838992.html
p9
a.