(lp0
S'https://www.clarin.com/opinion/Drogas-consumo-noche_0_1573042788.html'
p1
aS'https://www.clarin.com/politica/Moyano-CGT-candidato-presidir-AFA_0_1573042829.html'
p2
aS'https://www.clarin.com/ieco/comunicado-reaviva-tension-Gobierno-Monsanto_0_1573042801.html'
p3
aS'https://www.clarin.com/politica/Macri-admitio-dificil-economia-herencia_0_1573042837.html'
p4
aS'https://www.clarin.com/ieco/devaluacion-reavivan-exportaciones-agro_0_1573042804.html'
p5
aS'https://www.clarin.com/politica/Michetti-llego-Seul-busca-inversiones_0_1573042810.html'
p6
aS'https://www.clarin.com/opinion/Capar-monos-simios_0_1573642621.html'
p7
aS'https://www.clarin.com/opinion/democracias-cuarta-ola_0_1573042791.html'
p8
aS'https://www.clarin.com/politica/estigma-cambio-rumbo-minutos_0_1573642622.html'
p9
aS'https://www.clarin.com/politica/Triaca-comparo-proyecto-antidespidos-kirchnerismo_0_1573042762.html'
p10
aS'https://www.clarin.com/opinion/Revalorizar-educacion-superior-universitaria_0_1573042789.html'
p11
a.