(lp0
Vhttps://www.clarin.com/politica/Diego_Bossio-Bloque_Justicialista-Congreso-peronismo-diputados-FPV_0_1523247754.html
p1
aVhttps://www.clarin.com/politica/Diego_Bossio-Bloque_Justicialista-Congreso-peronismo-diputados-FPV_0_1523247754.html
p2
aVhttps://www.clarin.com/politica/Alicia-Kirchner-Rosada-millones-discriminan_0_1522648092.html
p3
aVhttps://www.clarin.com/politica/Alicia-Kirchner-Rosada-millones-discriminan_0_1522648092.html
p4
aVhttps://www.clarin.com/ieco/economia/bein-devaluacion_0_1522648185.html
p5
aVhttps://www.clarin.com/ieco/economia/bein-devaluacion_0_1522648185.html
p6
aVhttps://www.clarin.com/sociedad/extrano-quemado-siente-Capital-GBA_0_1523247732.html
p7
aVhttps://www.clarin.com/sociedad/extrano-quemado-sintio-Capital-GBA_0_1523247731.html
p8
aVhttps://www.clarin.com/ieco/economia/campo-gondola-precios-multiplican_0_1523247714.html
p9
aVhttps://www.clarin.com/ieco/economia/campo-gondola-precios-multiplican_0_1523247714.html
p10
aVhttps://www.clarin.com/opinion/vinculos-expresion_0_1523247693.html
p11
aVhttps://www.clarin.com/opinion/tarifas_electricas-subsidios_0_1523247687.html
p12
a.