(lp0
S'https://www.clarin.com/ieco/Asignacion-Universal-Hijo-universal_0_1565243488.html'
p1
aS'https://www.clarin.com/politica/conveniente-Cristina-candidata-Chino-Navarro_0_1565243481.html'
p2
aS'https://www.clarin.com/politica/massismo-Macri-antidespidos-gobierno-anterior_0_1565243482.html'
p3
aS'https://www.clarin.com/sociedad/Burlando-fiscal-Buen-funcionario-conoce_0_1565243486.html'
p4
aS'https://www.clarin.com/sociedad/mama-internados-imagine-podia-pasar_0_1565243489.html'
p5
aS'https://www.clarin.com/politica/Gerardo-Morales-funcionarios-Fellner-retiraban_0_1565243491.html'
p6
a.