(lp0
Vhttps://www.clarin.com/ieco/Gobierno-adelanta-costo-fiscal-millones_0_1588041386.html
p1
aVhttps://www.clarin.com/sociedad/camiseta-oficial-Argentina-aumento-ultimo_0_1588041384.html
p2
aVhttps://www.clarin.com/sociedad/camiseta-oficial-Argentina-aumento-ultimo_0_1588041384.html
p3
aVhttps://www.clarin.com/sociedad/cordobeses-exterior-juntan-alentar-Seleccion_0_1588041375.html
p4
aVhttps://www.clarin.com/sociedad/cordobeses-exterior-juntan-alentar-Seleccion_0_1588041375.html
p5
aVhttps://www.clarin.com/politica/Paris-Prat-Gay-presencia-argentina-OCDE_0_1588041376.html
p6
aVhttps://www.clarin.com/politica/Paris-Prat-Gay-presencia-argentina-OCDE_0_1588041376.html
p7
a.