(lp0
S'https://www.clarin.com/ieco/economia/Piden-derogar-Santa-Cruz-facturas_0_1533447138.html'
p1
aS'https://www.clarin.com/sociedad/Miles-personas-Justicia-mendocinas-asesinadas_0_1533447109.html'
p2
aS'https://www.clarin.com/sociedad/Miles-personas-Justicia-mendocinas-asesinadas_0_1533447109.html'
p3
aS'https://www.clarin.com/ieco/economia/Piden-derogar-Santa-Cruz-facturas_0_1533447096.html'
p4
aS'https://www.clarin.com/ieco/economia/Piden-derogar-Santa-Cruz-facturas_0_1533447096.html'
p5
aS'https://www.clarin.com/ieco/economia/YPF-ganancias-caen-contestan-deuda_0_1533447091.html'
p6
aS'https://www.clarin.com/ieco/economia/YPF-ganancias-caen-contestan-deuda_0_1533447091.html'
p7
aS'https://www.clarin.com/ieco/economia/Aprobaron-Telecom-Fintech-Nextel-Cablevision_0_1533447090.html'
p8
aS'https://www.clarin.com/ieco/economia/Aprobaron-Telecom-Fintech-Nextel-Cablevision_0_1533447090.html'
p9
a.