(lp0
Vhttps://www.clarin.com/sociedad/Suspenden-clases-escuelas-Chubut-contaminada_0_1566443496.html
p1
aVhttps://www.clarin.com/sociedad/Suspenden-clases-escuelas-Chubut-contaminada_0_1566443496.html
p2
aVhttps://www.clarin.com/politica/Cruces-Senado-antidespidos-media-sancion_0_1566443497.html
p3
aVhttps://www.clarin.com/politica/Cruces-Senado-antidespidos-media-sancion_0_1566443497.html
p4
a.