(lp0
S'https://www.clarin.com/politica/detenidos-contacto-trasladados-fuerzas-federales_0_1502249992.html'
p1
aS'https://www.clarin.com/politica/armas-municiones-dolares_0_1502249985.html'
p2
aS'https://www.clarin.com/sociedad/hamburguesa-calorias-grasa-big_mac-australia-nutricion-salud_0_1502249970.html'
p3
aS'https://www.clarin.com/ieco/economia/exportadores-cerealeros-ingresaron-US-millones_0_1502249972.html'
p4
aS'https://www.clarin.com/sociedad/hombre-quedo-golpeado-boliche-Plata_0_1502250013.html'
p5
a.