(lp0
S'https://www.clarin.com/sociedad/responsable-Aprender-hicieron-operacion_0_1671432886.html'
p1
aS'https://www.clarin.com/sociedad/responsable-Aprender-hicieron-operacion_0_1671432886.html'
p2
aS'https://www.clarin.com/politica/carta-envio-titular-Episcopado-dialogo_0_1671432884.html'
p3
aS'https://www.clarin.com/politica/carta-envio-titular-Episcopado-dialogo_0_1671432884.html'
p4
aS'https://www.clarin.com/sociedad/Imputaron-pareja-naturista-termino-grave_0_1671432880.html'
p5
aS'https://www.clarin.com/sociedad/Imputaron-pareja-naturista-termino-grave_0_1671432880.html'
p6
aS'https://www.clarin.com/ieco/UIA-pidio-discutir-bono-sector_0_1671432878.html'
p7
aS'https://www.clarin.com/ieco/UIA-pidio-discutir-bono-sector_0_1671432878.html'
p8
aS'https://www.clarin.com/sociedad/Aprender-Responde-preguntas-ponete-prueba_0_1671432871.html'
p9
aS'https://www.clarin.com/sociedad/Aprender-Responde-preguntas-ponete-prueba_0_1671432871.html'
p10
a.