(lp0
S'https://www.clarin.com/sociedad/limosna-pobres_0_1660634048.html'
p1
aS'https://www.clarin.com/ieco/Podremos-alcanzar-nivel-pais-desarrollado_0_1660634046.html'
p2
aS'https://www.clarin.com/ieco/mercado-eligio-deficit-Macri-llegue_0_1660634047.html'
p3
a.