(lp0
S'https://www.clarin.com/politica/Defensa-Casanello-bienes-Baez-Ejercito_0_1582041897.html'
p1
aS'https://www.clarin.com/politica/Defensa-Casanello-bienes-Baez-Ejercito_0_1582041897.html'
p2
aS'https://www.clarin.com/ieco/Anuncian-medidas-moderar-impacto-suba_0_1582041928.html'
p3
aS'https://www.clarin.com/ieco/Anuncian-medidas-moderar-impacto-suba_0_1582041928.html'
p4
aS'https://www.clarin.com/politica/Cobos-presento-proyecto-descubierto-SUBE_0_1582041926.html'
p5
aS'https://www.clarin.com/politica/Cobos-presento-proyecto-descubierto-SUBE_0_1582041926.html'
p6
aS'https://www.clarin.com/sociedad/marido-golpeo-dejarla-ciega-demandara_0_1582041924.html'
p7
aS'https://www.clarin.com/sociedad/marido-golpeo-dejarla-ciega-demandara_0_1582041924.html'
p8
a.