(lp0
S'https://www.clarin.com/sociedad/Mendoza-andinista-murio-atrapado-alud_0_1668433163.html'
p1
aS'https://www.clarin.com/sociedad/Procelac-advirtio-engano-flor-abundancia_0_1668433175.html'
p2
aS'https://www.clarin.com/sociedad/Lanzan-manual-aprender-desperdiciar-comida_0_1668433169.html'
p3
aS'https://www.clarin.com/ieco/coloquioidea/Alejandro-Toscano-Whirlpool-horizonte-recuperacion_0_1668433174.html'
p4
aS'https://www.clarin.com/sociedad/Susto-tiburon-blanco-metio-jaula_0_1668433167.html'
p5
a.