(lp0
Vhttps://www.clarin.com/ieco/economia/Giustiniani-contrato-YPF-Chevron-encontrar_0_1528647311.html
p1
aVhttps://www.clarin.com/sociedad/Desafio-Sos-encontrar-leopardo-escondido_0_1528647287.html
p2
aVhttps://www.clarin.com/sociedad/Desafio-Sos-encontrar-leopardo-escondido_0_1528647287.html
p3
aVhttps://www.clarin.com/ieco/economia/Vuelven-caer-mercados-temores-petroleo_0_1528647310.html
p4
aVhttps://www.clarin.com/ieco/economia/Vuelven-caer-mercados-temores-petroleo_0_1528647310.html
p5
aVhttps://www.clarin.com/politica/Arranco-Congreso-PJ-Massa-debate_0_1528647308.html
p6
aVhttps://www.clarin.com/politica/Arranco-Congreso-PJ-Massa-debate_0_1528647308.html
p7
aVhttps://www.clarin.com/ieco/economia/Bevacqua-tarifas-agregara-inflacion-febrero_0_1528647303.html
p8
aVhttps://www.clarin.com/ieco/economia/Bevacqua-tarifas-agregara-inflacion-febrero_0_1528647303.html
p9
aVhttps://www.clarin.com/ieco/economia/Fintech-vuelve-carga-Telecom_0_1528647297.html
p10
aVhttps://www.clarin.com/politica/Justicia-avalo-limites-cortes-calles_0_1528647301.html
p11
aVhttps://www.clarin.com/politica/Justicia-avalo-limites-cortes-calles_0_1528647301.html
p12
a.