(lp0
S'https://www.clarin.com/sociedad/Tragedia-Costa-Salguero-internados-continuan_0_1565243506.html'
p1
aS'https://www.clarin.com/politica/Bossio-duro-Cristina-haga-preocupa_0_1565243513.html'
p2
aS'https://www.clarin.com/sociedad/Probaron-teoria-Stephen-Hawking-Nobel_0_1565243514.html'
p3
aS'https://www.clarin.com/sociedad/Tragedia-Costa-Salguero-Marley-testigo_0_1565243508.html'
p4
aS'https://www.clarin.com/politica/Leandro-Baez-empresario-comprometido-Justicia_0_1565243503.html'
p5
aS'https://www.clarin.com/sociedad/Asesinan-joven-salida-boliche-Quilmes_0_1565243522.html'
p6
a.