(lp0
Vhttps://www.clarin.com/politica/gremio-camioneros-cerro-suba-salarios_0_1600640051.html
p1
aVhttps://www.clarin.com/ieco/economia/Paritarias-gremio-petrolero-anuncio-lunes_0_1600640050.html
p2
aVhttps://www.clarin.com/ieco/economia/Paritarias-gremio-petrolero-anuncio-lunes_0_1600640050.html
p3
aVhttps://www.clarin.com/politica/kirchnerismo-noticias-dejaron-modelo-desnudo_0_1600640049.html
p4
aVhttps://www.clarin.com/politica/kirchnerismo-noticias-dejaron-modelo-desnudo_0_1600640049.html
p5
aVhttps://www.clarin.com/sociedad/apostador-millones-casas-autos-camionetas_0_1600640045.html
p6
aVhttps://www.clarin.com/politica/Quieren-Nestor-Kirchner-terminal-Mendoza_0_1600640040.html
p7
aVhttps://www.clarin.com/politica/Quieren-Nestor-Kirchner-terminal-Mendoza_0_1600640040.html
p8
aVhttps://www.clarin.com/sociedad/Crearon-chaleco-permite-hablar-perros_0_1600640042.html
p9
aVhttps://www.clarin.com/sociedad/Crearon-chaleco-permite-hablar-perros_0_1600640042.html
p10
a.