(lp0
S'https://www.clarin.com/opinion/Macri-apuros-Trump-mundo-interior_0_1686431347.html'
p1
aS'https://www.clarin.com/sociedad/Asesinaron-machetazo-docente-Santa-Fe_0_1686431354.html'
p2
aS'https://www.clarin.com/politica/Miguel-Pichetto-pais-ingreso-irrestricto_0_1686431355.html'
p3
aS'https://www.clarin.com/opinion/sobres-sueldo_0_1686431350.html'
p4
aS'https://www.clarin.com/ieco/economia/Agregar-valor-publicidad_0_1685231648.html'
p5
aS'https://www.clarin.com/politica/Massa-gana-nuevo-lider-peronismo_0_1686431348.html'
p6
a.