(lp0
Vhttps://www.clarin.com/politica/clima-postergo-veces-acto-Macri_0_1646235428.html
p1
aVhttps://www.clarin.com/politica/clima-postergo-veces-acto-Macri_0_1646235428.html
p2
aVhttps://www.clarin.com/politica/deuda-social-chicos-problemas-nutricion_0_1646235424.html
p3
aVhttps://www.clarin.com/politica/deuda-social-chicos-problemas-nutricion_0_1646235424.html
p4
aVhttps://www.clarin.com/politica/Pese-rechazo-oposicion-reflotar-proyecto_0_1646235426.html
p5
aVhttps://www.clarin.com/politica/Pese-rechazo-oposicion-reflotar-proyecto_0_1646235426.html
p6
aVhttps://www.clarin.com/sociedad/confeso-secuestro-violo-chico-once_0_1646235422.html
p7
aVhttps://www.clarin.com/sociedad/confeso-secuestro-violo-chico-once_0_1646235422.html
p8
aVhttps://www.clarin.com/politica/CGT-Macri-Tomo-posicion-empresarios_0_1646235421.html
p9
aVhttps://www.clarin.com/politica/CGT-Macri-Tomo-posicion-empresarios_0_1646235421.html
p10
a.