(lp0
S'https://www.clarin.com/sociedad/Cansada-completen-vuelto-caramelos-decidio_0_1634836540.html'
p1
aS'https://www.clarin.com/ieco/cuentas-bancarias-despiden-CBU_0_1634836538.html'
p2
aS'https://www.clarin.com/politica/Emblema-Cristobal-Lopez-licitacion-Baez_0_1634836526.html'
p3
aS'https://www.clarin.com/politica/Bonadio-operativos-GNL-investigan-Vido_0_1634836536.html'
p4
aS'https://www.clarin.com/politica/ministro-Justicia-vivimos-Corte-derrota_0_1634836529.html'
p5
a.