(lp0
S'https://www.clarin.com/ieco/economia/petroleo-vuelve-superar-US_0_1583841640.html'
p1
aS'https://www.clarin.com/ieco/proyectos-Gobierno-ayudar-pymes_0_1583841637.html'
p2
aS'https://www.clarin.com/ieco/Sociedad-Rural-nueva-siembra-crecera_0_1583241790.html'
p3
aS'https://www.clarin.com/sociedad/Construcciones-piedra-cambian-imagen-neandertales_0_1583841633.html'
p4
aS'https://www.clarin.com/sociedad/baleado-hipopotamo-agrava-crisis-mendocino_0_1583841639.html'
p5
aS'https://www.clarin.com/politica/Lazaro-Baez-Casanello-Cristina-Maximo_0_1583841636.html'
p6
aS'https://www.clarin.com/politica/Cuanta-plata-Macri-hermano-Caputo_0_1583841634.html'
p7
a.