(lp0
S'https://www.clarin.com/ieco/economia/Foro-Negocios-Siemens-inversion-US_0_1650435071.html'
p1
aS'https://www.clarin.com/ieco/economia/Foro-Negocios-Siemens-inversion-US_0_1650435071.html'
p2
aS'https://www.clarin.com/politica/TV-poner-limites-operadores-satelitales_0_1650435159.html'
p3
aS'https://www.clarin.com/politica/TV-poner-limites-operadores-satelitales_0_1650435159.html'
p4
aS'https://www.clarin.com/politica/Gobierno-Corte-buscaron-garantias-inversores_0_1650435170.html'
p5
aS'https://www.clarin.com/politica/Gobierno-Corte-buscaron-garantias-inversores_0_1650435170.html'
p6
aS'https://www.clarin.com/ieco/Inflacion-Gobierno-destaca-oculta-diferencias_0_1650435109.html'
p7
aS'https://www.clarin.com/politica/British-Petroleum-invertir-reclama-costos_0_1650435117.html'
p8
aS'https://www.clarin.com/politica/British-Petroleum-invertir-reclama-costos_0_1650435117.html'
p9
aS'https://www.clarin.com/ieco/economia/Bayer-quedo-Monsanto-US-millones_0_1650435141.html'
p10
aS'https://www.clarin.com/ieco/economia/Bayer-quedo-Monsanto-US-millones_0_1650435141.html'
p11
aS'https://www.clarin.com/ieco/economia/Gesto-EEUU-creditos-invertir-Argentina_0_1651034887.html'
p12
aS'https://www.clarin.com/ieco/economia/Gesto-EEUU-creditos-invertir-Argentina_0_1651034887.html'
p13
aS'https://www.clarin.com/sociedad/perito-EEUU-cuestionado-explotacion-Veladero_0_1651034885.html'
p14
aS'https://www.clarin.com/sociedad/perito-EEUU-cuestionado-explotacion-Veladero_0_1651034885.html'
p15
aS'https://www.clarin.com/sociedad/Vecinos-Jachal-agredieron-intendente-funcionarios_0_1651034884.html'
p16
aS'https://www.clarin.com/sociedad/Vecinos-Jachal-agredieron-intendente-funcionarios_0_1651034884.html'
p17
aS'https://www.clarin.com/politica/Ahora-van-salario-real-alto_0_1650435125.html'
p18
aS'https://www.clarin.com/politica/puerto-Caballo_0_1651034882.html'
p19
aS'https://www.clarin.com/sociedad/Barrick-confirmo-derrame-cianuro-Veladero_0_1651034881.html'
p20
aS'https://www.clarin.com/sociedad/Barrick-confirmo-derrame-cianuro-Veladero_0_1651034881.html'
p21
a.