(lp0
S'https://www.clarin.com/politica/intimidad-juzgado-alterado-Lazaro-Baez_0_1553844952.html'
p1
aS'https://www.clarin.com/ieco/Gobierno-asegura-inversiones-US-millones_0_1553844976.html'
p2
aS'https://www.clarin.com/sociedad/Santiago-Estero-comisario-mujer-hermanos_0_1553844981.html'
p3
aS'https://www.clarin.com/politica/Designaron-nuevos-auditores-AGN_0_1553844977.html'
p4
aS'https://www.clarin.com/politica/Diputados-ratifico-DNU-reforma-Medios_0_1553844964.html'
p5
aS'https://www.clarin.com/ieco/economia/Buitres-acuerdos-fondos-US-millones_0_1553844983.html'
p6
a.