(lp0
S'https://www.clarin.com/politica/Gotti-empresario-refirio-Farina-muerte_0_1570643102.html'
p1
aS'https://www.clarin.com/politica/Gotti-empresario-refirio-Farina-muerte_0_1570643102.html'
p2
aS'https://www.clarin.com/politica/Baez-pidio-famila-ayudara-allanamientos_0_1570643114.html'
p3
aS'https://www.clarin.com/politica/Baez-pidio-famila-ayudara-allanamientos_0_1570643114.html'
p4
a.