(lp0
S'https://www.clarin.com/sociedad/Mato-fingir-suicidio-condenaron-perpetua_0_1607839337.html'
p1
aS'https://www.clarin.com/sociedad/volcanes-meteorito-terminaron-dinosaurios_0_1607839334.html'
p2
aS'https://www.clarin.com/ieco/economia/Claves-pagar-impuesto-cheque_0_1607839343.html'
p3
a.