(lp0
Vhttps://www.clarin.com/politica/Criticas-chilenas-decision-plataforma-argentina_0_1561644039.html
p1
aVhttps://www.clarin.com/politica/Criticas-chilenas-decision-plataforma-argentina_0_1561644039.html
p2
aVhttps://www.clarin.com/politica/Piden-Cristobal-Lopez-evasion-impositiva_0_1561644009.html
p3
aVhttps://www.clarin.com/politica/Piden-Cristobal-Lopez-evasion-impositiva_0_1561644009.html
p4
aVhttps://www.clarin.com/sociedad/eSports-nuevo-espectaculo-videojuegos-millones_0_1561644007.html
p5
aVhttps://www.clarin.com/sociedad/eSports-nuevo-espectaculo-videojuegos-millones_0_1561644007.html
p6
aVhttps://www.clarin.com/opinion/Cooperacion-social-plusvalia-positiva_0_1561644000.html
p7
aVhttps://www.clarin.com/opinion/Cooperacion-social-plusvalia-positiva_0_1561644000.html
p8
aVhttps://www.clarin.com/opinion/urgencia-cubrir-costo-canasta-basica_0_1561644001.html
p9
aVhttps://www.clarin.com/sociedad/director-escuela-detenidos-pueblos-vecinos_0_1561644016.html
p10
aVhttps://www.clarin.com/sociedad/director-escuela-detenidos-pueblos-vecinos_0_1561644016.html
p11
aVhttps://www.clarin.com/politica/Pauta-oficial-macrismo-gastara_0_1561644038.html
p12
aVhttps://www.clarin.com/politica/Pauta-oficial-macrismo-gastara_0_1561644038.html
p13
aVhttps://www.clarin.com/sociedad/algun-miembro-Fuerza-actuo-exonerado_0_1561644036.html
p14
aVhttps://www.clarin.com/sociedad/algun-miembro-Fuerza-actuo-exonerado_0_1561644036.html
p15
aVhttps://www.clarin.com/sociedad/droga-requiso-fiesta-complica-Prefectura_0_1561644035.html
p16
aVhttps://www.clarin.com/sociedad/droga-requiso-fiesta-complica-Prefectura_0_1561644035.html
p17
a.