(lp0
S'https://www.clarin.com/ieco/economia/Moda-italiana-argentinos_0_1518448323.html'
p1
aS'https://www.clarin.com/politica/prueba-acida-aguarda-Macri_0_1518448224.html'
p2
aS'https://www.clarin.com/politica/Scioli-esfuerzos-mantener-unidad-PJ_0_1518448375.html'
p3
aS'https://www.clarin.com/sociedad/Cruces-Pepe-Cibrian-Samid-exterior_0_1518448379.html'
p4
aS'https://www.clarin.com/sociedad/Di-Caprio-turistico-Tierra-Fuego_0_1517848561.html'
p5
a.