(lp0
S'https://www.clarin.com/sociedad/autodescubrimiento-termino-perdido-natural-Malasia_0_1679232124.html'
p1
aS'https://www.clarin.com/ieco/economia/Bolsa-inversores-buscan-companias-pequenas_0_1679232119.html'
p2
aS'https://www.clarin.com/politica/ministro-Macri-defendio-senadores-diputados_0_1679232118.html'
p3
aS'https://www.clarin.com/sociedad/Ataques-repiten-pitbulls-hirieron-gravedad_0_1679232130.html'
p4
a.