(lp0
Vhttps://www.clarin.com/politica/unanimidad-Senado-ratifico-soberania-Malvinas_0_1654634629.html
p1
aVhttps://www.clarin.com/politica/unanimidad-Senado-ratifico-soberania-Malvinas_0_1654634629.html
p2
aVhttps://www.clarin.com/politica/Granados-Cristina-Maximo-Kirchner-PRO_0_1654634632.html
p3
aVhttps://www.clarin.com/politica/Granados-Cristina-Maximo-Kirchner-PRO_0_1654634632.html
p4
aVhttps://www.clarin.com/politica/gremialista-recibio-protesta-acusan-policia_0_1654634630.html
p5
aVhttps://www.clarin.com/politica/gremialista-recibio-protesta-acusan-policia_0_1654634630.html
p6
aVhttps://www.clarin.com/politica/Boca-Baez-Cristina-investigado-dinero_0_1654634535.html
p7
aVhttps://www.clarin.com/politica/Boca-Baez-Cristina-investigado-dinero_0_1654634535.html
p8
aVhttps://www.clarin.com/opinion/oculto-duende-inspiracion_0_1654034766.html
p9
a.