(lp0
S'https://www.clarin.com/politica/Cristina-cuestiono-fiscal-violaron-record_0_1638436337.html'
p1
aS'https://www.clarin.com/politica/CGT-audiencias-ministros-empresarios-Iglesia_0_1638436349.html'
p2
aS'https://www.clarin.com/sociedad/Autoflagelacion-practica-aceptada-Iglesia_0_1638436347.html'
p3
aS'https://www.clarin.com/sociedad/demora-devolveran-recargos-dolar_0_1638436357.html'
p4
aS'https://www.clarin.com/sociedad/Demuestran-influencia-sobrepeso-tipos-cancer_0_1638436352.html'
p5
a.