(lp0
Vhttps://www.clarin.com/opinion/giro-priorice-federalismo-empleo_0_1589841101.html
p1
aVhttps://www.clarin.com/opinion/Churchill-enfrentar-peligros_0_1589841102.html
p2
aVhttps://www.clarin.com/opinion/Churchill-enfrentar-peligros_0_1589841102.html
p3
aVhttps://www.clarin.com/opinion/recordar-mejor-proceres_0_1589841097.html
p4
aVhttps://www.clarin.com/sociedad/vida-DNI-drama-miles-argentinos_0_1589841121.html
p5
aVhttps://www.clarin.com/sociedad/vida-DNI-drama-miles-argentinos_0_1589841121.html
p6
aVhttps://www.clarin.com/politica/Jubilados-podran-cobrar-quitas_0_1589841151.html
p7
aVhttps://www.clarin.com/politica/Echegaray-resiste-dan-afuera-Auditoria_0_1589841131.html
p8
aVhttps://www.clarin.com/politica/Echegaray-resiste-dan-afuera-Auditoria_0_1589841131.html
p9
aVhttps://www.clarin.com/politica/Amenazas-SOMU-cualquier-momento-escapa_0_1589841115.html
p10
aVhttps://www.clarin.com/politica/Amenazas-SOMU-cualquier-momento-escapa_0_1589841115.html
p11
aVhttps://www.clarin.com/politica/debate-sigue-manana-PRO-acelerador_0_1589841148.html
p12
aVhttps://www.clarin.com/politica/Imagen-fango-lastre-PJ_0_1590440944.html
p13
aVhttps://www.clarin.com/politica/pais-enferma-presidentes_0_1590440943.html
p14
aVhttps://www.clarin.com/politica/pais-enferma-presidentes_0_1590440943.html
p15
a.