(lp0
S'https://www.clarin.com/sociedad/combate-perdido-marco-triunfo-diplomatico_0_1500450373.html'
p1
aS'https://www.clarin.com/politica/triple_crimen-vidal_0_1501049937.html'
p2
aS'https://www.clarin.com/sociedad/turistas-siguen-burlando-controles-Nicolas_0_1500450385.html'
p3
aS'https://www.clarin.com/politica/Campora-careta-plumas_0_1501049943.html'
p4
aS'https://www.clarin.com/sociedad/bergantin-agil-mastil-metros_0_1500450371.html'
p5
aS'https://www.clarin.com/politica/triple_crimen-vidal_0_1501049939.html'
p6
aS'https://www.clarin.com/opinion/TIC-s-Ciber_delitos-Bullying-Redes_sociales_0_1501049929.html'
p7
aS'https://www.clarin.com/politica/triple_crimen-vidal_0_1501049938.html'
p8
aS'https://www.clarin.com/sociedad/Asco-ultima-frontera_0_1501049944.html'
p9
aS'https://www.clarin.com/politica/Balas-gases-heridos-represion-Plata_0_1501049970.html'
p10
a.