(lp0
S'https://www.clarin.com/politica/Echegaray-auditar-organismos-gestion-kirchnerista_0_1541246117.html'
p1
aS'https://www.clarin.com/politica/Echegaray-auditar-organismos-gestion-kirchnerista_0_1541246117.html'
p2
aS'https://www.clarin.com/sociedad/primer-stent-soluble-cerca-aprobado_0_1541246133.html'
p3
aS'https://www.clarin.com/sociedad/primer-stent-soluble-cerca-aprobado_0_1541246133.html'
p4
aS'https://www.clarin.com/sociedad/Sorprendieron-ahora-filman-arreo-ganado_0_1541246101.html'
p5
aS'https://www.clarin.com/sociedad/Sorprendieron-ahora-filman-arreo-ganado_0_1541246101.html'
p6
aS'https://www.clarin.com/ieco/Sube-Bolsa-media-sancion-Diputados_0_1541246132.html'
p7
aS'https://www.clarin.com/sociedad/Muchas-bicicletas-shopping-cero-controles_0_1541246128.html'
p8
aS'https://www.clarin.com/sociedad/Muchas-bicicletas-shopping-cero-controles_0_1541246128.html'
p9
aS'https://www.clarin.com/sociedad/Doble-Ecuador-argentinos-confirmaron-mendocinas_0_1541246120.html'
p10
aS'https://www.clarin.com/sociedad/Doble-Ecuador-argentinos-confirmaron-mendocinas_0_1541246120.html'
p11
aS'https://www.clarin.com/politica/Tagliaferro-separo-Maria-Eugenia-Vidal_0_1541246113.html'
p12
aS'https://www.clarin.com/politica/Tagliaferro-separo-Maria-Eugenia-Vidal_0_1541246113.html'
p13
a.