(lp0
Vhttps://www.clarin.com/sociedad/combaten-dengue-aparecio-primer-zika_0_1511249338.html
p1
aVhttps://www.clarin.com/sociedad/combaten-dengue-aparecio-primer-zika_0_1511249338.html
p2
aVhttps://www.clarin.com/ieco/economia/Lebacs-absorcion-pesos-reduccion-tasas_0_1511249275.html
p3
a.