(lp0
S'https://www.clarin.com/sociedad/pocas-horas-femicidios-seguido-suicidio_0_1670232983.html'
p1
aS'https://www.clarin.com/ieco/Hoy-reglamentan-normas-benefician-pymes_0_1670232981.html'
p2
aS'https://www.clarin.com/politica/Gustavo-Vera-Macri-intermediarios-Roma_0_1670232980.html'
p3
aS'https://www.clarin.com/politica/Gustavo-Vera-Macri-intermediarios-Roma_0_1670232980.html'
p4
aS'https://www.clarin.com/politica/San-Martin-incendio-tribunal-Vidal_0_1670232974.html'
p5
aS'https://www.clarin.com/politica/San-Martin-incendio-tribunal-Vidal_0_1670232974.html'
p6
aS'https://www.clarin.com/sociedad/detras-video-viral-Dia-Madre_0_1670232973.html'
p7
aS'https://www.clarin.com/sociedad/detras-video-viral-Dia-Madre_0_1670232973.html'
p8
aS'https://www.clarin.com/sociedad/familia-Nuria-desmiente-atacante-sufrido_0_1670232972.html'
p9
aS'https://www.clarin.com/sociedad/familia-Nuria-desmiente-atacante-sufrido_0_1670232972.html'
p10
a.