(lp0
S'https://www.clarin.com/politica/sigue-catarsis-peronismo-llama-unidad_0_1601839916.html'
p1
aS'https://www.clarin.com/politica/sigue-catarsis-peronismo-llama-unidad_0_1601839916.html'
p2
aS'https://www.clarin.com/politica/nueva-grave-acusacion-Milagro-Sala_0_1601839913.html'
p3
aS'https://www.clarin.com/politica/nueva-grave-acusacion-Milagro-Sala_0_1601839913.html'
p4
aS'https://www.clarin.com/politica/Perez-Corradi-detenido-US-quedar_0_1601839907.html'
p5
aS'https://www.clarin.com/politica/Perez-Corradi-detenido-US-quedar_0_1601839907.html'
p6
a.