(lp0
Vhttps://www.clarin.com/sociedad/Video-ping-pong-espacio_0_1510649171.html
p1
aVhttps://www.clarin.com/sociedad/Rosario-buscan-chico-arrojo-Parana_0_1510649167.html
p2
aVhttps://www.clarin.com/sociedad/Aterrizo-exito-primer-cohete-reciclado_0_1510649125.html
p3
aVhttps://www.clarin.com/sociedad/Aterrizo-exito-primer-cohete-reciclado_0_1510649125.html
p4
aVhttps://www.clarin.com/ieco/economia/Fuerte-freno-liquidacion-divisas-campo_0_1510649151.html
p5
a.