(lp0
Vhttps://www.clarin.com/sociedad/sindrome-Down-permiten-necesita-trasplante_0_1567643346.html
p1
aVhttps://www.clarin.com/sociedad/sindrome-Down-permiten-necesita-trasplante_0_1567643346.html
p2
aVhttps://www.clarin.com/sociedad/Invento-bicicleta-voladora-funciono_0_1567643344.html
p3
aVhttps://www.clarin.com/sociedad/Invento-bicicleta-voladora-funciono_0_1567643344.html
p4
aVhttps://www.clarin.com/politica/Macri-celebra-Trabajador-gremio-Barrionuevo_0_1567643340.html
p5
aVhttps://www.clarin.com/politica/Macri-celebra-Trabajador-gremio-Barrionuevo_0_1567643340.html
p6
aVhttps://www.clarin.com/ieco/Despidos-tarifas-Ganancias-razones-acercan_0_1567643337.html
p7
aVhttps://www.clarin.com/ieco/Despidos-tarifas-Ganancias-razones-acercan_0_1567643337.html
p8
aVhttps://www.clarin.com/sociedad/Twitter-ironia-pelicula-furia-juez_0_1567643335.html
p9
aVhttps://www.clarin.com/sociedad/Twitter-ironia-pelicula-furia-juez_0_1567643335.html
p10
aVhttps://www.clarin.com/sociedad/boliches-judicial-Ciudad-dicen-abriran_0_1567643330.html
p11
aVhttps://www.clarin.com/sociedad/boliches-judicial-Ciudad-dicen-abriran_0_1567643330.html
p12
aVhttps://www.clarin.com/ieco/economia/Macri-argentinos-agua-potable-casas_0_1567643332.html
p13
aVhttps://www.clarin.com/politica/Oficina-Anticorrupcion-presento-querellante-Baez_0_1567643328.html
p14
aVhttps://www.clarin.com/politica/Oficina-Anticorrupcion-presento-querellante-Baez_0_1567643328.html
p15
a.