(lp0
Vhttps://www.clarin.com/ieco/economia/Precios-reunion-Gobierno-supermercados_0_1621637899.html
p1
aVhttps://www.clarin.com/ieco/economia/Precios-reunion-Gobierno-supermercados_0_1621637899.html
p2
aVhttps://www.clarin.com/politica/Confirman-preventiva-Jaime-Espana-Portugal_0_1621637896.html
p3
aVhttps://www.clarin.com/politica/Confirman-preventiva-Jaime-Espana-Portugal_0_1621637896.html
p4
aVhttps://www.clarin.com/sociedad/atragantarse-carozo-aceituna-condenan-medica_0_1621637891.html
p5
aVhttps://www.clarin.com/sociedad/Hallazgo-insolito-barco-hundido-queso_0_1621637889.html
p6
aVhttps://www.clarin.com/sociedad/Hallazgo-insolito-barco-hundido-queso_0_1621637889.html
p7
aVhttps://www.clarin.com/sociedad/Provincia-prometio-apoyo-victimas-femicidios_0_1621637883.html
p8
aVhttps://www.clarin.com/sociedad/Provincia-prometio-apoyo-victimas-femicidios_0_1621637883.html
p9
a.