(lp0
S'https://www.clarin.com/sociedad/Bariloche-avion-aterrizar-hombre-metio_0_1612038848.html'
p1
aS'https://www.clarin.com/sociedad/Bariloche-avion-aterrizar-hombre-metio_0_1612038848.html'
p2
aS'https://www.clarin.com/sociedad/Descubren-planeta-lejano-apenas-diametro_0_1612038841.html'
p3
aS'https://www.clarin.com/sociedad/Descubren-planeta-lejano-apenas-diametro_0_1612038841.html'
p4
aS'https://www.clarin.com/ieco/Actualizan-montos-informar-autos-inmuebles_0_1612038840.html'
p5
aS'https://www.clarin.com/sociedad/Video-espectacular-despegue-vertical-Boeing_0_1612038835.html'
p6
aS'https://www.clarin.com/sociedad/Video-espectacular-despegue-vertical-Boeing_0_1612038835.html'
p7
a.