(lp0
S'https://www.clarin.com/politica/Luego-Angelici-Macri-Carrio-Olivos_0_1549645373.html'
p1
aS'https://www.clarin.com/ieco/economia/Insolito-llego-factura-agua-pesos_0_1549645394.html'
p2
aS'https://www.clarin.com/ieco/economia/Insolito-llego-factura-agua-pesos_0_1549645396.html'
p3
aS'https://www.clarin.com/politica/Vidal-Espinoza-quiso-amenaza-efectividad_0_1549645388.html'
p4
aS'https://www.clarin.com/sociedad/Desesperada-busqueda-mujer-Bariloche_0_1549645404.html'
p5
aS'https://www.clarin.com/ieco/economia/FIEL-industria-mantiene-estancada_0_1549645372.html'
p6
a.