(lp0
Vhttps://www.clarin.com/politica/oscuro-asesor-Facundo-Moyano_0_1542446203.html
p1
aVhttps://www.clarin.com/politica/Casanello-cito-indagatoria-Lazaro-Baez_0_1542446202.html
p2
aVhttps://www.clarin.com/politica/Aeropuertos-controles-barreras_0_1542446166.html
p3
a.