(lp0
Vhttps://www.clarin.com/politica/negociacion-buitres-grieta-Congreso-PJ_0_1528647369.html
p1
aVhttps://www.clarin.com/politica/negociacion-buitres-grieta-Congreso-PJ_0_1528647369.html
p2
aVhttps://www.clarin.com/politica/faltaron-Congreso-catarsis-PJ_0_1528647363.html
p3
aVhttps://www.clarin.com/politica/faltaron-Congreso-catarsis-PJ_0_1528647363.html
p4
aVhttps://www.clarin.com/sociedad/gemelas-gemelos-segunda-vez_0_1528647359.html
p5
aVhttps://www.clarin.com/sociedad/gemelas-gemelos-segunda-vez_0_1528647359.html
p6
aVhttps://www.clarin.com/sociedad/misterioso-ruido-dormir-pueblo-Oregon_0_1528647350.html
p7
aVhttps://www.clarin.com/sociedad/misterioso-ruido-dormir-pueblo-Oregon_0_1528647350.html
p8
a.