(lp0
Vhttps://www.clarin.com/politica/Juez-resolvera-cautelar-Corte-Suprema_0_1618038225.html
p1
aVhttps://www.clarin.com/politica/Juez-resolvera-cautelar-Corte-Suprema_0_1618038225.html
p2
aVhttps://www.clarin.com/sociedad/Banco-banco-nuevos-creditos-hipotecarios_0_1618038216.html
p3
aVhttps://www.clarin.com/sociedad/Banco-banco-nuevos-creditos-hipotecarios_0_1618038216.html
p4
aVhttps://www.clarin.com/sociedad/Video-Dia-Amigo-citaron-pelear_0_1618038220.html
p5
aVhttps://www.clarin.com/sociedad/Video-Dia-Amigo-citaron-pelear_0_1618038220.html
p6
aVhttps://www.clarin.com/politica/Rafecas-blindar-Comodoro-Py-declaracion_0_1618038219.html
p7
aVhttps://www.clarin.com/politica/Rafecas-blindar-Comodoro-Py-declaracion_0_1618038219.html
p8
aVhttps://www.clarin.com/politica/Oesterheld-historietista-dibujaba-companeros-cautiverio_0_1617438350.html
p9
aVhttps://www.clarin.com/politica/Oesterheld-historietista-dibujaba-companeros-cautiverio_0_1617438350.html
p10
aVhttps://www.clarin.com/politica/Macri-preparo-debate-pelea-TV_0_1618038218.html
p11
aVhttps://www.clarin.com/politica/Macri-preparo-debate-pelea-TV_0_1618038218.html
p12
aVhttps://www.clarin.com/politica/Elsa-Sanchez-Oesterheld-Nestornauta-reivindicacion_0_1618038217.html
p13
a.