(lp0
Vhttps://www.clarin.com/politica/Mensaje-Gobierno-antecedente-preocupa-Iglesia_0_1583241756.html
p1
aVhttps://www.clarin.com/politica/Mensaje-Gobierno-antecedente-preocupa-Iglesia_0_1583241756.html
p2
aVhttps://www.clarin.com/politica/comieron-Macri-Legrand-Rosada_0_1583241722.html
p3
aVhttps://www.clarin.com/politica/comieron-Macri-Legrand-Rosada_0_1583241722.html
p4
aVhttps://www.clarin.com/sociedad/cocineros-ricos-mundo_0_1583241751.html
p5
aVhttps://www.clarin.com/sociedad/cocineros-ricos-mundo_0_1583241751.html
p6
aVhttps://www.clarin.com/politica/locro-Olivos-vecino-senora-anos_0_1583241748.html
p7
aVhttps://www.clarin.com/politica/locro-Olivos-vecino-senora-anos_0_1583241748.html
p8
aVhttps://www.clarin.com/sociedad/Cabildo-nueva-recorrida-interactiva-celular_0_1583241747.html
p9
aVhttps://www.clarin.com/sociedad/Cabildo-nueva-recorrida-interactiva-celular_0_1583241747.html
p10
aVhttps://www.clarin.com/sociedad/decidio-ensenarle-leer-escribir-vecino_0_1583241744.html
p11
aVhttps://www.clarin.com/sociedad/decidio-ensenarle-leer-escribir-vecino_0_1583241744.html
p12
aVhttps://www.clarin.com/politica/Michetti-Presidente-Papa-Francisco-Mauricio_0_1583241743.html
p13
aVhttps://www.clarin.com/politica/Michetti-Presidente-Papa-Francisco-Mauricio_0_1583241743.html
p14
a.