(lp0
Vhttps://www.clarin.com/sociedad/Renuncio-director-Hospital-Cruce_0_1537046648.html
p1
aVhttps://www.clarin.com/sociedad/Compras-exterior-claves-sistema-definir_0_1537046642.html
p2
aVhttps://www.clarin.com/sociedad/Compras-exterior-claves-sistema-definir_0_1537046642.html
p3
aVhttps://www.clarin.com/ieco/economia/Mercosur-Union-Europea-comenzaria-intercambio-comerciales_0_1537046633.html
p4
aVhttps://www.clarin.com/politica/Macri-viajara-Union-Europea-ano_0_1537046638.html
p5
aVhttps://www.clarin.com/politica/Macri-viajara-Union-Europea-ano_0_1537046638.html
p6
aVhttps://www.clarin.com/politica/Macri-ira-ano-Union-Europea_0_1537046628.html
p7
aVhttps://www.clarin.com/politica/Macri-ira-ano-Union-Europea_0_1537046628.html
p8
aVhttps://www.clarin.com/sociedad/artista-argentina-recorre-enganar-personas_0_1537046626.html
p9
aVhttps://www.clarin.com/sociedad/artista-argentina-recorre-enganar-personas_0_1537046626.html
p10
aVhttps://www.clarin.com/sociedad/alumnos-heridos-columna-colegio-Toninas_0_1537046620.html
p11
a.