(lp0
S'https://www.clarin.com/politica/Sauces-Cristina-nulidad-tasacion-propiedades_0_1680432006.html'
p1
aS'https://www.clarin.com/politica/diputado-advierte-Macri-pintados-Gobierno_0_1680432004.html'
p2
aS'https://www.clarin.com/politica/Rio-Gallegos-millones-Lazaro-Baez_0_1680431977.html'
p3
aS'https://www.clarin.com/ieco/Samsung-desembarca-Habana_0_1680432010.html'
p4
aS'https://www.clarin.com/sociedad/sedante-elefantes-nueva-droga-EEUU_0_1680432015.html'
p5
aS'https://www.clarin.com/sociedad/oculto-testigo-asesinato-hermana-mama_0_1680432009.html'
p6
aS'https://www.clarin.com/ieco/economia/Tentados-blanqueo-bancos-inversion-internacionales_0_1680432018.html'
p7
aS'https://www.clarin.com/politica/Indagan-Luis-DElia-ingreso-Anses_0_1680431971.html'
p8
a.