(lp0
S'https://www.clarin.com/ieco/economia/Autos-electricos-apuesta-alemana_0_1573042707.html'
p1
aS'https://www.clarin.com/sociedad/multitud-marcho-favor-marihuana_0_1572442894.html'
p2
aS'https://www.clarin.com/ieco/economia/segunda-ola-aumentos-precios_0_1573042708.html'
p3
aS'https://www.clarin.com/ieco/economia/Arranca-alzas-materias-primas-emergentes_0_1573042706.html'
p4
a.