(lp0
S'https://www.clarin.com/politica/acuerdo-Diputados-aguinaldo-pagara-Ganancias_0_1592240967.html'
p1
aS'https://www.clarin.com/politica/acuerdo-Diputados-aguinaldo-pagara-Ganancias_0_1592240967.html'
p2
aS'https://www.clarin.com/ieco/economia/meses-emitieron-bonos-US-millones_0_1592240913.html'
p3
aS'https://www.clarin.com/ieco/economia/meses-emitieron-bonos-US-millones_0_1592240913.html'
p4
aS'https://www.clarin.com/ieco/economia/Macri-hablo-Putin-represa-Neuquen_0_1592240958.html'
p5
aS'https://www.clarin.com/politica/Lorenzetti-defendio-escuchas-sigan-Justicia_0_1592840712.html'
p6
a.