(lp0
S'https://www.clarin.com/sociedad/Depresion-encierro-lado-duro-psoriasis_0_1634836593.html'
p1
aS'https://www.clarin.com/sociedad/Vuelven-retirar-intendente-manejando-borracho_0_1634836606.html'
p2
a.