(lp0
Vhttps://www.clarin.com/sociedad/Chile-correr-maraton-descompuso-carrera_0_1663033742.html
p1
aVhttps://www.clarin.com/sociedad/Chile-correr-maraton-descompuso-carrera_0_1663033742.html
p2
aVhttps://www.clarin.com/sociedad/celebrar-parto-animal_0_1663033735.html
p3
aVhttps://www.clarin.com/sociedad/celebrar-parto-animal_0_1663033735.html
p4
aVhttps://www.clarin.com/ieco/Apple-Google-Coca-Cola-marcas-valoradas_0_1663033731.html
p5
aVhttps://www.clarin.com/ieco/Apple-Google-Coca-Cola-marcas-valoradas_0_1663033731.html
p6
aVhttps://www.clarin.com/opinion/Raices-amor-comida-casera_0_1663033729.html
p7
aVhttps://www.clarin.com/politica/Malena-Galmarini-Moro-tratarla-vehemente_0_1663033726.html
p8
aVhttps://www.clarin.com/politica/Malena-Galmarini-Moro-tratarla-vehemente_0_1663033726.html
p9
a.