(lp0
Vhttps://www.clarin.com/politica/abogados-Baez-pidieron-postergar-indagatoria_0_1603639773.html
p1
aVhttps://www.clarin.com/politica/abogados-Baez-pidieron-postergar-indagatoria_0_1603639773.html
p2
aVhttps://www.clarin.com/opinion/gol-memorable-Messi_0_1604239562.html
p3
aVhttps://www.clarin.com/opinion/Brexit-ruptura-simbolica-real_0_1603639765.html
p4
aVhttps://www.clarin.com/opinion/ir-fondo-causas-corrupcion_0_1603639767.html
p5
aVhttps://www.clarin.com/opinion/ir-fondo-causas-corrupcion_0_1603639767.html
p6
aVhttps://www.clarin.com/opinion/Messi-relacion-ambivalente-idolos_0_1603639766.html
p7
aVhttps://www.clarin.com/sociedad/brote-gripe-muertos-sigue-alerta_0_1603639788.html
p8
aVhttps://www.clarin.com/sociedad/brote-gripe-muertos-sigue-alerta_0_1603639788.html
p9
aVhttps://www.clarin.com/sociedad/Acondicionaran-refugios-mujeres-golpeadas_0_1603639798.html
p10
aVhttps://www.clarin.com/sociedad/Acondicionaran-refugios-mujeres-golpeadas_0_1603639798.html
p11
aVhttps://www.clarin.com/politica/nueva-ley-abarca-jubilados_0_1603639769.html
p12
a.