(lp0
Vhttps://www.clarin.com/opinion/vida-celular_0_1535846425.html
p1
aVhttps://www.clarin.com/politica/Macri-PJ-acuerdo-politico-menudeo_0_1535846423.html
p2
aVhttps://www.clarin.com/opinion/ultima-muerte_0_1535846421.html
p3
aVhttps://www.clarin.com/opinion/destinados-exito-condenados-fracaso_0_1535246760.html
p4
aVhttps://www.clarin.com/opinion/destinados-exito-condenados-fracaso_0_1535246760.html
p5
aVhttps://www.clarin.com/opinion/umbral-barbarie-debemos-seguir-traspasando_0_1535246757.html
p6
aVhttps://www.clarin.com/opinion/visita-Obama-derechos-humanos_0_1535246755.html
p7
aVhttps://www.clarin.com/ieco/gremios-discuten-salarios-ajustarse-oficial_0_1535246817.html
p8
a.