(lp0
Vhttps://www.clarin.com/ieco/economia/Brasil-promete-Prat-Gay-reactivar-fondos_0_1525647601.html
p1
aVhttps://www.clarin.com/ieco/economia/FMI-atento-datos-INDEC-creibles_0_1525647599.html
p2
aVhttps://www.clarin.com/politica/Pibes-Villeros-cooperativa-Milagro-Sala_0_1525647591.html
p3
aVhttps://www.clarin.com/politica/Pibes-Villeros-cooperativa-Milagro-Sala_0_1525647591.html
p4
aVhttps://www.clarin.com/sociedad/Fuertes-tormentas-Santa-Fe-Parana_0_1525647583.html
p5
aVhttps://www.clarin.com/sociedad/Fuertes-tormentas-Santa-Fe-Parana_0_1525647583.html
p6
a.