(lp0
Vhttps://www.clarin.com/sociedad/Feriados-calendario-planificar-tiempo-libre_0_1687031373.html
p1
aVhttps://www.clarin.com/sociedad/Feriados-calendario-planificar-tiempo-libre_0_1687031373.html
p2
aVhttps://www.clarin.com/sociedad/Macri-favor-eliminar-carreras-galgos_0_1687031369.html
p3
aVhttps://www.clarin.com/sociedad/Macri-favor-eliminar-carreras-galgos_0_1687031369.html
p4
aVhttps://www.clarin.com/sociedad/Fines-Semana-Largos-calendario-feriados_0_1687031370.html
p5
aVhttps://www.clarin.com/sociedad/Fines-Semana-Largos-calendario-feriados_0_1687031370.html
p6
aVhttps://www.clarin.com/sociedad/climatico-Patagonia-chilena-produce-primeros_0_1687031365.html
p7
aVhttps://www.clarin.com/sociedad/climatico-Patagonia-chilena-produce-primeros_0_1687031365.html
p8
a.