(lp0
Vhttps://www.clarin.com/politica/Macri-cumpleanos-familia-Gato-Romero_0_1519048288.html
p1
aVhttps://www.clarin.com/politica/Macri-cumpleanos-familia-Gato-Romero_0_1519048288.html
p2
aVhttps://www.clarin.com/opinion/Luis_Alberto_Spinetta-Muerte-Evocacion-Jorge_Velazquez_0_1519048289.html
p3
aVhttps://www.clarin.com/politica/selfie-Scioli-celebro-cumplido-Stones_0_1519048283.html
p4
aVhttps://www.clarin.com/politica/selfie-Scioli-celebro-cumplido-Stones_0_1519048283.html
p5
aVhttps://www.clarin.com/politica/negociacion-docente-empantanada-peligra-clases_0_1519048279.html
p6
aVhttps://www.clarin.com/politica/negociacion-docente-empantanada-peligra-clases_0_1519048279.html
p7
aVhttps://www.clarin.com/ieco/economia/kirchnerismo-reparos-anulacion-Ley-Cerrrojo_0_1519048271.html
p8
aVhttps://www.clarin.com/ieco/economia/kirchnerismo-reparos-anulacion-Ley-Cerrrojo_0_1519048271.html
p9
aVhttps://www.clarin.com/sociedad/Murio-alcanzado-rayo-jugaba-futbol_0_1519048270.html
p10
aVhttps://www.clarin.com/sociedad/espera-ruptura-Glaciar-Perito-Moreno_0_1519048266.html
p11
aVhttps://www.clarin.com/sociedad/espera-ruptura-Glaciar-Perito-Moreno_0_1519048266.html
p12
a.