(lp0
S'https://www.clarin.com/politica/Justicia-suspendio-Echegaray-AGN_0_1588641249.html'
p1
aS'https://www.clarin.com/politica/Justicia-suspendio-Echegaray-AGN_0_1588641249.html'
p2
aS'https://www.clarin.com/ieco/economia/Cordoba-emitio-US-millones-exterior_0_1588641234.html'
p3
aS'https://www.clarin.com/ieco/economia/Cordoba-emitio-US-millones-exterior_0_1588641234.html'
p4
a.