(lp0
S'https://www.clarin.com/politica/Ahora-Gobierno-aceptaria-Asignacion-Universal_0_1677432343.html'
p1
aS'https://www.clarin.com/sociedad/Pokemon-Go-evaporo-apenas-meses_0_1677432342.html'
p2
aS'https://www.clarin.com/sociedad/refugiada-victima-viveza-criolla-asado_0_1677432344.html'
p3
aS'https://www.clarin.com/politica/verdadera-grieta-judicial-honesto-corrupto_0_1677432348.html'
p4
aS'https://www.clarin.com/politica/presidenta-abogados-preparo-Santa-Cruz_0_1677432346.html'
p5
aS'https://www.clarin.com/sociedad/ensenanza-empresario-mujer-leones-africanos_0_1677432340.html'
p6
aS'https://www.clarin.com/sociedad/Animales-millones-personas-viajan-busca_0_1677432338.html'
p7
aS'https://www.clarin.com/politica/penal-atajado-nacio-fana-Boca_0_1677432349.html'
p8
aS'https://www.clarin.com/politica/familia-Baez-reunirse-concertar-estrategia_0_1676232521.html'
p9
a.