(lp0
Vhttps://www.clarin.com/ieco/economia/Analizan-aumentos-facturas-agua_0_1549045543.html
p1
aVhttps://www.clarin.com/ieco/ANSeS-analiza-oferta-acciones-Telecom_0_1549045549.html
p2
aVhttps://www.clarin.com/opinion/Cine-cielos_0_1549045518.html
p3
aVhttps://www.clarin.com/politica/Difunden-Nuncio-Pio-Laghi-desaparecidos_0_1549045510.html
p4
aVhttps://www.clarin.com/politica/Difunden-Nuncio-Pio-Laghi-desaparecidos_0_1549045510.html
p5
aVhttps://www.clarin.com/sociedad/pacientes-Justicia-cubran-tratamientos-nuevos_0_1549045554.html
p6
a.