(lp0
Vhttps://www.clarin.com/politica/Massa-dirigentes-obligacion-propuestas-ciudadanos_0_1633636641.html
p1
aVhttps://www.clarin.com/politica/Massa-dirigentes-obligacion-propuestas-ciudadanos_0_1633636641.html
p2
aVhttps://www.clarin.com/sociedad/Hoy-conocera-veredicto-crimen-Montanita_0_1633636639.html
p3
aVhttps://www.clarin.com/sociedad/Hoy-conocera-veredicto-crimen-Montanita_0_1633636639.html
p4
aVhttps://www.clarin.com/politica/Hallan-granada-guerra-metros-tarifazo_0_1633636636.html
p5
aVhttps://www.clarin.com/politica/Hallan-granada-guerra-metros-tarifazo_0_1633636636.html
p6
aVhttps://www.clarin.com/politica/PJ-nuevo-tension-Scioli-Cristina_0_1633636634.html
p7
aVhttps://www.clarin.com/politica/PJ-nuevo-tension-Scioli-Cristina_0_1633636634.html
p8
aVhttps://www.clarin.com/sociedad/puma-evacuaron-turistas-Cataratas_0_1633036836.html
p9
aVhttps://www.clarin.com/sociedad/puma-evacuaron-turistas-Cataratas_0_1633036836.html
p10
a.