(lp0
S'https://www.clarin.com/sociedad/trenes-Chascomus-tiempo-indeterminado_0_1637836222.html'
p1
aS'https://www.clarin.com/sociedad/trenes-Chascomus-tiempo-indeterminado_0_1637836222.html'
p2
aS'https://www.clarin.com/sociedad/Cayo-Rimolo-Villa-Lynch-ejercia_0_1637836220.html'
p3
aS'https://www.clarin.com/sociedad/Cayo-Rimolo-Villa-Lynch-ejercia_0_1637836220.html'
p4
aS'https://www.clarin.com/politica/Debuta-tarde-triunvirato-CGT_0_1637836219.html'
p5
aS'https://www.clarin.com/politica/Debuta-tarde-triunvirato-CGT_0_1637836219.html'
p6
aS'https://www.clarin.com/politica/Martin-Lanatta-triple-voltear-Vidal_0_1637836216.html'
p7
aS'https://www.clarin.com/politica/Martin-Lanatta-triple-voltear-Vidal_0_1637836216.html'
p8
a.