(lp0
Vhttps://www.clarin.com/sociedad/perro-aspecto-leon-callejero-celebridad_0_1567043308.html
p1
aVhttps://www.clarin.com/sociedad/perro-aspecto-leon-callejero-celebridad_0_1567043308.html
p2
aVhttps://www.clarin.com/politica/Justicia-busca-intensamente-Gabinete-Fellner_0_1567043312.html
p3
aVhttps://www.clarin.com/politica/Justicia-busca-intensamente-Gabinete-Fellner_0_1567043312.html
p4
aVhttps://www.clarin.com/politica/Casanello-mensajes-Cristina-consta-Marijuan_0_1567043304.html
p5
aVhttps://www.clarin.com/politica/Casanello-mensajes-Cristina-consta-Marijuan_0_1567043304.html
p6
aVhttps://www.clarin.com/sociedad/Gobierno-porteno-regular-fiestas-electronicas_0_1567043301.html
p7
aVhttps://www.clarin.com/sociedad/Gobierno-porteno-regular-fiestas-electronicas_0_1567043301.html
p8
aVhttps://www.clarin.com/ieco/antidespidos-desastre-general-economia-recibida_0_1567043302.html
p9
aVhttps://www.clarin.com/ieco/antidespidos-desastre-general-economia-recibida_0_1567043302.html
p10
a.