(lp0
Vhttps://www.clarin.com/ieco/Sigue-provincias-Tierra-Fuego-millones_0_1630636962.html
p1
aVhttps://www.clarin.com/ieco/Sigue-provincias-Tierra-Fuego-millones_0_1630636962.html
p2
aVhttps://www.clarin.com/sociedad/insolita-defensa-hija-Cordera_0_1630636961.html
p3
aVhttps://www.clarin.com/sociedad/insolita-defensa-hija-Cordera_0_1630636961.html
p4
aVhttps://www.clarin.com/ieco/Gobierno-promete-triplicar-inversion-infraestructura_0_1630636959.html
p5
aVhttps://www.clarin.com/ieco/Gobierno-promete-triplicar-inversion-infraestructura_0_1630636959.html
p6
aVhttps://www.clarin.com/sociedad/general-denuncio-Cordera-investiga-sexuales_0_1630636958.html
p7
aVhttps://www.clarin.com/sociedad/general-denuncio-Cordera-investiga-sexuales_0_1630636958.html
p8
aVhttps://www.clarin.com/ieco/Nuevas-normativas-BCRA-operatorias-bancarias_0_1630636957.html
p9
aVhttps://www.clarin.com/ieco/Nuevas-normativas-BCRA-operatorias-bancarias_0_1630636957.html
p10
aVhttps://www.clarin.com/sociedad/Muere-bailar-creen-dieron-droga_0_1630636955.html
p11
aVhttps://www.clarin.com/sociedad/Muere-bailar-creen-dieron-droga_0_1630636955.html
p12
aVhttps://www.clarin.com/politica/Lopez-dolares-bolsos-pertenecian-politica_0_1630636954.html
p13
aVhttps://www.clarin.com/politica/Lopez-dolares-bolsos-pertenecian-politica_0_1630636954.html
p14
a.