(lp0
S'https://www.clarin.com/politica/Encuesta-inseguridad-justicia-candidato-votaron_0_1666033425.html'
p1
aS'https://www.clarin.com/sociedad/Realizaran-exhaustivo-poblaciones-Magallanes-Chubut_0_1666033426.html'
p2
aS'https://www.clarin.com/sociedad/Realizaran-exhaustivo-poblaciones-Magallanes-Chubut_0_1666033426.html'
p3
aS'https://www.clarin.com/sociedad/Defensora-animales-cancer-quiere-torero_0_1666033420.html'
p4
aS'https://www.clarin.com/sociedad/Defensora-animales-cancer-quiere-torero_0_1666033420.html'
p5
aS'https://www.clarin.com/ieco/fin-semana-largo-turistas-consumo_0_1666033424.html'
p6
aS'https://www.clarin.com/ieco/fin-semana-largo-turistas-consumo_0_1666033424.html'
p7
a.