(lp0
S'https://www.clarin.com/ieco/dolar-cotiza-estable_0_1654034633.html'
p1
aS'https://www.clarin.com/politica/Macri-Naciones-Unidas-Asamblea-General_0_1654034635.html'
p2
aS'https://www.clarin.com/politica/Julio-Cobos-desmintio-versiones-paternidad_0_1654034639.html'
p3
aS'https://www.clarin.com/sociedad/Baleo-novia-suegra-vecino-suicido_0_1654034634.html'
p4
aS'https://www.clarin.com/politica/Ahora-detienen-amiga-Milagro-Sala_0_1654034629.html'
p5
a.