(lp0
Vhttps://www.clarin.com/politica/Amparos-firmas-pagar-aumento-tarifa_0_1581441987.html
p1
aVhttps://www.clarin.com/politica/Amparos-firmas-pagar-aumento-tarifa_0_1581441987.html
p2
aVhttps://www.clarin.com/opinion/mujer-justa_0_1581441967.html
p3
aVhttps://www.clarin.com/politica/primer-exterior-llego-canciller-brasileno_0_1581441994.html
p4
aVhttps://www.clarin.com/politica/Reunion-urgencia-Gobierno-gobernadores-patagonicos_0_1581441988.html
p5
aVhttps://www.clarin.com/politica/Lanata-hablo-entrevista-fondo-Majul_0_1582041781.html
p6
aVhttps://www.clarin.com/politica/Lanata-hablo-entrevista-fondo-Majul_0_1582041781.html
p7
aVhttps://www.clarin.com/sociedad/Denuncian-escuelas-cumplen-integra-discapacitados_0_1581441983.html
p8
aVhttps://www.clarin.com/sociedad/Denuncian-escuelas-cumplen-integra-discapacitados_0_1581441983.html
p9
aVhttps://www.clarin.com/sociedad/pasion-comic-crecer-sintio-Palermo_0_1581441993.html
p10
aVhttps://www.clarin.com/sociedad/pasion-comic-crecer-sintio-Palermo_0_1581441993.html
p11
aVhttps://www.clarin.com/politica/Casanello-citaria-indagatoria-colaborador-Baez_0_1581441986.html
p12
aVhttps://www.clarin.com/politica/Casanello-citaria-indagatoria-colaborador-Baez_0_1581441986.html
p13
aVhttps://www.clarin.com/politica/dejar-hilo-corte-pobres_0_1581442004.html
p14
a.