(lp0
S'https://www.clarin.com/politica/Gobierno-partidos-politicos-reforma-politica_0_1512448979.html'
p1
aS'https://www.clarin.com/politica/Gobierno-partidos-politicos-reforma-politica_0_1512448979.html'
p2
aS'https://www.clarin.com/politica/PJ-jujuy-Eduardo_Fellner-Carlos_Haquim-Congreso_0_1512448980.html'
p3
aS'https://www.clarin.com/politica/PJ-jujuy-Eduardo_Fellner-Carlos_Haquim-Congreso_0_1512448980.html'
p4
aS'https://www.clarin.com/politica/Mauricio_Macri-Mendoza-superclasico_0_1512448976.html'
p5
aS'https://www.clarin.com/politica/Mauricio_Macri-Mendoza-superclasico_0_1512448976.html'
p6
aS'https://www.clarin.com/ieco/inflacion-enero_2016-tarifas_0_1512448975.html'
p7
aS'https://www.clarin.com/ieco/inflacion-enero_2016-tarifas_0_1512448975.html'
p8
aS'https://www.clarin.com/politica/Milagro_Sala-acampe-plaza_de_mayo_0_1512448947.html'
p9
aS'https://www.clarin.com/politica/Milagro_Sala-acampe-plaza_de_mayo_0_1512448947.html'
p10
a.