(lp0
S'https://www.clarin.com/politica/Papa-Argentina-incluira-Chile-Uruguay_0_1654634601.html'
p1
aS'https://www.clarin.com/politica/Saenz-celebro-Nisman-justicia-federal_0_1654634598.html'
p2
aS'https://www.clarin.com/politica/vicecanciller-miercoles-Congreso-Gran-Bretana_0_1654634609.html'
p3
aS'https://www.clarin.com/ieco/Endemol-vendio-cambia-nombre_0_1654634611.html'
p4
aS'https://www.clarin.com/sociedad/mensaje-Nicolas-victima-Dia-Primavera_0_1654634548.html'
p5
a.