(lp0
S'https://www.clarin.com/sociedad/Video-sobrevivieron-terremoto-Nueva-Zelanda_0_1687031326.html'
p1
aS'https://www.clarin.com/politica/gastos-Malcorra-candidatura-ONU-pesos_0_1687031325.html'
p2
aS'https://www.clarin.com/sociedad/chica-anos-hizo-famosa-Instagram_0_1687031321.html'
p3
aS'https://www.clarin.com/ieco/Convocan-audiencias-publicas-nuevos-aumentos_0_1687031330.html'
p4
a.