(lp0
S'https://www.clarin.com/sociedad/transmision-sexual-zika-comun-creia_0_1536446702.html'
p1
aS'https://www.clarin.com/politica/retoques-salir-default-obtuvo-dictamen_0_1536446699.html'
p2
aS'https://www.clarin.com/politica/retoques-salir-default-obtuvo-dictamen_0_1536446699.html'
p3
aS'https://www.clarin.com/politica/Condenan-medio-diputada-administracion-fraudulenta_0_1536446688.html'
p4
aS'https://www.clarin.com/politica/Condenan-medio-diputada-administracion-fraudulenta_0_1536446688.html'
p5
aS'https://www.clarin.com/ieco/economia/Agricultura-comprara-excedente-leche-tamberos_0_1536446687.html'
p6
aS'https://www.clarin.com/sociedad/Detienen-desfigurarle-rostro-golpes-pareja_0_1536446685.html'
p7
aS'https://www.clarin.com/sociedad/Internaron-cuerpo-quemado-detuvieron-pareja_0_1536446671.html'
p8
aS'https://www.clarin.com/sociedad/Internaron-cuerpo-quemado-detuvieron-pareja_0_1536446671.html'
p9
a.