(lp0
S'https://www.clarin.com/politica/Fallecio-Ricardo-Obregon-Cano-Cordoba_0_1598840215.html'
p1
aS'https://www.clarin.com/ieco/economia/CAME-semana-viajaron-personas-ventas_0_1598840220.html'
p2
aS'https://www.clarin.com/ieco/economia/Subieron-ADRs-euforia-mercados-europeos_0_1598840218.html'
p3
aS'https://www.clarin.com/sociedad/China-sacrificar-polemico-festival-Yulin_0_1598840202.html'
p4
aS'https://www.clarin.com/politica/Sigue-sangria-gobernador-kirchnerismo-paso_0_1598840203.html'
p5
aS'https://www.clarin.com/sociedad/reacciones-comunidad-subasta-objetos-Hitler_0_1598840199.html'
p6
a.