(lp0
S'https://www.clarin.com/politica/ministra-controlaba-Policia-termino-enfrentandola_0_1679232159.html'
p1
aS'https://www.clarin.com/politica/ministra-controlaba-Policia-termino-enfrentandola_0_1679232159.html'
p2
aS'https://www.clarin.com/ieco/economia/venta-autos-subio-octubre_0_1679232158.html'
p3
aS'https://www.clarin.com/ieco/economia/venta-autos-subio-octubre_0_1679232158.html'
p4
aS'https://www.clarin.com/politica/argumentos-diputada-bodeguera-defiende-legisladores_0_1679232157.html'
p5
aS'https://www.clarin.com/politica/argumentos-diputada-bodeguera-defiende-legisladores_0_1679232157.html'
p6
aS'https://www.clarin.com/politica/Scioli-respondio-Mirtha-Legrand-impuse_0_1679232152.html'
p7
aS'https://www.clarin.com/politica/Scioli-respondio-Mirtha-Legrand-impuse_0_1679232152.html'
p8
a.