(lp0
Vhttps://www.clarin.com/sociedad/Advierten-calentamiento-global-reducira-cultivo_0_1640835962.html
p1
aVhttps://www.clarin.com/sociedad/Advierten-calentamiento-global-reducira-cultivo_0_1640835962.html
p2
aVhttps://www.clarin.com/politica/Nuevos-polemica-peronismo-fracaso-marcha_0_1640835960.html
p3
aVhttps://www.clarin.com/politica/Nuevos-polemica-peronismo-fracaso-marcha_0_1640835960.html
p4
aVhttps://www.clarin.com/politica/Perla-fiscales-investigar-Isabel-Peron_0_1640835957.html
p5
aVhttps://www.clarin.com/politica/Perla-fiscales-investigar-Isabel-Peron_0_1640835957.html
p6
aVhttps://www.clarin.com/sociedad/Agredieron-medico-enfermero-Fernandez_0_1640835946.html
p7
aVhttps://www.clarin.com/sociedad/Agredieron-medico-enfermero-Fernandez_0_1640835946.html
p8
aVhttps://www.clarin.com/politica/Triunfo-consuelo-Campora-Universidad-Plata_0_1640835944.html
p9
aVhttps://www.clarin.com/politica/Triunfo-consuelo-Campora-Universidad-Plata_0_1640835944.html
p10
aVhttps://www.clarin.com/sociedad/Volvieron-fiestas-mansion-Playboy-despues_0_1640835945.html
p11
aVhttps://www.clarin.com/sociedad/Volvieron-fiestas-mansion-Playboy-despues_0_1640835945.html
p12
a.