(lp0
S'https://www.clarin.com/politica/Mendoza-reprimen-desalojan-protesta-despidos_0_1582641821.html'
p1
aS'https://www.clarin.com/sociedad/Time-Warp-Stinfale-Gontad-Conci_0_1582641813.html'
p2
aS'https://www.clarin.com/sociedad/Time-Warp-Stinfale-Gontad-Conci_0_1582641813.html'
p3
aS'https://www.clarin.com/ieco/economia/Suba-gas-pymes-cambios-alcanzan_0_1582641814.html'
p4
aS'https://www.clarin.com/ieco/economia/Suba-gas-pymes-cambios-alcanzan_0_1582641814.html'
p5
aS'https://www.clarin.com/politica/Macri-volvio-usar-Cristina-ejemplo_0_1582641812.html'
p6
aS'https://www.clarin.com/politica/Macri-volvio-usar-Cristina-ejemplo_0_1582641812.html'
p7
aS'https://www.clarin.com/sociedad/internado-ataque-pitbull-Mar-Plata_0_1582641809.html'
p8
a.