(lp0
Vhttps://www.clarin.com/sociedad/pesar-riesgos-jovenes-fuman-tabaco_0_1553844820.html
p1
aVhttps://www.clarin.com/sociedad/pesar-riesgos-jovenes-fuman-tabaco_0_1553844820.html
p2
aVhttps://www.clarin.com/politica/abogado-denunciara-Macri-sociedad-shore_0_1553844815.html
p3
aVhttps://www.clarin.com/politica/abogado-denunciara-Macri-sociedad-shore_0_1553844815.html
p4
aVhttps://www.clarin.com/ieco/economia/Alibaba-Walmart-principal-ventas-minoristas_0_1553844814.html
p5
aVhttps://www.clarin.com/ieco/economia/Alibaba-Walmart-principal-ventas-minoristas_0_1553844814.html
p6
aVhttps://www.clarin.com/sociedad/PAMI-redujo-lista-remedios-cobertura_0_1553844798.html
p7
aVhttps://www.clarin.com/sociedad/PAMI-redujo-lista-remedios-cobertura_0_1553844798.html
p8
aVhttps://www.clarin.com/politica/Parece-problema-Baez-apenas-aterrizaron_0_1553844785.html
p9
aVhttps://www.clarin.com/politica/Parece-problema-Baez-apenas-aterrizaron_0_1553844785.html
p10
aVhttps://www.clarin.com/sociedad/fundadora-Huffington-Post-ensena-dormir_0_1553844786.html
p11
aVhttps://www.clarin.com/sociedad/fundadora-Huffington-Post-ensena-dormir_0_1553844786.html
p12
a.