(lp0
Vhttps://www.clarin.com/sociedad/Casanello-ordeno-detencion-Adrian-Conci_0_1561044189.html
p1
aVhttps://www.clarin.com/sociedad/Casanello-ordeno-detencion-Adrian-Conci_0_1561044189.html
p2
aVhttps://www.clarin.com/politica/Casanello-captura-internacional-Jorge-Chueco_0_1561044184.html
p3
aVhttps://www.clarin.com/politica/Casanello-captura-internacional-Jorge-Chueco_0_1561044184.html
p4
aVhttps://www.clarin.com/politica/Stolbizer-investigar-directivos-Banco-Central_0_1561044174.html
p5
aVhttps://www.clarin.com/politica/Stolbizer-investigar-directivos-Banco-Central_0_1561044174.html
p6
aVhttps://www.clarin.com/sociedad/Hacer-cumbre-disfrutar-asado-nubes_0_1561044173.html
p7
aVhttps://www.clarin.com/politica/quiere-imputados-empresas-paraisos-fiscales_0_1561044172.html
p8
aVhttps://www.clarin.com/politica/quiere-imputados-empresas-paraisos-fiscales_0_1561044172.html
p9
aVhttps://www.clarin.com/politica/Casanello-preventiva-Baez-indagatoria-Echegaray_0_1561044165.html
p10
aVhttps://www.clarin.com/politica/Casanello-preventiva-Baez-indagatoria-Echegaray_0_1561044165.html
p11
aVhttps://www.clarin.com/politica/Secuestro-vehiculos-embargos-congelamiento-bancarias_0_1561044169.html
p12
aVhttps://www.clarin.com/politica/Secuestro-vehiculos-embargos-congelamiento-bancarias_0_1561044169.html
p13
aVhttps://www.clarin.com/ieco/expertos-elogian-colocacion-impulso-inversiones_0_1561044167.html
p14
a.