(lp0
Vhttps://www.clarin.com/ieco/FMI-levanto-censura-estadisticas-argentinas_0_1684031728.html
p1
aVhttps://www.clarin.com/ieco/economia/ejecutivos-sector-mejoraron-condiciones-financieras_0_1684031719.html
p2
aVhttps://www.clarin.com/ieco/economia/ejecutivos-sector-mejoraron-condiciones-financieras_0_1684031719.html
p3
a.