(lp0
S'https://www.clarin.com/sociedad/despues-repitieron-viaje-egresadas-Bariloche_0_1662433823.html'
p1
aS'https://www.clarin.com/politica/juez-Canicoba-proceso-ministro-Timerman_0_1662433836.html'
p2
aS'https://www.clarin.com/sociedad/Aguer-ahora-operaciones-cambio-sexo_0_1662433828.html'
p3
aS'https://www.clarin.com/sociedad/Denuncio-patota-brutal-paliza-salida_0_1662433815.html'
p4
aS'https://www.clarin.com/ieco/Melconian-aseguro-credito-hipotecario-masivo_0_1662433831.html'
p5
aS'https://www.clarin.com/sociedad/Problemas-pasajeros-Aerolineas-Punta-Cana_0_1662433829.html'
p6
aS'https://www.clarin.com/politica/Bullrich-Personalmente-preocupa-ano-dia_0_1662433813.html'
p7
a.