(lp0
S'https://www.clarin.com/politica/Acosado-judiciales-Vido-reaparecio-Congreso_0_1637236412.html'
p1
aS'https://www.clarin.com/politica/Nueva-amenaza-bomba-Casa-Rosada_0_1637236416.html'
p2
aS'https://www.clarin.com/politica/Argentina-postura-disputa-Caracas_0_1637236410.html'
p3
aS'https://www.clarin.com/politica/Szpolski-dejo-silla-vacia-Diputados_0_1637236419.html'
p4
aS'https://www.clarin.com/politica/Exabrupto-Cortinas-Fernandez-Meijide-Pobre_0_1637236418.html'
p5
a.