(lp0
S'https://www.clarin.com/politica/Miriam-Quiroga-Nestor-Kirchner-Cristina_0_1583841681.html'
p1
aS'https://www.clarin.com/sociedad/Hallan-Miramar-huellas-vistas-prehistorico_0_1583841680.html'
p2
aS'https://www.clarin.com/ieco/economia/suba-crudo-caen-subsidios-exportacion_0_1583841692.html'
p3
aS'https://www.clarin.com/sociedad/sociales-criticas-memes-defensa-Bicentenario_0_1583841668.html'
p4
a.