(lp0
S'https://www.clarin.com/politica/supuesta-Lazaro-quebrar-familia-Baez_0_1602439832.html'
p1
aS'https://www.clarin.com/sociedad/barrio-despidio-viejo-almacen_0_1600640098.html'
p2
aS'https://www.clarin.com/sociedad/canillita-dono-exito-rinon-hijo_0_1602439831.html'
p3
a.