(lp0
S'https://www.clarin.com/opinion/duelo-mafiosos-honestos_0_1589841006.html'
p1
aS'https://www.clarin.com/sociedad/chicos-perfiles-Web-alertan-identidades_0_1589841007.html'
p2
aS'https://www.clarin.com/opinion/Campanadas-alerta-suenan-Europa_0_1589241150.html'
p3
aS'https://www.clarin.com/opinion/Todavia-entienden-economia-complica_0_1589241153.html'
p4
aS'https://www.clarin.com/opinion/Brasil-criminalizada-perseguir-selectivamente-gobierno_0_1589241149.html'
p5
aS'https://www.clarin.com/opinion/bibliotecaria-Bombonera_0_1588641305.html'
p6
aS'https://www.clarin.com/opinion/pinchandose-inflacion_0_1589841005.html'
p7
aS'https://www.clarin.com/opinion/Parapente-hombre-puede-volar_0_1589241147.html'
p8
aS'https://www.clarin.com/opinion/meses-Gobierno-acuerdo-pocos-antecedentes_0_1589241152.html'
p9
a.