(lp0
Vhttps://www.clarin.com/politica/Contrataque-judicial-Lazaro-Baez-graves_0_1666633371.html
p1
aVhttps://www.clarin.com/politica/Contrataque-judicial-Lazaro-Baez-graves_0_1666633371.html
p2
aVhttps://www.clarin.com/politica/Guerra-nervios-Gobierno-CGT_0_1667233262.html
p3
aVhttps://www.clarin.com/politica/entrepierna-Trump_0_1667233261.html
p4
aVhttps://www.clarin.com/politica/Maxima-abogo-inclusion-salir-pobreza_0_1666633491.html
p5
aVhttps://www.clarin.com/politica/Maxima-abogo-inclusion-salir-pobreza_0_1666633491.html
p6
aVhttps://www.clarin.com/ieco/coloquioidea/Macri-reclamo-transparencia-obra-publica_0_1666633513.html
p7
a.