(lp0
S'https://www.clarin.com/politica/platenses-consultan-Justicia-decidir-Farina_0_1558044438.html'
p1
aS'https://www.clarin.com/politica/platenses-consultan-Justicia-decidir-Farina_0_1558044438.html'
p2
aS'https://www.clarin.com/politica/excusa-Cristina-contestarle-pregunta-Bonadio_0_1558044432.html'
p3
aS'https://www.clarin.com/politica/excusa-Cristina-contestarle-pregunta-Bonadio_0_1558044432.html'
p4
aS'https://www.clarin.com/ieco/primera-persona-productores-muestran-inundacion_0_1558044411.html'
p5
aS'https://www.clarin.com/ieco/primera-persona-productores-muestran-inundacion_0_1558044411.html'
p6
aS'https://www.clarin.com/politica/frases-picantes-Cristina-Kirchner_0_1558044419.html'
p7
aS'https://www.clarin.com/politica/frases-picantes-Cristina-Kirchner_0_1558044419.html'
p8
aS'https://www.clarin.com/sociedad/rutas-danadas-Rios-declara-emergencia_0_1558044415.html'
p9
aS'https://www.clarin.com/sociedad/rutas-danadas-Rios-declara-emergencia_0_1558044415.html'
p10
aS'https://www.clarin.com/politica/Putin-Macri-visitarlo-continua-Rusia_0_1558044390.html'
p11
aS'https://www.clarin.com/politica/Putin-Macri-visitarlo-continua-Rusia_0_1558044390.html'
p12
a.