(lp0
Vhttps://www.clarin.com/sociedad/Gemelas-dan-mismo-misma-hora_0_1608439168.html
p1
aVhttps://www.clarin.com/sociedad/Gemelas-dan-mismo-misma-hora_0_1608439168.html
p2
aVhttps://www.clarin.com/sociedad/Hitler-Argentina-intenta-convertir-realidad_0_1602439848.html
p3
aVhttps://www.clarin.com/sociedad/Hitler-Argentina-intenta-convertir-realidad_0_1602439848.html
p4
aVhttps://www.clarin.com/sociedad/historia-carta-volvio-siglo-despues_0_1608439161.html
p5
aVhttps://www.clarin.com/sociedad/historia-carta-volvio-siglo-despues_0_1608439161.html
p6
aVhttps://www.clarin.com/politica/operativo-seguridad-Lazaro-Baez-tribunales_0_1608439157.html
p7
aVhttps://www.clarin.com/politica/operativo-seguridad-Lazaro-Baez-tribunales_0_1608439157.html
p8
aVhttps://www.clarin.com/ieco/empleo-industrial_0_1607839393.html
p9
a.