(lp0
Vhttps://www.clarin.com/politica/Auditoria_General_de_la_Nacion-Elisa_Carrio-Ricardo_Echegaray_0_1499850020.html
p1
aVhttps://www.clarin.com/politica/Medios-Hernan_Lombardi-Gobierno-TV_Publica_0_1499850019.html
p2
aVhttps://www.clarin.com/ieco/Autos-Precios-Devaluacion-Impuestos-Aumentos_0_1499850018.html
p3
aVhttps://www.clarin.com/politica/Mauricio_Macri-Unidad_Medica_Presidencial-Jorge_Lemus-Alberto_Crescenti_0_1499850017.html
p4
aVhttps://www.clarin.com/politica/Mauricio_Macri-Tabare_Vazquez-encuentro-Colonia-Uruguay_0_1499850016.html
p5
aVhttps://www.clarin.com/politica/Triple-penitenciario-Cesar-Luis-Tolosa_0_1499850008.html
p6
aVhttps://www.clarin.com/politica/Triple-penitenciario-Cesar-Luis-Tolosa_0_1499850008.html
p7
aVhttps://www.clarin.com/ieco/economia/continuidad-precios_cuidados_0_1499250537.html
p8
a.