(lp0
Vhttps://www.clarin.com/politica/Impresionantes-imagenes-hundimiento-pesquero-chino_0_1542445939.html
p1
aVhttps://www.clarin.com/politica/Impresionantes-imagenes-hundimiento-pesquero-chino_0_1542445939.html
p2
aVhttps://www.clarin.com/sociedad/Niegan-censurado-puesto-diarios-vender_0_1542445928.html
p3
aVhttps://www.clarin.com/sociedad/Niegan-censurado-puesto-diarios-vender_0_1542445928.html
p4
aVhttps://www.clarin.com/sociedad/ruptura-glaciar-Perito-Moreno-video_0_1542445935.html
p5
aVhttps://www.clarin.com/sociedad/ruptura-glaciar-Perito-Moreno-video_0_1542445935.html
p6
aVhttps://www.clarin.com/politica/Macri-Quiero-gobernadores-importante-Congreso_0_1542445931.html
p7
aVhttps://www.clarin.com/politica/Macri-Quiero-gobernadores-importante-Congreso_0_1542445931.html
p8
aVhttps://www.clarin.com/ieco/Pena-responsable-primario-inflacion_0_1542445929.html
p9
aVhttps://www.clarin.com/ieco/Pena-responsable-primario-inflacion_0_1542445929.html
p10
aVhttps://www.clarin.com/ieco/ventas-shoppings-supermercados-crecieron-inflacion_0_1542445926.html
p11
aVhttps://www.clarin.com/ieco/ventas-shoppings-supermercados-crecieron-inflacion_0_1542445926.html
p12
a.