(lp0
S'https://www.clarin.com/opinion/inflacion_microeconomia_consumidor_alza_de_precios_Macri_0_1522048251.html'
p1
aS'https://www.clarin.com/opinion/inflacion_microeconomia_consumidor_alza_de_precios_Macri_0_1522048251.html'
p2
a.