(lp0
S'https://www.clarin.com/opinion/trata-Uber-revolucion-formas-pago_0_1587441372.html'
p1
aS'https://www.clarin.com/politica/Casanello-segunda-Baez-embargo-millones_0_1587441417.html'
p2
aS'https://www.clarin.com/politica/Sigue-tension-gremios-petroleros-salarial_0_1587441444.html'
p3
aS'https://www.clarin.com/politica/Inflacion-dificil-nuevo-INDEC_0_1588041182.html'
p4
aS'https://www.clarin.com/politica/apoyo-opositor-tratan-blanqueo-jubilaciones_0_1587441461.html'
p5
aS'https://www.clarin.com/opinion/noticia-falta-llegar-Vaticano_0_1588041181.html'
p6
aS'https://www.clarin.com/politica/eventuales-buchones-fortalece-pista-panamena_0_1587441447.html'
p7
a.