(lp0
S'https://www.clarin.com/politica/Alfonso-Prat-Gay-recibira-CGT_0_1654634698.html'
p1
aS'https://www.clarin.com/sociedad/Mar-Plata-advierten-cerraron-comerciales_0_1654634701.html'
p2
aS'https://www.clarin.com/sociedad/bloque-federal-rectores-despega-pasado_0_1654634702.html'
p3
aS'https://www.clarin.com/politica/Denuncias-sospechas-extorsion-Julio-Garro_0_1654634704.html'
p4
aS'https://www.clarin.com/politica/Caso-Nisman-justicia-investigara-hipotesis_0_1654634685.html'
p5
aS'https://www.clarin.com/sociedad/Presentan-proyecto-regular-vientres-sustitutos_0_1654634674.html'
p6
aS'https://www.clarin.com/politica/Malvinas-vicecanciller-explique-acuerdo-Londres_0_1654634690.html'
p7
aS'https://www.clarin.com/politica/Luis-DElia-secundario-Mintio-Lanata_0_1654634696.html'
p8
aS'https://www.clarin.com/sociedad/perfil-tecnico-universidades-recien-creadas_0_1654634703.html'
p9
a.