(lp0
S'https://www.clarin.com/politica/Ottavis-escondio-embotellamiento-Puerto-Madero_0_1684031770.html'
p1
aS'https://www.clarin.com/politica/exportadores-argentinos-tensiones-comerciales-Trump_0_1684031774.html'
p2
a.