(lp0
S'https://www.clarin.com/politica/Susana-Malcorra-Confirmo-canciller-Argentina_0_1663033843.html'
p1
aS'https://www.clarin.com/politica/Susana-Malcorra-Confirmo-canciller-Argentina_0_1663033843.html'
p2
aS'https://www.clarin.com/politica/San-Fernando-aviones-oficiales-drogas_0_1663033837.html'
p3
aS'https://www.clarin.com/politica/San-Fernando-aviones-oficiales-drogas_0_1663033837.html'
p4
aS'https://www.clarin.com/politica/Vidal-inseguridad-propia-campana-miedo_0_1663033840.html'
p5
aS'https://www.clarin.com/politica/Vidal-inseguridad-propia-campana-miedo_0_1663033840.html'
p6
aS'https://www.clarin.com/ieco/economia/Argentina-acordo-holdouts-US-millones_0_1663033829.html'
p7
aS'https://www.clarin.com/ieco/economia/Argentina-acordo-holdouts-US-millones_0_1663033829.html'
p8
aS'https://www.clarin.com/politica/Maxima-visitara-Argentina-Mauricio-Macri_0_1663033833.html'
p9
aS'https://www.clarin.com/politica/Maxima-visitara-Argentina-Mauricio-Macri_0_1663033833.html'
p10
aS'https://www.clarin.com/ieco/economia/produccion-autos-cayo-setiembre_0_1663033834.html'
p11
aS'https://www.clarin.com/ieco/economia/produccion-autos-cayo-setiembre_0_1663033834.html'
p12
a.