(lp0
Vhttps://www.clarin.com/sociedad/Convivir-meta-mujeres-eligen-soledad_0_1525647783.html
p1
aVhttps://www.clarin.com/sociedad/Convivir-meta-mujeres-eligen-soledad_0_1525647783.html
p2
aVhttps://www.clarin.com/politica/Sergio_Massa-Congreso-DNU-Mauricio_Macri_0_1526247421.html
p3
aVhttps://www.clarin.com/politica/congelamiento-genera-distorsiones_0_1525647905.html
p4
aVhttps://www.clarin.com/politica/costo-fiscal-cambiaran-escalas-Ganancias_0_1525647888.html
p5
aVhttps://www.clarin.com/politica/costo-fiscal-cambiaran-escalas-Ganancias_0_1525647888.html
p6
aVhttps://www.clarin.com/politica/desocupacion-empleo-brasil-petroleo_0_1526247409.html
p7
aVhttps://www.clarin.com/opinion/Raquel_Garzon-Pasiones_argentinas_0_1526247408.html
p8
a.