(lp0
S'https://www.clarin.com/politica/Macri-reaparece-Lomas-anuncia-beneficios_0_1590440961.html'
p1
aS'https://www.clarin.com/politica/Macri-reaparece-Lomas-anuncia-beneficios_0_1590440961.html'
p2
aS'https://www.clarin.com/sociedad/heridos-vuelo-Lima-Buenos-Aires_0_1590440958.html'
p3
aS'https://www.clarin.com/sociedad/heridos-vuelo-Lima-Buenos-Aires_0_1590440958.html'
p4
aS'https://www.clarin.com/politica/Lazaro-Baez-Tribunales-Casanello-Cristina_0_1590440960.html'
p5
aS'https://www.clarin.com/politica/Lazaro-Baez-Tribunales-Casanello-Cristina_0_1590440960.html'
p6
aS'https://www.clarin.com/politica/presidencial-Macri-funcion-restricciones-corazon_0_1590440957.html'
p7
aS'https://www.clarin.com/politica/presidencial-Macri-funcion-restricciones-corazon_0_1590440957.html'
p8
aS'https://www.clarin.com/politica/dejo-Cristina-instalaciones-Casa-Rosada_0_1589841133.html'
p9
aS'https://www.clarin.com/politica/dejo-Cristina-instalaciones-Casa-Rosada_0_1589841133.html'
p10
aS'https://www.clarin.com/politica/Lazaro-Baez-Casanello-vinculara-Cristina_0_1590440947.html'
p11
aS'https://www.clarin.com/politica/Lazaro-Baez-Casanello-vinculara-Cristina_0_1590440947.html'
p12
aS'https://www.clarin.com/politica/Marijuan-allanados-copropiedad-presidenta-Baez_0_1590440946.html'
p13
a.