(lp0
S'https://www.clarin.com/politica/Pampa-denuncian-gobernador-acueducto-construyo_0_1663633705.html'
p1
aS'https://www.clarin.com/politica/nuevo-Oyarbide-platinado-campera-fashion_0_1663633686.html'
p2
aS'https://www.clarin.com/politica/Macri-respaldo-Malcorra-emociono-mejores_0_1663633704.html'
p3
aS'https://www.clarin.com/ieco/economia/hombre-destapo-peores-Deutsche-Bank_0_1663633702.html'
p4
aS'https://www.clarin.com/politica/FMI-elogio-transparencia-estadisticas-INDEC_0_1663633712.html'
p5
a.