(lp0
Vhttps://www.clarin.com/sociedad/Unidos-prohibio-Galaxy-Note-aviones_0_1670232970.html
p1
aVhttps://www.clarin.com/sociedad/Unidos-prohibio-Galaxy-Note-aviones_0_1670232970.html
p2
aVhttps://www.clarin.com/politica/Macri-regreso-Roma-encabeza-ambulancias_0_1670232967.html
p3
aVhttps://www.clarin.com/politica/Macri-regreso-Roma-encabeza-ambulancias_0_1670232967.html
p4
aVhttps://www.clarin.com/politica/Avanza-proyecto-jubilados-AFJP-cobrar_0_1669633127.html
p5
aVhttps://www.clarin.com/politica/Avanza-proyecto-jubilados-AFJP-cobrar_0_1669633127.html
p6
aVhttps://www.clarin.com/ieco/economia/Ley-semillas-empresas-resisten-proyecto_0_1669633156.html
p7
aVhttps://www.clarin.com/ieco/economia/Ley-semillas-empresas-resisten-proyecto_0_1669633156.html
p8
aVhttps://www.clarin.com/politica/Bono-pedirian-Fisco-poder-pagar_0_1669633159.html
p9
aVhttps://www.clarin.com/politica/Bono-pedirian-Fisco-poder-pagar_0_1669633159.html
p10
aVhttps://www.clarin.com/politica/Arranca-desembarco-federales-distritos-GBA_0_1670232964.html
p11
aVhttps://www.clarin.com/politica/Arranca-desembarco-federales-distritos-GBA_0_1670232964.html
p12
aVhttps://www.clarin.com/opinion/Santos-argentinos_0_1669633134.html
p13
aVhttps://www.clarin.com/opinion/Santos-argentinos_0_1669633134.html
p14
aVhttps://www.clarin.com/politica/Macri-espera-derrame-Pinera-Chile_0_1670232963.html
p15
aVhttps://www.clarin.com/politica/controvertido-informe-Lanata-extranjeros_0_1670232962.html
p16
aVhttps://www.clarin.com/politica/controvertido-informe-Lanata-extranjeros_0_1670232962.html
p17
aVhttps://www.clarin.com/politica/Estatales-mayor-desafio-bono_0_1670232961.html
p18
aVhttps://www.clarin.com/politica/Postre-Boudou-sopa-Randazzo_0_1669633177.html
p19
aVhttps://www.clarin.com/politica/Postre-Boudou-sopa-Randazzo_0_1669633177.html
p20
a.