(lp0
S'https://www.clarin.com/opinion/toga-puede-cambiar-Unidos_0_1529847388.html'
p1
aS'https://www.clarin.com/sociedad/Mundos-intimos-Respira-suenos-logren_0_1529847421.html'
p2
aS'https://www.clarin.com/sociedad/Mundos-intimos-Respira-suenos-logren_0_1529847421.html'
p3
aS'https://www.clarin.com/politica/Bonadio-indagara-Cristina-venta-futuro_0_1529847478.html'
p4
aS'https://www.clarin.com/politica/CFK-anos-Presidenta-causas-abiertas_0_1529847479.html'
p5
aS'https://www.clarin.com/opinion/leemos-rapido-mejor_0_1529847365.html'
p6
aS'https://www.clarin.com/sociedad/fiesta-privada-noche-solo-Plata_0_1529847440.html'
p7
aS'https://www.clarin.com/sociedad/fiesta-privada-noche-solo-Plata_0_1529847440.html'
p8
aS'https://www.clarin.com/opinion/entonces_0_1530447000.html'
p9
aS'https://www.clarin.com/politica/Macri-Papa-busca-relacion-fluida_0_1529847433.html'
p10
aS'https://www.clarin.com/politica/Macri-Papa-busca-relacion-fluida_0_1529847433.html'
p11
a.