(lp0
Vhttps://www.clarin.com/sociedad/viajar-exterior-devaluacion-cepo-cuotas_0_1497450326.html
p1
aVhttps://www.clarin.com/politica/Ritondo-acuso-Anibal-involucrado-submundo_0_1497450318.html
p2
aVhttps://www.clarin.com/politica/Ritondo-acuso-Anibal-involucrado-submundo_0_1497450318.html
p3
aVhttps://www.clarin.com/sociedad/tragedia-camping-Sur-cayo-arbol-mato-dos-nenes_0_1497450312.html
p4
aVhttps://www.clarin.com/sociedad/tragedia-camping-Sur-cayo-arbol-mato-dos-nenes_0_1497450312.html
p5
aVhttps://www.clarin.com/sociedad/telenovela-del-kirchnerato_0_1497450311.html
p6
aVhttps://www.clarin.com/sociedad/Encontraron-Yani-Rejas-desaparecido-diciembre_0_1497450300.html
p7
aVhttps://www.clarin.com/sociedad/Encontraron-Yani-Rejas-desaparecido-diciembre_0_1497450300.html
p8
aVhttps://www.clarin.com/sociedad/nadie-paraba-de-bailar-mientras-Yessica-moria_0_1497450297.html
p9
aVhttps://www.clarin.com/sociedad/nadie-paraba-de-bailar-mientras-Yessica-moria_0_1497450297.html
p10
aVhttps://www.clarin.com/opinion/anos_60-poesia-metodo_de_meditacion_0_1497450295.html
p11
aVhttps://www.clarin.com/opinion/puertos_de_la_Patagonia-impuestos_0_1497450294.html
p12
aVhttps://www.clarin.com/opinion/calidad_de_vida-organizacion_del_territorio_0_1497450293.html
p13
aVhttps://www.clarin.com/opinion/red_de_trenes-_subte-Metrobus_0_1497450292.html
p14
aVhttps://www.clarin.com/sociedad/primer-verano-Juan-casa-Federico_Jeanmarie_0_1497450287.html
p15
aVhttps://www.clarin.com/politica/Morsa-Faraon-fuga-argentina_0_1497450285.html
p16
a.