(lp0
S'https://www.clarin.com/politica/Citan-indagatoria-Boudou-vehiculos-sobreprecios_0_1582641800.html'
p1
aS'https://www.clarin.com/ieco/devaluacion-alcanza-reactivar-exportaciones-agro_0_1582641789.html'
p2
aS'https://www.clarin.com/politica/amparo-frena-aumento-ahora-Bariloche_0_1582641804.html'
p3
aS'https://www.clarin.com/ieco/economia/Pampa-eliminar-barrera-carne-hueso_0_1582641801.html'
p4
aS'https://www.clarin.com/politica/Imputaron-exministro-Vido-sobreprecios_0_1582641802.html'
p5
aS'https://www.clarin.com/sociedad/Facebook-censuro-modelo-XL-demasiado_0_1582641782.html'
p6
aS'https://www.clarin.com/politica/Macri-cambio-planes-Mayo-protestas_0_1582641807.html'
p7
a.