(lp0
S'https://www.clarin.com/ieco/economia/industria-depende-mejora-poder-adquisitivo_0_1672632849.html'
p1
aS'https://www.clarin.com/sociedad/Sorprendente-coincidencia-sorteo-Quini-Lost_0_1672632854.html'
p2
aS'https://www.clarin.com/ieco/economia/consumo-masivo-cayo-septiembre-ano_0_1672632858.html'
p3
a.