(lp0
S'https://www.clarin.com/sociedad/Toblerone-cambio-forma-chocolate-centenario_0_1683431705.html'
p1
aS'https://www.clarin.com/sociedad/femicidas-matan-Madre-quiere-mujer_0_1683431712.html'
p2
aS'https://www.clarin.com/sociedad/desafio-maniqui-viral-Hillary-llamo_0_1683431710.html'
p3
aS'https://www.clarin.com/ieco/Prat-Gay-sistema-financiero-blanqueo_0_1683431706.html'
p4
a.