(lp0
S'https://www.clarin.com/politica/Gobierno-presento-informe-Corte-justificar_0_1624637585.html'
p1
aS'https://www.clarin.com/politica/Gobierno-presento-informe-Corte-justificar_0_1624637585.html'
p2
aS'https://www.clarin.com/politica/Veni-Daniel-agrupacion-macrista-Scioli_0_1624637587.html'
p3
aS'https://www.clarin.com/politica/Veni-Daniel-agrupacion-macrista-Scioli_0_1624637587.html'
p4
aS'https://www.clarin.com/politica/Luis-Brandoni-kirchnerismo-peor-corrupcion_0_1624637586.html'
p5
aS'https://www.clarin.com/politica/Luis-Brandoni-kirchnerismo-peor-corrupcion_0_1624637586.html'
p6
aS'https://www.clarin.com/ieco/Despues-Rural-Federacion-Agraria-productores_0_1624037681.html'
p7
aS'https://www.clarin.com/ieco/Despues-Rural-Federacion-Agraria-productores_0_1624037681.html'
p8
aS'https://www.clarin.com/politica/Macri-ajuste-gradual-digan_0_1624637580.html'
p9
aS'https://www.clarin.com/sociedad/cachorro-estrena-protesis-despues-vecino_0_1624637563.html'
p10
aS'https://www.clarin.com/sociedad/cachorro-estrena-protesis-despues-vecino_0_1624637563.html'
p11
a.