(lp0
Vhttps://www.clarin.com/sociedad/Desesperada-busqueda-mujer-Bariloche_0_1549645404.html
p1
aVhttps://www.clarin.com/sociedad/Desesperada-busqueda-mujer-Bariloche_0_1549645404.html
p2
aVhttps://www.clarin.com/ieco/economia/Insolito-llego-factura-agua-pesos_0_1549645396.html
p3
aVhttps://www.clarin.com/ieco/economia/Insolito-llego-factura-agua-pesos_0_1549645396.html
p4
aVhttps://www.clarin.com/ieco/economia/Insolito-llego-factura-agua-pesos_0_1549645394.html
p5
aVhttps://www.clarin.com/ieco/economia/Insolito-llego-factura-agua-pesos_0_1549645394.html
p6
aVhttps://www.clarin.com/politica/Vidal-Espinoza-quiso-amenaza-efectividad_0_1549645388.html
p7
aVhttps://www.clarin.com/politica/Vidal-Espinoza-quiso-amenaza-efectividad_0_1549645388.html
p8
aVhttps://www.clarin.com/ieco/economia/FIEL-industria-mantiene-estancada_0_1549645372.html
p9
aVhttps://www.clarin.com/ieco/economia/FIEL-industria-mantiene-estancada_0_1549645372.html
p10
aVhttps://www.clarin.com/politica/Luego-Angelici-Macri-Carrio-Olivos_0_1549645373.html
p11
aVhttps://www.clarin.com/politica/Luego-Angelici-Macri-Carrio-Olivos_0_1549645373.html
p12
a.