(lp0
S'https://www.clarin.com/politica/sospechoso-dinero-figura-sociedades-offshore_0_1564043670.html'
p1
aS'https://www.clarin.com/sociedad/Actividades-Feria-Libro_0_1564043687.html'
p2
aS'https://www.clarin.com/politica/Mira-Intratables-despues-pusieron-Maximo_0_1564043678.html'
p3
aS'https://www.clarin.com/politica/Farina-manuscrito-comprometio-Maximo-Kirchner_0_1564043674.html'
p4
a.