(lp0
Vhttps://www.clarin.com/politica/Daniel-Alvarez-pintoresco-cartero-Cristina_0_1624037612.html
p1
aVhttps://www.clarin.com/politica/Daniel-Alvarez-pintoresco-cartero-Cristina_0_1624037612.html
p2
aVhttps://www.clarin.com/sociedad/Gobierno-reconoce-faltar-manteca-barato_0_1624037682.html
p3
aVhttps://www.clarin.com/sociedad/Gobierno-reconoce-faltar-manteca-barato_0_1624037682.html
p4
aVhttps://www.clarin.com/politica/Imputaron-ministro-Tomada-millones-Racing_0_1624037680.html
p5
aVhttps://www.clarin.com/politica/Imputaron-ministro-Tomada-millones-Racing_0_1624037680.html
p6
aVhttps://www.clarin.com/politica/Scioli-enganosa-denuncia-supuesto-millones_0_1624037679.html
p7
aVhttps://www.clarin.com/politica/Scioli-enganosa-denuncia-supuesto-millones_0_1624037679.html
p8
aVhttps://www.clarin.com/politica/Mercosur-Evo-Maduro-acentuan-diferencias_0_1624037654.html
p9
aVhttps://www.clarin.com/politica/Mercosur-Evo-Maduro-acentuan-diferencias_0_1624037654.html
p10
a.