(lp0
S'https://www.clarin.com/opinion/Gils_Carbo-Poder_Judicial-Poder_Ejecutivo-Ministerio_Publico_0_1525047508.html'
p1
aS'https://www.clarin.com/politica/Gobierno-permitira-cortes-totales-parciales_0_1525047500.html'
p2
aS'https://www.clarin.com/opinion/deseo-tiempos-Facebook_0_1525047511.html'
p3
aS'https://www.clarin.com/opinion/Adolescentes-estudiantes-ensenanza_superior-universidad_0_1525047507.html'
p4
aS'https://www.clarin.com/politica/Gobierno-adelanta-baja-impuesto-Ganancias_0_1525047591.html'
p5
aS'https://www.clarin.com/sociedad/Dengue-Misiones-fumigan-insecticidas-vencidos_0_1524447972.html'
p6
aS'https://www.clarin.com/opinion/Jorge_Todesca-Graciela_Bevacqua-INDEC-estadisticas_oficiales_0_1525047506.html'
p7
a.