(lp0
S'https://www.clarin.com/politica/Macri-cambia-nombre-Museo-Bicentenario_0_1601839890.html'
p1
aS'https://www.clarin.com/politica/Carrio-caso-efedrina-Anibal-Nestor_0_1601839889.html'
p2
aS'https://www.clarin.com/politica/Carrio-caso-efedrina-Anibal-Nestor_0_1601839889.html'
p3
aS'https://www.clarin.com/sociedad/dejaron-cantar-Luna-Park-calle_0_1601839877.html'
p4
aS'https://www.clarin.com/sociedad/dejaron-cantar-Luna-Park-calle_0_1601839877.html'
p5
aS'https://www.clarin.com/politica/bueno-pasando-nerviosismo-kirchnerismo-Stolbizer_0_1601839880.html'
p6
aS'https://www.clarin.com/politica/bueno-pasando-nerviosismo-kirchnerismo-Stolbizer_0_1601839880.html'
p7
aS'https://www.clarin.com/politica/Ercolini-definira-levanta-secreto-Cristina_0_1601839879.html'
p8
a.