(lp0
Vhttps://www.clarin.com/ieco/economia/perfiles-managers-credulos-cinicos_0_1655834559.html
p1
aVhttps://www.clarin.com/ieco/economia/perfiles-managers-credulos-cinicos_0_1655834559.html
p2
aVhttps://www.clarin.com/ieco/economia/Aerolineas-sabe-hacer-ajuste_0_1655834576.html
p3
aVhttps://www.clarin.com/ieco/economia/Patagonia-saldra-vender-vinos-mundo_0_1657034295.html
p4
aVhttps://www.clarin.com/ieco/tecnologia/Wences-Casares-escalas-Silicon-Valley_0_1655834539.html
p5
aVhttps://www.clarin.com/ieco/tecnologia/Wences-Casares-escalas-Silicon-Valley_0_1655834539.html
p6
aVhttps://www.clarin.com/ieco/economia/Calcaterra-listo-vender-Iecsa_0_1655834570.html
p7
aVhttps://www.clarin.com/ieco/economia/Calcaterra-listo-vender-Iecsa_0_1655834570.html
p8
aVhttps://www.clarin.com/ieco/economia/Guillermo-Calvo-situacion-fragil_0_1655834535.html
p9
aVhttps://www.clarin.com/opinion/Respetar-desocupados_0_1657034289.html
p10
aVhttps://www.clarin.com/opinion/Respetar-desocupados_0_1657034289.html
p11
aVhttps://www.clarin.com/ieco/economia/claves-proyecto-Presupuesto_0_1657034288.html
p12
aVhttps://www.clarin.com/ieco/economia/claves-proyecto-Presupuesto_0_1657034288.html
p13
a.