(lp0
Vhttps://www.clarin.com/politica/Garavano-condeno-escrache-Sabbatella-persona_0_1628237217.html
p1
aVhttps://www.clarin.com/politica/Garavano-condeno-escrache-Sabbatella-persona_0_1628237217.html
p2
aVhttps://www.clarin.com/sociedad/Garota-Ipanema-enojada-inauguracion-Juegos_0_1628237216.html
p3
aVhttps://www.clarin.com/sociedad/Garota-Ipanema-enojada-inauguracion-Juegos_0_1628237216.html
p4
aVhttps://www.clarin.com/politica/Suenos-Compartidos-defendio-Vido-judicial_0_1628237211.html
p5
aVhttps://www.clarin.com/politica/Suenos-Compartidos-defendio-Vido-judicial_0_1628237211.html
p6
aVhttps://www.clarin.com/sociedad/Lanzan-programa-llevar-chicos-nacional_0_1628237205.html
p7
aVhttps://www.clarin.com/sociedad/Lanzan-programa-llevar-chicos-nacional_0_1628237205.html
p8
aVhttps://www.clarin.com/sociedad/Santiago-Estero-marido-ensangrentada-hijos_0_1628237210.html
p9
a.