(lp0
S'https://www.clarin.com/sociedad/Turistas-extranjeros-pagaran-hoteles-pais_0_1658234382.html'
p1
aS'https://www.clarin.com/sociedad/Criticas-Google-WhatsApp-invasion-privacidad_0_1658234377.html'
p2
aS'https://www.clarin.com/sociedad/Criticas-Google-WhatsApp-invasion-privacidad_0_1658234377.html'
p3
aS'https://www.clarin.com/sociedad/Leccion-egresados-burlaron-judaismo-Bariloche_0_1658234380.html'
p4
aS'https://www.clarin.com/sociedad/Leccion-egresados-burlaron-judaismo-Bariloche_0_1658234380.html'
p5
aS'https://www.clarin.com/politica/bancarios-arman-jornada-protestas_0_1658234375.html'
p6
aS'https://www.clarin.com/sociedad/retorno_0_1658234374.html'
p7
aS'https://www.clarin.com/politica/Carrio-AFI-subdirectora-Silvia-Majdalani_0_1658234368.html'
p8
aS'https://www.clarin.com/politica/Carrio-AFI-subdirectora-Silvia-Majdalani_0_1658234368.html'
p9
aS'https://www.clarin.com/politica/CGT-negocia-Gobierno-bajar-Depende_0_1658234369.html'
p10
aS'https://www.clarin.com/politica/CGT-negocia-Gobierno-bajar-Depende_0_1658234369.html'
p11
aS'https://www.clarin.com/politica/Malvinas-operativo-frustro-acercamiento-Londres_0_1658234370.html'
p12
aS'https://www.clarin.com/politica/Malvinas-operativo-frustro-acercamiento-Londres_0_1658234370.html'
p13
a.