(lp0
S'https://www.clarin.com/ieco/Ajuste-AFIP-idiomas-helicoptero-Echegaray_0_1567043313.html'
p1
aS'https://www.clarin.com/sociedad/argentino-rescates-Ecuador_0_1567043321.html'
p2
aS'https://www.clarin.com/ieco/estacioneros-rechazan-nueva-suba-naftas_0_1567043322.html'
p3
aS'https://www.clarin.com/politica/Chueco-fiscal-recibir-dinero-desdijo_0_1567043323.html'
p4
aS'https://www.clarin.com/politica/Justicia-concentra-propiedades-Baez-Calafate_0_1567043294.html'
p5
aS'https://www.clarin.com/sociedad/chica-usar-bano-hombres_0_1567043305.html'
p6
aS'https://www.clarin.com/politica/proyecto-anti-despidos-preocupa-Macri_0_1567043316.html'
p7
a.