(lp0
Vhttps://www.clarin.com/ieco/economia/demanda-energia-electrica-crecio-abril_0_1579042249.html
p1
aVhttps://www.clarin.com/ieco/economia/demanda-energia-electrica-crecio-abril_0_1579042249.html
p2
a.