(lp0
Vhttps://www.clarin.com/politica/Apuran-mejorar-servicio-telefonia-celular_0_1613838824.html
p1
aVhttps://www.clarin.com/politica/Casanello-informes-declaracion-jurada-Macri_0_1614438547.html
p2
aVhttps://www.clarin.com/opinion/politica-partidos-parece-tendencia-irreversible_0_1613838743.html
p3
aVhttps://www.clarin.com/opinion/artistas-amigos-poder_0_1613838738.html
p4
aVhttps://www.clarin.com/sociedad/Arranca-Exposicion-Rural-vuelta-oficiales_0_1613838804.html
p5
aVhttps://www.clarin.com/opinion/Florencia-heredera-rica-pobre-vez_0_1614438545.html
p6
aVhttps://www.clarin.com/opinion/blanco-cierra_0_1614438543.html
p7
a.