(lp0
S'https://www.clarin.com/opinion/militancia-periodistas_0_1591640826.html'
p1
aS'https://www.clarin.com/politica/Echegaray-AGN-sigue-actividad-presidente_0_1591041045.html'
p2
aS'https://www.clarin.com/opinion/indice-medir-mejor-transformacion-socioeconomica_0_1591041027.html'
p3
aS'https://www.clarin.com/opinion/Declaracion-guerra-kirchnerista_0_1591640827.html'
p4
aS'https://www.clarin.com/opinion/cambios-cultura-politica_0_1591041023.html'
p5
aS'https://www.clarin.com/politica/Aprueban-dictamen-autorizar-allanamiento-Vido_0_1591041053.html'
p6
aS'https://www.clarin.com/opinion/ajuste-efectos-llego-revisar-metas_0_1591041031.html'
p7
a.