(lp0
S'https://www.clarin.com/politica/Naciones-Unidas-liberen-Milagro-Sala_0_1676832390.html'
p1
aS'https://www.clarin.com/politica/Verna-gobernador-peronista-billetera-pesos_0_1676832387.html'
p2
aS'https://www.clarin.com/sociedad/amenazan-organizar-marcha-carreras-galgos_0_1676832381.html'
p3
aS'https://www.clarin.com/sociedad/trabajan-salvar-Jesus-domingo-Viva_0_1676832384.html'
p4
aS'https://www.clarin.com/politica/Tarifa-electrica-asociaciones-consumidores-aumentos_0_1676832383.html'
p5
a.