(lp0
Vhttps://www.clarin.com/politica/sueldos-Zannini-mil-bancario-jubilado_0_1671432892.html
p1
aVhttps://www.clarin.com/politica/sueldos-Zannini-mil-bancario-jubilado_0_1671432892.html
p2
aVhttps://www.clarin.com/sociedad/Angeles-demonios-libro-record-kilos_0_1671432919.html
p3
aVhttps://www.clarin.com/sociedad/Angeles-demonios-libro-record-kilos_0_1671432919.html
p4
aVhttps://www.clarin.com/politica/Bicameral-Inteligencia-Milanipor-millones-rendicion_0_1671432918.html
p5
aVhttps://www.clarin.com/politica/Bicameral-Inteligencia-Milanipor-millones-rendicion_0_1671432918.html
p6
aVhttps://www.clarin.com/sociedad/Murio-beba-ano-detuvieron-padres_0_1671432913.html
p7
aVhttps://www.clarin.com/sociedad/delito-falso-milagro-conmovio-Cordoba_0_1671432911.html
p8
aVhttps://www.clarin.com/sociedad/delito-falso-milagro-conmovio-Cordoba_0_1671432911.html
p9
aVhttps://www.clarin.com/ieco/economia/exceso-dolares-preocupacion-Banco-Central_0_1671432910.html
p10
aVhttps://www.clarin.com/ieco/economia/exceso-dolares-preocupacion-Banco-Central_0_1671432910.html
p11
aVhttps://www.clarin.com/ieco/jubilados-descuentos-pasajes-Aerolineas_0_1671432908.html
p12
aVhttps://www.clarin.com/ieco/jubilados-descuentos-pasajes-Aerolineas_0_1671432908.html
p13
a.