(lp0
S'https://www.clarin.com/sociedad/perros-arrepentidos-llego-medios-internacionales_0_1638436224.html'
p1
aS'https://www.clarin.com/sociedad/San-Luis-llego-cerca-gobernador_0_1638436230.html'
p2
aS'https://www.clarin.com/ieco/economia/Faltazo-Aranguren-cumbre-empresaria_0_1638436231.html'
p3
aS'https://www.clarin.com/politica/amenaza-Vidal-Dijeron-reventar-gobernacion_0_1638436229.html'
p4
aS'https://www.clarin.com/politica/Inesperado-apoyo-Carrio-desplazado-Aduana_0_1638436225.html'
p5
aS'https://www.clarin.com/ieco/economia/CAME-Justicia-subas-gas-empresas_0_1638436226.html'
p6
a.