(lp0
Vhttps://www.clarin.com/politica/mil-militantes-esperan-Cristina-aeroparque_0_1556844701.html
p1
aVhttps://www.clarin.com/politica/mil-militantes-esperan-Cristina-aeroparque_0_1556844701.html
p2
aVhttps://www.clarin.com/politica/SIP-destaca-cambios-medios-comunicacion_0_1556844699.html
p3
aVhttps://www.clarin.com/politica/SIP-destaca-cambios-medios-comunicacion_0_1556844699.html
p4
aVhttps://www.clarin.com/politica/Toman-declaraciones-causa-investiga-Macri_0_1556844696.html
p5
aVhttps://www.clarin.com/politica/Toman-declaraciones-causa-investiga-Macri_0_1556844696.html
p6
aVhttps://www.clarin.com/politica/reformas-nueva-Vidal-costaran-pesos_0_1556844683.html
p7
aVhttps://www.clarin.com/politica/reformas-nueva-Vidal-costaran-pesos_0_1556844683.html
p8
aVhttps://www.clarin.com/politica/Comenzo-operativo-seguridad-Comodoro-Py_0_1556844660.html
p9
aVhttps://www.clarin.com/politica/Comenzo-operativo-seguridad-Comodoro-Py_0_1556844660.html
p10
aVhttps://www.clarin.com/politica/Gobierno-operativo-vallado-declaracion-Cristina_0_1556844680.html
p11
aVhttps://www.clarin.com/politica/Gobierno-operativo-vallado-declaracion-Cristina_0_1556844680.html
p12
aVhttps://www.clarin.com/sociedad/demoras-cancelaciones-Ezeiza-paro-remises_0_1556844665.html
p13
a.