(lp0
S'https://www.clarin.com/politica/Lazaro-Baez-anular-indagatorias-adelanto_0_1605439641.html'
p1
aS'https://www.clarin.com/opinion/miedo-Pacifico_0_1606039435.html'
p2
aS'https://www.clarin.com/politica/Magistratura-kirchnerismo-consejero-PJ-dialoguista_0_1605439644.html'
p3
aS'https://www.clarin.com/politica/Entraron-celular-Lopez-mensajes-videos_0_1605439608.html'
p4
aS'https://www.clarin.com/sociedad/Aislada-Bicentenario_0_1605439642.html'
p5
aS'https://www.clarin.com/politica/Gustavo-Vera-Monte-Nestor-Kirchner_0_1605439643.html'
p6
aS'https://www.clarin.com/opinion/Zoo-va-vieja-infancia_0_1605439582.html'
p7
aS'https://www.clarin.com/politica/segundo-semestre-disparo-hinchadas-diputados_0_1605439645.html'
p8
aS'https://www.clarin.com/politica/Macri-llega-Paris-vera-Hollande_0_1605439624.html'
p9
aS'https://www.clarin.com/politica/Auditoria-PJ-piensa-reemplazante-Echegaray_0_1605439640.html'
p10
a.