(lp0
S'https://www.clarin.com/sociedad/lluvia-pudo-frenar-fiesta-Gualeguaychu_0_1519048443.html'
p1
aS'https://www.clarin.com/sociedad/lluvia-pudo-frenar-fiesta-Gualeguaychu_0_1519048443.html'
p2
aS'https://www.clarin.com/sociedad/anti-turistas-vienen-vacaciones-quieren-locales_0_1519048437.html'
p3
aS'https://www.clarin.com/sociedad/anti-turistas-vienen-vacaciones-quieren-locales_0_1519048437.html'
p4
aS'https://www.clarin.com/sociedad/ven-espontaneos-impuntuales-chamuyeros_0_1519048438.html'
p5
aS'https://www.clarin.com/ieco/economia/precios-monitoreo_0_1519048502.html'
p6
a.