(lp0
S'https://www.clarin.com/politica/Denuncian-Giorgi-repartio-control-millones_0_1674432704.html'
p1
aS'https://www.clarin.com/sociedad/Dolor-triple-femicidio-destrozaron-familia_0_1674432713.html'
p2
aS'https://www.clarin.com/politica/Papeleras-acuerdan-publicar-impacto-ambiental_0_1674432710.html'
p3
aS'https://www.clarin.com/sociedad/asesino-quiso-abrir-Bautista-escondio_0_1674432711.html'
p4
aS'https://www.clarin.com/politica/Macri-defendio-aumentos-tarifas-electricas_0_1674432679.html'
p5
aS'https://www.clarin.com/politica/negociacion-bono-estatales-resolveria-semana_0_1674432706.html'
p6
aS'https://www.clarin.com/politica/Plan-Semilla-entregar-facturas-prestamos_0_1674432708.html'
p7
a.