(lp0
S'https://www.clarin.com/ieco/economia/inevitable-recuperacion-economia-argentina_0_1657034287.html'
p1
aS'https://www.clarin.com/ieco/economia/Evitar-sorpresas-inflacion-deflacion_0_1657034286.html'
p2
aS'https://www.clarin.com/ieco/economia/Aerolineas-enfrenta-perdidas-hacer-ajuste_0_1657034324.html'
p3
aS'https://www.clarin.com/ieco/economia/Aerolineas-enfrenta-perdidas-hacer-ajuste_0_1657034324.html'
p4
aS'https://www.clarin.com/ieco/economia/torreras-cambian-negocio-telefonia-impulso_0_1657034316.html'
p5
aS'https://www.clarin.com/ieco/economia/torreras-cambian-negocio-telefonia-impulso_0_1657034316.html'
p6
aS'https://www.clarin.com/ieco/economia/Efecto-Uber-revolucion-digital-negocio_0_1657034319.html'
p7
aS'https://www.clarin.com/ieco/economia/Efecto-Uber-revolucion-digital-negocio_0_1657034319.html'
p8
aS'https://www.clarin.com/ieco/economia/retorno-Harley-Davidson_0_1655834567.html'
p9
aS'https://www.clarin.com/ieco/economia/retorno-Harley-Davidson_0_1655834567.html'
p10
aS'https://www.clarin.com/ieco/economia/sigue-baja-chances-aleje-dolar_0_1657034352.html'
p11
aS'https://www.clarin.com/ieco/economia/sigue-baja-chances-aleje-dolar_0_1657034352.html'
p12
aS'https://www.clarin.com/ieco/campus-ieco/Medicina-Administracion-elegidas-jovenes_0_1655834543.html'
p13
aS'https://www.clarin.com/ieco/campus-ieco/Medicina-Administracion-elegidas-jovenes_0_1655834543.html'
p14
aS'https://www.clarin.com/ieco/economia/Invertir-inflacion-detiene_0_1657034354.html'
p15
aS'https://www.clarin.com/ieco/economia/Invertir-inflacion-detiene_0_1657034354.html'
p16
aS'https://www.clarin.com/ieco/economia/falte-luz_0_1657034334.html'
p17
aS'https://www.clarin.com/ieco/economia/falte-luz_0_1657034334.html'
p18
aS'https://www.clarin.com/ieco/economia/capitalismo-concentra_0_1657034304.html'
p19
aS'https://www.clarin.com/ieco/economia/capitalismo-concentra_0_1657034304.html'
p20
aS'https://www.clarin.com/opinion/nostalgia-paraiso-perdido_0_1656434443.html'
p21
aS'https://www.clarin.com/opinion/Gobierno-gremios-primavera-dificil_0_1657034285.html'
p22
aS'https://www.clarin.com/opinion/parecen-Mauricio-Cristina_0_1657034284.html'
p23
aS'https://www.clarin.com/opinion/parecen-Mauricio-Cristina_0_1657034284.html'
p24
aS'https://www.clarin.com/opinion/ajuste-economia-bajara-deficit-fiscal_0_1657034283.html'
p25
a.