(lp0
Vhttps://www.clarin.com/ieco/economia/Cordoba-subsidiara-beneficios-impositivos-Nissan_0_1612038832.html
p1
aVhttps://www.clarin.com/ieco/economia/Cordoba-subsidiara-beneficios-impositivos-Nissan_0_1612038832.html
p2
aVhttps://www.clarin.com/politica/empresario-famoso-llegaron-denuncio-Twitter_0_1612038829.html
p3
aVhttps://www.clarin.com/politica/empresario-famoso-llegaron-denuncio-Twitter_0_1612038829.html
p4
aVhttps://www.clarin.com/sociedad/Afirman-erectus-caminaba-hombre-moderno_0_1612038824.html
p5
aVhttps://www.clarin.com/sociedad/Afirman-erectus-caminaba-hombre-moderno_0_1612038824.html
p6
aVhttps://www.clarin.com/politica/parodia-agrupacion-macrista-corrupcion_0_1612038819.html
p7
aVhttps://www.clarin.com/politica/parodia-agrupacion-macrista-corrupcion_0_1612038819.html
p8
a.