(lp0
Vhttps://www.clarin.com/politica/Milagro-Sala-deeclaro-huelga-incomunicaron_0_1630637045.html
p1
aVhttps://www.clarin.com/politica/Milagro-Sala-deeclaro-huelga-incomunicaron_0_1630637045.html
p2
aVhttps://www.clarin.com/politica/jubilaciones-aumentaran-septiembre_0_1630637042.html
p3
aVhttps://www.clarin.com/politica/jubilaciones-aumentaran-septiembre_0_1630637042.html
p4
aVhttps://www.clarin.com/politica/Macri-descansar-Angostura_0_1630637040.html
p5
aVhttps://www.clarin.com/politica/Macri-descansar-Angostura_0_1630637040.html
p6
aVhttps://www.clarin.com/politica/Camara-rechazo-recusacion-Casanello-Baez_0_1630637037.html
p7
aVhttps://www.clarin.com/politica/Camara-rechazo-recusacion-Casanello-Baez_0_1630637037.html
p8
aVhttps://www.clarin.com/politica/Expulsaron-Jose-Lopez-Parlasur-decoro_0_1630637036.html
p9
aVhttps://www.clarin.com/politica/Expulsaron-Jose-Lopez-Parlasur-decoro_0_1630637036.html
p10
a.