(lp0
S'https://www.clarin.com/politica/San-Cayetano-mensaje-Iglesia-desocupacion_0_1627637296.html'
p1
aS'https://www.clarin.com/politica/San-Cayetano-mensaje-Iglesia-desocupacion_0_1627637296.html'
p2
aS'https://www.clarin.com/politica/ataque-furia-CFK-Twitter-medianoche_0_1627637294.html'
p3
aS'https://www.clarin.com/politica/ataque-furia-CFK-Twitter-medianoche_0_1627637294.html'
p4
aS'https://www.clarin.com/ieco/economia/recesion-puso-techo-aceleracion-inflacion_0_1627637246.html'
p5
aS'https://www.clarin.com/ieco/economia/recesion-puso-techo-aceleracion-inflacion_0_1627637246.html'
p6
aS'https://www.clarin.com/ieco/economia/Gobierno-limites-industria-electronica-fueguina_0_1627637248.html'
p7
aS'https://www.clarin.com/ieco/economia/Gobierno-limites-industria-electronica-fueguina_0_1627637248.html'
p8
aS'https://www.clarin.com/ieco/economia/Producir-energia-basura_0_1627637253.html'
p9
aS'https://www.clarin.com/ieco/economia/Producir-energia-basura_0_1627637253.html'
p10
aS'https://www.clarin.com/sociedad/bloguera-fitness-conmociona-Nueva-York_0_1627637289.html'
p11
aS'https://www.clarin.com/sociedad/bloguera-fitness-conmociona-Nueva-York_0_1627637289.html'
p12
aS'https://www.clarin.com/sociedad/Convirtio-muerto-quiere-fabricar-helicoptero_0_1627637291.html'
p13
aS'https://www.clarin.com/sociedad/Convirtio-muerto-quiere-fabricar-helicoptero_0_1627637291.html'
p14
aS'https://www.clarin.com/ieco/economia/Llego-streaming-deportivo_0_1627637262.html'
p15
aS'https://www.clarin.com/ieco/economia/Llego-streaming-deportivo_0_1627637262.html'
p16
aS'https://www.clarin.com/politica/Stolbizer-afirma-tranquila-mediacion-Cristina_0_1627637285.html'
p17
aS'https://www.clarin.com/politica/Stolbizer-afirma-tranquila-mediacion-Cristina_0_1627637285.html'
p18
a.