(lp0
S'https://www.clarin.com/sociedad/Protestaron-animales-muertos-pedir-protejan_0_1681631931.html'
p1
aS'https://www.clarin.com/sociedad/Protestaron-animales-muertos-pedir-protejan_0_1681631931.html'
p2
aS'https://www.clarin.com/politica/Defensa-recuperar-capacidades-Fuerzas-Armadas_0_1681631928.html'
p3
aS'https://www.clarin.com/politica/Defensa-recuperar-capacidades-Fuerzas-Armadas_0_1681631928.html'
p4
aS'https://www.clarin.com/politica/Micheli-Boudou-echar-velorio-Kirchner_0_1681631916.html'
p5
aS'https://www.clarin.com/politica/Micheli-Boudou-echar-velorio-Kirchner_0_1681631916.html'
p6
aS'https://www.clarin.com/politica/Sospechosa-desaparicion-complicaba-Anibal-Fernandez_0_1681631920.html'
p7
aS'https://www.clarin.com/politica/Sospechosa-desaparicion-complicaba-Anibal-Fernandez_0_1681631920.html'
p8
a.