(lp0
S'https://www.clarin.com/politica/Piden-auditoria-fuero-federal_0_1561044140.html'
p1
aS'https://www.clarin.com/politica/Piden-auditoria-fuero-federal_0_1561044140.html'
p2
aS'https://www.clarin.com/politica/Casanello-preventiva-Baez-indagatoria-Echegaray_0_1561044164.html'
p3
aS'https://www.clarin.com/politica/Casanello-preventiva-Baez-indagatoria-Echegaray_0_1561044164.html'
p4
aS'https://www.clarin.com/politica/Julio-Vido-queda-calle_0_1561044156.html'
p5
aS'https://www.clarin.com/politica/Julio-Vido-queda-calle_0_1561044156.html'
p6
aS'https://www.clarin.com/sociedad/Caso-Malvino-confirman-validez-indagatorias_0_1561044154.html'
p7
aS'https://www.clarin.com/sociedad/Caso-Malvino-confirman-validez-indagatorias_0_1561044154.html'
p8
aS'https://www.clarin.com/sociedad/partio-botella-cabeza-embarazada-grave_0_1561044149.html'
p9
aS'https://www.clarin.com/politica/estatales-movilizan-despidos-transito-complicado_0_1561044080.html'
p10
a.