(lp0
S'https://www.clarin.com/sociedad/Buscan-quedaron-rastros-objeto-Pinamar_0_1579642052.html'
p1
aS'https://www.clarin.com/politica/Macri-anuncia-manana-veto-antidespidos_0_1579642070.html'
p2
aS'https://www.clarin.com/ieco/economia/Macri-lanzo-licitacion-energias-renovables_0_1579642051.html'
p3
aS'https://www.clarin.com/sociedad/Semana-Mayo-quieren-Facebook-escarapelas_0_1579642053.html'
p4
aS'https://www.clarin.com/ieco/economia/Malcorra-llego-Beijing-cerrar-represas_0_1579642055.html'
p5
aS'https://www.clarin.com/politica/hicieron-llamadas-sugestivas-muerte-Nisman_0_1579642066.html'
p6
aS'https://www.clarin.com/politica/Entrevista-completa-impactantes-revelaciones-Fein_0_1579642068.html'
p7
a.