(lp0
S'https://www.clarin.com/politica/Ottavis-dejar-politica-actor-gusta_0_1586841371.html'
p1
aS'https://www.clarin.com/politica/Ottavis-dejar-politica-actor-gusta_0_1586841371.html'
p2
aS'https://www.clarin.com/politica/Renuncio-Justicia-Vidal-Gustavo-Ferrari_0_1586841366.html'
p3
aS'https://www.clarin.com/politica/Renuncio-Justicia-Vidal-Gustavo-Ferrari_0_1586841366.html'
p4
aS'https://www.clarin.com/politica/Schiaretti-suma-gobernadores-apoyo-jubilados_0_1586841363.html'
p5
aS'https://www.clarin.com/politica/Schiaretti-suma-gobernadores-apoyo-jubilados_0_1586841363.html'
p6
aS'https://www.clarin.com/ieco/economia/Melconian-Asociacion-Bancos-Publicos-Privados_0_1586841362.html'
p7
aS'https://www.clarin.com/politica/columna-Pagni-mani-pulite-trucho_0_1586841360.html'
p8
aS'https://www.clarin.com/politica/columna-Pagni-mani-pulite-trucho_0_1586841360.html'
p9
aS'https://www.clarin.com/ieco/Ushuaia-amparo-frena-suba-gas_0_1586841361.html'
p10
aS'https://www.clarin.com/ieco/Ushuaia-amparo-frena-suba-gas_0_1586841361.html'
p11
aS'https://www.clarin.com/ieco/Anuncian-licitacion-Letras-Tesoro-semana_0_1586841359.html'
p12
aS'https://www.clarin.com/ieco/Anuncian-licitacion-Letras-Tesoro-semana_0_1586841359.html'
p13
aS'https://www.clarin.com/ieco/Crean-Direccion-delinear-vision-plazo_0_1586841358.html'
p14
aS'https://www.clarin.com/ieco/Crean-Direccion-delinear-vision-plazo_0_1586841358.html'
p15
aS'https://www.clarin.com/sociedad/Time-Warp-hacinamiento-funcionario-acusado_0_1586841354.html'
p16
aS'https://www.clarin.com/sociedad/Time-Warp-hacinamiento-funcionario-acusado_0_1586841354.html'
p17
a.