(lp0
S'https://www.clarin.com/sociedad/Hoja-azucar-formula-endulzar-chocolate_0_1663033803.html'
p1
aS'https://www.clarin.com/ieco/Banco-Mundial-apoya-gradualismo-Gobierno_0_1663033801.html'
p2
aS'https://www.clarin.com/sociedad/Alerta-Spotify-investigan-infeccion-servicio_0_1663033809.html'
p3
a.