(lp0
S'https://www.clarin.com/ieco/economia/Alimentos-caida-generalizada-produccion_0_1637236409.html'
p1
aS'https://www.clarin.com/ieco/economia/Alimentos-caida-generalizada-produccion_0_1637236409.html'
p2
aS'https://www.clarin.com/politica/Gobierno-propone-subas-paguen-anos_0_1637236475.html'
p3
aS'https://www.clarin.com/politica/Corte-concurso-Cristobal-acusada-evadir_0_1637236424.html'
p4
aS'https://www.clarin.com/politica/Corte-concurso-Cristobal-acusada-evadir_0_1637236424.html'
p5
aS'https://www.clarin.com/politica/moyanismo-quedo-mayoria-cargos-CGT_0_1637236415.html'
p6
aS'https://www.clarin.com/politica/moyanismo-quedo-mayoria-cargos-CGT_0_1637236415.html'
p7
aS'https://www.clarin.com/ieco/economia/Quilmes-invertira-millones-anos_0_1637236381.html'
p8
aS'https://www.clarin.com/ieco/economia/Quilmes-invertira-millones-anos_0_1637236381.html'
p9
aS'https://www.clarin.com/politica/Avanza-proyecto-comisiones-tarjetas-credito_0_1637236478.html'
p10
aS'https://www.clarin.com/ieco/economia/Aumento-superficie-locales-alquiler_0_1637236327.html'
p11
aS'https://www.clarin.com/ieco/economia/Aumento-superficie-locales-alquiler_0_1637236327.html'
p12
aS'https://www.clarin.com/ieco/Banco-Central-volvio-bajar-tasas_0_1637236454.html'
p13
aS'https://www.clarin.com/politica/desocupacion-millon-trabajo_0_1637836207.html'
p14
aS'https://www.clarin.com/politica/desocupacion-millon-trabajo_0_1637836207.html'
p15
aS'https://www.clarin.com/politica/esconden-amenazas-Vidal_0_1637836206.html'
p16
aS'https://www.clarin.com/politica/indices-reales-desempleo-alto_0_1637836204.html'
p17
aS'https://www.clarin.com/opinion/lineas-rojas-CGT-unificada_0_1637236427.html'
p18
aS'https://www.clarin.com/opinion/lineas-rojas-CGT-unificada_0_1637236427.html'
p19
a.