(lp0
Vhttps://www.clarin.com/politica/Asumio-Lamberto-AGN-corrupcion-democracia_0_1638436271.html
p1
aVhttps://www.clarin.com/politica/Asumio-Lamberto-AGN-corrupcion-democracia_0_1638436271.html
p2
aVhttps://www.clarin.com/politica/Gils-Carbo-agresiones-Macri-Vidal_0_1638436273.html
p3
aVhttps://www.clarin.com/politica/Gils-Carbo-agresiones-Macri-Vidal_0_1638436273.html
p4
aVhttps://www.clarin.com/politica/Ercolini-pruebas-citar-Cristina-publica_0_1638436255.html
p5
aVhttps://www.clarin.com/politica/Ercolini-pruebas-citar-Cristina-publica_0_1638436255.html
p6
aVhttps://www.clarin.com/politica/familias-tomaron-tierras-Moreno-kirchnerismo_0_1638436257.html
p7
aVhttps://www.clarin.com/politica/familias-tomaron-tierras-Moreno-kirchnerismo_0_1638436257.html
p8
aVhttps://www.clarin.com/sociedad/promover-solidaridad-convocan-abrazo-grande_0_1638436247.html
p9
aVhttps://www.clarin.com/sociedad/promover-solidaridad-convocan-abrazo-grande_0_1638436247.html
p10
aVhttps://www.clarin.com/politica/partido-DElia-agitar-protestas-Gobierno_0_1638436253.html
p11
aVhttps://www.clarin.com/politica/partido-DElia-agitar-protestas-Gobierno_0_1638436253.html
p12
a.