(lp0
S'https://www.clarin.com/politica/Mauricio_Macri-Maria_Eugenia_Vidal_0_1523247853.html'
p1
aS'https://www.clarin.com/politica/Mauricio_Macri-Maria_Eugenia_Vidal_0_1523247853.html'
p2
aS'https://www.clarin.com/ieco/economia/marzo-llega-fin-factura-papel_0_1523247838.html'
p3
aS'https://www.clarin.com/sociedad/Video-registraban-paisaje-metros-sorprendio_0_1523247836.html'
p4
aS'https://www.clarin.com/sociedad/Video-registraban-paisaje-metros-sorprendio_0_1523247836.html'
p5
aS'https://www.clarin.com/politica/anos-hija-Alicia-incremento-patrimonio_0_1523247796.html'
p6
aS'https://www.clarin.com/politica/anos-hija-Alicia-incremento-patrimonio_0_1523247796.html'
p7
aS'https://www.clarin.com/ieco/economia/Disuelven-Unidad-Reestructuracion-Deuda-kirchnerismo_0_1523247833.html'
p8
aS'https://www.clarin.com/ieco/economia/Disuelven-Unidad-Reestructuracion-Deuda-kirchnerismo_0_1523247833.html'
p9
aS'https://www.clarin.com/politica/Solanas-Lozano-Gennaro-criticaron-retenciones_0_1523247831.html'
p10
aS'https://www.clarin.com/politica/Solanas-Lozano-Gennaro-criticaron-retenciones_0_1523247831.html'
p11
aS'https://www.clarin.com/ieco/economia/Crecen-liquidaciones-campo-siguen-maximos_0_1523247825.html'
p12
aS'https://www.clarin.com/politica/Ranking-web-Alfonso_Prat_Gay-funcionarios_0_1523247827.html'
p13
aS'https://www.clarin.com/politica/Ranking-web-Alfonso_Prat_Gay-funcionarios_0_1523247827.html'
p14
aS'https://www.clarin.com/sociedad/Descubren-Juan-Pablo-II-relacion_0_1523247805.html'
p15
aS'https://www.clarin.com/sociedad/Descubren-Juan-Pablo-II-relacion_0_1523247805.html'
p16
aS'https://www.clarin.com/politica/NARCOTRAFICO-Gobierno-precursores-quimicos-Sedronar_0_1523247822.html'
p17
a.