(lp0
S'https://www.clarin.com/ieco/Pollack-grabador-traje-Oxford-Harvard_0_1568243288.html'
p1
aS'https://www.clarin.com/politica/empresario-argentino-vocero-buitres_0_1568243287.html'
p2
aS'https://www.clarin.com/sociedad/DJ-fiesta-Rosario-Costa-Salguero_0_1568243280.html'
p3
aS'https://www.clarin.com/sociedad/DJ-fiesta-Rosario-Costa-Salguero_0_1568243280.html'
p4
a.