(lp0
Vhttps://www.clarin.com/ieco/produccion-combustibles-cayo_0_1616238432.html
p1
aVhttps://www.clarin.com/ieco/produccion-combustibles-cayo_0_1616238432.html
p2
aVhttps://www.clarin.com/ieco/economia/Sielecki-Werthien-US-millones-TGS_0_1616238431.html
p3
aVhttps://www.clarin.com/ieco/economia/Sielecki-Werthien-US-millones-TGS_0_1616238431.html
p4
aVhttps://www.clarin.com/sociedad/Tiempo-Quiaca-lugar-frio-pais_0_1616238429.html
p5
aVhttps://www.clarin.com/sociedad/Tiempo-Quiaca-lugar-frio-pais_0_1616238429.html
p6
aVhttps://www.clarin.com/politica/reto-Macri-Tecnopolis-prendieron-estufas_0_1616238425.html
p7
aVhttps://www.clarin.com/politica/reto-Macri-Tecnopolis-prendieron-estufas_0_1616238425.html
p8
aVhttps://www.clarin.com/politica/Jose-Lopez-allanamientos-San-Luis_0_1616238388.html
p9
aVhttps://www.clarin.com/politica/Jose-Lopez-allanamientos-San-Luis_0_1616238388.html
p10
aVhttps://www.clarin.com/sociedad/Murio-Carlos-Gorostiza-teatro-argentino_0_1616238420.html
p11
aVhttps://www.clarin.com/sociedad/Murio-Carlos-Gorostiza-teatro-argentino_0_1616238420.html
p12
a.