(lp0
S'https://www.clarin.com/sociedad/aniversario-prenda-revolucionaria-bikini-cumple_0_1607239452.html'
p1
aS'https://www.clarin.com/sociedad/ACV-hemorragico_0_1607239449.html'
p2
aS'https://www.clarin.com/politica/Ponen-Tango-comprar-nuevo-avion_0_1607239466.html'
p3
aS'https://www.clarin.com/politica/embajador-Mamet-positivo-relacion-bilateral_0_1607239463.html'
p4
aS'https://www.clarin.com/politica/trama-delicada-decision-humanitaria_0_1607239459.html'
p5
aS'https://www.clarin.com/politica/Gobierno-confirmo-Europa-recibira-refugiados_0_1607239458.html'
p6
aS'https://www.clarin.com/politica/Massa-Esteche-Solo-pretender-explote_0_1607239455.html'
p7
aS'https://www.clarin.com/politica/colectividad-siria-pide-garantice-vivienda_0_1607239460.html'
p8
aS'https://www.clarin.com/ieco/recaudacion-impositiva-crecio-perdio-inflacion_0_1607239390.html'
p9
aS'https://www.clarin.com/politica/Frustrado-intento-kirchnerista-custodia-Cristina_0_1607239467.html'
p10
a.