(lp0
Vhttps://www.clarin.com/opinion/Macri-billones-dolares-Trump_0_1690630927.html
p1
aVhttps://www.clarin.com/opinion/Macri-billones-dolares-Trump_0_1690630927.html
p2
aVhttps://www.clarin.com/ieco/economia/dilema-decidir-tiempos-incertidumbre-Trump_0_1689431186.html
p3
aVhttps://www.clarin.com/opinion/aliada-aspera-imprescindible_0_1690630926.html
p4
aVhttps://www.clarin.com/opinion/aliada-aspera-imprescindible_0_1690630926.html
p5
aVhttps://www.clarin.com/ieco/economia/Projimo-creatividad-inclusion_0_1689431184.html
p6
aVhttps://www.clarin.com/opinion/Macri-necesita-victoria-electoral-peronismo_0_1690630925.html
p7
aVhttps://www.clarin.com/ieco/economia/Explosiones-controladas-PJ_0_1689431172.html
p8
aVhttps://www.clarin.com/ieco/economia/Explosiones-controladas-PJ_0_1689431172.html
p9
aVhttps://www.clarin.com/ieco/economia/sidra-va-encuentro-consumidores-premium_0_1689431163.html
p10
aVhttps://www.clarin.com/ieco/economia/latas-cervezas-buscan-sostener-consumo_0_1689431141.html
p11
aVhttps://www.clarin.com/ieco/economia/latas-cervezas-buscan-sostener-consumo_0_1689431141.html
p12
aVhttps://www.clarin.com/opinion/corrupcion-tapa-economia_0_1690630924.html
p13
aVhttps://www.clarin.com/opinion/corrupcion-tapa-economia_0_1690630924.html
p14
aVhttps://www.clarin.com/opinion/Cristina-consigue-frenar-avalancha_0_1690630923.html
p15
aVhttps://www.clarin.com/ieco/campus-ieco/Realidad-virtual-simuladores-invaden-universitarias_0_1689431150.html
p16
aVhttps://www.clarin.com/ieco/campus-ieco/Realidad-virtual-simuladores-invaden-universitarias_0_1689431150.html
p17
aVhttps://www.clarin.com/opinion/Cuestion-clave-recorte-jefes-militares_0_1690630922.html
p18
aVhttps://www.clarin.com/ieco/economia/Fase-nacional-globalizacion_0_1689431149.html
p19
aVhttps://www.clarin.com/ieco/economia/impacto-triunfo-Trump-gradualismo_0_1689431135.html
p20
aVhttps://www.clarin.com/opinion/Perros-liberacion_0_1690630921.html
p21
a.