(lp0
Vhttps://www.clarin.com/sociedad/Quiso-sacarse-selfie-revolver-amiga_0_1635436509.html
p1
aVhttps://www.clarin.com/sociedad/Fallecio-Rogelio-Garcia-Lupo-periodismo_0_1635436507.html
p2
aVhttps://www.clarin.com/sociedad/Fallecio-Rogelio-Garcia-Lupo-periodismo_0_1635436507.html
p3
aVhttps://www.clarin.com/sociedad/Mapas-aceptan-cambios_0_1634836650.html
p4
a.