(lp0
S'https://www.clarin.com/politica/PJ-buscan-distanciarse-Cristina-criticarla_0_1642036003.html'
p1
aS'https://www.clarin.com/politica/rebeldes-PJ-suenan-parir-dolor_0_1642035999.html'
p2
aS'https://www.clarin.com/sociedad/Vanessa-dieron-carcel-DJ-secuestro_0_1642035996.html'
p3
aS'https://www.clarin.com/sociedad/Vanessa-dieron-carcel-DJ-secuestro_0_1642035996.html'
p4
a.