(lp0
S'https://www.clarin.com/sociedad/Murio-Kiara-golpeada-papa-Cordoba_0_1632436828.html'
p1
aS'https://www.clarin.com/sociedad/Murio-Kiara-golpeada-papa-Cordoba_0_1632436828.html'
p2
aS'https://www.clarin.com/politica/Nisman-investigar-Cristina-traicion-Patria_0_1632436822.html'
p3
aS'https://www.clarin.com/politica/Nisman-investigar-Cristina-traicion-Patria_0_1632436822.html'
p4
aS'https://www.clarin.com/sociedad/Sacarse-selfies-viaje-hace-disfrutemos_0_1632436820.html'
p5
aS'https://www.clarin.com/sociedad/Sacarse-selfies-viaje-hace-disfrutemos_0_1632436820.html'
p6
aS'https://www.clarin.com/sociedad/Detectan-particulas-capaces-escapar-agujero_0_1632436819.html'
p7
aS'https://www.clarin.com/sociedad/Detectan-particulas-capaces-escapar-agujero_0_1632436819.html'
p8
aS'https://www.clarin.com/sociedad/Polemica-cazador-mata-sube-YouTube_0_1632436815.html'
p9
aS'https://www.clarin.com/sociedad/Polemica-cazador-mata-sube-YouTube_0_1632436815.html'
p10
a.