(lp0
S'https://www.clarin.com/sociedad/nuevas-mediaciones-arreglan-conflictos_0_1539446325.html'
p1
aS'https://www.clarin.com/politica/Camara-alerta-cambios-Ley-Electoral_0_1539446379.html'
p2
aS'https://www.clarin.com/politica/limpiar-Lopez-analiza-vender-casinos_0_1539446373.html'
p3
aS'https://www.clarin.com/sociedad/crecida-rios-dejo-zona-taponada_0_1539446401.html'
p4
aS'https://www.clarin.com/sociedad/argentino-ilusion-Marte-Vamos-hallar_0_1539446324.html'
p5
aS'https://www.clarin.com/ieco/Lanzaran-app-vigilar-precios-celulares_0_1539446403.html'
p6
aS'https://www.clarin.com/sociedad/Blanco-Muino-precios-excesivas-boicot_0_1539446326.html'
p7
aS'https://www.clarin.com/sociedad/Vivir-inundado-pueblo-pasara-agua_0_1539446396.html'
p8
a.