(lp0
S'https://www.clarin.com/politica/Prescribio-juicio-amenazas-Milagro-Sala_0_1575442598.html'
p1
aS'https://www.clarin.com/sociedad/Stinfale-prision-domiciliaria-tobillera_0_1575442596.html'
p2
aS'https://www.clarin.com/politica/inmuebles-allanados-Baez-valdrian-declaro_0_1575442591.html'
p3
aS'https://www.clarin.com/politica/inmuebles-allanados-Baez-valdrian-declaro_0_1575442591.html'
p4
a.