(lp0
S'https://www.clarin.com/ieco/Preocupacion-Gobierno-industria-argentina_0_1542445891.html'
p1
aS'https://www.clarin.com/ieco/Preocupacion-Gobierno-industria-argentina_0_1542445891.html'
p2
aS'https://www.clarin.com/ieco/YPF-advierte-impopulares-gobierno-macrista_0_1541846281.html'
p3
aS'https://www.clarin.com/ieco/YPF-advierte-impopulares-gobierno-macrista_0_1541846281.html'
p4
aS'https://www.clarin.com/politica/Gobierno-argentino-desclasificar-documentos-dictadura_0_1542445877.html'
p5
aS'https://www.clarin.com/politica/Gobierno-argentino-desclasificar-documentos-dictadura_0_1542445877.html'
p6
aS'https://www.clarin.com/sociedad/Alerta-meteorologico-Capital-provincias_0_1542445868.html'
p7
aS'https://www.clarin.com/sociedad/Alerta-meteorologico-Capital-provincias_0_1542445868.html'
p8
a.