(lp0
S'https://www.clarin.com/politica/Macri_presidente-gremios-paritarias_0_1519048433.html'
p1
aS'https://www.clarin.com/politica/Macri_presidente-gremios-paritarias_0_1519048433.html'
p2
aS'https://www.clarin.com/sociedad/Quemaron-viva-hija-nego-casarse_0_1519048377.html'
p3
aS'https://www.clarin.com/sociedad/Quemaron-viva-hija-nego-casarse_0_1519048377.html'
p4
a.