(lp0
S'https://www.clarin.com/ieco/Caputo-ve-panorama-financiero-calmo_0_1580241994.html'
p1
aS'https://www.clarin.com/ieco/Caputo-ve-panorama-financiero-calmo_0_1580241994.html'
p2
aS'https://www.clarin.com/ieco/Fuerte-respaldo-Macri-campo-confio_0_1580241992.html'
p3
aS'https://www.clarin.com/sociedad/prefectos-suspendidos-Time-Warp-funciones_0_1580241985.html'
p4
aS'https://www.clarin.com/sociedad/prefectos-suspendidos-Time-Warp-funciones_0_1580241985.html'
p5
a.