(lp0
S'https://www.clarin.com/politica/Perez_Corradi-Triple_Crimen-efedrina_0_1502850061.html'
p1
aS'https://www.clarin.com/politica/Nelson-Castro-Victor-Hugo-democracia_0_1502850050.html'
p2
aS'https://www.clarin.com/politica/Cortes-Santa-Cruz-fuerzas-federales_0_1502850064.html'
p3
aS'https://www.clarin.com/ieco/economia/dolar-baja-centavos_0_1502849950.html'
p4
aS'https://www.clarin.com/politica/Alfredo-Casero-respondio-Victor-Hugo_0_1502850048.html'
p5
a.