(lp0
Vhttps://www.clarin.com/sociedad/Debuta-robot-reparte-pizza_0_1543045956.html
p1
aVhttps://www.clarin.com/sociedad/Debuta-robot-reparte-pizza_0_1543045956.html
p2
aVhttps://www.clarin.com/politica/Insolito-pesquero-declarar-confiaba-traductor_0_1543045945.html
p3
aVhttps://www.clarin.com/politica/Insolito-pesquero-declarar-confiaba-traductor_0_1543045945.html
p4
aVhttps://www.clarin.com/sociedad/Impactantes-imagenes-planeta-Marte_0_1543045935.html
p5
aVhttps://www.clarin.com/politica/Terminamos-aislamiento-resalto-Macri-gobierno_0_1543045932.html
p6
a.