(lp0
Vhttps://www.clarin.com/politica/Campora-vuelve-cortar-Policia-transito_0_1561044146.html
p1
aVhttps://www.clarin.com/politica/Campora-vuelve-cortar-Policia-transito_0_1561044146.html
p2
aVhttps://www.clarin.com/sociedad/Brote-hepatitis-hospital-rosarino_0_1561044143.html
p3
aVhttps://www.clarin.com/politica/Renuncio-Fein-esclarecer-muerte-Nisman_0_1561044141.html
p4
aVhttps://www.clarin.com/politica/Renuncio-Fein-esclarecer-muerte-Nisman_0_1561044141.html
p5
aVhttps://www.clarin.com/sociedad/campana-cancer-mama-desafia-censura_0_1561044114.html
p6
aVhttps://www.clarin.com/sociedad/campana-cancer-mama-desafia-censura_0_1561044114.html
p7
aVhttps://www.clarin.com/politica/HIzo-Centro-Cultural-Kirchner-embargaron_0_1561044139.html
p8
aVhttps://www.clarin.com/politica/HIzo-Centro-Cultural-Kirchner-embargaron_0_1561044139.html
p9
aVhttps://www.clarin.com/sociedad/Time-Warp-Casanello-allano-Prefectura_0_1561044132.html
p10
aVhttps://www.clarin.com/sociedad/Time-Warp-Casanello-allano-Prefectura_0_1561044132.html
p11
aVhttps://www.clarin.com/sociedad/quemaron-millones-expedientes-ANSeS-incendio_0_1561044122.html
p12
aVhttps://www.clarin.com/sociedad/quemaron-millones-expedientes-ANSeS-incendio_0_1561044122.html
p13
a.