(lp0
Vhttps://www.clarin.com/sociedad/participa-error-maraton-termina-septima_0_1511249104.html
p1
aVhttps://www.clarin.com/sociedad/participa-error-maraton-termina-septima_0_1511249104.html
p2
aVhttps://www.clarin.com/politica/Roberto_Giubetich-Pablo_Grasso-Rio_Gallegos-intendencia_0_1511249097.html
p3
aVhttps://www.clarin.com/politica/Roberto_Giubetich-Pablo_Grasso-Rio_Gallegos-intendencia_0_1511249097.html
p4
aVhttps://www.clarin.com/sociedad/detenidos-incendio-Alerces_0_1511249094.html
p5
aVhttps://www.clarin.com/sociedad/detenidos-incendio-Alerces_0_1511249094.html
p6
aVhttps://www.clarin.com/politica/Scioli-candidato-intendentes-Cacho-Castana_0_1511249088.html
p7
aVhttps://www.clarin.com/politica/Scioli-candidato-intendentes-Cacho-Castana_0_1511249088.html
p8
a.