(lp0
S'https://www.clarin.com/politica/Ex-subsecretarios-Energia-Aranguren-oposicion_0_1630637012.html'
p1
aS'https://www.clarin.com/politica/Ex-subsecretarios-Energia-Aranguren-oposicion_0_1630637012.html'
p2
aS'https://www.clarin.com/sociedad/Video-Pitu-Barrientos-agredio-conductor_0_1630637011.html'
p3
aS'https://www.clarin.com/sociedad/Video-Pitu-Barrientos-agredio-conductor_0_1630637011.html'
p4
aS'https://www.clarin.com/ieco/FMI-enciende-alarma-credito-China_0_1630637010.html'
p5
aS'https://www.clarin.com/ieco/FMI-enciende-alarma-credito-China_0_1630637010.html'
p6
aS'https://www.clarin.com/sociedad/Violacion-Recoleta-chicos-juegan-rugby_0_1630637006.html'
p7
aS'https://www.clarin.com/sociedad/Violacion-Recoleta-chicos-juegan-rugby_0_1630637006.html'
p8
aS'https://www.clarin.com/sociedad/Chicos-Natalia-Oreiro-Taller-Crianza_0_1630637003.html'
p9
aS'https://www.clarin.com/sociedad/Chicos-Natalia-Oreiro-Taller-Crianza_0_1630637003.html'
p10
aS'https://www.clarin.com/sociedad/millonario-italiano-cautivo-Tinelli-Papa_0_1630637002.html'
p11
aS'https://www.clarin.com/sociedad/millonario-italiano-cautivo-Tinelli-Papa_0_1630637002.html'
p12
aS'https://www.clarin.com/sociedad/Trasplante-record-anos-rinon_0_1630636994.html'
p13
aS'https://www.clarin.com/sociedad/Trasplante-record-anos-rinon_0_1630636994.html'
p14
aS'https://www.clarin.com/ieco/jubilaciones-subiran-septiembre_0_1630636997.html'
p15
aS'https://www.clarin.com/ieco/jubilaciones-subiran-septiembre_0_1630636997.html'
p16
a.