(lp0
S'https://www.clarin.com/politica/asociacion-Argentina-favorecer-embajador-Londres_0_1640236118.html'
p1
aS'https://www.clarin.com/sociedad/Suman-semanales-clases-escuelas-portenas_0_1640236119.html'
p2
aS'https://www.clarin.com/politica/Duras-criticas-movimientos-peronismo-fracaso_0_1640236124.html'
p3
aS'https://www.clarin.com/sociedad/Tuiteros-manejan-cuentas-oficiales-Argentina_0_1640236125.html'
p4
aS'https://www.clarin.com/politica/empanadas-mesa-Marcos_0_1640236110.html'
p5
aS'https://www.clarin.com/sociedad/cobertura-desigual-gran-deficit-Conurbano_0_1640236115.html'
p6
aS'https://www.clarin.com/sociedad/fin-visa-ir-Unidos-lejos_0_1640236112.html'
p7
aS'https://www.clarin.com/politica/Perez-Corradi-proteccion-gobierno-anterior_0_1640236122.html'
p8
aS'https://www.clarin.com/politica/queremos-crear-casta-funcionarios-privilegiados_0_1640236114.html'
p9
aS'https://www.clarin.com/sociedad/Detienen-hombre-mataba-martillazos-novia_0_1640236111.html'
p10
aS'https://www.clarin.com/politica/Gendarmeria-utilizaria-Baez-convertirlas-cuarteles_0_1640236123.html'
p11
aS'https://www.clarin.com/sociedad/mejora-relaciones-Argentina-destino-estadounidenses_0_1640236113.html'
p12
aS'https://www.clarin.com/sociedad/trabajaran-contenidos-aula-manera_0_1640236116.html'
p13
a.