(lp0
Vhttps://www.clarin.com/ieco/Axion-amplia-refineria-procesar-pesado_0_1576042434.html
p1
aVhttps://www.clarin.com/ieco/Pampa-Energia-activos-Petrobras-Argentina_0_1576042430.html
p2
aVhttps://www.clarin.com/ieco/Pampa-Energia-activos-Petrobras-Argentina_0_1576042430.html
p3
aVhttps://www.clarin.com/ieco/Francisco-lucha-pobreza-problema-economico_0_1576042428.html
p4
aVhttps://www.clarin.com/ieco/Francisco-lucha-pobreza-problema-economico_0_1576042428.html
p5
aVhttps://www.clarin.com/politica/Ahora-Bergman-Gualeguaychu-dialogara-asambleistas_0_1576042424.html
p6
aVhttps://www.clarin.com/politica/Ahora-Bergman-Gualeguaychu-dialogara-asambleistas_0_1576042424.html
p7
a.