(lp0
S'https://www.clarin.com/politica/acceso-informacion-publica-media-sancion_0_1579042261.html'
p1
aS'https://www.clarin.com/politica/feriado-Avanza-Congreso-proyecto-crearlo_0_1579042252.html'
p2
aS'https://www.clarin.com/sociedad/Alumnos-UCES-visitaron-Clarin_0_1579042260.html'
p3
aS'https://www.clarin.com/politica/canciller-Serra-Argentina-prioridad-Brasil_0_1579042151.html'
p4
a.