(lp0
Vhttps://www.clarin.com/opinion/inversiones-ahorro_interno-infraestructura-inflacion_0_1522047850.html
p1
aVhttps://www.clarin.com/sociedad/insolita-batalla-vecinos-inundacion_0_1521448298.html
p2
aVhttps://www.clarin.com/sociedad/descubrimiento-trabajo-sola-persona_0_1521448322.html
p3
aVhttps://www.clarin.com/sociedad/descubrimiento-trabajo-sola-persona_0_1521448322.html
p4
aVhttps://www.clarin.com/politica/Diputados-Luis_Beder_Herrera-PJ-Frente_para_la_Victoria_0_1522047842.html
p5
aVhttps://www.clarin.com/politica/Senado-Sergio_Massa-PJ_disidente-UNA_0_1522047841.html
p6
aVhttps://www.clarin.com/politica/precios-_inflacion-_en_el_bolsillo_0_1522047840.html
p7
aVhttps://www.clarin.com/ieco/economia/Gobierno-sigue-negociando-fondos-duros_0_1521448331.html
p8
a.