(lp0
S'https://www.clarin.com/ieco/economia/Frigerio-politica-cambiaria-controlada_0_1603639669.html'
p1
aS'https://www.clarin.com/sociedad/Cruz-Roja-disculpas-acusado-racista_0_1603639662.html'
p2
aS'https://www.clarin.com/sociedad/inaugurarlo-prueba-puente-vidrio-mundo_0_1603639656.html'
p3
aS'https://www.clarin.com/politica/Moyano-armo-spots-reclamar-Ganancias_0_1603639660.html'
p4
aS'https://www.clarin.com/politica/Macri-llamo-Messi-darle-consejo_0_1603639657.html'
p5
aS'https://www.clarin.com/ieco/economia/Luego-fuerte-salto-cotiza-estable_0_1603639661.html'
p6
a.