(lp0
Vhttps://www.clarin.com/politica/Macri-lanzo-cobertura-salud-social_0_1624637730.html
p1
aVhttps://www.clarin.com/ieco/Recuerdos-crisis-arranco-eliminacion-Patacones_0_1624637674.html
p2
aVhttps://www.clarin.com/ieco/Recuerdos-crisis-arranco-eliminacion-Patacones_0_1624637674.html
p3
aVhttps://www.clarin.com/politica/Corte-informe-Gobierno-tarifas-gas_0_1624637665.html
p4
aVhttps://www.clarin.com/politica/Corte-informe-Gobierno-tarifas-gas_0_1624637665.html
p5
aVhttps://www.clarin.com/ieco/economia/Banco-Central-tasa-quedo_0_1624637668.html
p6
aVhttps://www.clarin.com/ieco/economia/Banco-Central-tasa-quedo_0_1624637668.html
p7
aVhttps://www.clarin.com/ieco/Autos-inmuebles-brotes-verdes-parate_0_1624637662.html
p8
aVhttps://www.clarin.com/ieco/Autos-inmuebles-brotes-verdes-parate_0_1624637662.html
p9
aVhttps://www.clarin.com/politica/Duras-criticas-opositoras-diputados-tarifazo_0_1624637721.html
p10
aVhttps://www.clarin.com/politica/Duras-criticas-opositoras-diputados-tarifazo_0_1624637721.html
p11
aVhttps://www.clarin.com/politica/apuntan-reapertura-denuncia-Nisman-Cristina_0_1624637705.html
p12
aVhttps://www.clarin.com/politica/apuntan-reapertura-denuncia-Nisman-Cristina_0_1624637705.html
p13
aVhttps://www.clarin.com/opinion/dar-prioridad-fin-victimas-delitos_0_1624637666.html
p14
aVhttps://www.clarin.com/sociedad/calvario-Vanessa-miedo-vivir-preso_0_1624637723.html
p15
aVhttps://www.clarin.com/sociedad/calvario-Vanessa-miedo-vivir-preso_0_1624637723.html
p16
aVhttps://www.clarin.com/politica/cerca-reapertura-frente-judicial-presidenta_0_1624637701.html
p17
aVhttps://www.clarin.com/politica/cerca-reapertura-frente-judicial-presidenta_0_1624637701.html
p18
aVhttps://www.clarin.com/politica/Atravesar-agosto-desafio-Macri_0_1625237465.html
p19
a.