(lp0
S'https://www.clarin.com/opinion/Fernando_Soriano_0_1502249818.html'
p1
aS'https://www.clarin.com/politica/Martin_Lanatta-triple_crimen_de_la_efedrina-captura-fuga_0_1502249814.html'
p2
aS'https://www.clarin.com/ieco/banco-central-inflacion-sturzenegger-cepo-cambiario_0_1502249801.html'
p3
aS'https://www.clarin.com/politica/sergio_massa-maria_eugenia_vidal-gabriela_michetti-horacio_rodriguez_larreta_0_1502249800.html'
p4
aS'https://www.clarin.com/politica/sergio_massa-maria_eugenia_vidal-gabriela_michetti-horacio_rodriguez_larreta_0_1502249800.html'
p5
aS'https://www.clarin.com/opinion/Agencia_de_Evaluacion_de_Tecnologias_Sanitarias-Obras_Sociales-Prepagas-Salud_Publica_0_1502249791.html'
p6
aS'https://www.clarin.com/opinion/Agencia_de_Evaluacion_de_Tecnologias_Sanitarias-Obras_Sociales-Prepagas-Salud_Publica_0_1502249791.html'
p7
aS'https://www.clarin.com/opinion/Seguridad-Corrupcion-Abusos_policiales-Tribunal_Superior_0_1502249790.html'
p8
aS'https://www.clarin.com/politica/Fuga-Triple_Crimen_de_la_efedrina-Martin_Lanatta_0_1502249787.html'
p9
aS'https://www.clarin.com/politica/Fuga-Triple_Crimen_de_la_efedrina-Martin_Lanatta_0_1502249787.html'
p10
aS'https://www.clarin.com/politica/Cepo_al_dolar-Prat-Gay-BCRA-Reservas_0_1502249783.html'
p11
a.