(lp0
S'https://www.clarin.com/politica/delegacion-politicos-argentinos-numerosas-Washington_0_1683431841.html'
p1
aS'https://www.clarin.com/politica/PRO-dicen-campanas-buena_0_1683431845.html'
p2
aS'https://www.clarin.com/sociedad/quiero-hombres-elijan-pedazos-carne_0_1683431837.html'
p3
aS'https://www.clarin.com/sociedad/Sexto-Provincia-clases-millones-chicos_0_1683431834.html'
p4
aS'https://www.clarin.com/politica/Traicion-Patria-Timerman-seguira-investigacion_0_1683431822.html'
p5
aS'https://www.clarin.com/politica/gesto-opositor-Senado-inversiones-Macri_0_1683431833.html'
p6
aS'https://www.clarin.com/politica/Casacion-desistio-impulsar-denuncia-Nisman_0_1683431814.html'
p7
a.