(lp0
S'https://www.clarin.com/sociedad/Llega-aprender-ingles-manera-divertida_0_1631236970.html'
p1
aS'https://www.clarin.com/politica/Massa-queremos-corrupcion-ajuste_0_1631236960.html'
p2
aS'https://www.clarin.com/politica/Carrio-eliminar-AFI-investigacion-inteligencia_0_1631236948.html'
p3
aS'https://www.clarin.com/sociedad/amigos-quiere-relanzar-TV-infancia_0_1631236966.html'
p4
a.