(lp0
S'https://www.clarin.com/sociedad/Publicar-femicidios-hace_0_1677432325.html'
p1
aS'https://www.clarin.com/sociedad/bomberos-legendarios-entranable-historia-amor_0_1677432336.html'
p2
aS'https://www.clarin.com/sociedad/bomberos-legendarios-entranable-historia-amor_0_1677432336.html'
p3
aS'https://www.clarin.com/opinion/Futurismo-revolucion_0_1676832427.html'
p4
aS'https://www.clarin.com/opinion/Futurismo-revolucion_0_1676832427.html'
p5
aS'https://www.clarin.com/politica/Aduana-paralela-Minnicelli-atrapan-Palermo_0_1677432333.html'
p6
aS'https://www.clarin.com/politica/Aduana-paralela-Minnicelli-atrapan-Palermo_0_1677432333.html'
p7
aS'https://www.clarin.com/politica/Gobierno-pone-radical-coordinar-metropolitana_0_1677432306.html'
p8
aS'https://www.clarin.com/politica/Rio-Turbio-auditoria-Sigen-millones_0_1677432316.html'
p9
aS'https://www.clarin.com/politica/Rio-Turbio-auditoria-Sigen-millones_0_1677432316.html'
p10
aS'https://www.clarin.com/politica/Vido-compro-equipos-millonarios-nadie_0_1677432330.html'
p11
aS'https://www.clarin.com/politica/Vido-compro-equipos-millonarios-nadie_0_1677432330.html'
p12
aS'https://www.clarin.com/politica/semana-negra-Gobierno-alivio-Presupuesto_0_1677432327.html'
p13
aS'https://www.clarin.com/politica/semana-negra-Gobierno-alivio-Presupuesto_0_1677432327.html'
p14
aS'https://www.clarin.com/opinion/Tareas-Hillary-legado-Trump_0_1677432326.html'
p15
a.