(lp0
Vhttps://www.clarin.com/politica/Sel-reaparecio-Santa-Fe-candidato_0_1676232418.html
p1
aVhttps://www.clarin.com/politica/Sel-reaparecio-Santa-Fe-candidato_0_1676232418.html
p2
aVhttps://www.clarin.com/politica/Lorenzetti-corrupcion-existe-oscuridad_0_1676232454.html
p3
aVhttps://www.clarin.com/politica/Lorenzetti-corrupcion-existe-oscuridad_0_1676232454.html
p4
aVhttps://www.clarin.com/politica/empate-festejo-confusa-votacion-Diputados_0_1676232451.html
p5
aVhttps://www.clarin.com/politica/empate-festejo-confusa-votacion-Diputados_0_1676232451.html
p6
aVhttps://www.clarin.com/ieco/economia/Salto-acciones-San-Miguel-Ovoprot_0_1676232445.html
p7
aVhttps://www.clarin.com/ieco/economia/Salto-acciones-San-Miguel-Ovoprot_0_1676232445.html
p8
aVhttps://www.clarin.com/politica/Cristobal-Lopez-pedido-procesamiento-defraudacion_0_1676232441.html
p9
aVhttps://www.clarin.com/politica/Cristobal-Lopez-pedido-procesamiento-defraudacion_0_1676232441.html
p10
aVhttps://www.clarin.com/sociedad/pelo-cabeza-acompanar-amigas-cancer_0_1676232444.html
p11
aVhttps://www.clarin.com/sociedad/pelo-cabeza-acompanar-amigas-cancer_0_1676232444.html
p12
aVhttps://www.clarin.com/politica/Aduana-rechazan-eximicion-prision-Vido_0_1676232443.html
p13
aVhttps://www.clarin.com/politica/Aduana-rechazan-eximicion-prision-Vido_0_1676232443.html
p14
aVhttps://www.clarin.com/sociedad/llego-video-anos-belleza-argentina_0_1676232430.html
p15
aVhttps://www.clarin.com/sociedad/llego-video-anos-belleza-argentina_0_1676232430.html
p16
a.